(dp1
S'output'
p2
S"<class 'pyodbc.ProgrammingError'> ('42000', '[42000] [Microsoft][ODBC SQL Server Driver][SQL Server]Error converting data type nvarchar to int. (8114) (SQLExecDirectW)')"
p3
sS'layer'
p4
S'C:\\Users\\mellinja\\Documents\\SC2Tracker\\SC2TourneyTracker\\web2py\\applications\\welcome\\controllers/tournament.py'
p5
sS'code'
p6
S'# coding: utf8\n#\ndef index(): \n    #db = DAL(\'mssql://cheungkt:mechanes5@whale.cs.rose-hulman.edu/SC2tracker\')\n    tournies = db.executesql(\'SELECT Name, ID FROM Tournament\')\n    return dict(tournament = tournies)\n    \ndef show():\n    \n    tourny = db.executesql(\'SELECT * FROM Tournament WHERE ID = \' + str(request.args(0)))\n    form = FORM(INPUT( _type = \'submit\',_value="Join"))\n    if form.process().accepted:\n        response.flash = \'Joined the tournament!\'\n        pid = db.executesql(\'SELECT ID FROM Player WHERE ID = \' + str(auth.user_id))\n        db.executesql(\'EXEC player_to_tourney_sp \' + str(pid) + ", " + str(auth.user_id))\n    return dict(tourny = tourny,form = form)\n\n\ndef join():\n    \n    playerID = auth.user.ID\n    tournyID = request.args(0)\n    #TODO: add tourny\n    \n    redirect(URL(\'show/\'+request.args(0)))\n    response.flash = \'Joined the tournament\'\n    return dict(pid = request.args(0), message = \'Joined the tournament\')\n\nresponse._vars=response._caller(show)\n'
p7
sS'snapshot'
p8
(dp9
S'exception'
p10
(dp11
S'__module__'
p12
S"'pyodbc'"
p13
sS'__getslice__'
p14
S"<method-wrapper '__getslice__' of ProgrammingError object>"
p15
sS'__str__'
p16
S"<method-wrapper '__str__' of ProgrammingError object>"
p17
sS'__reduce__'
p18
S'<built-in method __reduce__ of ProgrammingError object>'
p19
sS'__dict__'
p20
S'{}'
p21
sS'__sizeof__'
p22
S'<built-in method __sizeof__ of ProgrammingError object>'
p23
sS'__weakref__'
p24
S'None'
p25
sS'__init__'
p26
S"<method-wrapper '__init__' of ProgrammingError object>"
p27
sS'__setattr__'
p28
S"<method-wrapper '__setattr__' of ProgrammingError object>"
p29
sS'__reduce_ex__'
p30
S'<built-in method __reduce_ex__ of ProgrammingError object>'
p31
sS'__new__'
p32
S'<built-in method __new__ of type object>'
p33
sS'__format__'
p34
S'<built-in method __format__ of ProgrammingError object>'
p35
sS'__class__'
p36
S"<class 'pyodbc.ProgrammingError'>"
p37
sS'__doc__'
p38
S"'Exception raised for programming errors, e.g. ta...ement, wrong number of parameters\\nspecified, etc.'"
p39
sS'__getitem__'
p40
S"<method-wrapper '__getitem__' of ProgrammingError object>"
p41
sS'__setstate__'
p42
S'<built-in method __setstate__ of ProgrammingError object>'
p43
sS'__getattribute__'
p44
S"<method-wrapper '__getattribute__' of ProgrammingError object>"
p45
sS'args'
p46
S"('42000', '[42000] [Microsoft][ODBC SQL Server Driver][SQL ...ata type nvarchar to int. (8114) (SQLExecDirectW)')"
p47
sS'__subclasshook__'
p48
S'<built-in method __subclasshook__ of type object>'
p49
sS'__unicode__'
p50
S'<built-in method __unicode__ of ProgrammingError object>'
p51
sS'__delattr__'
p52
S"<method-wrapper '__delattr__' of ProgrammingError object>"
p53
sS'__repr__'
p54
S"<method-wrapper '__repr__' of ProgrammingError object>"
p55
sS'__hash__'
p56
S"<method-wrapper '__hash__' of ProgrammingError object>"
p57
ssS'evalue'
p58
S"('42000', '[42000] [Microsoft][ODBC SQL Server Driver][SQL Server]Error converting data type nvarchar to int. (8114) (SQLExecDirectW)')"
p59
sS'request'
p60
ccopy_reg
_reconstructor
p61
(cgluon.html
BEAUTIFY
p62
c__builtin__
object
p63
NtRp64
(dp65
S'attributes'
p66
(dp67
sS'components'
p68
(lp69
g61
(cgluon.html
TABLE
p70
g63
NtRp71
(dp72
g66
(dp73
S'level'
p74
I5
ssS'parent'
p75
Nsg68
(lp76
g61
(cgluon.html
TR
p77
g63
NtRp78
(dp79
g66
(dp80
sg75
g71
sg68
(lp81
g61
(cgluon.html
TD
p82
g63
NtRp83
(dp84
g66
(dp85
S'_style'
p86
S'font-weight:bold;vertical-align:top'
p87
ssg75
g78
sg68
(lp88
S'ajax'
p89
asbag61
(g82
g63
NtRp90
(dp91
g66
(dp92
S'_valign'
p93
S'top'
p94
ssg75
g78
sg68
(lp95
S':'
asbag61
(g82
g63
NtRp96
(dp97
g66
(dp98
sg75
g78
sg68
(lp99
g61
(g62
g63
NtRp100
(dp101
g66
(dp102
g74
I5
ssg75
g96
sg68
(lp103
S'False'
p104
asbasbasbag61
(g77
g63
NtRp105
(dp106
g66
(dp107
sg75
g71
sg68
(lp108
g61
(g82
g63
NtRp109
(dp110
g66
(dp111
g86
g87
ssg75
g105
sg68
(lp112
S'application'
p113
asbag61
(g82
g63
NtRp114
(dp115
g66
(dp116
g93
g94
ssg75
g105
sg68
(lp117
S':'
asbag61
(g82
g63
NtRp118
(dp119
g66
(dp120
sg75
g105
sg68
(lp121
g61
(g62
g63
NtRp122
(dp123
g66
(dp124
g74
I5
ssg75
g118
sg68
(lp125
S'welcome'
p126
asbasbasbag61
(g77
g63
NtRp127
(dp128
g66
(dp129
sg75
g71
sg68
(lp130
g61
(g82
g63
NtRp131
(dp132
g66
(dp133
g86
g87
ssg75
g127
sg68
(lp134
g46
asbag61
(g82
g63
NtRp135
(dp136
g66
(dp137
g93
g94
ssg75
g127
sg68
(lp138
S':'
asbag61
(g82
g63
NtRp139
(dp140
g66
(dp141
sg75
g127
sg68
(lp142
g61
(g62
g63
NtRp143
(dp144
g66
(dp145
g74
I5
ssg75
g139
sg68
(lp146
g61
(g70
g63
NtRp147
(dp148
g66
(dp149
g74
I4
ssg75
Nsg68
(lp150
g61
(g77
g63
NtRp151
(dp152
g66
(dp153
sg75
g147
sg68
(lp154
g61
(g82
g63
NtRp155
(dp156
g66
(dp157
sg75
g151
sg68
(lp158
g61
(g62
g63
NtRp159
(dp160
g66
(dp161
g74
I4
ssg75
g155
sg68
(lp162
S'7'
asbasbasbasbasbasbasbag61
(g77
g63
NtRp163
(dp164
g66
(dp165
sg75
g71
sg68
(lp166
g61
(g82
g63
NtRp167
(dp168
g66
(dp169
g86
g87
ssg75
g163
sg68
(lp170
S'body'
p171
asbag61
(g82
g63
NtRp172
(dp173
g66
(dp174
g93
g94
ssg75
g163
sg68
(lp175
S':'
asbag61
(g82
g63
NtRp176
(dp177
g66
(dp178
sg75
g163
sg68
(lp179
g61
(g62
g63
NtRp180
(dp181
g66
(dp182
g74
I5
ssg75
g176
sg68
(lp183
S"<open file '<fdopen>', mode 'w+b' at 0x0000000009A948A0>"
p184
asbasbasbag61
(g77
g63
NtRp185
(dp186
g66
(dp187
sg75
g71
sg68
(lp188
g61
(g82
g63
NtRp189
(dp190
g66
(dp191
g86
g87
ssg75
g185
sg68
(lp192
S'client'
p193
asbag61
(g82
g63
NtRp194
(dp195
g66
(dp196
g93
g94
ssg75
g185
sg68
(lp197
S':'
asbag61
(g82
g63
NtRp198
(dp199
g66
(dp200
sg75
g185
sg68
(lp201
g61
(g62
g63
NtRp202
(dp203
g66
(dp204
g74
I5
ssg75
g198
sg68
(lp205
S'127.0.0.1'
p206
asbasbasbag61
(g77
g63
NtRp207
(dp208
g66
(dp209
sg75
g71
sg68
(lp210
g61
(g82
g63
NtRp211
(dp212
g66
(dp213
g86
g87
ssg75
g207
sg68
(lp214
S'controller'
p215
asbag61
(g82
g63
NtRp216
(dp217
g66
(dp218
g93
g94
ssg75
g207
sg68
(lp219
S':'
asbag61
(g82
g63
NtRp220
(dp221
g66
(dp222
sg75
g207
sg68
(lp223
g61
(g62
g63
NtRp224
(dp225
g66
(dp226
g74
I5
ssg75
g220
sg68
(lp227
S'tournament'
p228
asbasbasbag61
(g77
g63
NtRp229
(dp230
g66
(dp231
sg75
g71
sg68
(lp232
g61
(g82
g63
NtRp233
(dp234
g66
(dp235
g86
g87
ssg75
g229
sg68
(lp236
S'cookies'
p237
asbag61
(g82
g63
NtRp238
(dp239
g66
(dp240
g93
g94
ssg75
g229
sg68
(lp241
S':'
asbag61
(g82
g63
NtRp242
(dp243
g66
(dp244
sg75
g229
sg68
(lp245
g61
(g62
g63
NtRp246
(dp247
g66
(dp248
g74
I5
ssg75
g242
sg68
(lp249
g61
(g70
g63
NtRp250
(dp251
g66
(dp252
g74
I4
ssg75
Nsg68
(lp253
g61
(g77
g63
NtRp254
(dp255
g66
(dp256
sg75
g250
sg68
(lp257
g61
(g82
g63
NtRp258
(dp259
g66
(dp260
g86
g87
ssg75
g254
sg68
(lp261
S'session_id_admin'
p262
asbag61
(g82
g63
NtRp263
(dp264
g66
(dp265
g93
g94
ssg75
g254
sg68
(lp266
S':'
asbag61
(g82
g63
NtRp267
(dp268
g66
(dp269
sg75
g254
sg68
(lp270
g61
(g62
g63
NtRp271
(dp272
g66
(dp273
g74
I4
ssg75
g267
sg68
(lp274
g61
(g70
g63
NtRp275
(dp276
g66
(dp277
g74
I3
ssg75
Nsg68
(lp278
g61
(g77
g63
NtRp279
(dp280
g66
(dp281
sg75
g275
sg68
(lp282
g61
(g82
g63
NtRp283
(dp284
g66
(dp285
g86
g87
ssg75
g279
sg68
(lp286
S'comment'
p287
asbag61
(g82
g63
NtRp288
(dp289
g66
(dp290
g93
g94
ssg75
g279
sg68
(lp291
S':'
asbag61
(g82
g63
NtRp292
(dp293
g66
(dp294
sg75
g279
sg68
(lp295
g61
(g62
g63
NtRp296
(dp297
g66
(dp298
g74
I3
ssg75
g292
sg68
(lp299
S''
asbasbasbag61
(g77
g63
NtRp300
(dp301
g66
(dp302
sg75
g275
sg68
(lp303
g61
(g82
g63
NtRp304
(dp305
g66
(dp306
g86
g87
ssg75
g300
sg68
(lp307
S'domain'
p308
asbag61
(g82
g63
NtRp309
(dp310
g66
(dp311
g93
g94
ssg75
g300
sg68
(lp312
S':'
asbag61
(g82
g63
NtRp313
(dp314
g66
(dp315
sg75
g300
sg68
(lp316
g61
(g62
g63
NtRp317
(dp318
g66
(dp319
g74
I3
ssg75
g313
sg68
(lp320
S''
asbasbasbag61
(g77
g63
NtRp321
(dp322
g66
(dp323
sg75
g275
sg68
(lp324
g61
(g82
g63
NtRp325
(dp326
g66
(dp327
g86
g87
ssg75
g321
sg68
(lp328
S'expires'
p329
asbag61
(g82
g63
NtRp330
(dp331
g66
(dp332
g93
g94
ssg75
g321
sg68
(lp333
S':'
asbag61
(g82
g63
NtRp334
(dp335
g66
(dp336
sg75
g321
sg68
(lp337
g61
(g62
g63
NtRp338
(dp339
g66
(dp340
g74
I3
ssg75
g334
sg68
(lp341
S''
asbasbasbag61
(g77
g63
NtRp342
(dp343
g66
(dp344
sg75
g275
sg68
(lp345
g61
(g82
g63
NtRp346
(dp347
g66
(dp348
g86
g87
ssg75
g342
sg68
(lp349
S'httponly'
p350
asbag61
(g82
g63
NtRp351
(dp352
g66
(dp353
g93
g94
ssg75
g342
sg68
(lp354
S':'
asbag61
(g82
g63
NtRp355
(dp356
g66
(dp357
sg75
g342
sg68
(lp358
g61
(g62
g63
NtRp359
(dp360
g66
(dp361
g74
I3
ssg75
g355
sg68
(lp362
S''
asbasbasbag61
(g77
g63
NtRp363
(dp364
g66
(dp365
sg75
g275
sg68
(lp366
g61
(g82
g63
NtRp367
(dp368
g66
(dp369
g86
g87
ssg75
g363
sg68
(lp370
S'max-age'
p371
asbag61
(g82
g63
NtRp372
(dp373
g66
(dp374
g93
g94
ssg75
g363
sg68
(lp375
S':'
asbag61
(g82
g63
NtRp376
(dp377
g66
(dp378
sg75
g363
sg68
(lp379
g61
(g62
g63
NtRp380
(dp381
g66
(dp382
g74
I3
ssg75
g376
sg68
(lp383
S''
asbasbasbag61
(g77
g63
NtRp384
(dp385
g66
(dp386
sg75
g275
sg68
(lp387
g61
(g82
g63
NtRp388
(dp389
g66
(dp390
g86
g87
ssg75
g384
sg68
(lp391
S'path'
p392
asbag61
(g82
g63
NtRp393
(dp394
g66
(dp395
g93
g94
ssg75
g384
sg68
(lp396
S':'
asbag61
(g82
g63
NtRp397
(dp398
g66
(dp399
sg75
g384
sg68
(lp400
g61
(g62
g63
NtRp401
(dp402
g66
(dp403
g74
I3
ssg75
g397
sg68
(lp404
S''
asbasbasbag61
(g77
g63
NtRp405
(dp406
g66
(dp407
sg75
g275
sg68
(lp408
g61
(g82
g63
NtRp409
(dp410
g66
(dp411
g86
g87
ssg75
g405
sg68
(lp412
S'secure'
p413
asbag61
(g82
g63
NtRp414
(dp415
g66
(dp416
g93
g94
ssg75
g405
sg68
(lp417
S':'
asbag61
(g82
g63
NtRp418
(dp419
g66
(dp420
sg75
g405
sg68
(lp421
g61
(g62
g63
NtRp422
(dp423
g66
(dp424
g74
I3
ssg75
g418
sg68
(lp425
S''
asbasbasbag61
(g77
g63
NtRp426
(dp427
g66
(dp428
sg75
g275
sg68
(lp429
g61
(g82
g63
NtRp430
(dp431
g66
(dp432
g86
g87
ssg75
g426
sg68
(lp433
S'version'
p434
asbag61
(g82
g63
NtRp435
(dp436
g66
(dp437
g93
g94
ssg75
g426
sg68
(lp438
S':'
asbag61
(g82
g63
NtRp439
(dp440
g66
(dp441
sg75
g426
sg68
(lp442
g61
(g62
g63
NtRp443
(dp444
g66
(dp445
g74
I3
ssg75
g439
sg68
(lp446
S''
asbasbasbasbasbasbasbag61
(g77
g63
NtRp447
(dp448
g66
(dp449
sg75
g250
sg68
(lp450
g61
(g82
g63
NtRp451
(dp452
g66
(dp453
g86
g87
ssg75
g447
sg68
(lp454
S'session_id_welcome'
p455
asbag61
(g82
g63
NtRp456
(dp457
g66
(dp458
g93
g94
ssg75
g447
sg68
(lp459
S':'
asbag61
(g82
g63
NtRp460
(dp461
g66
(dp462
sg75
g447
sg68
(lp463
g61
(g62
g63
NtRp464
(dp465
g66
(dp466
g74
I4
ssg75
g460
sg68
(lp467
g61
(g70
g63
NtRp468
(dp469
g66
(dp470
g74
I3
ssg75
Nsg68
(lp471
g61
(g77
g63
NtRp472
(dp473
g66
(dp474
sg75
g468
sg68
(lp475
g61
(g82
g63
NtRp476
(dp477
g66
(dp478
g86
g87
ssg75
g472
sg68
(lp479
g287
asbag61
(g82
g63
NtRp480
(dp481
g66
(dp482
g93
g94
ssg75
g472
sg68
(lp483
S':'
asbag61
(g82
g63
NtRp484
(dp485
g66
(dp486
sg75
g472
sg68
(lp487
g61
(g62
g63
NtRp488
(dp489
g66
(dp490
g74
I3
ssg75
g484
sg68
(lp491
S''
asbasbasbag61
(g77
g63
NtRp492
(dp493
g66
(dp494
sg75
g468
sg68
(lp495
g61
(g82
g63
NtRp496
(dp497
g66
(dp498
g86
g87
ssg75
g492
sg68
(lp499
g308
asbag61
(g82
g63
NtRp500
(dp501
g66
(dp502
g93
g94
ssg75
g492
sg68
(lp503
S':'
asbag61
(g82
g63
NtRp504
(dp505
g66
(dp506
sg75
g492
sg68
(lp507
g61
(g62
g63
NtRp508
(dp509
g66
(dp510
g74
I3
ssg75
g504
sg68
(lp511
S''
asbasbasbag61
(g77
g63
NtRp512
(dp513
g66
(dp514
sg75
g468
sg68
(lp515
g61
(g82
g63
NtRp516
(dp517
g66
(dp518
g86
g87
ssg75
g512
sg68
(lp519
g329
asbag61
(g82
g63
NtRp520
(dp521
g66
(dp522
g93
g94
ssg75
g512
sg68
(lp523
S':'
asbag61
(g82
g63
NtRp524
(dp525
g66
(dp526
sg75
g512
sg68
(lp527
g61
(g62
g63
NtRp528
(dp529
g66
(dp530
g74
I3
ssg75
g524
sg68
(lp531
S''
asbasbasbag61
(g77
g63
NtRp532
(dp533
g66
(dp534
sg75
g468
sg68
(lp535
g61
(g82
g63
NtRp536
(dp537
g66
(dp538
g86
g87
ssg75
g532
sg68
(lp539
g350
asbag61
(g82
g63
NtRp540
(dp541
g66
(dp542
g93
g94
ssg75
g532
sg68
(lp543
S':'
asbag61
(g82
g63
NtRp544
(dp545
g66
(dp546
sg75
g532
sg68
(lp547
g61
(g62
g63
NtRp548
(dp549
g66
(dp550
g74
I3
ssg75
g544
sg68
(lp551
S''
asbasbasbag61
(g77
g63
NtRp552
(dp553
g66
(dp554
sg75
g468
sg68
(lp555
g61
(g82
g63
NtRp556
(dp557
g66
(dp558
g86
g87
ssg75
g552
sg68
(lp559
g371
asbag61
(g82
g63
NtRp560
(dp561
g66
(dp562
g93
g94
ssg75
g552
sg68
(lp563
S':'
asbag61
(g82
g63
NtRp564
(dp565
g66
(dp566
sg75
g552
sg68
(lp567
g61
(g62
g63
NtRp568
(dp569
g66
(dp570
g74
I3
ssg75
g564
sg68
(lp571
S''
asbasbasbag61
(g77
g63
NtRp572
(dp573
g66
(dp574
sg75
g468
sg68
(lp575
g61
(g82
g63
NtRp576
(dp577
g66
(dp578
g86
g87
ssg75
g572
sg68
(lp579
g392
asbag61
(g82
g63
NtRp580
(dp581
g66
(dp582
g93
g94
ssg75
g572
sg68
(lp583
S':'
asbag61
(g82
g63
NtRp584
(dp585
g66
(dp586
sg75
g572
sg68
(lp587
g61
(g62
g63
NtRp588
(dp589
g66
(dp590
g74
I3
ssg75
g584
sg68
(lp591
S''
asbasbasbag61
(g77
g63
NtRp592
(dp593
g66
(dp594
sg75
g468
sg68
(lp595
g61
(g82
g63
NtRp596
(dp597
g66
(dp598
g86
g87
ssg75
g592
sg68
(lp599
g413
asbag61
(g82
g63
NtRp600
(dp601
g66
(dp602
g93
g94
ssg75
g592
sg68
(lp603
S':'
asbag61
(g82
g63
NtRp604
(dp605
g66
(dp606
sg75
g592
sg68
(lp607
g61
(g62
g63
NtRp608
(dp609
g66
(dp610
g74
I3
ssg75
g604
sg68
(lp611
S''
asbasbasbag61
(g77
g63
NtRp612
(dp613
g66
(dp614
sg75
g468
sg68
(lp615
g61
(g82
g63
NtRp616
(dp617
g66
(dp618
g86
g87
ssg75
g612
sg68
(lp619
g434
asbag61
(g82
g63
NtRp620
(dp621
g66
(dp622
g93
g94
ssg75
g612
sg68
(lp623
S':'
asbag61
(g82
g63
NtRp624
(dp625
g66
(dp626
sg75
g612
sg68
(lp627
g61
(g62
g63
NtRp628
(dp629
g66
(dp630
g74
I3
ssg75
g624
sg68
(lp631
S''
asbasbasbasbasbasbasbasbasbasbasbag61
(g77
g63
NtRp632
(dp633
g66
(dp634
sg75
g71
sg68
(lp635
g61
(g82
g63
NtRp636
(dp637
g66
(dp638
g86
g87
ssg75
g632
sg68
(lp639
S'env'
p640
asbag61
(g82
g63
NtRp641
(dp642
g66
(dp643
g93
g94
ssg75
g632
sg68
(lp644
S':'
asbag61
(g82
g63
NtRp645
(dp646
g66
(dp647
sg75
g632
sg68
(lp648
g61
(g62
g63
NtRp649
(dp650
g66
(dp651
g74
I5
ssg75
g645
sg68
(lp652
g61
(g70
g63
NtRp653
(dp654
g66
(dp655
g74
I4
ssg75
Nsg68
(lp656
g61
(g77
g63
NtRp657
(dp658
g66
(dp659
sg75
g653
sg68
(lp660
g61
(g82
g63
NtRp661
(dp662
g66
(dp663
g86
g87
ssg75
g657
sg68
(lp664
S'app_folders'
p665
asbag61
(g82
g63
NtRp666
(dp667
g66
(dp668
g93
g94
ssg75
g657
sg68
(lp669
S':'
asbag61
(g82
g63
NtRp670
(dp671
g66
(dp672
sg75
g657
sg68
(lp673
g61
(g62
g63
NtRp674
(dp675
g66
(dp676
g74
I4
ssg75
g670
sg68
(lp677
S"set(['C:\\\\Users\\\\mellinja\\\\Documents\\\\SC2Tracker\\\\SC2TourneyTracker\\\\web2py\\\\applications\\\\welcome\\\\', 'C:\\\\Users\\\\mellinja\\\\Documents\\\\SC2Tracker\\\\SC2TourneyTracker\\\\web2py\\\\applications\\\\admin\\\\'])"
p678
asbasbasbag61
(g77
g63
NtRp679
(dp680
g66
(dp681
sg75
g653
sg68
(lp682
g61
(g82
g63
NtRp683
(dp684
g66
(dp685
g86
g87
ssg75
g679
sg68
(lp686
S'applications_parent'
p687
asbag61
(g82
g63
NtRp688
(dp689
g66
(dp690
g93
g94
ssg75
g679
sg68
(lp691
S':'
asbag61
(g82
g63
NtRp692
(dp693
g66
(dp694
sg75
g679
sg68
(lp695
g61
(g62
g63
NtRp696
(dp697
g66
(dp698
g74
I4
ssg75
g692
sg68
(lp699
S'C:\\Users\\mellinja\\Documents\\SC2Tracker\\SC2TourneyTracker\\web2py'
p700
asbasbasbag61
(g77
g63
NtRp701
(dp702
g66
(dp703
sg75
g653
sg68
(lp704
g61
(g82
g63
NtRp705
(dp706
g66
(dp707
g86
g87
ssg75
g701
sg68
(lp708
S'cmd_args'
p709
asbag61
(g82
g63
NtRp710
(dp711
g66
(dp712
g93
g94
ssg75
g701
sg68
(lp713
S':'
asbag61
(g82
g63
NtRp714
(dp715
g66
(dp716
sg75
g701
sg68
(lp717
g61
(g62
g63
NtRp718
(dp719
g66
(dp720
g74
I4
ssg75
g714
sg68
(lp721
g61
(g70
g63
NtRp722
(dp723
g66
(dp724
g74
I3
ssg75
Nsg68
(lp725
sbasbasbasbag61
(g77
g63
NtRp726
(dp727
g66
(dp728
sg75
g653
sg68
(lp729
g61
(g82
g63
NtRp730
(dp731
g66
(dp732
g86
g87
ssg75
g726
sg68
(lp733
S'cmd_options'
p734
asbag61
(g82
g63
NtRp735
(dp736
g66
(dp737
g93
g94
ssg75
g726
sg68
(lp738
S':'
asbag61
(g82
g63
NtRp739
(dp740
g66
(dp741
sg75
g726
sg68
(lp742
g61
(g62
g63
NtRp743
(dp744
g66
(dp745
g74
I4
ssg75
g739
sg68
(lp746
S"<Values at 0x391d5c8: {'verbose': False, 'ip': '127.0.0.1', 'shutdown_timeout': 5, 'taskbar': False, 'nocron': False, 'pid_filename': 'httpserver.pid', 'maxthreads': None, 'softcron': False, 'server_name': 'mellinja-PC', 'bpython': False, 'nogui': False, 'port': 8000, 'extcron': False, 'debuglevel': 30, 'test': None, 'folder': 'C:\\\\Users\\\\mellinja\\\\Documents\\\\SC2Tracker\\\\SC2TourneyTracker\\\\web2py', 'config': '', 'import_models': False, 'winservice': '', 'shell': None, 'run': '', 'log_filename': 'httpserver.log', 'args': [''], 'socket_timeout': 1, 'ssl_ca_certificate': None, 'scheduler': None, 'profiler_filename': None, 'ssl_private_key': '', 'password': '<ask>', 'request_queue_size': 5, 'ssl_certificate': '', 'cronjob': False, 'numthreads': None, 'quiet': False, 'interfaces': None, 'minthreads': None, 'timeout': 10, 'plain': False, 'nobanner': False}>"
p747
asbasbasbag61
(g77
g63
NtRp748
(dp749
g66
(dp750
sg75
g653
sg68
(lp751
g61
(g82
g63
NtRp752
(dp753
g66
(dp754
g86
g87
ssg75
g748
sg68
(lp755
S'content_length'
p756
asbag61
(g82
g63
NtRp757
(dp758
g66
(dp759
g93
g94
ssg75
g748
sg68
(lp760
S':'
asbag61
(g82
g63
NtRp761
(dp762
g66
(dp763
sg75
g748
sg68
(lp764
g61
(g62
g63
NtRp765
(dp766
g66
(dp767
g74
I4
ssg75
g761
sg68
(lp768
S'278'
p769
asbasbasbag61
(g77
g63
NtRp770
(dp771
g66
(dp772
sg75
g653
sg68
(lp773
g61
(g82
g63
NtRp774
(dp775
g66
(dp776
g86
g87
ssg75
g770
sg68
(lp777
S'content_type'
p778
asbag61
(g82
g63
NtRp779
(dp780
g66
(dp781
g93
g94
ssg75
g770
sg68
(lp782
S':'
asbag61
(g82
g63
NtRp783
(dp784
g66
(dp785
sg75
g770
sg68
(lp786
g61
(g62
g63
NtRp787
(dp788
g66
(dp789
g74
I4
ssg75
g783
sg68
(lp790
S'multipart/form-data; boundary=----WebKitFormBoundary8YYUK1voH190nNwn'
p791
asbasbasbag61
(g77
g63
NtRp792
(dp793
g66
(dp794
sg75
g653
sg68
(lp795
g61
(g82
g63
NtRp796
(dp797
g66
(dp798
g86
g87
ssg75
g792
sg68
(lp799
S'db_sessions'
p800
asbag61
(g82
g63
NtRp801
(dp802
g66
(dp803
g93
g94
ssg75
g792
sg68
(lp804
S':'
asbag61
(g82
g63
NtRp805
(dp806
g66
(dp807
sg75
g792
sg68
(lp808
g61
(g62
g63
NtRp809
(dp810
g66
(dp811
g74
I4
ssg75
g805
sg68
(lp812
S'set([])'
p813
asbasbasbag61
(g77
g63
NtRp814
(dp815
g66
(dp816
sg75
g653
sg68
(lp817
g61
(g82
g63
NtRp818
(dp819
g66
(dp820
g86
g87
ssg75
g814
sg68
(lp821
S'debugging'
p822
asbag61
(g82
g63
NtRp823
(dp824
g66
(dp825
g93
g94
ssg75
g814
sg68
(lp826
S':'
asbag61
(g82
g63
NtRp827
(dp828
g66
(dp829
sg75
g814
sg68
(lp830
g61
(g62
g63
NtRp831
(dp832
g66
(dp833
g74
I4
ssg75
g827
sg68
(lp834
g104
asbasbasbag61
(g77
g63
NtRp835
(dp836
g66
(dp837
sg75
g653
sg68
(lp838
g61
(g82
g63
NtRp839
(dp840
g66
(dp841
g86
g87
ssg75
g835
sg68
(lp842
S'gluon_parent'
p843
asbag61
(g82
g63
NtRp844
(dp845
g66
(dp846
g93
g94
ssg75
g835
sg68
(lp847
S':'
asbag61
(g82
g63
NtRp848
(dp849
g66
(dp850
sg75
g835
sg68
(lp851
g61
(g62
g63
NtRp852
(dp853
g66
(dp854
g74
I4
ssg75
g848
sg68
(lp855
S'C:\\Users\\mellinja\\Documents\\SC2Tracker\\SC2TourneyTracker\\web2py'
p856
asbasbasbag61
(g77
g63
NtRp857
(dp858
g66
(dp859
sg75
g653
sg68
(lp860
g61
(g82
g63
NtRp861
(dp862
g66
(dp863
g86
g87
ssg75
g857
sg68
(lp864
S'http_accept'
p865
asbag61
(g82
g63
NtRp866
(dp867
g66
(dp868
g93
g94
ssg75
g857
sg68
(lp869
S':'
asbag61
(g82
g63
NtRp870
(dp871
g66
(dp872
sg75
g857
sg68
(lp873
g61
(g62
g63
NtRp874
(dp875
g66
(dp876
g74
I4
ssg75
g870
sg68
(lp877
S'text/html,application/xhtml+xml,application/xml;q=0.9,*/*;q=0.8'
p878
asbasbasbag61
(g77
g63
NtRp879
(dp880
g66
(dp881
sg75
g653
sg68
(lp882
g61
(g82
g63
NtRp883
(dp884
g66
(dp885
g86
g87
ssg75
g879
sg68
(lp886
S'http_accept_charset'
p887
asbag61
(g82
g63
NtRp888
(dp889
g66
(dp890
g93
g94
ssg75
g879
sg68
(lp891
S':'
asbag61
(g82
g63
NtRp892
(dp893
g66
(dp894
sg75
g879
sg68
(lp895
g61
(g62
g63
NtRp896
(dp897
g66
(dp898
g74
I4
ssg75
g892
sg68
(lp899
S'ISO-8859-1,utf-8;q=0.7,*;q=0.3'
p900
asbasbasbag61
(g77
g63
NtRp901
(dp902
g66
(dp903
sg75
g653
sg68
(lp904
g61
(g82
g63
NtRp905
(dp906
g66
(dp907
g86
g87
ssg75
g901
sg68
(lp908
S'http_accept_encoding'
p909
asbag61
(g82
g63
NtRp910
(dp911
g66
(dp912
g93
g94
ssg75
g901
sg68
(lp913
S':'
asbag61
(g82
g63
NtRp914
(dp915
g66
(dp916
sg75
g901
sg68
(lp917
g61
(g62
g63
NtRp918
(dp919
g66
(dp920
g74
I4
ssg75
g914
sg68
(lp921
S'gzip,deflate,sdch'
p922
asbasbasbag61
(g77
g63
NtRp923
(dp924
g66
(dp925
sg75
g653
sg68
(lp926
g61
(g82
g63
NtRp927
(dp928
g66
(dp929
g86
g87
ssg75
g923
sg68
(lp930
S'http_accept_language'
p931
asbag61
(g82
g63
NtRp932
(dp933
g66
(dp934
g93
g94
ssg75
g923
sg68
(lp935
S':'
asbag61
(g82
g63
NtRp936
(dp937
g66
(dp938
sg75
g923
sg68
(lp939
g61
(g62
g63
NtRp940
(dp941
g66
(dp942
g74
I4
ssg75
g936
sg68
(lp943
S'en-US,en;q=0.8'
p944
asbasbasbag61
(g77
g63
NtRp945
(dp946
g66
(dp947
sg75
g653
sg68
(lp948
g61
(g82
g63
NtRp949
(dp950
g66
(dp951
g86
g87
ssg75
g945
sg68
(lp952
S'http_cache_control'
p953
asbag61
(g82
g63
NtRp954
(dp955
g66
(dp956
g93
g94
ssg75
g945
sg68
(lp957
S':'
asbag61
(g82
g63
NtRp958
(dp959
g66
(dp960
sg75
g945
sg68
(lp961
g61
(g62
g63
NtRp962
(dp963
g66
(dp964
g74
I4
ssg75
g958
sg68
(lp965
S'max-age=0'
p966
asbasbasbag61
(g77
g63
NtRp967
(dp968
g66
(dp969
sg75
g653
sg68
(lp970
g61
(g82
g63
NtRp971
(dp972
g66
(dp973
g86
g87
ssg75
g967
sg68
(lp974
S'http_connection'
p975
asbag61
(g82
g63
NtRp976
(dp977
g66
(dp978
g93
g94
ssg75
g967
sg68
(lp979
S':'
asbag61
(g82
g63
NtRp980
(dp981
g66
(dp982
sg75
g967
sg68
(lp983
g61
(g62
g63
NtRp984
(dp985
g66
(dp986
g74
I4
ssg75
g980
sg68
(lp987
S'keep-alive'
p988
asbasbasbag61
(g77
g63
NtRp989
(dp990
g66
(dp991
sg75
g653
sg68
(lp992
g61
(g82
g63
NtRp993
(dp994
g66
(dp995
g86
g87
ssg75
g989
sg68
(lp996
S'http_content_length'
p997
asbag61
(g82
g63
NtRp998
(dp999
g66
(dp1000
g93
g94
ssg75
g989
sg68
(lp1001
S':'
asbag61
(g82
g63
NtRp1002
(dp1003
g66
(dp1004
sg75
g989
sg68
(lp1005
g61
(g62
g63
NtRp1006
(dp1007
g66
(dp1008
g74
I4
ssg75
g1002
sg68
(lp1009
g769
asbasbasbag61
(g77
g63
NtRp1010
(dp1011
g66
(dp1012
sg75
g653
sg68
(lp1013
g61
(g82
g63
NtRp1014
(dp1015
g66
(dp1016
g86
g87
ssg75
g1010
sg68
(lp1017
S'http_content_type'
p1018
asbag61
(g82
g63
NtRp1019
(dp1020
g66
(dp1021
g93
g94
ssg75
g1010
sg68
(lp1022
S':'
asbag61
(g82
g63
NtRp1023
(dp1024
g66
(dp1025
sg75
g1010
sg68
(lp1026
g61
(g62
g63
NtRp1027
(dp1028
g66
(dp1029
g74
I4
ssg75
g1023
sg68
(lp1030
g791
asbasbasbag61
(g77
g63
NtRp1031
(dp1032
g66
(dp1033
sg75
g653
sg68
(lp1034
g61
(g82
g63
NtRp1035
(dp1036
g66
(dp1037
g86
g87
ssg75
g1031
sg68
(lp1038
S'http_cookie'
p1039
asbag61
(g82
g63
NtRp1040
(dp1041
g66
(dp1042
g93
g94
ssg75
g1031
sg68
(lp1043
S':'
asbag61
(g82
g63
NtRp1044
(dp1045
g66
(dp1046
sg75
g1031
sg68
(lp1047
g61
(g62
g63
NtRp1048
(dp1049
g66
(dp1050
g74
I4
ssg75
g1044
sg68
(lp1051
S'session_id_admin=127.0.0.1-b47b53ba-13cb-4e89-884f-d4f0a6a5c149; session_id_welcome=127.0.0.1-3577bb45-b3be-4c0f-be7b-edc2ad5f937c'
p1052
asbasbasbag61
(g77
g63
NtRp1053
(dp1054
g66
(dp1055
sg75
g653
sg68
(lp1056
g61
(g82
g63
NtRp1057
(dp1058
g66
(dp1059
g86
g87
ssg75
g1053
sg68
(lp1060
S'http_host'
p1061
asbag61
(g82
g63
NtRp1062
(dp1063
g66
(dp1064
g93
g94
ssg75
g1053
sg68
(lp1065
S':'
asbag61
(g82
g63
NtRp1066
(dp1067
g66
(dp1068
sg75
g1053
sg68
(lp1069
g61
(g62
g63
NtRp1070
(dp1071
g66
(dp1072
g74
I4
ssg75
g1066
sg68
(lp1073
S'127.0.0.1:8000'
p1074
asbasbasbag61
(g77
g63
NtRp1075
(dp1076
g66
(dp1077
sg75
g653
sg68
(lp1078
g61
(g82
g63
NtRp1079
(dp1080
g66
(dp1081
g86
g87
ssg75
g1075
sg68
(lp1082
S'http_origin'
p1083
asbag61
(g82
g63
NtRp1084
(dp1085
g66
(dp1086
g93
g94
ssg75
g1075
sg68
(lp1087
S':'
asbag61
(g82
g63
NtRp1088
(dp1089
g66
(dp1090
sg75
g1075
sg68
(lp1091
g61
(g62
g63
NtRp1092
(dp1093
g66
(dp1094
g74
I4
ssg75
g1088
sg68
(lp1095
S'http://127.0.0.1:8000'
p1096
asbasbasbag61
(g77
g63
NtRp1097
(dp1098
g66
(dp1099
sg75
g653
sg68
(lp1100
g61
(g82
g63
NtRp1101
(dp1102
g66
(dp1103
g86
g87
ssg75
g1097
sg68
(lp1104
S'http_referer'
p1105
asbag61
(g82
g63
NtRp1106
(dp1107
g66
(dp1108
g93
g94
ssg75
g1097
sg68
(lp1109
S':'
asbag61
(g82
g63
NtRp1110
(dp1111
g66
(dp1112
sg75
g1097
sg68
(lp1113
g61
(g62
g63
NtRp1114
(dp1115
g66
(dp1116
g74
I4
ssg75
g1110
sg68
(lp1117
S'http://127.0.0.1:8000/welcome/tournament/show/7'
p1118
asbasbasbag61
(g77
g63
NtRp1119
(dp1120
g66
(dp1121
sg75
g653
sg68
(lp1122
g61
(g82
g63
NtRp1123
(dp1124
g66
(dp1125
g86
g87
ssg75
g1119
sg68
(lp1126
S'http_user_agent'
p1127
asbag61
(g82
g63
NtRp1128
(dp1129
g66
(dp1130
g93
g94
ssg75
g1119
sg68
(lp1131
S':'
asbag61
(g82
g63
NtRp1132
(dp1133
g66
(dp1134
sg75
g1119
sg68
(lp1135
g61
(g62
g63
NtRp1136
(dp1137
g66
(dp1138
g74
I4
ssg75
g1132
sg68
(lp1139
S'Mozilla/5.0 (Windows NT 6.1; WOW64) AppleWebKit/535.7 (KHTML, like Gecko) Chrome/16.0.912.77 Safari/535.7'
p1140
asbasbasbag61
(g77
g63
NtRp1141
(dp1142
g66
(dp1143
sg75
g653
sg68
(lp1144
g61
(g82
g63
NtRp1145
(dp1146
g66
(dp1147
g86
g87
ssg75
g1141
sg68
(lp1148
S'is_jython'
p1149
asbag61
(g82
g63
NtRp1150
(dp1151
g66
(dp1152
g93
g94
ssg75
g1141
sg68
(lp1153
S':'
asbag61
(g82
g63
NtRp1154
(dp1155
g66
(dp1156
sg75
g1141
sg68
(lp1157
g61
(g62
g63
NtRp1158
(dp1159
g66
(dp1160
g74
I4
ssg75
g1154
sg68
(lp1161
g104
asbasbasbag61
(g77
g63
NtRp1162
(dp1163
g66
(dp1164
sg75
g653
sg68
(lp1165
g61
(g82
g63
NtRp1166
(dp1167
g66
(dp1168
g86
g87
ssg75
g1162
sg68
(lp1169
S'is_pypy'
p1170
asbag61
(g82
g63
NtRp1171
(dp1172
g66
(dp1173
g93
g94
ssg75
g1162
sg68
(lp1174
S':'
asbag61
(g82
g63
NtRp1175
(dp1176
g66
(dp1177
sg75
g1162
sg68
(lp1178
g61
(g62
g63
NtRp1179
(dp1180
g66
(dp1181
g74
I4
ssg75
g1175
sg68
(lp1182
g104
asbasbasbag61
(g77
g63
NtRp1183
(dp1184
g66
(dp1185
sg75
g653
sg68
(lp1186
g61
(g82
g63
NtRp1187
(dp1188
g66
(dp1189
g86
g87
ssg75
g1183
sg68
(lp1190
S'path_info'
p1191
asbag61
(g82
g63
NtRp1192
(dp1193
g66
(dp1194
g93
g94
ssg75
g1183
sg68
(lp1195
S':'
asbag61
(g82
g63
NtRp1196
(dp1197
g66
(dp1198
sg75
g1183
sg68
(lp1199
g61
(g62
g63
NtRp1200
(dp1201
g66
(dp1202
g74
I4
ssg75
g1196
sg68
(lp1203
S'/welcome/tournament/show/7'
p1204
asbasbasbag61
(g77
g63
NtRp1205
(dp1206
g66
(dp1207
sg75
g653
sg68
(lp1208
g61
(g82
g63
NtRp1209
(dp1210
g66
(dp1211
g86
g87
ssg75
g1205
sg68
(lp1212
S'query_string'
p1213
asbag61
(g82
g63
NtRp1214
(dp1215
g66
(dp1216
g93
g94
ssg75
g1205
sg68
(lp1217
S':'
asbag61
(g82
g63
NtRp1218
(dp1219
g66
(dp1220
sg75
g1205
sg68
(lp1221
g61
(g62
g63
NtRp1222
(dp1223
g66
(dp1224
g74
I4
ssg75
g1218
sg68
(lp1225
S''
asbasbasbag61
(g77
g63
NtRp1226
(dp1227
g66
(dp1228
sg75
g653
sg68
(lp1229
g61
(g82
g63
NtRp1230
(dp1231
g66
(dp1232
g86
g87
ssg75
g1226
sg68
(lp1233
S'remote_addr'
p1234
asbag61
(g82
g63
NtRp1235
(dp1236
g66
(dp1237
g93
g94
ssg75
g1226
sg68
(lp1238
S':'
asbag61
(g82
g63
NtRp1239
(dp1240
g66
(dp1241
sg75
g1226
sg68
(lp1242
g61
(g62
g63
NtRp1243
(dp1244
g66
(dp1245
g74
I4
ssg75
g1239
sg68
(lp1246
g206
asbasbasbag61
(g77
g63
NtRp1247
(dp1248
g66
(dp1249
sg75
g653
sg68
(lp1250
g61
(g82
g63
NtRp1251
(dp1252
g66
(dp1253
g86
g87
ssg75
g1247
sg68
(lp1254
S'remote_port'
p1255
asbag61
(g82
g63
NtRp1256
(dp1257
g66
(dp1258
g93
g94
ssg75
g1247
sg68
(lp1259
S':'
asbag61
(g82
g63
NtRp1260
(dp1261
g66
(dp1262
sg75
g1247
sg68
(lp1263
g61
(g62
g63
NtRp1264
(dp1265
g66
(dp1266
g74
I4
ssg75
g1260
sg68
(lp1267
S'49954'
p1268
asbasbasbag61
(g77
g63
NtRp1269
(dp1270
g66
(dp1271
sg75
g653
sg68
(lp1272
g61
(g82
g63
NtRp1273
(dp1274
g66
(dp1275
g86
g87
ssg75
g1269
sg68
(lp1276
S'request_method'
p1277
asbag61
(g82
g63
NtRp1278
(dp1279
g66
(dp1280
g93
g94
ssg75
g1269
sg68
(lp1281
S':'
asbag61
(g82
g63
NtRp1282
(dp1283
g66
(dp1284
sg75
g1269
sg68
(lp1285
g61
(g62
g63
NtRp1286
(dp1287
g66
(dp1288
g74
I4
ssg75
g1282
sg68
(lp1289
S'POST'
p1290
asbasbasbag61
(g77
g63
NtRp1291
(dp1292
g66
(dp1293
sg75
g653
sg68
(lp1294
g61
(g82
g63
NtRp1295
(dp1296
g66
(dp1297
g86
g87
ssg75
g1291
sg68
(lp1298
S'script_name'
p1299
asbag61
(g82
g63
NtRp1300
(dp1301
g66
(dp1302
g93
g94
ssg75
g1291
sg68
(lp1303
S':'
asbag61
(g82
g63
NtRp1304
(dp1305
g66
(dp1306
sg75
g1291
sg68
(lp1307
g61
(g62
g63
NtRp1308
(dp1309
g66
(dp1310
g74
I4
ssg75
g1304
sg68
(lp1311
S''
asbasbasbag61
(g77
g63
NtRp1312
(dp1313
g66
(dp1314
sg75
g653
sg68
(lp1315
g61
(g82
g63
NtRp1316
(dp1317
g66
(dp1318
g86
g87
ssg75
g1312
sg68
(lp1319
S'server_name'
p1320
asbag61
(g82
g63
NtRp1321
(dp1322
g66
(dp1323
g93
g94
ssg75
g1312
sg68
(lp1324
S':'
asbag61
(g82
g63
NtRp1325
(dp1326
g66
(dp1327
sg75
g1312
sg68
(lp1328
g61
(g62
g63
NtRp1329
(dp1330
g66
(dp1331
g74
I4
ssg75
g1325
sg68
(lp1332
S'mellinja-PC'
p1333
asbasbasbag61
(g77
g63
NtRp1334
(dp1335
g66
(dp1336
sg75
g653
sg68
(lp1337
g61
(g82
g63
NtRp1338
(dp1339
g66
(dp1340
g86
g87
ssg75
g1334
sg68
(lp1341
S'server_port'
p1342
asbag61
(g82
g63
NtRp1343
(dp1344
g66
(dp1345
g93
g94
ssg75
g1334
sg68
(lp1346
S':'
asbag61
(g82
g63
NtRp1347
(dp1348
g66
(dp1349
sg75
g1334
sg68
(lp1350
g61
(g62
g63
NtRp1351
(dp1352
g66
(dp1353
g74
I4
ssg75
g1347
sg68
(lp1354
S'8000'
p1355
asbasbasbag61
(g77
g63
NtRp1356
(dp1357
g66
(dp1358
sg75
g653
sg68
(lp1359
g61
(g82
g63
NtRp1360
(dp1361
g66
(dp1362
g86
g87
ssg75
g1356
sg68
(lp1363
S'server_protocol'
p1364
asbag61
(g82
g63
NtRp1365
(dp1366
g66
(dp1367
g93
g94
ssg75
g1356
sg68
(lp1368
S':'
asbag61
(g82
g63
NtRp1369
(dp1370
g66
(dp1371
sg75
g1356
sg68
(lp1372
g61
(g62
g63
NtRp1373
(dp1374
g66
(dp1375
g74
I4
ssg75
g1369
sg68
(lp1376
S'HTTP/1.1'
p1377
asbasbasbag61
(g77
g63
NtRp1378
(dp1379
g66
(dp1380
sg75
g653
sg68
(lp1381
g61
(g82
g63
NtRp1382
(dp1383
g66
(dp1384
g86
g87
ssg75
g1378
sg68
(lp1385
S'server_software'
p1386
asbag61
(g82
g63
NtRp1387
(dp1388
g66
(dp1389
g93
g94
ssg75
g1378
sg68
(lp1390
S':'
asbag61
(g82
g63
NtRp1391
(dp1392
g66
(dp1393
sg75
g1378
sg68
(lp1394
g61
(g62
g63
NtRp1395
(dp1396
g66
(dp1397
g74
I4
ssg75
g1391
sg68
(lp1398
S'Rocket 1.2.4'
p1399
asbasbasbag61
(g77
g63
NtRp1400
(dp1401
g66
(dp1402
sg75
g653
sg68
(lp1403
g61
(g82
g63
NtRp1404
(dp1405
g66
(dp1406
g86
g87
ssg75
g1400
sg68
(lp1407
S'web2py_crontype'
p1408
asbag61
(g82
g63
NtRp1409
(dp1410
g66
(dp1411
g93
g94
ssg75
g1400
sg68
(lp1412
S':'
asbag61
(g82
g63
NtRp1413
(dp1414
g66
(dp1415
sg75
g1400
sg68
(lp1416
g61
(g62
g63
NtRp1417
(dp1418
g66
(dp1419
g74
I4
ssg75
g1413
sg68
(lp1420
S'hard'
p1421
asbasbasbag61
(g77
g63
NtRp1422
(dp1423
g66
(dp1424
sg75
g653
sg68
(lp1425
g61
(g82
g63
NtRp1426
(dp1427
g66
(dp1428
g86
g87
ssg75
g1422
sg68
(lp1429
S'web2py_path'
p1430
asbag61
(g82
g63
NtRp1431
(dp1432
g66
(dp1433
g93
g94
ssg75
g1422
sg68
(lp1434
S':'
asbag61
(g82
g63
NtRp1435
(dp1436
g66
(dp1437
sg75
g1422
sg68
(lp1438
g61
(g62
g63
NtRp1439
(dp1440
g66
(dp1441
g74
I4
ssg75
g1435
sg68
(lp1442
g700
asbasbasbag61
(g77
g63
NtRp1443
(dp1444
g66
(dp1445
sg75
g653
sg68
(lp1446
g61
(g82
g63
NtRp1447
(dp1448
g66
(dp1449
g86
g87
ssg75
g1443
sg68
(lp1450
S'web2py_version'
p1451
asbag61
(g82
g63
NtRp1452
(dp1453
g66
(dp1454
g93
g94
ssg75
g1443
sg68
(lp1455
S':'
asbag61
(g82
g63
NtRp1456
(dp1457
g66
(dp1458
sg75
g1443
sg68
(lp1459
g61
(g62
g63
NtRp1460
(dp1461
g66
(dp1462
g74
I4
ssg75
g1456
sg68
(lp1463
g61
(g70
g63
NtRp1464
(dp1465
g66
(dp1466
g74
I3
ssg75
Nsg68
(lp1467
g61
(g77
g63
NtRp1468
(dp1469
g66
(dp1470
sg75
g1464
sg68
(lp1471
g61
(g82
g63
NtRp1472
(dp1473
g66
(dp1474
sg75
g1468
sg68
(lp1475
g61
(g62
g63
NtRp1476
(dp1477
g66
(dp1478
g74
I3
ssg75
g1472
sg68
(lp1479
S'1'
asbasbasbag61
(g77
g63
NtRp1480
(dp1481
g66
(dp1482
sg75
g1464
sg68
(lp1483
g61
(g82
g63
NtRp1484
(dp1485
g66
(dp1486
sg75
g1480
sg68
(lp1487
g61
(g62
g63
NtRp1488
(dp1489
g66
(dp1490
g74
I3
ssg75
g1484
sg68
(lp1491
S'99'
p1492
asbasbasbag61
(g77
g63
NtRp1493
(dp1494
g66
(dp1495
sg75
g1464
sg68
(lp1496
g61
(g82
g63
NtRp1497
(dp1498
g66
(dp1499
sg75
g1493
sg68
(lp1500
g61
(g62
g63
NtRp1501
(dp1502
g66
(dp1503
g74
I3
ssg75
g1497
sg68
(lp1504
S'4'
asbasbasbag61
(g77
g63
NtRp1505
(dp1506
g66
(dp1507
sg75
g1464
sg68
(lp1508
g61
(g82
g63
NtRp1509
(dp1510
g66
(dp1511
sg75
g1505
sg68
(lp1512
g61
(g62
g63
NtRp1513
(dp1514
g66
(dp1515
g74
I3
ssg75
g1509
sg68
(lp1516
S'datetime.datetime(2011, 12, 14, 14, 46, 14)'
p1517
asbasbasbag61
(g77
g63
NtRp1518
(dp1519
g66
(dp1520
sg75
g1464
sg68
(lp1521
g61
(g82
g63
NtRp1522
(dp1523
g66
(dp1524
sg75
g1518
sg68
(lp1525
g61
(g62
g63
NtRp1526
(dp1527
g66
(dp1528
g74
I3
ssg75
g1522
sg68
(lp1529
S'stable'
p1530
asbasbasbasbasbasbasbag61
(g77
g63
NtRp1531
(dp1532
g66
(dp1533
sg75
g653
sg68
(lp1534
g61
(g82
g63
NtRp1535
(dp1536
g66
(dp1537
g86
g87
ssg75
g1531
sg68
(lp1538
S'wsgi_errors'
p1539
asbag61
(g82
g63
NtRp1540
(dp1541
g66
(dp1542
g93
g94
ssg75
g1531
sg68
(lp1543
S':'
asbag61
(g82
g63
NtRp1544
(dp1545
g66
(dp1546
sg75
g1531
sg68
(lp1547
g61
(g62
g63
NtRp1548
(dp1549
g66
(dp1550
g74
I4
ssg75
g1544
sg68
(lp1551
S"<open file '<stderr>', mode 'w' at 0x00000000020161E0>"
p1552
asbasbasbag61
(g77
g63
NtRp1553
(dp1554
g66
(dp1555
sg75
g653
sg68
(lp1556
g61
(g82
g63
NtRp1557
(dp1558
g66
(dp1559
g86
g87
ssg75
g1553
sg68
(lp1560
S'wsgi_file_wrapper'
p1561
asbag61
(g82
g63
NtRp1562
(dp1563
g66
(dp1564
g93
g94
ssg75
g1553
sg68
(lp1565
S':'
asbag61
(g82
g63
NtRp1566
(dp1567
g66
(dp1568
sg75
g1553
sg68
(lp1569
g61
(g62
g63
NtRp1570
(dp1571
g66
(dp1572
g74
I4
ssg75
g1566
sg68
(lp1573
S'<class wsgiref.util.FileWrapper at 0x000000000380D828>'
p1574
asbasbasbag61
(g77
g63
NtRp1575
(dp1576
g66
(dp1577
sg75
g653
sg68
(lp1578
g61
(g82
g63
NtRp1579
(dp1580
g66
(dp1581
g86
g87
ssg75
g1575
sg68
(lp1582
S'wsgi_input'
p1583
asbag61
(g82
g63
NtRp1584
(dp1585
g66
(dp1586
g93
g94
ssg75
g1575
sg68
(lp1587
S':'
asbag61
(g82
g63
NtRp1588
(dp1589
g66
(dp1590
sg75
g1575
sg68
(lp1591
g61
(g62
g63
NtRp1592
(dp1593
g66
(dp1594
g74
I4
ssg75
g1588
sg68
(lp1595
S'<socket._fileobject object at 0x000000000A193570>'
p1596
asbasbasbag61
(g77
g63
NtRp1597
(dp1598
g66
(dp1599
sg75
g653
sg68
(lp1600
g61
(g82
g63
NtRp1601
(dp1602
g66
(dp1603
g86
g87
ssg75
g1597
sg68
(lp1604
S'wsgi_multiprocess'
p1605
asbag61
(g82
g63
NtRp1606
(dp1607
g66
(dp1608
g93
g94
ssg75
g1597
sg68
(lp1609
S':'
asbag61
(g82
g63
NtRp1610
(dp1611
g66
(dp1612
sg75
g1597
sg68
(lp1613
g61
(g62
g63
NtRp1614
(dp1615
g66
(dp1616
g74
I4
ssg75
g1610
sg68
(lp1617
g104
asbasbasbag61
(g77
g63
NtRp1618
(dp1619
g66
(dp1620
sg75
g653
sg68
(lp1621
g61
(g82
g63
NtRp1622
(dp1623
g66
(dp1624
g86
g87
ssg75
g1618
sg68
(lp1625
S'wsgi_multithread'
p1626
asbag61
(g82
g63
NtRp1627
(dp1628
g66
(dp1629
g93
g94
ssg75
g1618
sg68
(lp1630
S':'
asbag61
(g82
g63
NtRp1631
(dp1632
g66
(dp1633
sg75
g1618
sg68
(lp1634
g61
(g62
g63
NtRp1635
(dp1636
g66
(dp1637
g74
I4
ssg75
g1631
sg68
(lp1638
S'True'
p1639
asbasbasbag61
(g77
g63
NtRp1640
(dp1641
g66
(dp1642
sg75
g653
sg68
(lp1643
g61
(g82
g63
NtRp1644
(dp1645
g66
(dp1646
g86
g87
ssg75
g1640
sg68
(lp1647
S'wsgi_run_once'
p1648
asbag61
(g82
g63
NtRp1649
(dp1650
g66
(dp1651
g93
g94
ssg75
g1640
sg68
(lp1652
S':'
asbag61
(g82
g63
NtRp1653
(dp1654
g66
(dp1655
sg75
g1640
sg68
(lp1656
g61
(g62
g63
NtRp1657
(dp1658
g66
(dp1659
g74
I4
ssg75
g1653
sg68
(lp1660
g104
asbasbasbag61
(g77
g63
NtRp1661
(dp1662
g66
(dp1663
sg75
g653
sg68
(lp1664
g61
(g82
g63
NtRp1665
(dp1666
g66
(dp1667
g86
g87
ssg75
g1661
sg68
(lp1668
S'wsgi_url_scheme'
p1669
asbag61
(g82
g63
NtRp1670
(dp1671
g66
(dp1672
g93
g94
ssg75
g1661
sg68
(lp1673
S':'
asbag61
(g82
g63
NtRp1674
(dp1675
g66
(dp1676
sg75
g1661
sg68
(lp1677
g61
(g62
g63
NtRp1678
(dp1679
g66
(dp1680
g74
I4
ssg75
g1674
sg68
(lp1681
S'http'
p1682
asbasbasbag61
(g77
g63
NtRp1683
(dp1684
g66
(dp1685
sg75
g653
sg68
(lp1686
g61
(g82
g63
NtRp1687
(dp1688
g66
(dp1689
g86
g87
ssg75
g1683
sg68
(lp1690
S'wsgi_version'
p1691
asbag61
(g82
g63
NtRp1692
(dp1693
g66
(dp1694
g93
g94
ssg75
g1683
sg68
(lp1695
S':'
asbag61
(g82
g63
NtRp1696
(dp1697
g66
(dp1698
sg75
g1683
sg68
(lp1699
g61
(g62
g63
NtRp1700
(dp1701
g66
(dp1702
g74
I4
ssg75
g1696
sg68
(lp1703
g61
(g70
g63
NtRp1704
(dp1705
g66
(dp1706
g74
I3
ssg75
Nsg68
(lp1707
g61
(g77
g63
NtRp1708
(dp1709
g66
(dp1710
sg75
g1704
sg68
(lp1711
g61
(g82
g63
NtRp1712
(dp1713
g66
(dp1714
sg75
g1708
sg68
(lp1715
g61
(g62
g63
NtRp1716
(dp1717
g66
(dp1718
g74
I3
ssg75
g1712
sg68
(lp1719
S'1'
asbasbasbag61
(g77
g63
NtRp1720
(dp1721
g66
(dp1722
sg75
g1704
sg68
(lp1723
g61
(g82
g63
NtRp1724
(dp1725
g66
(dp1726
sg75
g1720
sg68
(lp1727
g61
(g62
g63
NtRp1728
(dp1729
g66
(dp1730
g74
I3
ssg75
g1724
sg68
(lp1731
S'0'
asbasbasbasbasbasbasbasbasbasbasbag61
(g77
g63
NtRp1732
(dp1733
g66
(dp1734
sg75
g71
sg68
(lp1735
g61
(g82
g63
NtRp1736
(dp1737
g66
(dp1738
g86
g87
ssg75
g1732
sg68
(lp1739
S'extension'
p1740
asbag61
(g82
g63
NtRp1741
(dp1742
g66
(dp1743
g93
g94
ssg75
g1732
sg68
(lp1744
S':'
asbag61
(g82
g63
NtRp1745
(dp1746
g66
(dp1747
sg75
g1732
sg68
(lp1748
g61
(g62
g63
NtRp1749
(dp1750
g66
(dp1751
g74
I5
ssg75
g1745
sg68
(lp1752
S'html'
p1753
asbasbasbag61
(g77
g63
NtRp1754
(dp1755
g66
(dp1756
sg75
g71
sg68
(lp1757
g61
(g82
g63
NtRp1758
(dp1759
g66
(dp1760
g86
g87
ssg75
g1754
sg68
(lp1761
S'folder'
p1762
asbag61
(g82
g63
NtRp1763
(dp1764
g66
(dp1765
g93
g94
ssg75
g1754
sg68
(lp1766
S':'
asbag61
(g82
g63
NtRp1767
(dp1768
g66
(dp1769
sg75
g1754
sg68
(lp1770
g61
(g62
g63
NtRp1771
(dp1772
g66
(dp1773
g74
I5
ssg75
g1767
sg68
(lp1774
S'C:\\Users\\mellinja\\Documents\\SC2Tracker\\SC2TourneyTracker\\web2py\\applications\\welcome\\'
p1775
asbasbasbag61
(g77
g63
NtRp1776
(dp1777
g66
(dp1778
sg75
g71
sg68
(lp1779
g61
(g82
g63
NtRp1780
(dp1781
g66
(dp1782
g86
g87
ssg75
g1776
sg68
(lp1783
S'function'
p1784
asbag61
(g82
g63
NtRp1785
(dp1786
g66
(dp1787
g93
g94
ssg75
g1776
sg68
(lp1788
S':'
asbag61
(g82
g63
NtRp1789
(dp1790
g66
(dp1791
sg75
g1776
sg68
(lp1792
g61
(g62
g63
NtRp1793
(dp1794
g66
(dp1795
g74
I5
ssg75
g1789
sg68
(lp1796
S'show'
p1797
asbasbasbag61
(g77
g63
NtRp1798
(dp1799
g66
(dp1800
sg75
g71
sg68
(lp1801
g61
(g82
g63
NtRp1802
(dp1803
g66
(dp1804
g86
g87
ssg75
g1798
sg68
(lp1805
S'get_vars'
p1806
asbag61
(g82
g63
NtRp1807
(dp1808
g66
(dp1809
g93
g94
ssg75
g1798
sg68
(lp1810
S':'
asbag61
(g82
g63
NtRp1811
(dp1812
g66
(dp1813
sg75
g1798
sg68
(lp1814
g61
(g62
g63
NtRp1815
(dp1816
g66
(dp1817
g74
I5
ssg75
g1811
sg68
(lp1818
g61
(g70
g63
NtRp1819
(dp1820
g66
(dp1821
g74
I4
ssg75
Nsg68
(lp1822
sbasbasbasbag61
(g77
g63
NtRp1823
(dp1824
g66
(dp1825
sg75
g71
sg68
(lp1826
g61
(g82
g63
NtRp1827
(dp1828
g66
(dp1829
g86
g87
ssg75
g1823
sg68
(lp1830
S'global_settings'
p1831
asbag61
(g82
g63
NtRp1832
(dp1833
g66
(dp1834
g93
g94
ssg75
g1823
sg68
(lp1835
S':'
asbag61
(g82
g63
NtRp1836
(dp1837
g66
(dp1838
sg75
g1823
sg68
(lp1839
g61
(g62
g63
NtRp1840
(dp1841
g66
(dp1842
g74
I5
ssg75
g1836
sg68
(lp1843
g61
(g70
g63
NtRp1844
(dp1845
g66
(dp1846
g74
I4
ssg75
Nsg68
(lp1847
g61
(g77
g63
NtRp1848
(dp1849
g66
(dp1850
sg75
g1844
sg68
(lp1851
g61
(g82
g63
NtRp1852
(dp1853
g66
(dp1854
g86
g87
ssg75
g1848
sg68
(lp1855
g665
asbag61
(g82
g63
NtRp1856
(dp1857
g66
(dp1858
g93
g94
ssg75
g1848
sg68
(lp1859
S':'
asbag61
(g82
g63
NtRp1860
(dp1861
g66
(dp1862
sg75
g1848
sg68
(lp1863
g61
(g62
g63
NtRp1864
(dp1865
g66
(dp1866
g74
I4
ssg75
g1860
sg68
(lp1867
S"set(['C:\\\\Users\\\\mellinja\\\\Documents\\\\SC2Tracker\\\\SC2TourneyTracker\\\\web2py\\\\applications\\\\welcome\\\\', 'C:\\\\Users\\\\mellinja\\\\Documents\\\\SC2Tracker\\\\SC2TourneyTracker\\\\web2py\\\\applications\\\\admin\\\\'])"
p1868
asbasbasbag61
(g77
g63
NtRp1869
(dp1870
g66
(dp1871
sg75
g1844
sg68
(lp1872
g61
(g82
g63
NtRp1873
(dp1874
g66
(dp1875
g86
g87
ssg75
g1869
sg68
(lp1876
g687
asbag61
(g82
g63
NtRp1877
(dp1878
g66
(dp1879
g93
g94
ssg75
g1869
sg68
(lp1880
S':'
asbag61
(g82
g63
NtRp1881
(dp1882
g66
(dp1883
sg75
g1869
sg68
(lp1884
g61
(g62
g63
NtRp1885
(dp1886
g66
(dp1887
g74
I4
ssg75
g1881
sg68
(lp1888
g700
asbasbasbag61
(g77
g63
NtRp1889
(dp1890
g66
(dp1891
sg75
g1844
sg68
(lp1892
g61
(g82
g63
NtRp1893
(dp1894
g66
(dp1895
g86
g87
ssg75
g1889
sg68
(lp1896
g709
asbag61
(g82
g63
NtRp1897
(dp1898
g66
(dp1899
g93
g94
ssg75
g1889
sg68
(lp1900
S':'
asbag61
(g82
g63
NtRp1901
(dp1902
g66
(dp1903
sg75
g1889
sg68
(lp1904
g61
(g62
g63
NtRp1905
(dp1906
g66
(dp1907
g74
I4
ssg75
g1901
sg68
(lp1908
g61
(g70
g63
NtRp1909
(dp1910
g66
(dp1911
g74
I3
ssg75
Nsg68
(lp1912
sbasbasbasbag61
(g77
g63
NtRp1913
(dp1914
g66
(dp1915
sg75
g1844
sg68
(lp1916
g61
(g82
g63
NtRp1917
(dp1918
g66
(dp1919
g86
g87
ssg75
g1913
sg68
(lp1920
g734
asbag61
(g82
g63
NtRp1921
(dp1922
g66
(dp1923
g93
g94
ssg75
g1913
sg68
(lp1924
S':'
asbag61
(g82
g63
NtRp1925
(dp1926
g66
(dp1927
sg75
g1913
sg68
(lp1928
g61
(g62
g63
NtRp1929
(dp1930
g66
(dp1931
g74
I4
ssg75
g1925
sg68
(lp1932
S"<Values at 0x391d5c8: {'verbose': False, 'ip': '127.0.0.1', 'shutdown_timeout': 5, 'taskbar': False, 'nocron': False, 'pid_filename': 'httpserver.pid', 'maxthreads': None, 'softcron': False, 'server_name': 'mellinja-PC', 'bpython': False, 'nogui': False, 'port': 8000, 'extcron': False, 'debuglevel': 30, 'test': None, 'folder': 'C:\\\\Users\\\\mellinja\\\\Documents\\\\SC2Tracker\\\\SC2TourneyTracker\\\\web2py', 'config': '', 'import_models': False, 'winservice': '', 'shell': None, 'run': '', 'log_filename': 'httpserver.log', 'args': [''], 'socket_timeout': 1, 'ssl_ca_certificate': None, 'scheduler': None, 'profiler_filename': None, 'ssl_private_key': '', 'password': '<ask>', 'request_queue_size': 5, 'ssl_certificate': '', 'cronjob': False, 'numthreads': None, 'quiet': False, 'interfaces': None, 'minthreads': None, 'timeout': 10, 'plain': False, 'nobanner': False}>"
p1933
asbasbasbag61
(g77
g63
NtRp1934
(dp1935
g66
(dp1936
sg75
g1844
sg68
(lp1937
g61
(g82
g63
NtRp1938
(dp1939
g66
(dp1940
g86
g87
ssg75
g1934
sg68
(lp1941
g800
asbag61
(g82
g63
NtRp1942
(dp1943
g66
(dp1944
g93
g94
ssg75
g1934
sg68
(lp1945
S':'
asbag61
(g82
g63
NtRp1946
(dp1947
g66
(dp1948
sg75
g1934
sg68
(lp1949
g61
(g62
g63
NtRp1950
(dp1951
g66
(dp1952
g74
I4
ssg75
g1946
sg68
(lp1953
S'set([])'
p1954
asbasbasbag61
(g77
g63
NtRp1955
(dp1956
g66
(dp1957
sg75
g1844
sg68
(lp1958
g61
(g82
g63
NtRp1959
(dp1960
g66
(dp1961
g86
g87
ssg75
g1955
sg68
(lp1962
g822
asbag61
(g82
g63
NtRp1963
(dp1964
g66
(dp1965
g93
g94
ssg75
g1955
sg68
(lp1966
S':'
asbag61
(g82
g63
NtRp1967
(dp1968
g66
(dp1969
sg75
g1955
sg68
(lp1970
g61
(g62
g63
NtRp1971
(dp1972
g66
(dp1973
g74
I4
ssg75
g1967
sg68
(lp1974
g104
asbasbasbag61
(g77
g63
NtRp1975
(dp1976
g66
(dp1977
sg75
g1844
sg68
(lp1978
g61
(g82
g63
NtRp1979
(dp1980
g66
(dp1981
g86
g87
ssg75
g1975
sg68
(lp1982
g843
asbag61
(g82
g63
NtRp1983
(dp1984
g66
(dp1985
g93
g94
ssg75
g1975
sg68
(lp1986
S':'
asbag61
(g82
g63
NtRp1987
(dp1988
g66
(dp1989
sg75
g1975
sg68
(lp1990
g61
(g62
g63
NtRp1991
(dp1992
g66
(dp1993
g74
I4
ssg75
g1987
sg68
(lp1994
g856
asbasbasbag61
(g77
g63
NtRp1995
(dp1996
g66
(dp1997
sg75
g1844
sg68
(lp1998
g61
(g82
g63
NtRp1999
(dp2000
g66
(dp2001
g86
g87
ssg75
g1995
sg68
(lp2002
g1149
asbag61
(g82
g63
NtRp2003
(dp2004
g66
(dp2005
g93
g94
ssg75
g1995
sg68
(lp2006
S':'
asbag61
(g82
g63
NtRp2007
(dp2008
g66
(dp2009
sg75
g1995
sg68
(lp2010
g61
(g62
g63
NtRp2011
(dp2012
g66
(dp2013
g74
I4
ssg75
g2007
sg68
(lp2014
g104
asbasbasbag61
(g77
g63
NtRp2015
(dp2016
g66
(dp2017
sg75
g1844
sg68
(lp2018
g61
(g82
g63
NtRp2019
(dp2020
g66
(dp2021
g86
g87
ssg75
g2015
sg68
(lp2022
g1170
asbag61
(g82
g63
NtRp2023
(dp2024
g66
(dp2025
g93
g94
ssg75
g2015
sg68
(lp2026
S':'
asbag61
(g82
g63
NtRp2027
(dp2028
g66
(dp2029
sg75
g2015
sg68
(lp2030
g61
(g62
g63
NtRp2031
(dp2032
g66
(dp2033
g74
I4
ssg75
g2027
sg68
(lp2034
g104
asbasbasbag61
(g77
g63
NtRp2035
(dp2036
g66
(dp2037
sg75
g1844
sg68
(lp2038
g61
(g82
g63
NtRp2039
(dp2040
g66
(dp2041
g86
g87
ssg75
g2035
sg68
(lp2042
g1408
asbag61
(g82
g63
NtRp2043
(dp2044
g66
(dp2045
g93
g94
ssg75
g2035
sg68
(lp2046
S':'
asbag61
(g82
g63
NtRp2047
(dp2048
g66
(dp2049
sg75
g2035
sg68
(lp2050
g61
(g62
g63
NtRp2051
(dp2052
g66
(dp2053
g74
I4
ssg75
g2047
sg68
(lp2054
g1421
asbasbasbag61
(g77
g63
NtRp2055
(dp2056
g66
(dp2057
sg75
g1844
sg68
(lp2058
g61
(g82
g63
NtRp2059
(dp2060
g66
(dp2061
g86
g87
ssg75
g2055
sg68
(lp2062
g1451
asbag61
(g82
g63
NtRp2063
(dp2064
g66
(dp2065
g93
g94
ssg75
g2055
sg68
(lp2066
S':'
asbag61
(g82
g63
NtRp2067
(dp2068
g66
(dp2069
sg75
g2055
sg68
(lp2070
g61
(g62
g63
NtRp2071
(dp2072
g66
(dp2073
g74
I4
ssg75
g2067
sg68
(lp2074
g61
(g70
g63
NtRp2075
(dp2076
g66
(dp2077
g74
I3
ssg75
Nsg68
(lp2078
g61
(g77
g63
NtRp2079
(dp2080
g66
(dp2081
sg75
g2075
sg68
(lp2082
g61
(g82
g63
NtRp2083
(dp2084
g66
(dp2085
sg75
g2079
sg68
(lp2086
g61
(g62
g63
NtRp2087
(dp2088
g66
(dp2089
g74
I3
ssg75
g2083
sg68
(lp2090
S'1'
asbasbasbag61
(g77
g63
NtRp2091
(dp2092
g66
(dp2093
sg75
g2075
sg68
(lp2094
g61
(g82
g63
NtRp2095
(dp2096
g66
(dp2097
sg75
g2091
sg68
(lp2098
g61
(g62
g63
NtRp2099
(dp2100
g66
(dp2101
g74
I3
ssg75
g2095
sg68
(lp2102
S'99'
p2103
asbasbasbag61
(g77
g63
NtRp2104
(dp2105
g66
(dp2106
sg75
g2075
sg68
(lp2107
g61
(g82
g63
NtRp2108
(dp2109
g66
(dp2110
sg75
g2104
sg68
(lp2111
g61
(g62
g63
NtRp2112
(dp2113
g66
(dp2114
g74
I3
ssg75
g2108
sg68
(lp2115
S'4'
asbasbasbag61
(g77
g63
NtRp2116
(dp2117
g66
(dp2118
sg75
g2075
sg68
(lp2119
g61
(g82
g63
NtRp2120
(dp2121
g66
(dp2122
sg75
g2116
sg68
(lp2123
g61
(g62
g63
NtRp2124
(dp2125
g66
(dp2126
g74
I3
ssg75
g2120
sg68
(lp2127
S'datetime.datetime(2011, 12, 14, 14, 46, 14)'
p2128
asbasbasbag61
(g77
g63
NtRp2129
(dp2130
g66
(dp2131
sg75
g2075
sg68
(lp2132
g61
(g82
g63
NtRp2133
(dp2134
g66
(dp2135
sg75
g2129
sg68
(lp2136
g61
(g62
g63
NtRp2137
(dp2138
g66
(dp2139
g74
I3
ssg75
g2133
sg68
(lp2140
g1530
asbasbasbasbasbasbasbasbasbasbasbag61
(g77
g63
NtRp2141
(dp2142
g66
(dp2143
sg75
g71
sg68
(lp2144
g61
(g82
g63
NtRp2145
(dp2146
g66
(dp2147
g86
g87
ssg75
g2141
sg68
(lp2148
S'is_https'
p2149
asbag61
(g82
g63
NtRp2150
(dp2151
g66
(dp2152
g93
g94
ssg75
g2141
sg68
(lp2153
S':'
asbag61
(g82
g63
NtRp2154
(dp2155
g66
(dp2156
sg75
g2141
sg68
(lp2157
g61
(g62
g63
NtRp2158
(dp2159
g66
(dp2160
g74
I5
ssg75
g2154
sg68
(lp2161
g104
asbasbasbag61
(g77
g63
NtRp2162
(dp2163
g66
(dp2164
sg75
g71
sg68
(lp2165
g61
(g82
g63
NtRp2166
(dp2167
g66
(dp2168
g86
g87
ssg75
g2162
sg68
(lp2169
S'is_local'
p2170
asbag61
(g82
g63
NtRp2171
(dp2172
g66
(dp2173
g93
g94
ssg75
g2162
sg68
(lp2174
S':'
asbag61
(g82
g63
NtRp2175
(dp2176
g66
(dp2177
sg75
g2162
sg68
(lp2178
g61
(g62
g63
NtRp2179
(dp2180
g66
(dp2181
g74
I5
ssg75
g2175
sg68
(lp2182
g1639
asbasbasbag61
(g77
g63
NtRp2183
(dp2184
g66
(dp2185
sg75
g71
sg68
(lp2186
g61
(g82
g63
NtRp2187
(dp2188
g66
(dp2189
g86
g87
ssg75
g2183
sg68
(lp2190
S'is_restful'
p2191
asbag61
(g82
g63
NtRp2192
(dp2193
g66
(dp2194
g93
g94
ssg75
g2183
sg68
(lp2195
S':'
asbag61
(g82
g63
NtRp2196
(dp2197
g66
(dp2198
sg75
g2183
sg68
(lp2199
g61
(g62
g63
NtRp2200
(dp2201
g66
(dp2202
g74
I5
ssg75
g2196
sg68
(lp2203
g104
asbasbasbag61
(g77
g63
NtRp2204
(dp2205
g66
(dp2206
sg75
g71
sg68
(lp2207
g61
(g82
g63
NtRp2208
(dp2209
g66
(dp2210
g86
g87
ssg75
g2204
sg68
(lp2211
S'now'
p2212
asbag61
(g82
g63
NtRp2213
(dp2214
g66
(dp2215
g93
g94
ssg75
g2204
sg68
(lp2216
S':'
asbag61
(g82
g63
NtRp2217
(dp2218
g66
(dp2219
sg75
g2204
sg68
(lp2220
g61
(g62
g63
NtRp2221
(dp2222
g66
(dp2223
g74
I5
ssg75
g2217
sg68
(lp2224
S'datetime.datetime(2012, 2, 9, 13, 12, 25, 488000)'
p2225
asbasbasbag61
(g77
g63
NtRp2226
(dp2227
g66
(dp2228
sg75
g71
sg68
(lp2229
g61
(g82
g63
NtRp2230
(dp2231
g66
(dp2232
g86
g87
ssg75
g2226
sg68
(lp2233
S'post_vars'
p2234
asbag61
(g82
g63
NtRp2235
(dp2236
g66
(dp2237
g93
g94
ssg75
g2226
sg68
(lp2238
S':'
asbag61
(g82
g63
NtRp2239
(dp2240
g66
(dp2241
sg75
g2226
sg68
(lp2242
g61
(g62
g63
NtRp2243
(dp2244
g66
(dp2245
g74
I5
ssg75
g2239
sg68
(lp2246
g61
(g70
g63
NtRp2247
(dp2248
g66
(dp2249
g74
I4
ssg75
Nsg68
(lp2250
sbasbasbasbag61
(g77
g63
NtRp2251
(dp2252
g66
(dp2253
sg75
g71
sg68
(lp2254
g61
(g82
g63
NtRp2255
(dp2256
g66
(dp2257
g86
g87
ssg75
g2251
sg68
(lp2258
S'raw_args'
p2259
asbag61
(g82
g63
NtRp2260
(dp2261
g66
(dp2262
g93
g94
ssg75
g2251
sg68
(lp2263
S':'
asbag61
(g82
g63
NtRp2264
(dp2265
g66
(dp2266
sg75
g2251
sg68
(lp2267
g61
(g62
g63
NtRp2268
(dp2269
g66
(dp2270
g74
I5
ssg75
g2264
sg68
(lp2271
S'7'
asbasbasbag61
(g77
g63
NtRp2272
(dp2273
g66
(dp2274
sg75
g71
sg68
(lp2275
g61
(g82
g63
NtRp2276
(dp2277
g66
(dp2278
g86
g87
ssg75
g2272
sg68
(lp2279
S'url'
p2280
asbag61
(g82
g63
NtRp2281
(dp2282
g66
(dp2283
g93
g94
ssg75
g2272
sg68
(lp2284
S':'
asbag61
(g82
g63
NtRp2285
(dp2286
g66
(dp2287
sg75
g2272
sg68
(lp2288
g61
(g62
g63
NtRp2289
(dp2290
g66
(dp2291
g74
I5
ssg75
g2285
sg68
(lp2292
S'/welcome/tournament/show/7'
p2293
asbasbasbag61
(g77
g63
NtRp2294
(dp2295
g66
(dp2296
sg75
g71
sg68
(lp2297
g61
(g82
g63
NtRp2298
(dp2299
g66
(dp2300
g86
g87
ssg75
g2294
sg68
(lp2301
S'utcnow'
p2302
asbag61
(g82
g63
NtRp2303
(dp2304
g66
(dp2305
g93
g94
ssg75
g2294
sg68
(lp2306
S':'
asbag61
(g82
g63
NtRp2307
(dp2308
g66
(dp2309
sg75
g2294
sg68
(lp2310
g61
(g62
g63
NtRp2311
(dp2312
g66
(dp2313
g74
I5
ssg75
g2307
sg68
(lp2314
S'datetime.datetime(2012, 2, 9, 18, 12, 25, 488000)'
p2315
asbasbasbag61
(g77
g63
NtRp2316
(dp2317
g66
(dp2318
sg75
g71
sg68
(lp2319
g61
(g82
g63
NtRp2320
(dp2321
g66
(dp2322
g86
g87
ssg75
g2316
sg68
(lp2323
S'uuid'
p2324
asbag61
(g82
g63
NtRp2325
(dp2326
g66
(dp2327
g93
g94
ssg75
g2316
sg68
(lp2328
S':'
asbag61
(g82
g63
NtRp2329
(dp2330
g66
(dp2331
sg75
g2316
sg68
(lp2332
g61
(g62
g63
NtRp2333
(dp2334
g66
(dp2335
g74
I5
ssg75
g2329
sg68
(lp2336
S'welcome/127.0.0.1.2012-02-09.13-12-25.984bd57f-9da4-4885-b7c6-0c0104de5088'
p2337
asbasbasbag61
(g77
g63
NtRp2338
(dp2339
g66
(dp2340
sg75
g71
sg68
(lp2341
g61
(g82
g63
NtRp2342
(dp2343
g66
(dp2344
g86
g87
ssg75
g2338
sg68
(lp2345
S'vars'
p2346
asbag61
(g82
g63
NtRp2347
(dp2348
g66
(dp2349
g93
g94
ssg75
g2338
sg68
(lp2350
S':'
asbag61
(g82
g63
NtRp2351
(dp2352
g66
(dp2353
sg75
g2338
sg68
(lp2354
g61
(g62
g63
NtRp2355
(dp2356
g66
(dp2357
g74
I5
ssg75
g2351
sg68
(lp2358
g61
(g70
g63
NtRp2359
(dp2360
g66
(dp2361
g74
I4
ssg75
Nsg68
(lp2362
sbasbasbasbag61
(g77
g63
NtRp2363
(dp2364
g66
(dp2365
sg75
g71
sg68
(lp2366
g61
(g82
g63
NtRp2367
(dp2368
g66
(dp2369
g86
g87
ssg75
g2363
sg68
(lp2370
S'wsgi'
p2371
asbag61
(g82
g63
NtRp2372
(dp2373
g66
(dp2374
g93
g94
ssg75
g2363
sg68
(lp2375
S':'
asbag61
(g82
g63
NtRp2376
(dp2377
g66
(dp2378
sg75
g2363
sg68
(lp2379
g61
(g62
g63
NtRp2380
(dp2381
g66
(dp2382
g74
I5
ssg75
g2376
sg68
(lp2383
g61
(g70
g63
NtRp2384
(dp2385
g66
(dp2386
g74
I4
ssg75
Nsg68
(lp2387
g61
(g77
g63
NtRp2388
(dp2389
g66
(dp2390
sg75
g2384
sg68
(lp2391
g61
(g82
g63
NtRp2392
(dp2393
g66
(dp2394
g86
g87
ssg75
g2388
sg68
(lp2395
S'environ'
p2396
asbag61
(g82
g63
NtRp2397
(dp2398
g66
(dp2399
g93
g94
ssg75
g2388
sg68
(lp2400
S':'
asbag61
(g82
g63
NtRp2401
(dp2402
g66
(dp2403
sg75
g2388
sg68
(lp2404
g61
(g62
g63
NtRp2405
(dp2406
g66
(dp2407
g74
I4
ssg75
g2401
sg68
(lp2408
g61
(g70
g63
NtRp2409
(dp2410
g66
(dp2411
g74
I3
ssg75
Nsg68
(lp2412
g61
(g77
g63
NtRp2413
(dp2414
g66
(dp2415
sg75
g2409
sg68
(lp2416
g61
(g82
g63
NtRp2417
(dp2418
g66
(dp2419
g86
g87
ssg75
g2413
sg68
(lp2420
S'CONTENT_LENGTH'
p2421
asbag61
(g82
g63
NtRp2422
(dp2423
g66
(dp2424
g93
g94
ssg75
g2413
sg68
(lp2425
S':'
asbag61
(g82
g63
NtRp2426
(dp2427
g66
(dp2428
sg75
g2413
sg68
(lp2429
g61
(g62
g63
NtRp2430
(dp2431
g66
(dp2432
g74
I3
ssg75
g2426
sg68
(lp2433
g769
asbasbasbag61
(g77
g63
NtRp2434
(dp2435
g66
(dp2436
sg75
g2409
sg68
(lp2437
g61
(g82
g63
NtRp2438
(dp2439
g66
(dp2440
g86
g87
ssg75
g2434
sg68
(lp2441
S'CONTENT_TYPE'
p2442
asbag61
(g82
g63
NtRp2443
(dp2444
g66
(dp2445
g93
g94
ssg75
g2434
sg68
(lp2446
S':'
asbag61
(g82
g63
NtRp2447
(dp2448
g66
(dp2449
sg75
g2434
sg68
(lp2450
g61
(g62
g63
NtRp2451
(dp2452
g66
(dp2453
g74
I3
ssg75
g2447
sg68
(lp2454
g791
asbasbasbag61
(g77
g63
NtRp2455
(dp2456
g66
(dp2457
sg75
g2409
sg68
(lp2458
g61
(g82
g63
NtRp2459
(dp2460
g66
(dp2461
g86
g87
ssg75
g2455
sg68
(lp2462
S'HTTP_ACCEPT'
p2463
asbag61
(g82
g63
NtRp2464
(dp2465
g66
(dp2466
g93
g94
ssg75
g2455
sg68
(lp2467
S':'
asbag61
(g82
g63
NtRp2468
(dp2469
g66
(dp2470
sg75
g2455
sg68
(lp2471
g61
(g62
g63
NtRp2472
(dp2473
g66
(dp2474
g74
I3
ssg75
g2468
sg68
(lp2475
g878
asbasbasbag61
(g77
g63
NtRp2476
(dp2477
g66
(dp2478
sg75
g2409
sg68
(lp2479
g61
(g82
g63
NtRp2480
(dp2481
g66
(dp2482
g86
g87
ssg75
g2476
sg68
(lp2483
S'HTTP_ACCEPT_CHARSET'
p2484
asbag61
(g82
g63
NtRp2485
(dp2486
g66
(dp2487
g93
g94
ssg75
g2476
sg68
(lp2488
S':'
asbag61
(g82
g63
NtRp2489
(dp2490
g66
(dp2491
sg75
g2476
sg68
(lp2492
g61
(g62
g63
NtRp2493
(dp2494
g66
(dp2495
g74
I3
ssg75
g2489
sg68
(lp2496
g900
asbasbasbag61
(g77
g63
NtRp2497
(dp2498
g66
(dp2499
sg75
g2409
sg68
(lp2500
g61
(g82
g63
NtRp2501
(dp2502
g66
(dp2503
g86
g87
ssg75
g2497
sg68
(lp2504
S'HTTP_ACCEPT_ENCODING'
p2505
asbag61
(g82
g63
NtRp2506
(dp2507
g66
(dp2508
g93
g94
ssg75
g2497
sg68
(lp2509
S':'
asbag61
(g82
g63
NtRp2510
(dp2511
g66
(dp2512
sg75
g2497
sg68
(lp2513
g61
(g62
g63
NtRp2514
(dp2515
g66
(dp2516
g74
I3
ssg75
g2510
sg68
(lp2517
g922
asbasbasbag61
(g77
g63
NtRp2518
(dp2519
g66
(dp2520
sg75
g2409
sg68
(lp2521
g61
(g82
g63
NtRp2522
(dp2523
g66
(dp2524
g86
g87
ssg75
g2518
sg68
(lp2525
S'HTTP_ACCEPT_LANGUAGE'
p2526
asbag61
(g82
g63
NtRp2527
(dp2528
g66
(dp2529
g93
g94
ssg75
g2518
sg68
(lp2530
S':'
asbag61
(g82
g63
NtRp2531
(dp2532
g66
(dp2533
sg75
g2518
sg68
(lp2534
g61
(g62
g63
NtRp2535
(dp2536
g66
(dp2537
g74
I3
ssg75
g2531
sg68
(lp2538
g944
asbasbasbag61
(g77
g63
NtRp2539
(dp2540
g66
(dp2541
sg75
g2409
sg68
(lp2542
g61
(g82
g63
NtRp2543
(dp2544
g66
(dp2545
g86
g87
ssg75
g2539
sg68
(lp2546
S'HTTP_CACHE_CONTROL'
p2547
asbag61
(g82
g63
NtRp2548
(dp2549
g66
(dp2550
g93
g94
ssg75
g2539
sg68
(lp2551
S':'
asbag61
(g82
g63
NtRp2552
(dp2553
g66
(dp2554
sg75
g2539
sg68
(lp2555
g61
(g62
g63
NtRp2556
(dp2557
g66
(dp2558
g74
I3
ssg75
g2552
sg68
(lp2559
g966
asbasbasbag61
(g77
g63
NtRp2560
(dp2561
g66
(dp2562
sg75
g2409
sg68
(lp2563
g61
(g82
g63
NtRp2564
(dp2565
g66
(dp2566
g86
g87
ssg75
g2560
sg68
(lp2567
S'HTTP_CONNECTION'
p2568
asbag61
(g82
g63
NtRp2569
(dp2570
g66
(dp2571
g93
g94
ssg75
g2560
sg68
(lp2572
S':'
asbag61
(g82
g63
NtRp2573
(dp2574
g66
(dp2575
sg75
g2560
sg68
(lp2576
g61
(g62
g63
NtRp2577
(dp2578
g66
(dp2579
g74
I3
ssg75
g2573
sg68
(lp2580
g988
asbasbasbag61
(g77
g63
NtRp2581
(dp2582
g66
(dp2583
sg75
g2409
sg68
(lp2584
g61
(g82
g63
NtRp2585
(dp2586
g66
(dp2587
g86
g87
ssg75
g2581
sg68
(lp2588
S'HTTP_CONTENT_LENGTH'
p2589
asbag61
(g82
g63
NtRp2590
(dp2591
g66
(dp2592
g93
g94
ssg75
g2581
sg68
(lp2593
S':'
asbag61
(g82
g63
NtRp2594
(dp2595
g66
(dp2596
sg75
g2581
sg68
(lp2597
g61
(g62
g63
NtRp2598
(dp2599
g66
(dp2600
g74
I3
ssg75
g2594
sg68
(lp2601
g769
asbasbasbag61
(g77
g63
NtRp2602
(dp2603
g66
(dp2604
sg75
g2409
sg68
(lp2605
g61
(g82
g63
NtRp2606
(dp2607
g66
(dp2608
g86
g87
ssg75
g2602
sg68
(lp2609
S'HTTP_CONTENT_TYPE'
p2610
asbag61
(g82
g63
NtRp2611
(dp2612
g66
(dp2613
g93
g94
ssg75
g2602
sg68
(lp2614
S':'
asbag61
(g82
g63
NtRp2615
(dp2616
g66
(dp2617
sg75
g2602
sg68
(lp2618
g61
(g62
g63
NtRp2619
(dp2620
g66
(dp2621
g74
I3
ssg75
g2615
sg68
(lp2622
g791
asbasbasbag61
(g77
g63
NtRp2623
(dp2624
g66
(dp2625
sg75
g2409
sg68
(lp2626
g61
(g82
g63
NtRp2627
(dp2628
g66
(dp2629
g86
g87
ssg75
g2623
sg68
(lp2630
S'HTTP_COOKIE'
p2631
asbag61
(g82
g63
NtRp2632
(dp2633
g66
(dp2634
g93
g94
ssg75
g2623
sg68
(lp2635
S':'
asbag61
(g82
g63
NtRp2636
(dp2637
g66
(dp2638
sg75
g2623
sg68
(lp2639
g61
(g62
g63
NtRp2640
(dp2641
g66
(dp2642
g74
I3
ssg75
g2636
sg68
(lp2643
g1052
asbasbasbag61
(g77
g63
NtRp2644
(dp2645
g66
(dp2646
sg75
g2409
sg68
(lp2647
g61
(g82
g63
NtRp2648
(dp2649
g66
(dp2650
g86
g87
ssg75
g2644
sg68
(lp2651
S'HTTP_HOST'
p2652
asbag61
(g82
g63
NtRp2653
(dp2654
g66
(dp2655
g93
g94
ssg75
g2644
sg68
(lp2656
S':'
asbag61
(g82
g63
NtRp2657
(dp2658
g66
(dp2659
sg75
g2644
sg68
(lp2660
g61
(g62
g63
NtRp2661
(dp2662
g66
(dp2663
g74
I3
ssg75
g2657
sg68
(lp2664
g1074
asbasbasbag61
(g77
g63
NtRp2665
(dp2666
g66
(dp2667
sg75
g2409
sg68
(lp2668
g61
(g82
g63
NtRp2669
(dp2670
g66
(dp2671
g86
g87
ssg75
g2665
sg68
(lp2672
S'HTTP_ORIGIN'
p2673
asbag61
(g82
g63
NtRp2674
(dp2675
g66
(dp2676
g93
g94
ssg75
g2665
sg68
(lp2677
S':'
asbag61
(g82
g63
NtRp2678
(dp2679
g66
(dp2680
sg75
g2665
sg68
(lp2681
g61
(g62
g63
NtRp2682
(dp2683
g66
(dp2684
g74
I3
ssg75
g2678
sg68
(lp2685
g1096
asbasbasbag61
(g77
g63
NtRp2686
(dp2687
g66
(dp2688
sg75
g2409
sg68
(lp2689
g61
(g82
g63
NtRp2690
(dp2691
g66
(dp2692
g86
g87
ssg75
g2686
sg68
(lp2693
S'HTTP_REFERER'
p2694
asbag61
(g82
g63
NtRp2695
(dp2696
g66
(dp2697
g93
g94
ssg75
g2686
sg68
(lp2698
S':'
asbag61
(g82
g63
NtRp2699
(dp2700
g66
(dp2701
sg75
g2686
sg68
(lp2702
g61
(g62
g63
NtRp2703
(dp2704
g66
(dp2705
g74
I3
ssg75
g2699
sg68
(lp2706
g1118
asbasbasbag61
(g77
g63
NtRp2707
(dp2708
g66
(dp2709
sg75
g2409
sg68
(lp2710
g61
(g82
g63
NtRp2711
(dp2712
g66
(dp2713
g86
g87
ssg75
g2707
sg68
(lp2714
S'HTTP_USER_AGENT'
p2715
asbag61
(g82
g63
NtRp2716
(dp2717
g66
(dp2718
g93
g94
ssg75
g2707
sg68
(lp2719
S':'
asbag61
(g82
g63
NtRp2720
(dp2721
g66
(dp2722
sg75
g2707
sg68
(lp2723
g61
(g62
g63
NtRp2724
(dp2725
g66
(dp2726
g74
I3
ssg75
g2720
sg68
(lp2727
g1140
asbasbasbag61
(g77
g63
NtRp2728
(dp2729
g66
(dp2730
sg75
g2409
sg68
(lp2731
g61
(g82
g63
NtRp2732
(dp2733
g66
(dp2734
g86
g87
ssg75
g2728
sg68
(lp2735
S'PATH_INFO'
p2736
asbag61
(g82
g63
NtRp2737
(dp2738
g66
(dp2739
g93
g94
ssg75
g2728
sg68
(lp2740
S':'
asbag61
(g82
g63
NtRp2741
(dp2742
g66
(dp2743
sg75
g2728
sg68
(lp2744
g61
(g62
g63
NtRp2745
(dp2746
g66
(dp2747
g74
I3
ssg75
g2741
sg68
(lp2748
g1204
asbasbasbag61
(g77
g63
NtRp2749
(dp2750
g66
(dp2751
sg75
g2409
sg68
(lp2752
g61
(g82
g63
NtRp2753
(dp2754
g66
(dp2755
g86
g87
ssg75
g2749
sg68
(lp2756
S'QUERY_STRING'
p2757
asbag61
(g82
g63
NtRp2758
(dp2759
g66
(dp2760
g93
g94
ssg75
g2749
sg68
(lp2761
S':'
asbag61
(g82
g63
NtRp2762
(dp2763
g66
(dp2764
sg75
g2749
sg68
(lp2765
g61
(g62
g63
NtRp2766
(dp2767
g66
(dp2768
g74
I3
ssg75
g2762
sg68
(lp2769
S''
asbasbasbag61
(g77
g63
NtRp2770
(dp2771
g66
(dp2772
sg75
g2409
sg68
(lp2773
g61
(g82
g63
NtRp2774
(dp2775
g66
(dp2776
g86
g87
ssg75
g2770
sg68
(lp2777
S'REMOTE_ADDR'
p2778
asbag61
(g82
g63
NtRp2779
(dp2780
g66
(dp2781
g93
g94
ssg75
g2770
sg68
(lp2782
S':'
asbag61
(g82
g63
NtRp2783
(dp2784
g66
(dp2785
sg75
g2770
sg68
(lp2786
g61
(g62
g63
NtRp2787
(dp2788
g66
(dp2789
g74
I3
ssg75
g2783
sg68
(lp2790
g206
asbasbasbag61
(g77
g63
NtRp2791
(dp2792
g66
(dp2793
sg75
g2409
sg68
(lp2794
g61
(g82
g63
NtRp2795
(dp2796
g66
(dp2797
g86
g87
ssg75
g2791
sg68
(lp2798
S'REMOTE_PORT'
p2799
asbag61
(g82
g63
NtRp2800
(dp2801
g66
(dp2802
g93
g94
ssg75
g2791
sg68
(lp2803
S':'
asbag61
(g82
g63
NtRp2804
(dp2805
g66
(dp2806
sg75
g2791
sg68
(lp2807
g61
(g62
g63
NtRp2808
(dp2809
g66
(dp2810
g74
I3
ssg75
g2804
sg68
(lp2811
g1268
asbasbasbag61
(g77
g63
NtRp2812
(dp2813
g66
(dp2814
sg75
g2409
sg68
(lp2815
g61
(g82
g63
NtRp2816
(dp2817
g66
(dp2818
g86
g87
ssg75
g2812
sg68
(lp2819
S'REQUEST_METHOD'
p2820
asbag61
(g82
g63
NtRp2821
(dp2822
g66
(dp2823
g93
g94
ssg75
g2812
sg68
(lp2824
S':'
asbag61
(g82
g63
NtRp2825
(dp2826
g66
(dp2827
sg75
g2812
sg68
(lp2828
g61
(g62
g63
NtRp2829
(dp2830
g66
(dp2831
g74
I3
ssg75
g2825
sg68
(lp2832
g1290
asbasbasbag61
(g77
g63
NtRp2833
(dp2834
g66
(dp2835
sg75
g2409
sg68
(lp2836
g61
(g82
g63
NtRp2837
(dp2838
g66
(dp2839
g86
g87
ssg75
g2833
sg68
(lp2840
S'SCRIPT_NAME'
p2841
asbag61
(g82
g63
NtRp2842
(dp2843
g66
(dp2844
g93
g94
ssg75
g2833
sg68
(lp2845
S':'
asbag61
(g82
g63
NtRp2846
(dp2847
g66
(dp2848
sg75
g2833
sg68
(lp2849
g61
(g62
g63
NtRp2850
(dp2851
g66
(dp2852
g74
I3
ssg75
g2846
sg68
(lp2853
S''
asbasbasbag61
(g77
g63
NtRp2854
(dp2855
g66
(dp2856
sg75
g2409
sg68
(lp2857
g61
(g82
g63
NtRp2858
(dp2859
g66
(dp2860
g86
g87
ssg75
g2854
sg68
(lp2861
S'SERVER_NAME'
p2862
asbag61
(g82
g63
NtRp2863
(dp2864
g66
(dp2865
g93
g94
ssg75
g2854
sg68
(lp2866
S':'
asbag61
(g82
g63
NtRp2867
(dp2868
g66
(dp2869
sg75
g2854
sg68
(lp2870
g61
(g62
g63
NtRp2871
(dp2872
g66
(dp2873
g74
I3
ssg75
g2867
sg68
(lp2874
g1333
asbasbasbag61
(g77
g63
NtRp2875
(dp2876
g66
(dp2877
sg75
g2409
sg68
(lp2878
g61
(g82
g63
NtRp2879
(dp2880
g66
(dp2881
g86
g87
ssg75
g2875
sg68
(lp2882
S'SERVER_PORT'
p2883
asbag61
(g82
g63
NtRp2884
(dp2885
g66
(dp2886
g93
g94
ssg75
g2875
sg68
(lp2887
S':'
asbag61
(g82
g63
NtRp2888
(dp2889
g66
(dp2890
sg75
g2875
sg68
(lp2891
g61
(g62
g63
NtRp2892
(dp2893
g66
(dp2894
g74
I3
ssg75
g2888
sg68
(lp2895
g1355
asbasbasbag61
(g77
g63
NtRp2896
(dp2897
g66
(dp2898
sg75
g2409
sg68
(lp2899
g61
(g82
g63
NtRp2900
(dp2901
g66
(dp2902
g86
g87
ssg75
g2896
sg68
(lp2903
S'SERVER_PROTOCOL'
p2904
asbag61
(g82
g63
NtRp2905
(dp2906
g66
(dp2907
g93
g94
ssg75
g2896
sg68
(lp2908
S':'
asbag61
(g82
g63
NtRp2909
(dp2910
g66
(dp2911
sg75
g2896
sg68
(lp2912
g61
(g62
g63
NtRp2913
(dp2914
g66
(dp2915
g74
I3
ssg75
g2909
sg68
(lp2916
g1377
asbasbasbag61
(g77
g63
NtRp2917
(dp2918
g66
(dp2919
sg75
g2409
sg68
(lp2920
g61
(g82
g63
NtRp2921
(dp2922
g66
(dp2923
g86
g87
ssg75
g2917
sg68
(lp2924
S'SERVER_SOFTWARE'
p2925
asbag61
(g82
g63
NtRp2926
(dp2927
g66
(dp2928
g93
g94
ssg75
g2917
sg68
(lp2929
S':'
asbag61
(g82
g63
NtRp2930
(dp2931
g66
(dp2932
sg75
g2917
sg68
(lp2933
g61
(g62
g63
NtRp2934
(dp2935
g66
(dp2936
g74
I3
ssg75
g2930
sg68
(lp2937
g1399
asbasbasbag61
(g77
g63
NtRp2938
(dp2939
g66
(dp2940
sg75
g2409
sg68
(lp2941
g61
(g82
g63
NtRp2942
(dp2943
g66
(dp2944
g86
g87
ssg75
g2938
sg68
(lp2945
S'wsgi.errors'
p2946
asbag61
(g82
g63
NtRp2947
(dp2948
g66
(dp2949
g93
g94
ssg75
g2938
sg68
(lp2950
S':'
asbag61
(g82
g63
NtRp2951
(dp2952
g66
(dp2953
sg75
g2938
sg68
(lp2954
g61
(g62
g63
NtRp2955
(dp2956
g66
(dp2957
g74
I3
ssg75
g2951
sg68
(lp2958
S"<open file '<stderr>', mode 'w' at 0x00000000020161E0>"
p2959
asbasbasbag61
(g77
g63
NtRp2960
(dp2961
g66
(dp2962
sg75
g2409
sg68
(lp2963
g61
(g82
g63
NtRp2964
(dp2965
g66
(dp2966
g86
g87
ssg75
g2960
sg68
(lp2967
S'wsgi.file_wrapper'
p2968
asbag61
(g82
g63
NtRp2969
(dp2970
g66
(dp2971
g93
g94
ssg75
g2960
sg68
(lp2972
S':'
asbag61
(g82
g63
NtRp2973
(dp2974
g66
(dp2975
sg75
g2960
sg68
(lp2976
g61
(g62
g63
NtRp2977
(dp2978
g66
(dp2979
g74
I3
ssg75
g2973
sg68
(lp2980
S'<class wsgiref.util.FileWrapper at 0x000000000380D828>'
p2981
asbasbasbag61
(g77
g63
NtRp2982
(dp2983
g66
(dp2984
sg75
g2409
sg68
(lp2985
g61
(g82
g63
NtRp2986
(dp2987
g66
(dp2988
g86
g87
ssg75
g2982
sg68
(lp2989
S'wsgi.input'
p2990
asbag61
(g82
g63
NtRp2991
(dp2992
g66
(dp2993
g93
g94
ssg75
g2982
sg68
(lp2994
S':'
asbag61
(g82
g63
NtRp2995
(dp2996
g66
(dp2997
sg75
g2982
sg68
(lp2998
g61
(g62
g63
NtRp2999
(dp3000
g66
(dp3001
g74
I3
ssg75
g2995
sg68
(lp3002
S"<open file '<fdopen>', mode 'w+b' at 0x0000000009A948A0>"
p3003
asbasbasbag61
(g77
g63
NtRp3004
(dp3005
g66
(dp3006
sg75
g2409
sg68
(lp3007
g61
(g82
g63
NtRp3008
(dp3009
g66
(dp3010
g86
g87
ssg75
g3004
sg68
(lp3011
S'wsgi.multiprocess'
p3012
asbag61
(g82
g63
NtRp3013
(dp3014
g66
(dp3015
g93
g94
ssg75
g3004
sg68
(lp3016
S':'
asbag61
(g82
g63
NtRp3017
(dp3018
g66
(dp3019
sg75
g3004
sg68
(lp3020
g61
(g62
g63
NtRp3021
(dp3022
g66
(dp3023
g74
I3
ssg75
g3017
sg68
(lp3024
g104
asbasbasbag61
(g77
g63
NtRp3025
(dp3026
g66
(dp3027
sg75
g2409
sg68
(lp3028
g61
(g82
g63
NtRp3029
(dp3030
g66
(dp3031
g86
g87
ssg75
g3025
sg68
(lp3032
S'wsgi.multithread'
p3033
asbag61
(g82
g63
NtRp3034
(dp3035
g66
(dp3036
g93
g94
ssg75
g3025
sg68
(lp3037
S':'
asbag61
(g82
g63
NtRp3038
(dp3039
g66
(dp3040
sg75
g3025
sg68
(lp3041
g61
(g62
g63
NtRp3042
(dp3043
g66
(dp3044
g74
I3
ssg75
g3038
sg68
(lp3045
g1639
asbasbasbag61
(g77
g63
NtRp3046
(dp3047
g66
(dp3048
sg75
g2409
sg68
(lp3049
g61
(g82
g63
NtRp3050
(dp3051
g66
(dp3052
g86
g87
ssg75
g3046
sg68
(lp3053
S'wsgi.run_once'
p3054
asbag61
(g82
g63
NtRp3055
(dp3056
g66
(dp3057
g93
g94
ssg75
g3046
sg68
(lp3058
S':'
asbag61
(g82
g63
NtRp3059
(dp3060
g66
(dp3061
sg75
g3046
sg68
(lp3062
g61
(g62
g63
NtRp3063
(dp3064
g66
(dp3065
g74
I3
ssg75
g3059
sg68
(lp3066
g104
asbasbasbag61
(g77
g63
NtRp3067
(dp3068
g66
(dp3069
sg75
g2409
sg68
(lp3070
g61
(g82
g63
NtRp3071
(dp3072
g66
(dp3073
g86
g87
ssg75
g3067
sg68
(lp3074
S'wsgi.url_scheme'
p3075
asbag61
(g82
g63
NtRp3076
(dp3077
g66
(dp3078
g93
g94
ssg75
g3067
sg68
(lp3079
S':'
asbag61
(g82
g63
NtRp3080
(dp3081
g66
(dp3082
sg75
g3067
sg68
(lp3083
g61
(g62
g63
NtRp3084
(dp3085
g66
(dp3086
g74
I3
ssg75
g3080
sg68
(lp3087
g1682
asbasbasbag61
(g77
g63
NtRp3088
(dp3089
g66
(dp3090
sg75
g2409
sg68
(lp3091
g61
(g82
g63
NtRp3092
(dp3093
g66
(dp3094
g86
g87
ssg75
g3088
sg68
(lp3095
S'wsgi.version'
p3096
asbag61
(g82
g63
NtRp3097
(dp3098
g66
(dp3099
g93
g94
ssg75
g3088
sg68
(lp3100
S':'
asbag61
(g82
g63
NtRp3101
(dp3102
g66
(dp3103
sg75
g3088
sg68
(lp3104
g61
(g62
g63
NtRp3105
(dp3106
g66
(dp3107
g74
I3
ssg75
g3101
sg68
(lp3108
S'1'
asbasbasbasbasbasbasbasbasbasbasbasbasbsS'frames'
p3109
(lp3110
(dp3111
S'file'
p3112
S'C:\\Users\\mellinja\\Documents\\SC2Tracker\\SC2TourneyTracker\\web2py\\gluon\\restricted.py'
p3113
sS'dump'
p3114
(dp3115
S'environment'
p3116
S"{'A': <class 'gluon.html.A'>, 'Auth': <class 'gluon.tools.Auth'>, 'B': <class 'gluon.html.B'>, 'BEAUTIFY': <class 'gluon.html.BEAUTIFY'>, 'BODY': <class 'gluon.html.BODY'>, 'BR': <class 'gluon.html.BR'>, 'BUTTON': <class 'gluon.html.BUTTON'>, 'CAT': <class 'gluon.html.CAT'>, 'CENTER': <class 'gluon.html.CENTER'>, 'CLEANUP': <class 'gluon.validators.CLEANUP'>, ...}"
p3117
sS'ccode'
p3118
S'<code object <module> at 0000000009A86130, file ...tions\\welcome\\controllers/tournament.py", line 3>'
p3119
ssS'lnum'
p3120
I204
sS'lines'
p3121
(dp3122
I199
S'    try:'
p3123
sI200
S'        if type(code) == types.CodeType:'
p3124
sI201
S'            ccode = code'
p3125
sI202
S'        else:'
p3126
sI203
S'            ccode = compile2(code,layer)'
p3127
sI204
S'        exec ccode in environment'
p3128
sI205
S'    except HTTP:'
p3129
sI206
S'        raise'
p3130
sI207
S'    except RestrictedError:'
p3131
sI208
S'        # do not encapsulate (obfuscate) the original RestrictedError'
p3132
ssS'call'
p3133
S'(code="# coding: utf8\\n#\\ndef index(): \\n    #db = DAL(\'ms...rnament\')\\n\\nresponse._vars=response._caller(show)\\n", environment={\'A\': <class \'gluon.html.A\'>, \'Auth\': <class \'gluon.tools.Auth\'>, \'B\': <class \'gluon.html.B\'>, \'BEAUTIFY\': <class \'gluon.html.BEAUTIFY\'>, \'BODY\': <class \'gluon.html.BODY\'>, \'BR\': <class \'gluon.html.BR\'>, \'BUTTON\': <class \'gluon.html.BUTTON\'>, \'CAT\': <class \'gluon.html.CAT\'>, \'CENTER\': <class \'gluon.html.CENTER\'>, \'CLEANUP\': <class \'gluon.validators.CLEANUP\'>, ...}, layer=r\'C:\\Users\\mellinja\\Documents\\SC2Tracker\\SC2Tourne...py\\applications\\welcome\\controllers/tournament.py\')'
p3134
sS'func'
p3135
S'restricted'
p3136
sa(dp3137
g3112
S'C:\\Users\\mellinja\\Documents\\SC2Tracker\\SC2TourneyTracker\\web2py\\applications\\welcome\\controllers\\tournament.py'
p3138
sg3114
(dp3139
sg3120
I29
sg3121
(dp3140
I18
S''
sI19
S'def join():'
p3141
sI20
S''
sI21
S'    playerID = auth.user.ID'
p3142
sI22
S'    tournyID = request.args(0)'
p3143
sI23
S'    #TODO: add tourny'
p3144
sI24
S''
sI25
S"    redirect(URL('show/'+request.args(0)))"
p3145
sI26
S"    response.flash = 'Joined the tournament'"
p3146
sI27
S"    return dict(pid = request.args(0), message = 'Joined the tournament')"
p3147
ssg3133
S'()'
p3148
sg3135
S'<module>'
p3149
sa(dp3150
g3112
S'C:\\Users\\mellinja\\Documents\\SC2Tracker\\SC2TourneyTracker\\web2py\\gluon\\globals.py'
p3151
sg3114
(dp3152
S'self'
p3153
S'undefined'
p3154
sS'f'
S'<function show>'
p3155
ssg3120
I172
sg3121
(dp3156
I167
S'        self.meta = Storage()      # used by web2py_ajax.html'
p3157
sI168
S'        self.menu = []             # used by the default view layout'
p3158
sI169
S'        self.files = []            # used by web2py_ajax.html'
p3159
sI170
S'        self.generic_patterns = [] # patterns to allow generic views'
p3160
sI171
S'        self._vars = None'
p3161
sI172
S'        self._caller = lambda f: f()'
p3162
sI173
S'        self._view_environment = None'
p3163
sI174
S'        self._custom_commit = None'
p3164
sI175
S'        self._custom_rollback = None'
p3165
sI176
S''
ssg3133
S'(f=<function show>)'
p3166
sg3135
S'<lambda>'
p3167
sa(dp3168
g3112
S'C:\\Users\\mellinja\\Documents\\SC2Tracker\\SC2TourneyTracker\\web2py\\applications\\welcome\\controllers\\tournament.py'
p3169
sg3114
(dp3170
sg3120
I15
sg3121
(dp3171
I10
S"    tourny = db.executesql('SELECT * FROM Tournament WHERE ID = ' + str(request.args(0)))"
p3172
sI11
S'    form = FORM(INPUT( _type = \'submit\',_value="Join"))'
p3173
sI12
S'    if form.process().accepted:'
p3174
sI13
S"        response.flash = 'Joined the tournament!'"
p3175
sI14
S"        pid = db.executesql('SELECT ID FROM Player WHERE ID = ' + str(auth.user_id))"
p3176
sI15
S'        db.executesql(\'EXEC player_to_tourney_sp \' + str(pid) + ", " + str(auth.user_id))'
p3177
sI16
S'    return dict(tourny = tourny,form = form)'
p3178
sI17
S''
sI18
S''
sI19
S'def join():'
p3179
ssg3133
S'()'
p3180
sg3135
S'show'
p3181
sa(dp3182
g3112
S'C:\\Users\\mellinja\\Documents\\SC2Tracker\\SC2TourneyTracker\\web2py\\gluon\\dal.py'
p3183
sg3114
(dp3184
S'query'
p3185
S"'EXEC player_to_tourney_sp [(3, )], 3'"
p3186
sS'self'
p3187
S"<DAL {'auth_event': <Table {'origin': <gluon.dal...gluon.dal.Field object at 0x000000000A299DA0>}>}>"
p3188
sS'self._adapter'
p3189
S'<gluon.dal.MSSQLAdapter object>'
p3190
sS'self._adapter.execute'
p3191
S'<bound method MSSQLAdapter.execute of <gluon.dal.MSSQLAdapter object>>'
p3192
ssg3120
I5170
sg3121
(dp3193
I5165
S'        --bmeredyk'
p3194
sI5166
S'        """'
p3195
sI5167
S'        if placeholders:'
p3196
sI5168
S'            self._adapter.execute(query, placeholders)'
p3197
sI5169
S'        else:'
p3198
sI5170
S'            self._adapter.execute(query)'
p3199
sI5171
S'        if as_dict:'
p3200
sI5172
S"            if not hasattr(self._adapter.cursor,'description'):"
p3201
sI5173
S'                raise RuntimeError, "database does not support executesql(...,as_dict=True)"'
p3202
sI5174
S'            # Non-DAL legacy db query, converts cursor results to dict.'
p3203
ssg3133
S"(self=<DAL {'auth_event': <Table {'origin': <gluon.dal...gluon.dal.Field object at 0x000000000A299DA0>}>}>, query='EXEC player_to_tourney_sp [(3, )], 3', placeholders=None, as_dict=False)"
p3204
sg3135
S'executesql'
p3205
sa(dp3206
g3112
S'C:\\Users\\mellinja\\Documents\\SC2Tracker\\SC2TourneyTracker\\web2py\\gluon\\dal.py'
p3207
sg3114
(dp3208
S'a'
S"('EXEC player_to_tourney_sp [(3, )], 3',)"
p3209
sS'self'
p3210
S'<gluon.dal.MSSQLAdapter object>'
p3211
sS'b'
g21
sS'self.log_execute'
p3212
S'<bound method MSSQLAdapter.log_execute of <gluon.dal.MSSQLAdapter object>>'
p3213
ssg3120
I1359
sg3121
(dp3214
I1354
S'        self.db._timings.append((a[0],time.time()-t0))'
p3215
sI1355
S'        del self.db._timings[:-TIMINGSSIZE]'
p3216
sI1356
S'        return ret'
p3217
sI1357
S''
sI1358
S'    def execute(self, *a, **b):'
p3218
sI1359
S'        return self.log_execute(*a, **b)'
p3219
sI1360
S''
sI1361
S'    def represent(self, obj, fieldtype):'
p3220
sI1362
S'        if isinstance(obj, CALLABLETYPES):'
p3221
sI1363
S'            obj = obj()'
p3222
ssg3133
S"(self=<gluon.dal.MSSQLAdapter object>, *a=('EXEC player_to_tourney_sp [(3, )], 3',), **b={})"
p3223
sg3135
S'execute'
p3224
sa(dp3225
g3112
S'C:\\Users\\mellinja\\Documents\\SC2Tracker\\SC2TourneyTracker\\web2py\\gluon\\dal.py'
p3226
sg3114
(dp3227
S'a'
S"('EXEC player_to_tourney_sp [(3, )], 3',)"
p3228
sS'b'
g21
sS'self'
p3229
S'<gluon.dal.MSSQLAdapter object>'
p3230
sS'ret'
p3231
g3154
sS'self.cursor'
p3232
S'<pyodbc.Cursor object>'
p3233
sS'self.cursor.execute'
p3234
S'<built-in method execute of pyodbc.Cursor object>'
p3235
ssg3120
I1353
sg3121
(dp3236
I1348
S'        self.execute(query)'
p3237
sI1349
S''
sI1350
S'    def log_execute(self, *a, **b):'
p3238
sI1351
S'        self.db._lastsql = a[0]'
p3239
sI1352
S'        t0 = time.time()'
p3240
sI1353
S'        ret = self.cursor.execute(*a, **b)'
p3241
sI1354
S'        self.db._timings.append((a[0],time.time()-t0))'
p3242
sI1355
S'        del self.db._timings[:-TIMINGSSIZE]'
p3243
sI1356
S'        return ret'
p3244
sI1357
S''
ssg3133
S"(self=<gluon.dal.MSSQLAdapter object>, *a=('EXEC player_to_tourney_sp [(3, )], 3',), **b={})"
p3245
sg3135
S'log_execute'
p3246
sasS'pyver'
p3247
S'Python 2.7.2: C:\\Python27\\python.exe'
p3248
sS'session'
p3249
g61
(g62
g63
NtRp3250
(dp3251
g66
(dp3252
sg68
(lp3253
g61
(g70
g63
NtRp3254
(dp3255
g66
(dp3256
g74
I5
ssg75
Nsg68
(lp3257
g61
(g77
g63
NtRp3258
(dp3259
g66
(dp3260
sg75
g3254
sg68
(lp3261
g61
(g82
g63
NtRp3262
(dp3263
g66
(dp3264
g86
g87
ssg75
g3258
sg68
(lp3265
S'auth'
p3266
asbag61
(g82
g63
NtRp3267
(dp3268
g66
(dp3269
g93
g94
ssg75
g3258
sg68
(lp3270
S':'
asbag61
(g82
g63
NtRp3271
(dp3272
g66
(dp3273
sg75
g3258
sg68
(lp3274
g61
(g62
g63
NtRp3275
(dp3276
g66
(dp3277
g74
I5
ssg75
g3271
sg68
(lp3278
g61
(g70
g63
NtRp3279
(dp3280
g66
(dp3281
g74
I4
ssg75
Nsg68
(lp3282
g61
(g77
g63
NtRp3283
(dp3284
g66
(dp3285
sg75
g3279
sg68
(lp3286
g61
(g82
g63
NtRp3287
(dp3288
g66
(dp3289
g86
g87
ssg75
g3283
sg68
(lp3290
S'expiration'
p3291
asbag61
(g82
g63
NtRp3292
(dp3293
g66
(dp3294
g93
g94
ssg75
g3283
sg68
(lp3295
S':'
asbag61
(g82
g63
NtRp3296
(dp3297
g66
(dp3298
sg75
g3283
sg68
(lp3299
g61
(g62
g63
NtRp3300
(dp3301
g66
(dp3302
g74
I4
ssg75
g3296
sg68
(lp3303
S'2592000'
p3304
asbasbasbag61
(g77
g63
NtRp3305
(dp3306
g66
(dp3307
sg75
g3279
sg68
(lp3308
g61
(g82
g63
NtRp3309
(dp3310
g66
(dp3311
g86
g87
ssg75
g3305
sg68
(lp3312
S'hmac_key'
p3313
asbag61
(g82
g63
NtRp3314
(dp3315
g66
(dp3316
g93
g94
ssg75
g3305
sg68
(lp3317
S':'
asbag61
(g82
g63
NtRp3318
(dp3319
g66
(dp3320
sg75
g3305
sg68
(lp3321
g61
(g62
g63
NtRp3322
(dp3323
g66
(dp3324
g74
I4
ssg75
g3318
sg68
(lp3325
S'cfc9cd07-1752-47c5-8533-996f0f82c795'
p3326
asbasbasbag61
(g77
g63
NtRp3327
(dp3328
g66
(dp3329
sg75
g3279
sg68
(lp3330
g61
(g82
g63
NtRp3331
(dp3332
g66
(dp3333
g86
g87
ssg75
g3327
sg68
(lp3334
S'last_visit'
p3335
asbag61
(g82
g63
NtRp3336
(dp3337
g66
(dp3338
g93
g94
ssg75
g3327
sg68
(lp3339
S':'
asbag61
(g82
g63
NtRp3340
(dp3341
g66
(dp3342
sg75
g3327
sg68
(lp3343
g61
(g62
g63
NtRp3344
(dp3345
g66
(dp3346
g74
I4
ssg75
g3340
sg68
(lp3347
S'datetime.datetime(2012, 2, 9, 13, 11, 12, 236000)'
p3348
asbasbasbag61
(g77
g63
NtRp3349
(dp3350
g66
(dp3351
sg75
g3279
sg68
(lp3352
g61
(g82
g63
NtRp3353
(dp3354
g66
(dp3355
g86
g87
ssg75
g3349
sg68
(lp3356
S'remember'
p3357
asbag61
(g82
g63
NtRp3358
(dp3359
g66
(dp3360
g93
g94
ssg75
g3349
sg68
(lp3361
S':'
asbag61
(g82
g63
NtRp3362
(dp3363
g66
(dp3364
sg75
g3349
sg68
(lp3365
g61
(g62
g63
NtRp3366
(dp3367
g66
(dp3368
g74
I4
ssg75
g3362
sg68
(lp3369
g104
asbasbasbag61
(g77
g63
NtRp3370
(dp3371
g66
(dp3372
sg75
g3279
sg68
(lp3373
g61
(g82
g63
NtRp3374
(dp3375
g66
(dp3376
g86
g87
ssg75
g3370
sg68
(lp3377
S'user'
p3378
asbag61
(g82
g63
NtRp3379
(dp3380
g66
(dp3381
g93
g94
ssg75
g3370
sg68
(lp3382
S':'
asbag61
(g82
g63
NtRp3383
(dp3384
g66
(dp3385
sg75
g3370
sg68
(lp3386
g61
(g62
g63
NtRp3387
(dp3388
g66
(dp3389
g74
I4
ssg75
g3383
sg68
(lp3390
g61
(g70
g63
NtRp3391
(dp3392
g66
(dp3393
g74
I3
ssg75
Nsg68
(lp3394
g61
(g77
g63
NtRp3395
(dp3396
g66
(dp3397
sg75
g3391
sg68
(lp3398
g61
(g82
g63
NtRp3399
(dp3400
g66
(dp3401
g86
g87
ssg75
g3395
sg68
(lp3402
S'email'
p3403
asbag61
(g82
g63
NtRp3404
(dp3405
g66
(dp3406
g93
g94
ssg75
g3395
sg68
(lp3407
S':'
asbag61
(g82
g63
NtRp3408
(dp3409
g66
(dp3410
sg75
g3395
sg68
(lp3411
g61
(g62
g63
NtRp3412
(dp3413
g66
(dp3414
g74
I3
ssg75
g3408
sg68
(lp3415
S'mellinja@gmail.com'
p3416
asbasbasbag61
(g77
g63
NtRp3417
(dp3418
g66
(dp3419
sg75
g3391
sg68
(lp3420
g61
(g82
g63
NtRp3421
(dp3422
g66
(dp3423
g86
g87
ssg75
g3417
sg68
(lp3424
S'first_name'
p3425
asbag61
(g82
g63
NtRp3426
(dp3427
g66
(dp3428
g93
g94
ssg75
g3417
sg68
(lp3429
S':'
asbag61
(g82
g63
NtRp3430
(dp3431
g66
(dp3432
sg75
g3417
sg68
(lp3433
g61
(g62
g63
NtRp3434
(dp3435
g66
(dp3436
g74
I3
ssg75
g3430
sg68
(lp3437
S'Jackson'
p3438
asbasbasbag61
(g77
g63
NtRp3439
(dp3440
g66
(dp3441
sg75
g3391
sg68
(lp3442
g61
(g82
g63
NtRp3443
(dp3444
g66
(dp3445
g86
g87
ssg75
g3439
sg68
(lp3446
S'id'
p3447
asbag61
(g82
g63
NtRp3448
(dp3449
g66
(dp3450
g93
g94
ssg75
g3439
sg68
(lp3451
S':'
asbag61
(g82
g63
NtRp3452
(dp3453
g66
(dp3454
sg75
g3439
sg68
(lp3455
g61
(g62
g63
NtRp3456
(dp3457
g66
(dp3458
g74
I3
ssg75
g3452
sg68
(lp3459
S'3'
asbasbasbag61
(g77
g63
NtRp3460
(dp3461
g66
(dp3462
sg75
g3391
sg68
(lp3463
g61
(g82
g63
NtRp3464
(dp3465
g66
(dp3466
g86
g87
ssg75
g3460
sg68
(lp3467
S'last_name'
p3468
asbag61
(g82
g63
NtRp3469
(dp3470
g66
(dp3471
g93
g94
ssg75
g3460
sg68
(lp3472
S':'
asbag61
(g82
g63
NtRp3473
(dp3474
g66
(dp3475
sg75
g3460
sg68
(lp3476
g61
(g62
g63
NtRp3477
(dp3478
g66
(dp3479
g74
I3
ssg75
g3473
sg68
(lp3480
S'Melling'
p3481
asbasbasbag61
(g77
g63
NtRp3482
(dp3483
g66
(dp3484
sg75
g3391
sg68
(lp3485
g61
(g82
g63
NtRp3486
(dp3487
g66
(dp3488
g86
g87
ssg75
g3482
sg68
(lp3489
S'password'
p3490
asbag61
(g82
g63
NtRp3491
(dp3492
g66
(dp3493
g93
g94
ssg75
g3482
sg68
(lp3494
S':'
asbag61
(g82
g63
NtRp3495
(dp3496
g66
(dp3497
sg75
g3482
sg68
(lp3498
g61
(g62
g63
NtRp3499
(dp3500
g66
(dp3501
g74
I3
ssg75
g3495
sg68
(lp3502
S'98beeff9538312abb10179bd86e0a5a2'
p3503
asbasbasbag61
(g77
g63
NtRp3504
(dp3505
g66
(dp3506
sg75
g3391
sg68
(lp3507
g61
(g82
g63
NtRp3508
(dp3509
g66
(dp3510
g86
g87
ssg75
g3504
sg68
(lp3511
S'registration_id'
p3512
asbag61
(g82
g63
NtRp3513
(dp3514
g66
(dp3515
g93
g94
ssg75
g3504
sg68
(lp3516
S':'
asbag61
(g82
g63
NtRp3517
(dp3518
g66
(dp3519
sg75
g3504
sg68
(lp3520
g61
(g62
g63
NtRp3521
(dp3522
g66
(dp3523
g74
I3
ssg75
g3517
sg68
(lp3524
S''
asbasbasbag61
(g77
g63
NtRp3525
(dp3526
g66
(dp3527
sg75
g3391
sg68
(lp3528
g61
(g82
g63
NtRp3529
(dp3530
g66
(dp3531
g86
g87
ssg75
g3525
sg68
(lp3532
S'registration_key'
p3533
asbag61
(g82
g63
NtRp3534
(dp3535
g66
(dp3536
g93
g94
ssg75
g3525
sg68
(lp3537
S':'
asbag61
(g82
g63
NtRp3538
(dp3539
g66
(dp3540
sg75
g3525
sg68
(lp3541
g61
(g62
g63
NtRp3542
(dp3543
g66
(dp3544
g74
I3
ssg75
g3538
sg68
(lp3545
S''
asbasbasbag61
(g77
g63
NtRp3546
(dp3547
g66
(dp3548
sg75
g3391
sg68
(lp3549
g61
(g82
g63
NtRp3550
(dp3551
g66
(dp3552
g86
g87
ssg75
g3546
sg68
(lp3553
S'reset_password_key'
p3554
asbag61
(g82
g63
NtRp3555
(dp3556
g66
(dp3557
g93
g94
ssg75
g3546
sg68
(lp3558
S':'
asbag61
(g82
g63
NtRp3559
(dp3560
g66
(dp3561
sg75
g3546
sg68
(lp3562
g61
(g62
g63
NtRp3563
(dp3564
g66
(dp3565
g74
I3
ssg75
g3559
sg68
(lp3566
S'1327597193-2590f763-191b-469c-bc47-fc293ee83460'
p3567
asbasbasbasbasbasbasbasbasbasbasbasbasbsS'etype'
p3568
S"<class 'pyodbc.ProgrammingError'>"
p3569
sS'date'
p3570
S'Thu Feb 09 13:12:25 2012'
p3571
sS'response'
p3572
g61
(g62
g63
NtRp3573
(dp3574
g66
(dp3575
sg68
(lp3576
g61
(g70
g63
NtRp3577
(dp3578
g66
(dp3579
g74
I5
ssg75
Nsg68
(lp3580
g61
(g77
g63
NtRp3581
(dp3582
g66
(dp3583
sg75
g3577
sg68
(lp3584
g61
(g82
g63
NtRp3585
(dp3586
g66
(dp3587
g86
g87
ssg75
g3581
sg68
(lp3588
g171
asbag61
(g82
g63
NtRp3589
(dp3590
g66
(dp3591
g93
g94
ssg75
g3581
sg68
(lp3592
S':'
asbag61
(g82
g63
NtRp3593
(dp3594
g66
(dp3595
sg75
g3581
sg68
(lp3596
g61
(g62
g63
NtRp3597
(dp3598
g66
(dp3599
g74
I5
ssg75
g3593
sg68
(lp3600
S'<cStringIO.StringO object at 0x0000000008437AB0>'
p3601
asbasbasbag61
(g77
g63
NtRp3602
(dp3603
g66
(dp3604
sg75
g3577
sg68
(lp3605
g61
(g82
g63
NtRp3606
(dp3607
g66
(dp3608
g86
g87
ssg75
g3602
sg68
(lp3609
g237
asbag61
(g82
g63
NtRp3610
(dp3611
g66
(dp3612
g93
g94
ssg75
g3602
sg68
(lp3613
S':'
asbag61
(g82
g63
NtRp3614
(dp3615
g66
(dp3616
sg75
g3602
sg68
(lp3617
g61
(g62
g63
NtRp3618
(dp3619
g66
(dp3620
g74
I5
ssg75
g3614
sg68
(lp3621
g61
(g70
g63
NtRp3622
(dp3623
g66
(dp3624
g74
I4
ssg75
Nsg68
(lp3625
g61
(g77
g63
NtRp3626
(dp3627
g66
(dp3628
sg75
g3622
sg68
(lp3629
g61
(g82
g63
NtRp3630
(dp3631
g66
(dp3632
g86
g87
ssg75
g3626
sg68
(lp3633
S'session_id_welcome'
p3634
asbag61
(g82
g63
NtRp3635
(dp3636
g66
(dp3637
g93
g94
ssg75
g3626
sg68
(lp3638
S':'
asbag61
(g82
g63
NtRp3639
(dp3640
g66
(dp3641
sg75
g3626
sg68
(lp3642
g61
(g62
g63
NtRp3643
(dp3644
g66
(dp3645
g74
I4
ssg75
g3639
sg68
(lp3646
g61
(g70
g63
NtRp3647
(dp3648
g66
(dp3649
g74
I3
ssg75
Nsg68
(lp3650
g61
(g77
g63
NtRp3651
(dp3652
g66
(dp3653
sg75
g3647
sg68
(lp3654
g61
(g82
g63
NtRp3655
(dp3656
g66
(dp3657
g86
g87
ssg75
g3651
sg68
(lp3658
g287
asbag61
(g82
g63
NtRp3659
(dp3660
g66
(dp3661
g93
g94
ssg75
g3651
sg68
(lp3662
S':'
asbag61
(g82
g63
NtRp3663
(dp3664
g66
(dp3665
sg75
g3651
sg68
(lp3666
g61
(g62
g63
NtRp3667
(dp3668
g66
(dp3669
g74
I3
ssg75
g3663
sg68
(lp3670
S''
asbasbasbag61
(g77
g63
NtRp3671
(dp3672
g66
(dp3673
sg75
g3647
sg68
(lp3674
g61
(g82
g63
NtRp3675
(dp3676
g66
(dp3677
g86
g87
ssg75
g3671
sg68
(lp3678
g308
asbag61
(g82
g63
NtRp3679
(dp3680
g66
(dp3681
g93
g94
ssg75
g3671
sg68
(lp3682
S':'
asbag61
(g82
g63
NtRp3683
(dp3684
g66
(dp3685
sg75
g3671
sg68
(lp3686
g61
(g62
g63
NtRp3687
(dp3688
g66
(dp3689
g74
I3
ssg75
g3683
sg68
(lp3690
S''
asbasbasbag61
(g77
g63
NtRp3691
(dp3692
g66
(dp3693
sg75
g3647
sg68
(lp3694
g61
(g82
g63
NtRp3695
(dp3696
g66
(dp3697
g86
g87
ssg75
g3691
sg68
(lp3698
g329
asbag61
(g82
g63
NtRp3699
(dp3700
g66
(dp3701
g93
g94
ssg75
g3691
sg68
(lp3702
S':'
asbag61
(g82
g63
NtRp3703
(dp3704
g66
(dp3705
sg75
g3691
sg68
(lp3706
g61
(g62
g63
NtRp3707
(dp3708
g66
(dp3709
g74
I3
ssg75
g3703
sg68
(lp3710
S''
asbasbasbag61
(g77
g63
NtRp3711
(dp3712
g66
(dp3713
sg75
g3647
sg68
(lp3714
g61
(g82
g63
NtRp3715
(dp3716
g66
(dp3717
g86
g87
ssg75
g3711
sg68
(lp3718
g350
asbag61
(g82
g63
NtRp3719
(dp3720
g66
(dp3721
g93
g94
ssg75
g3711
sg68
(lp3722
S':'
asbag61
(g82
g63
NtRp3723
(dp3724
g66
(dp3725
sg75
g3711
sg68
(lp3726
g61
(g62
g63
NtRp3727
(dp3728
g66
(dp3729
g74
I3
ssg75
g3723
sg68
(lp3730
S''
asbasbasbag61
(g77
g63
NtRp3731
(dp3732
g66
(dp3733
sg75
g3647
sg68
(lp3734
g61
(g82
g63
NtRp3735
(dp3736
g66
(dp3737
g86
g87
ssg75
g3731
sg68
(lp3738
g371
asbag61
(g82
g63
NtRp3739
(dp3740
g66
(dp3741
g93
g94
ssg75
g3731
sg68
(lp3742
S':'
asbag61
(g82
g63
NtRp3743
(dp3744
g66
(dp3745
sg75
g3731
sg68
(lp3746
g61
(g62
g63
NtRp3747
(dp3748
g66
(dp3749
g74
I3
ssg75
g3743
sg68
(lp3750
S''
asbasbasbag61
(g77
g63
NtRp3751
(dp3752
g66
(dp3753
sg75
g3647
sg68
(lp3754
g61
(g82
g63
NtRp3755
(dp3756
g66
(dp3757
g86
g87
ssg75
g3751
sg68
(lp3758
g392
asbag61
(g82
g63
NtRp3759
(dp3760
g66
(dp3761
g93
g94
ssg75
g3751
sg68
(lp3762
S':'
asbag61
(g82
g63
NtRp3763
(dp3764
g66
(dp3765
sg75
g3751
sg68
(lp3766
g61
(g62
g63
NtRp3767
(dp3768
g66
(dp3769
g74
I3
ssg75
g3763
sg68
(lp3770
S'/'
asbasbasbag61
(g77
g63
NtRp3771
(dp3772
g66
(dp3773
sg75
g3647
sg68
(lp3774
g61
(g82
g63
NtRp3775
(dp3776
g66
(dp3777
g86
g87
ssg75
g3771
sg68
(lp3778
g413
asbag61
(g82
g63
NtRp3779
(dp3780
g66
(dp3781
g93
g94
ssg75
g3771
sg68
(lp3782
S':'
asbag61
(g82
g63
NtRp3783
(dp3784
g66
(dp3785
sg75
g3771
sg68
(lp3786
g61
(g62
g63
NtRp3787
(dp3788
g66
(dp3789
g74
I3
ssg75
g3783
sg68
(lp3790
S''
asbasbasbag61
(g77
g63
NtRp3791
(dp3792
g66
(dp3793
sg75
g3647
sg68
(lp3794
g61
(g82
g63
NtRp3795
(dp3796
g66
(dp3797
g86
g87
ssg75
g3791
sg68
(lp3798
g434
asbag61
(g82
g63
NtRp3799
(dp3800
g66
(dp3801
g93
g94
ssg75
g3791
sg68
(lp3802
S':'
asbag61
(g82
g63
NtRp3803
(dp3804
g66
(dp3805
sg75
g3791
sg68
(lp3806
g61
(g62
g63
NtRp3807
(dp3808
g66
(dp3809
g74
I3
ssg75
g3803
sg68
(lp3810
S''
asbasbasbasbasbasbasbasbasbasbasbag61
(g77
g63
NtRp3811
(dp3812
g66
(dp3813
sg75
g3577
sg68
(lp3814
g61
(g82
g63
NtRp3815
(dp3816
g66
(dp3817
g86
g87
ssg75
g3811
sg68
(lp3818
S'files'
p3819
asbag61
(g82
g63
NtRp3820
(dp3821
g66
(dp3822
g93
g94
ssg75
g3811
sg68
(lp3823
S':'
asbag61
(g82
g63
NtRp3824
(dp3825
g66
(dp3826
sg75
g3811
sg68
(lp3827
g61
(g62
g63
NtRp3828
(dp3829
g66
(dp3830
g74
I5
ssg75
g3824
sg68
(lp3831
g61
(g70
g63
NtRp3832
(dp3833
g66
(dp3834
g74
I4
ssg75
Nsg68
(lp3835
sbasbasbasbag61
(g77
g63
NtRp3836
(dp3837
g66
(dp3838
sg75
g3577
sg68
(lp3839
g61
(g82
g63
NtRp3840
(dp3841
g66
(dp3842
g86
g87
ssg75
g3836
sg68
(lp3843
S'flash'
p3844
asbag61
(g82
g63
NtRp3845
(dp3846
g66
(dp3847
g93
g94
ssg75
g3836
sg68
(lp3848
S':'
asbag61
(g82
g63
NtRp3849
(dp3850
g66
(dp3851
sg75
g3836
sg68
(lp3852
g61
(g62
g63
NtRp3853
(dp3854
g66
(dp3855
g74
I5
ssg75
g3849
sg68
(lp3856
S'Joined the tournament!'
p3857
asbasbasbag61
(g77
g63
NtRp3858
(dp3859
g66
(dp3860
sg75
g3577
sg68
(lp3861
g61
(g82
g63
NtRp3862
(dp3863
g66
(dp3864
g86
g87
ssg75
g3858
sg68
(lp3865
S'generic_patterns'
p3866
asbag61
(g82
g63
NtRp3867
(dp3868
g66
(dp3869
g93
g94
ssg75
g3858
sg68
(lp3870
S':'
asbag61
(g82
g63
NtRp3871
(dp3872
g66
(dp3873
sg75
g3858
sg68
(lp3874
g61
(g62
g63
NtRp3875
(dp3876
g66
(dp3877
g74
I5
ssg75
g3871
sg68
(lp3878
g61
(g70
g63
NtRp3879
(dp3880
g66
(dp3881
g74
I4
ssg75
Nsg68
(lp3882
g61
(g77
g63
NtRp3883
(dp3884
g66
(dp3885
sg75
g3879
sg68
(lp3886
g61
(g82
g63
NtRp3887
(dp3888
g66
(dp3889
sg75
g3883
sg68
(lp3890
g61
(g62
g63
NtRp3891
(dp3892
g66
(dp3893
g74
I4
ssg75
g3887
sg68
(lp3894
S'*'
asbasbasbasbasbasbasbag61
(g77
g63
NtRp3895
(dp3896
g66
(dp3897
sg75
g3577
sg68
(lp3898
g61
(g82
g63
NtRp3899
(dp3900
g66
(dp3901
g86
g87
ssg75
g3895
sg68
(lp3902
S'headers'
p3903
asbag61
(g82
g63
NtRp3904
(dp3905
g66
(dp3906
g93
g94
ssg75
g3895
sg68
(lp3907
S':'
asbag61
(g82
g63
NtRp3908
(dp3909
g66
(dp3910
sg75
g3895
sg68
(lp3911
g61
(g62
g63
NtRp3912
(dp3913
g66
(dp3914
g74
I5
ssg75
g3908
sg68
(lp3915
g61
(g70
g63
NtRp3916
(dp3917
g66
(dp3918
g74
I4
ssg75
Nsg68
(lp3919
g61
(g77
g63
NtRp3920
(dp3921
g66
(dp3922
sg75
g3916
sg68
(lp3923
g61
(g82
g63
NtRp3924
(dp3925
g66
(dp3926
g86
g87
ssg75
g3920
sg68
(lp3927
S'Cache-Control'
p3928
asbag61
(g82
g63
NtRp3929
(dp3930
g66
(dp3931
g93
g94
ssg75
g3920
sg68
(lp3932
S':'
asbag61
(g82
g63
NtRp3933
(dp3934
g66
(dp3935
sg75
g3920
sg68
(lp3936
g61
(g62
g63
NtRp3937
(dp3938
g66
(dp3939
g74
I4
ssg75
g3933
sg68
(lp3940
S'no-store, no-cache, must-revalidate, post-check=0, pre-check=0'
p3941
asbasbasbag61
(g77
g63
NtRp3942
(dp3943
g66
(dp3944
sg75
g3916
sg68
(lp3945
g61
(g82
g63
NtRp3946
(dp3947
g66
(dp3948
g86
g87
ssg75
g3942
sg68
(lp3949
S'Content-Type'
p3950
asbag61
(g82
g63
NtRp3951
(dp3952
g66
(dp3953
g93
g94
ssg75
g3942
sg68
(lp3954
S':'
asbag61
(g82
g63
NtRp3955
(dp3956
g66
(dp3957
sg75
g3942
sg68
(lp3958
g61
(g62
g63
NtRp3959
(dp3960
g66
(dp3961
g74
I4
ssg75
g3955
sg68
(lp3962
S'text/html; charset=utf-8'
p3963
asbasbasbag61
(g77
g63
NtRp3964
(dp3965
g66
(dp3966
sg75
g3916
sg68
(lp3967
g61
(g82
g63
NtRp3968
(dp3969
g66
(dp3970
g86
g87
ssg75
g3964
sg68
(lp3971
S'Expires'
p3972
asbag61
(g82
g63
NtRp3973
(dp3974
g66
(dp3975
g93
g94
ssg75
g3964
sg68
(lp3976
S':'
asbag61
(g82
g63
NtRp3977
(dp3978
g66
(dp3979
sg75
g3964
sg68
(lp3980
g61
(g62
g63
NtRp3981
(dp3982
g66
(dp3983
g74
I4
ssg75
g3977
sg68
(lp3984
S'Thu, 09 Feb 2012 18:12:25 GMT'
p3985
asbasbasbag61
(g77
g63
NtRp3986
(dp3987
g66
(dp3988
sg75
g3916
sg68
(lp3989
g61
(g82
g63
NtRp3990
(dp3991
g66
(dp3992
g86
g87
ssg75
g3986
sg68
(lp3993
S'Pragma'
p3994
asbag61
(g82
g63
NtRp3995
(dp3996
g66
(dp3997
g93
g94
ssg75
g3986
sg68
(lp3998
S':'
asbag61
(g82
g63
NtRp3999
(dp4000
g66
(dp4001
sg75
g3986
sg68
(lp4002
g61
(g62
g63
NtRp4003
(dp4004
g66
(dp4005
g74
I4
ssg75
g3999
sg68
(lp4006
S'no-cache'
p4007
asbasbasbag61
(g77
g63
NtRp4008
(dp4009
g66
(dp4010
sg75
g3916
sg68
(lp4011
g61
(g82
g63
NtRp4012
(dp4013
g66
(dp4014
g86
g87
ssg75
g4008
sg68
(lp4015
S'X-Powered-By'
p4016
asbag61
(g82
g63
NtRp4017
(dp4018
g66
(dp4019
g93
g94
ssg75
g4008
sg68
(lp4020
S':'
asbag61
(g82
g63
NtRp4021
(dp4022
g66
(dp4023
sg75
g4008
sg68
(lp4024
g61
(g62
g63
NtRp4025
(dp4026
g66
(dp4027
g74
I4
ssg75
g4021
sg68
(lp4028
S'web2py'
p4029
asbasbasbasbasbasbasbag61
(g77
g63
NtRp4030
(dp4031
g66
(dp4032
sg75
g3577
sg68
(lp4033
g61
(g82
g63
NtRp4034
(dp4035
g66
(dp4036
g86
g87
ssg75
g4030
sg68
(lp4037
S'menu'
p4038
asbag61
(g82
g63
NtRp4039
(dp4040
g66
(dp4041
g93
g94
ssg75
g4030
sg68
(lp4042
S':'
asbag61
(g82
g63
NtRp4043
(dp4044
g66
(dp4045
sg75
g4030
sg68
(lp4046
g61
(g62
g63
NtRp4047
(dp4048
g66
(dp4049
g74
I5
ssg75
g4043
sg68
(lp4050
g61
(g70
g63
NtRp4051
(dp4052
g66
(dp4053
g74
I4
ssg75
Nsg68
(lp4054
g61
(g77
g63
NtRp4055
(dp4056
g66
(dp4057
sg75
g4051
sg68
(lp4058
g61
(g82
g63
NtRp4059
(dp4060
g66
(dp4061
sg75
g4055
sg68
(lp4062
g61
(g62
g63
NtRp4063
(dp4064
g66
(dp4065
g74
I4
ssg75
g4059
sg68
(lp4066
g61
(g70
g63
NtRp4067
(dp4068
g66
(dp4069
g74
I3
ssg75
Nsg68
(lp4070
g61
(g77
g63
NtRp4071
(dp4072
g66
(dp4073
sg75
g4067
sg68
(lp4074
g61
(g82
g63
NtRp4075
(dp4076
g66
(dp4077
sg75
g4071
sg68
(lp4078
g61
(g62
g63
NtRp4079
(dp4080
g66
(dp4081
g74
I3
ssg75
g4075
sg68
(lp4082
cgluon.languages
lazyT_unpickle
p4083
(S't\x04\x00\x00\x00Home'
tRp4084
asbasbasbag61
(g77
g63
NtRp4085
(dp4086
g66
(dp4087
sg75
g4067
sg68
(lp4088
g61
(g82
g63
NtRp4089
(dp4090
g66
(dp4091
sg75
g4085
sg68
(lp4092
g61
(g62
g63
NtRp4093
(dp4094
g66
(dp4095
g74
I3
ssg75
g4089
sg68
(lp4096
g104
asbasbasbag61
(g77
g63
NtRp4097
(dp4098
g66
(dp4099
sg75
g4067
sg68
(lp4100
g61
(g82
g63
NtRp4101
(dp4102
g66
(dp4103
sg75
g4097
sg68
(lp4104
g61
(g62
g63
NtRp4105
(dp4106
g66
(dp4107
g74
I3
ssg75
g4101
sg68
(lp4108
S'/welcome/default/index'
p4109
asbasbasbag61
(g77
g63
NtRp4110
(dp4111
g66
(dp4112
sg75
g4067
sg68
(lp4113
g61
(g82
g63
NtRp4114
(dp4115
g66
(dp4116
sg75
g4110
sg68
(lp4117
g61
(g62
g63
NtRp4118
(dp4119
g66
(dp4120
g74
I3
ssg75
g4114
sg68
(lp4121
g61
(g70
g63
NtRp4122
(dp4123
g66
(dp4124
g74
I2
ssg75
Nsg68
(lp4125
sbasbasbasbasbasbasbasbasbasbasbasbag61
(g77
g63
NtRp4126
(dp4127
g66
(dp4128
sg75
g3577
sg68
(lp4129
g61
(g82
g63
NtRp4130
(dp4131
g66
(dp4132
g86
g87
ssg75
g4126
sg68
(lp4133
S'meta'
p4134
asbag61
(g82
g63
NtRp4135
(dp4136
g66
(dp4137
g93
g94
ssg75
g4126
sg68
(lp4138
S':'
asbag61
(g82
g63
NtRp4139
(dp4140
g66
(dp4141
sg75
g4126
sg68
(lp4142
g61
(g62
g63
NtRp4143
(dp4144
g66
(dp4145
g74
I5
ssg75
g4139
sg68
(lp4146
g61
(g70
g63
NtRp4147
(dp4148
g66
(dp4149
g74
I4
ssg75
Nsg68
(lp4150
g61
(g77
g63
NtRp4151
(dp4152
g66
(dp4153
sg75
g4147
sg68
(lp4154
g61
(g82
g63
NtRp4155
(dp4156
g66
(dp4157
g86
g87
ssg75
g4151
sg68
(lp4158
S'author'
p4159
asbag61
(g82
g63
NtRp4160
(dp4161
g66
(dp4162
g93
g94
ssg75
g4151
sg68
(lp4163
S':'
asbag61
(g82
g63
NtRp4164
(dp4165
g66
(dp4166
sg75
g4151
sg68
(lp4167
g61
(g62
g63
NtRp4168
(dp4169
g66
(dp4170
g74
I4
ssg75
g4164
sg68
(lp4171
S'Your Name <you@example.com>'
p4172
asbasbasbag61
(g77
g63
NtRp4173
(dp4174
g66
(dp4175
sg75
g4147
sg68
(lp4176
g61
(g82
g63
NtRp4177
(dp4178
g66
(dp4179
g86
g87
ssg75
g4173
sg68
(lp4180
S'copyright'
p4181
asbag61
(g82
g63
NtRp4182
(dp4183
g66
(dp4184
g93
g94
ssg75
g4173
sg68
(lp4185
S':'
asbag61
(g82
g63
NtRp4186
(dp4187
g66
(dp4188
sg75
g4173
sg68
(lp4189
g61
(g62
g63
NtRp4190
(dp4191
g66
(dp4192
g74
I4
ssg75
g4186
sg68
(lp4193
S'Copyright 2011'
p4194
asbasbasbag61
(g77
g63
NtRp4195
(dp4196
g66
(dp4197
sg75
g4147
sg68
(lp4198
g61
(g82
g63
NtRp4199
(dp4200
g66
(dp4201
g86
g87
ssg75
g4195
sg68
(lp4202
S'description'
p4203
asbag61
(g82
g63
NtRp4204
(dp4205
g66
(dp4206
g93
g94
ssg75
g4195
sg68
(lp4207
S':'
asbag61
(g82
g63
NtRp4208
(dp4209
g66
(dp4210
sg75
g4195
sg68
(lp4211
g61
(g62
g63
NtRp4212
(dp4213
g66
(dp4214
g74
I4
ssg75
g4208
sg68
(lp4215
S'a cool new app'
p4216
asbasbasbag61
(g77
g63
NtRp4217
(dp4218
g66
(dp4219
sg75
g4147
sg68
(lp4220
g61
(g82
g63
NtRp4221
(dp4222
g66
(dp4223
g86
g87
ssg75
g4217
sg68
(lp4224
S'generator'
p4225
asbag61
(g82
g63
NtRp4226
(dp4227
g66
(dp4228
g93
g94
ssg75
g4217
sg68
(lp4229
S':'
asbag61
(g82
g63
NtRp4230
(dp4231
g66
(dp4232
sg75
g4217
sg68
(lp4233
g61
(g62
g63
NtRp4234
(dp4235
g66
(dp4236
g74
I4
ssg75
g4230
sg68
(lp4237
S'Web2py Web Framework'
p4238
asbasbasbag61
(g77
g63
NtRp4239
(dp4240
g66
(dp4241
sg75
g4147
sg68
(lp4242
g61
(g82
g63
NtRp4243
(dp4244
g66
(dp4245
g86
g87
ssg75
g4239
sg68
(lp4246
S'keywords'
p4247
asbag61
(g82
g63
NtRp4248
(dp4249
g66
(dp4250
g93
g94
ssg75
g4239
sg68
(lp4251
S':'
asbag61
(g82
g63
NtRp4252
(dp4253
g66
(dp4254
sg75
g4239
sg68
(lp4255
g61
(g62
g63
NtRp4256
(dp4257
g66
(dp4258
g74
I4
ssg75
g4252
sg68
(lp4259
S'web2py, python, framework'
p4260
asbasbasbasbasbasbasbag61
(g77
g63
NtRp4261
(dp4262
g66
(dp4263
sg75
g3577
sg68
(lp4264
g61
(g82
g63
NtRp4265
(dp4266
g66
(dp4267
g86
g87
ssg75
g4261
sg68
(lp4268
S'postprocessing'
p4269
asbag61
(g82
g63
NtRp4270
(dp4271
g66
(dp4272
g93
g94
ssg75
g4261
sg68
(lp4273
S':'
asbag61
(g82
g63
NtRp4274
(dp4275
g66
(dp4276
sg75
g4261
sg68
(lp4277
g61
(g62
g63
NtRp4278
(dp4279
g66
(dp4280
g74
I5
ssg75
g4274
sg68
(lp4281
g61
(g70
g63
NtRp4282
(dp4283
g66
(dp4284
g74
I4
ssg75
Nsg68
(lp4285
sbasbasbasbag61
(g77
g63
NtRp4286
(dp4287
g66
(dp4288
sg75
g3577
sg68
(lp4289
g61
(g82
g63
NtRp4290
(dp4291
g66
(dp4292
g86
g87
ssg75
g4286
sg68
(lp4293
S'session_file'
p4294
asbag61
(g82
g63
NtRp4295
(dp4296
g66
(dp4297
g93
g94
ssg75
g4286
sg68
(lp4298
S':'
asbag61
(g82
g63
NtRp4299
(dp4300
g66
(dp4301
sg75
g4286
sg68
(lp4302
g61
(g62
g63
NtRp4303
(dp4304
g66
(dp4305
g74
I5
ssg75
g4299
sg68
(lp4306
S"<open file 'C:\\Users\\mellinja\\Documents\\SC2Tracker\\SC2TourneyTracker\\web2py\\applications\\welcome\\sessions\\127.0.0.1-3577bb45-b3be-4c0f-be7b-edc2ad5f937c', mode 'rb+' at 0x0000000009AA16F0>"
p4307
asbasbasbag61
(g77
g63
NtRp4308
(dp4309
g66
(dp4310
sg75
g3577
sg68
(lp4311
g61
(g82
g63
NtRp4312
(dp4313
g66
(dp4314
g86
g87
ssg75
g4308
sg68
(lp4315
S'session_filename'
p4316
asbag61
(g82
g63
NtRp4317
(dp4318
g66
(dp4319
g93
g94
ssg75
g4308
sg68
(lp4320
S':'
asbag61
(g82
g63
NtRp4321
(dp4322
g66
(dp4323
sg75
g4308
sg68
(lp4324
g61
(g62
g63
NtRp4325
(dp4326
g66
(dp4327
g74
I5
ssg75
g4321
sg68
(lp4328
S'C:\\Users\\mellinja\\Documents\\SC2Tracker\\SC2TourneyTracker\\web2py\\applications\\welcome\\sessions\\127.0.0.1-3577bb45-b3be-4c0f-be7b-edc2ad5f937c'
p4329
asbasbasbag61
(g77
g63
NtRp4330
(dp4331
g66
(dp4332
sg75
g3577
sg68
(lp4333
g61
(g82
g63
NtRp4334
(dp4335
g66
(dp4336
g86
g87
ssg75
g4330
sg68
(lp4337
S'session_id'
p4338
asbag61
(g82
g63
NtRp4339
(dp4340
g66
(dp4341
g93
g94
ssg75
g4330
sg68
(lp4342
S':'
asbag61
(g82
g63
NtRp4343
(dp4344
g66
(dp4345
sg75
g4330
sg68
(lp4346
g61
(g62
g63
NtRp4347
(dp4348
g66
(dp4349
g74
I5
ssg75
g4343
sg68
(lp4350
S'127.0.0.1-3577bb45-b3be-4c0f-be7b-edc2ad5f937c'
p4351
asbasbasbag61
(g77
g63
NtRp4352
(dp4353
g66
(dp4354
sg75
g3577
sg68
(lp4355
g61
(g82
g63
NtRp4356
(dp4357
g66
(dp4358
g86
g87
ssg75
g4352
sg68
(lp4359
S'session_id_name'
p4360
asbag61
(g82
g63
NtRp4361
(dp4362
g66
(dp4363
g93
g94
ssg75
g4352
sg68
(lp4364
S':'
asbag61
(g82
g63
NtRp4365
(dp4366
g66
(dp4367
sg75
g4352
sg68
(lp4368
g61
(g62
g63
NtRp4369
(dp4370
g66
(dp4371
g74
I5
ssg75
g4365
sg68
(lp4372
g3634
asbasbasbag61
(g77
g63
NtRp4373
(dp4374
g66
(dp4375
sg75
g3577
sg68
(lp4376
g61
(g82
g63
NtRp4377
(dp4378
g66
(dp4379
g86
g87
ssg75
g4373
sg68
(lp4380
S'session_locked'
p4381
asbag61
(g82
g63
NtRp4382
(dp4383
g66
(dp4384
g93
g94
ssg75
g4373
sg68
(lp4385
S':'
asbag61
(g82
g63
NtRp4386
(dp4387
g66
(dp4388
sg75
g4373
sg68
(lp4389
g61
(g62
g63
NtRp4390
(dp4391
g66
(dp4392
g74
I5
ssg75
g4386
sg68
(lp4393
g1639
asbasbasbag61
(g77
g63
NtRp4394
(dp4395
g66
(dp4396
sg75
g3577
sg68
(lp4397
g61
(g82
g63
NtRp4398
(dp4399
g66
(dp4400
g86
g87
ssg75
g4394
sg68
(lp4401
S'session_new'
p4402
asbag61
(g82
g63
NtRp4403
(dp4404
g66
(dp4405
g93
g94
ssg75
g4394
sg68
(lp4406
S':'
asbag61
(g82
g63
NtRp4407
(dp4408
g66
(dp4409
sg75
g4394
sg68
(lp4410
g61
(g62
g63
NtRp4411
(dp4412
g66
(dp4413
g74
I5
ssg75
g4407
sg68
(lp4414
g104
asbasbasbag61
(g77
g63
NtRp4415
(dp4416
g66
(dp4417
sg75
g3577
sg68
(lp4418
g61
(g82
g63
NtRp4419
(dp4420
g66
(dp4421
g86
g87
ssg75
g4415
sg68
(lp4422
S'status'
p4423
asbag61
(g82
g63
NtRp4424
(dp4425
g66
(dp4426
g93
g94
ssg75
g4415
sg68
(lp4427
S':'
asbag61
(g82
g63
NtRp4428
(dp4429
g66
(dp4430
sg75
g4415
sg68
(lp4431
g61
(g62
g63
NtRp4432
(dp4433
g66
(dp4434
g74
I5
ssg75
g4428
sg68
(lp4435
S'200'
p4436
asbasbasbag61
(g77
g63
NtRp4437
(dp4438
g66
(dp4439
sg75
g3577
sg68
(lp4440
g61
(g82
g63
NtRp4441
(dp4442
g66
(dp4443
g86
g87
ssg75
g4437
sg68
(lp4444
S'subtitle'
p4445
asbag61
(g82
g63
NtRp4446
(dp4447
g66
(dp4448
g93
g94
ssg75
g4437
sg68
(lp4449
S':'
asbag61
(g82
g63
NtRp4450
(dp4451
g66
(dp4452
sg75
g4437
sg68
(lp4453
g61
(g62
g63
NtRp4454
(dp4455
g66
(dp4456
g74
I5
ssg75
g4450
sg68
(lp4457
g4083
(S's2\x00\x00\x00Starcraft II Custom Tournament Tracker Version 0.1'
tRp4458
asbasbasbag61
(g77
g63
NtRp4459
(dp4460
g66
(dp4461
sg75
g3577
sg68
(lp4462
g61
(g82
g63
NtRp4463
(dp4464
g66
(dp4465
g86
g87
ssg75
g4459
sg68
(lp4466
S'title'
p4467
asbag61
(g82
g63
NtRp4468
(dp4469
g66
(dp4470
g93
g94
ssg75
g4459
sg68
(lp4471
S':'
asbag61
(g82
g63
NtRp4472
(dp4473
g66
(dp4474
sg75
g4459
sg68
(lp4475
g61
(g62
g63
NtRp4476
(dp4477
g66
(dp4478
g74
I5
ssg75
g4472
sg68
(lp4479
S'SC2CTT v0.1'
p4480
asbasbasbag61
(g77
g63
NtRp4481
(dp4482
g66
(dp4483
sg75
g3577
sg68
(lp4484
g61
(g82
g63
NtRp4485
(dp4486
g66
(dp4487
g86
g87
ssg75
g4481
sg68
(lp4488
g2324
asbag61
(g82
g63
NtRp4489
(dp4490
g66
(dp4491
g93
g94
ssg75
g4481
sg68
(lp4492
S':'
asbag61
(g82
g63
NtRp4493
(dp4494
g66
(dp4495
sg75
g4481
sg68
(lp4496
g61
(g62
g63
NtRp4497
(dp4498
g66
(dp4499
g74
I5
ssg75
g4493
sg68
(lp4500
g2337
asbasbasbag61
(g77
g63
NtRp4501
(dp4502
g66
(dp4503
sg75
g3577
sg68
(lp4504
g61
(g82
g63
NtRp4505
(dp4506
g66
(dp4507
g86
g87
ssg75
g4501
sg68
(lp4508
S'view'
p4509
asbag61
(g82
g63
NtRp4510
(dp4511
g66
(dp4512
g93
g94
ssg75
g4501
sg68
(lp4513
S':'
asbag61
(g82
g63
NtRp4514
(dp4515
g66
(dp4516
sg75
g4501
sg68
(lp4517
g61
(g62
g63
NtRp4518
(dp4519
g66
(dp4520
g74
I5
ssg75
g4514
sg68
(lp4521
S'tournament/show.html'
p4522
asbasbasbasbasbsS'locals'
p4523
(dp4524
S'a'
S"('EXEC player_to_tourney_sp [(3, )], 3',)"
p4525
sS'self'
p4526
S'<gluon.dal.MSSQLAdapter object>'
p4527
sS'b'
g21
sS't0'
p4528
S'1328811145.533'
p4529
sssS'traceback'
p4530
S'Traceback (most recent call last):\n  File "C:\\Users\\mellinja\\Documents\\SC2Tracker\\SC2TourneyTracker\\web2py\\gluon\\restricted.py", line 204, in restricted\n    exec ccode in environment\n  File "C:\\Users\\mellinja\\Documents\\SC2Tracker\\SC2TourneyTracker\\web2py\\applications\\welcome\\controllers/tournament.py", line 29, in <module>\n  File "C:\\Users\\mellinja\\Documents\\SC2Tracker\\SC2TourneyTracker\\web2py\\gluon\\globals.py", line 172, in <lambda>\n    self._caller = lambda f: f()\n  File "C:\\Users\\mellinja\\Documents\\SC2Tracker\\SC2TourneyTracker\\web2py\\applications\\welcome\\controllers/tournament.py", line 15, in show\n    db.executesql(\'EXEC player_to_tourney_sp \' + str(pid) + ", " + str(auth.user_id))\n  File "C:\\Users\\mellinja\\Documents\\SC2Tracker\\SC2TourneyTracker\\web2py\\gluon\\dal.py", line 5170, in executesql\n    self._adapter.execute(query)\n  File "C:\\Users\\mellinja\\Documents\\SC2Tracker\\SC2TourneyTracker\\web2py\\gluon\\dal.py", line 1359, in execute\n    return self.log_execute(*a, **b)\n  File "C:\\Users\\mellinja\\Documents\\SC2Tracker\\SC2TourneyTracker\\web2py\\gluon\\dal.py", line 1353, in log_execute\n    ret = self.cursor.execute(*a, **b)\nProgrammingError: (\'42000\', \'[42000] [Microsoft][ODBC SQL Server Driver][SQL Server]Error converting data type nvarchar to int. (8114) (SQLExecDirectW)\')\n'
p4531
s.