(dp1
S'output'
p2
S"<type 'exceptions.NameError'> global name 'message' is not defined"
p3
sS'layer'
p4
S'C:\\Users\\mellinja\\Documents\\SC2Tracker\\SC2TourneyTracker\\web2py\\applications\\welcome\\controllers/tournament.py'
p5
sS'code'
p6
S'# coding: utf8\n#\ndef index(): \n    #db = DAL(\'mssql://cheungkt:mechanes5@whale.cs.rose-hulman.edu/SC2tracker\')\n    tournies = db.executesql(\'SELECT Name, ID FROM Tournament\')\n    return dict(tournament = tournies)\n    \ndef show():\n    \n    tourny = db.executesql(\'SELECT * FROM Tournament WHERE ID = \' + str(request.args(0)))\n    if message != "":\n        response.flash = message\n    return dict(test = tourny, pid = str(request.args(0), message = ""))\n\n\ndef join():\n    \n    playerID = auth.user.ID\n    tournyID = request.args(0)\n    #TODO: add tourny\n    \n    redirect(URL(\'show/\'+request.args(0)))\n    response.flash = \'Joined the tournament\'\n    return dict(pid = request.args(0), message = \'Joined the tournament\')\n\nresponse._vars=response._caller(show)\n'
p7
sS'snapshot'
p8
(dp9
S'exception'
p10
(dp11
S'__hash__'
p12
S"<method-wrapper '__hash__' of exceptions.NameError object>"
p13
sS'__setattr__'
p14
S"<method-wrapper '__setattr__' of exceptions.NameError object>"
p15
sS'__reduce_ex__'
p16
S'<built-in method __reduce_ex__ of exceptions.NameError object>'
p17
sS'__getslice__'
p18
S"<method-wrapper '__getslice__' of exceptions.NameError object>"
p19
sS'__getitem__'
p20
S"<method-wrapper '__getitem__' of exceptions.NameError object>"
p21
sS'__setstate__'
p22
S'<built-in method __setstate__ of exceptions.NameError object>'
p23
sS'__reduce__'
p24
S'<built-in method __reduce__ of exceptions.NameError object>'
p25
sS'__str__'
p26
S"<method-wrapper '__str__' of exceptions.NameError object>"
p27
sS'__format__'
p28
S'<built-in method __format__ of exceptions.NameError object>'
p29
sS'__getattribute__'
p30
S"<method-wrapper '__getattribute__' of exceptions.NameError object>"
p31
sS'__class__'
p32
S"<type 'exceptions.NameError'>"
p33
sS'__unicode__'
p34
S'<built-in method __unicode__ of exceptions.NameError object>'
p35
sS'__delattr__'
p36
S"<method-wrapper '__delattr__' of exceptions.NameError object>"
p37
sS'__subclasshook__'
p38
S'<built-in method __subclasshook__ of type object>'
p39
sS'__repr__'
p40
S"<method-wrapper '__repr__' of exceptions.NameError object>"
p41
sS'__dict__'
p42
S'{}'
p43
sS'args'
p44
S'("global name \'message\' is not defined",)'
p45
sS'__sizeof__'
p46
S'<built-in method __sizeof__ of exceptions.NameError object>'
p47
sS'__doc__'
p48
S"'Name not found globally.'"
p49
sS'__init__'
p50
S"<method-wrapper '__init__' of exceptions.NameError object>"
p51
sS'__new__'
p52
S'<built-in method __new__ of type object>'
p53
ssS'evalue'
p54
S"global name 'message' is not defined"
p55
sS'request'
p56
ccopy_reg
_reconstructor
p57
(cgluon.html
BEAUTIFY
p58
c__builtin__
object
p59
NtRp60
(dp61
S'attributes'
p62
(dp63
sS'components'
p64
(lp65
g57
(cgluon.html
TABLE
p66
g59
NtRp67
(dp68
g62
(dp69
S'level'
p70
I5
ssS'parent'
p71
Nsg64
(lp72
g57
(cgluon.html
TR
p73
g59
NtRp74
(dp75
g62
(dp76
sg71
g67
sg64
(lp77
g57
(cgluon.html
TD
p78
g59
NtRp79
(dp80
g62
(dp81
S'_style'
p82
S'font-weight:bold;vertical-align:top'
p83
ssg71
g74
sg64
(lp84
S'ajax'
p85
asbag57
(g78
g59
NtRp86
(dp87
g62
(dp88
S'_valign'
p89
S'top'
p90
ssg71
g74
sg64
(lp91
S':'
asbag57
(g78
g59
NtRp92
(dp93
g62
(dp94
sg71
g74
sg64
(lp95
g57
(g58
g59
NtRp96
(dp97
g62
(dp98
g70
I5
ssg71
g92
sg64
(lp99
S'False'
p100
asbasbasbag57
(g73
g59
NtRp101
(dp102
g62
(dp103
sg71
g67
sg64
(lp104
g57
(g78
g59
NtRp105
(dp106
g62
(dp107
g82
g83
ssg71
g101
sg64
(lp108
S'application'
p109
asbag57
(g78
g59
NtRp110
(dp111
g62
(dp112
g89
g90
ssg71
g101
sg64
(lp113
S':'
asbag57
(g78
g59
NtRp114
(dp115
g62
(dp116
sg71
g101
sg64
(lp117
g57
(g58
g59
NtRp118
(dp119
g62
(dp120
g70
I5
ssg71
g114
sg64
(lp121
S'welcome'
p122
asbasbasbag57
(g73
g59
NtRp123
(dp124
g62
(dp125
sg71
g67
sg64
(lp126
g57
(g78
g59
NtRp127
(dp128
g62
(dp129
g82
g83
ssg71
g123
sg64
(lp130
g44
asbag57
(g78
g59
NtRp131
(dp132
g62
(dp133
g89
g90
ssg71
g123
sg64
(lp134
S':'
asbag57
(g78
g59
NtRp135
(dp136
g62
(dp137
sg71
g123
sg64
(lp138
g57
(g58
g59
NtRp139
(dp140
g62
(dp141
g70
I5
ssg71
g135
sg64
(lp142
g57
(g66
g59
NtRp143
(dp144
g62
(dp145
g70
I4
ssg71
Nsg64
(lp146
g57
(g73
g59
NtRp147
(dp148
g62
(dp149
sg71
g143
sg64
(lp150
g57
(g78
g59
NtRp151
(dp152
g62
(dp153
sg71
g147
sg64
(lp154
g57
(g58
g59
NtRp155
(dp156
g62
(dp157
g70
I4
ssg71
g151
sg64
(lp158
S'7'
asbasbasbasbasbasbasbag57
(g73
g59
NtRp159
(dp160
g62
(dp161
sg71
g67
sg64
(lp162
g57
(g78
g59
NtRp163
(dp164
g62
(dp165
g82
g83
ssg71
g159
sg64
(lp166
S'body'
p167
asbag57
(g78
g59
NtRp168
(dp169
g62
(dp170
g89
g90
ssg71
g159
sg64
(lp171
S':'
asbag57
(g78
g59
NtRp172
(dp173
g62
(dp174
sg71
g159
sg64
(lp175
g57
(g58
g59
NtRp176
(dp177
g62
(dp178
g70
I5
ssg71
g172
sg64
(lp179
S'<cStringIO.StringO object at 0x0000000009D98298>'
p180
asbasbasbag57
(g73
g59
NtRp181
(dp182
g62
(dp183
sg71
g67
sg64
(lp184
g57
(g78
g59
NtRp185
(dp186
g62
(dp187
g82
g83
ssg71
g181
sg64
(lp188
S'client'
p189
asbag57
(g78
g59
NtRp190
(dp191
g62
(dp192
g89
g90
ssg71
g181
sg64
(lp193
S':'
asbag57
(g78
g59
NtRp194
(dp195
g62
(dp196
sg71
g181
sg64
(lp197
g57
(g58
g59
NtRp198
(dp199
g62
(dp200
g70
I5
ssg71
g194
sg64
(lp201
S'127.0.0.1'
p202
asbasbasbag57
(g73
g59
NtRp203
(dp204
g62
(dp205
sg71
g67
sg64
(lp206
g57
(g78
g59
NtRp207
(dp208
g62
(dp209
g82
g83
ssg71
g203
sg64
(lp210
S'controller'
p211
asbag57
(g78
g59
NtRp212
(dp213
g62
(dp214
g89
g90
ssg71
g203
sg64
(lp215
S':'
asbag57
(g78
g59
NtRp216
(dp217
g62
(dp218
sg71
g203
sg64
(lp219
g57
(g58
g59
NtRp220
(dp221
g62
(dp222
g70
I5
ssg71
g216
sg64
(lp223
S'tournament'
p224
asbasbasbag57
(g73
g59
NtRp225
(dp226
g62
(dp227
sg71
g67
sg64
(lp228
g57
(g78
g59
NtRp229
(dp230
g62
(dp231
g82
g83
ssg71
g225
sg64
(lp232
S'cookies'
p233
asbag57
(g78
g59
NtRp234
(dp235
g62
(dp236
g89
g90
ssg71
g225
sg64
(lp237
S':'
asbag57
(g78
g59
NtRp238
(dp239
g62
(dp240
sg71
g225
sg64
(lp241
g57
(g58
g59
NtRp242
(dp243
g62
(dp244
g70
I5
ssg71
g238
sg64
(lp245
g57
(g66
g59
NtRp246
(dp247
g62
(dp248
g70
I4
ssg71
Nsg64
(lp249
g57
(g73
g59
NtRp250
(dp251
g62
(dp252
sg71
g246
sg64
(lp253
g57
(g78
g59
NtRp254
(dp255
g62
(dp256
g82
g83
ssg71
g250
sg64
(lp257
S'session_id_admin'
p258
asbag57
(g78
g59
NtRp259
(dp260
g62
(dp261
g89
g90
ssg71
g250
sg64
(lp262
S':'
asbag57
(g78
g59
NtRp263
(dp264
g62
(dp265
sg71
g250
sg64
(lp266
g57
(g58
g59
NtRp267
(dp268
g62
(dp269
g70
I4
ssg71
g263
sg64
(lp270
g57
(g66
g59
NtRp271
(dp272
g62
(dp273
g70
I3
ssg71
Nsg64
(lp274
g57
(g73
g59
NtRp275
(dp276
g62
(dp277
sg71
g271
sg64
(lp278
g57
(g78
g59
NtRp279
(dp280
g62
(dp281
g82
g83
ssg71
g275
sg64
(lp282
S'comment'
p283
asbag57
(g78
g59
NtRp284
(dp285
g62
(dp286
g89
g90
ssg71
g275
sg64
(lp287
S':'
asbag57
(g78
g59
NtRp288
(dp289
g62
(dp290
sg71
g275
sg64
(lp291
g57
(g58
g59
NtRp292
(dp293
g62
(dp294
g70
I3
ssg71
g288
sg64
(lp295
S''
asbasbasbag57
(g73
g59
NtRp296
(dp297
g62
(dp298
sg71
g271
sg64
(lp299
g57
(g78
g59
NtRp300
(dp301
g62
(dp302
g82
g83
ssg71
g296
sg64
(lp303
S'domain'
p304
asbag57
(g78
g59
NtRp305
(dp306
g62
(dp307
g89
g90
ssg71
g296
sg64
(lp308
S':'
asbag57
(g78
g59
NtRp309
(dp310
g62
(dp311
sg71
g296
sg64
(lp312
g57
(g58
g59
NtRp313
(dp314
g62
(dp315
g70
I3
ssg71
g309
sg64
(lp316
S''
asbasbasbag57
(g73
g59
NtRp317
(dp318
g62
(dp319
sg71
g271
sg64
(lp320
g57
(g78
g59
NtRp321
(dp322
g62
(dp323
g82
g83
ssg71
g317
sg64
(lp324
S'expires'
p325
asbag57
(g78
g59
NtRp326
(dp327
g62
(dp328
g89
g90
ssg71
g317
sg64
(lp329
S':'
asbag57
(g78
g59
NtRp330
(dp331
g62
(dp332
sg71
g317
sg64
(lp333
g57
(g58
g59
NtRp334
(dp335
g62
(dp336
g70
I3
ssg71
g330
sg64
(lp337
S''
asbasbasbag57
(g73
g59
NtRp338
(dp339
g62
(dp340
sg71
g271
sg64
(lp341
g57
(g78
g59
NtRp342
(dp343
g62
(dp344
g82
g83
ssg71
g338
sg64
(lp345
S'httponly'
p346
asbag57
(g78
g59
NtRp347
(dp348
g62
(dp349
g89
g90
ssg71
g338
sg64
(lp350
S':'
asbag57
(g78
g59
NtRp351
(dp352
g62
(dp353
sg71
g338
sg64
(lp354
g57
(g58
g59
NtRp355
(dp356
g62
(dp357
g70
I3
ssg71
g351
sg64
(lp358
S''
asbasbasbag57
(g73
g59
NtRp359
(dp360
g62
(dp361
sg71
g271
sg64
(lp362
g57
(g78
g59
NtRp363
(dp364
g62
(dp365
g82
g83
ssg71
g359
sg64
(lp366
S'max-age'
p367
asbag57
(g78
g59
NtRp368
(dp369
g62
(dp370
g89
g90
ssg71
g359
sg64
(lp371
S':'
asbag57
(g78
g59
NtRp372
(dp373
g62
(dp374
sg71
g359
sg64
(lp375
g57
(g58
g59
NtRp376
(dp377
g62
(dp378
g70
I3
ssg71
g372
sg64
(lp379
S''
asbasbasbag57
(g73
g59
NtRp380
(dp381
g62
(dp382
sg71
g271
sg64
(lp383
g57
(g78
g59
NtRp384
(dp385
g62
(dp386
g82
g83
ssg71
g380
sg64
(lp387
S'path'
p388
asbag57
(g78
g59
NtRp389
(dp390
g62
(dp391
g89
g90
ssg71
g380
sg64
(lp392
S':'
asbag57
(g78
g59
NtRp393
(dp394
g62
(dp395
sg71
g380
sg64
(lp396
g57
(g58
g59
NtRp397
(dp398
g62
(dp399
g70
I3
ssg71
g393
sg64
(lp400
S''
asbasbasbag57
(g73
g59
NtRp401
(dp402
g62
(dp403
sg71
g271
sg64
(lp404
g57
(g78
g59
NtRp405
(dp406
g62
(dp407
g82
g83
ssg71
g401
sg64
(lp408
S'secure'
p409
asbag57
(g78
g59
NtRp410
(dp411
g62
(dp412
g89
g90
ssg71
g401
sg64
(lp413
S':'
asbag57
(g78
g59
NtRp414
(dp415
g62
(dp416
sg71
g401
sg64
(lp417
g57
(g58
g59
NtRp418
(dp419
g62
(dp420
g70
I3
ssg71
g414
sg64
(lp421
S''
asbasbasbag57
(g73
g59
NtRp422
(dp423
g62
(dp424
sg71
g271
sg64
(lp425
g57
(g78
g59
NtRp426
(dp427
g62
(dp428
g82
g83
ssg71
g422
sg64
(lp429
S'version'
p430
asbag57
(g78
g59
NtRp431
(dp432
g62
(dp433
g89
g90
ssg71
g422
sg64
(lp434
S':'
asbag57
(g78
g59
NtRp435
(dp436
g62
(dp437
sg71
g422
sg64
(lp438
g57
(g58
g59
NtRp439
(dp440
g62
(dp441
g70
I3
ssg71
g435
sg64
(lp442
S''
asbasbasbasbasbasbasbag57
(g73
g59
NtRp443
(dp444
g62
(dp445
sg71
g246
sg64
(lp446
g57
(g78
g59
NtRp447
(dp448
g62
(dp449
g82
g83
ssg71
g443
sg64
(lp450
S'session_id_welcome'
p451
asbag57
(g78
g59
NtRp452
(dp453
g62
(dp454
g89
g90
ssg71
g443
sg64
(lp455
S':'
asbag57
(g78
g59
NtRp456
(dp457
g62
(dp458
sg71
g443
sg64
(lp459
g57
(g58
g59
NtRp460
(dp461
g62
(dp462
g70
I4
ssg71
g456
sg64
(lp463
g57
(g66
g59
NtRp464
(dp465
g62
(dp466
g70
I3
ssg71
Nsg64
(lp467
g57
(g73
g59
NtRp468
(dp469
g62
(dp470
sg71
g464
sg64
(lp471
g57
(g78
g59
NtRp472
(dp473
g62
(dp474
g82
g83
ssg71
g468
sg64
(lp475
g283
asbag57
(g78
g59
NtRp476
(dp477
g62
(dp478
g89
g90
ssg71
g468
sg64
(lp479
S':'
asbag57
(g78
g59
NtRp480
(dp481
g62
(dp482
sg71
g468
sg64
(lp483
g57
(g58
g59
NtRp484
(dp485
g62
(dp486
g70
I3
ssg71
g480
sg64
(lp487
S''
asbasbasbag57
(g73
g59
NtRp488
(dp489
g62
(dp490
sg71
g464
sg64
(lp491
g57
(g78
g59
NtRp492
(dp493
g62
(dp494
g82
g83
ssg71
g488
sg64
(lp495
g304
asbag57
(g78
g59
NtRp496
(dp497
g62
(dp498
g89
g90
ssg71
g488
sg64
(lp499
S':'
asbag57
(g78
g59
NtRp500
(dp501
g62
(dp502
sg71
g488
sg64
(lp503
g57
(g58
g59
NtRp504
(dp505
g62
(dp506
g70
I3
ssg71
g500
sg64
(lp507
S''
asbasbasbag57
(g73
g59
NtRp508
(dp509
g62
(dp510
sg71
g464
sg64
(lp511
g57
(g78
g59
NtRp512
(dp513
g62
(dp514
g82
g83
ssg71
g508
sg64
(lp515
g325
asbag57
(g78
g59
NtRp516
(dp517
g62
(dp518
g89
g90
ssg71
g508
sg64
(lp519
S':'
asbag57
(g78
g59
NtRp520
(dp521
g62
(dp522
sg71
g508
sg64
(lp523
g57
(g58
g59
NtRp524
(dp525
g62
(dp526
g70
I3
ssg71
g520
sg64
(lp527
S''
asbasbasbag57
(g73
g59
NtRp528
(dp529
g62
(dp530
sg71
g464
sg64
(lp531
g57
(g78
g59
NtRp532
(dp533
g62
(dp534
g82
g83
ssg71
g528
sg64
(lp535
g346
asbag57
(g78
g59
NtRp536
(dp537
g62
(dp538
g89
g90
ssg71
g528
sg64
(lp539
S':'
asbag57
(g78
g59
NtRp540
(dp541
g62
(dp542
sg71
g528
sg64
(lp543
g57
(g58
g59
NtRp544
(dp545
g62
(dp546
g70
I3
ssg71
g540
sg64
(lp547
S''
asbasbasbag57
(g73
g59
NtRp548
(dp549
g62
(dp550
sg71
g464
sg64
(lp551
g57
(g78
g59
NtRp552
(dp553
g62
(dp554
g82
g83
ssg71
g548
sg64
(lp555
g367
asbag57
(g78
g59
NtRp556
(dp557
g62
(dp558
g89
g90
ssg71
g548
sg64
(lp559
S':'
asbag57
(g78
g59
NtRp560
(dp561
g62
(dp562
sg71
g548
sg64
(lp563
g57
(g58
g59
NtRp564
(dp565
g62
(dp566
g70
I3
ssg71
g560
sg64
(lp567
S''
asbasbasbag57
(g73
g59
NtRp568
(dp569
g62
(dp570
sg71
g464
sg64
(lp571
g57
(g78
g59
NtRp572
(dp573
g62
(dp574
g82
g83
ssg71
g568
sg64
(lp575
g388
asbag57
(g78
g59
NtRp576
(dp577
g62
(dp578
g89
g90
ssg71
g568
sg64
(lp579
S':'
asbag57
(g78
g59
NtRp580
(dp581
g62
(dp582
sg71
g568
sg64
(lp583
g57
(g58
g59
NtRp584
(dp585
g62
(dp586
g70
I3
ssg71
g580
sg64
(lp587
S''
asbasbasbag57
(g73
g59
NtRp588
(dp589
g62
(dp590
sg71
g464
sg64
(lp591
g57
(g78
g59
NtRp592
(dp593
g62
(dp594
g82
g83
ssg71
g588
sg64
(lp595
g409
asbag57
(g78
g59
NtRp596
(dp597
g62
(dp598
g89
g90
ssg71
g588
sg64
(lp599
S':'
asbag57
(g78
g59
NtRp600
(dp601
g62
(dp602
sg71
g588
sg64
(lp603
g57
(g58
g59
NtRp604
(dp605
g62
(dp606
g70
I3
ssg71
g600
sg64
(lp607
S''
asbasbasbag57
(g73
g59
NtRp608
(dp609
g62
(dp610
sg71
g464
sg64
(lp611
g57
(g78
g59
NtRp612
(dp613
g62
(dp614
g82
g83
ssg71
g608
sg64
(lp615
g430
asbag57
(g78
g59
NtRp616
(dp617
g62
(dp618
g89
g90
ssg71
g608
sg64
(lp619
S':'
asbag57
(g78
g59
NtRp620
(dp621
g62
(dp622
sg71
g608
sg64
(lp623
g57
(g58
g59
NtRp624
(dp625
g62
(dp626
g70
I3
ssg71
g620
sg64
(lp627
S''
asbasbasbasbasbasbasbasbasbasbasbag57
(g73
g59
NtRp628
(dp629
g62
(dp630
sg71
g67
sg64
(lp631
g57
(g78
g59
NtRp632
(dp633
g62
(dp634
g82
g83
ssg71
g628
sg64
(lp635
S'env'
p636
asbag57
(g78
g59
NtRp637
(dp638
g62
(dp639
g89
g90
ssg71
g628
sg64
(lp640
S':'
asbag57
(g78
g59
NtRp641
(dp642
g62
(dp643
sg71
g628
sg64
(lp644
g57
(g58
g59
NtRp645
(dp646
g62
(dp647
g70
I5
ssg71
g641
sg64
(lp648
g57
(g66
g59
NtRp649
(dp650
g62
(dp651
g70
I4
ssg71
Nsg64
(lp652
g57
(g73
g59
NtRp653
(dp654
g62
(dp655
sg71
g649
sg64
(lp656
g57
(g78
g59
NtRp657
(dp658
g62
(dp659
g82
g83
ssg71
g653
sg64
(lp660
S'app_folders'
p661
asbag57
(g78
g59
NtRp662
(dp663
g62
(dp664
g89
g90
ssg71
g653
sg64
(lp665
S':'
asbag57
(g78
g59
NtRp666
(dp667
g62
(dp668
sg71
g653
sg64
(lp669
g57
(g58
g59
NtRp670
(dp671
g62
(dp672
g70
I4
ssg71
g666
sg64
(lp673
S"set(['C:\\\\Users\\\\mellinja\\\\Documents\\\\SC2Tracker\\\\SC2TourneyTracker\\\\web2py\\\\applications\\\\welcome\\\\', 'C:\\\\Users\\\\mellinja\\\\Documents\\\\SC2Tracker\\\\SC2TourneyTracker\\\\web2py\\\\applications\\\\admin\\\\'])"
p674
asbasbasbag57
(g73
g59
NtRp675
(dp676
g62
(dp677
sg71
g649
sg64
(lp678
g57
(g78
g59
NtRp679
(dp680
g62
(dp681
g82
g83
ssg71
g675
sg64
(lp682
S'applications_parent'
p683
asbag57
(g78
g59
NtRp684
(dp685
g62
(dp686
g89
g90
ssg71
g675
sg64
(lp687
S':'
asbag57
(g78
g59
NtRp688
(dp689
g62
(dp690
sg71
g675
sg64
(lp691
g57
(g58
g59
NtRp692
(dp693
g62
(dp694
g70
I4
ssg71
g688
sg64
(lp695
S'C:\\Users\\mellinja\\Documents\\SC2Tracker\\SC2TourneyTracker\\web2py'
p696
asbasbasbag57
(g73
g59
NtRp697
(dp698
g62
(dp699
sg71
g649
sg64
(lp700
g57
(g78
g59
NtRp701
(dp702
g62
(dp703
g82
g83
ssg71
g697
sg64
(lp704
S'cmd_args'
p705
asbag57
(g78
g59
NtRp706
(dp707
g62
(dp708
g89
g90
ssg71
g697
sg64
(lp709
S':'
asbag57
(g78
g59
NtRp710
(dp711
g62
(dp712
sg71
g697
sg64
(lp713
g57
(g58
g59
NtRp714
(dp715
g62
(dp716
g70
I4
ssg71
g710
sg64
(lp717
g57
(g66
g59
NtRp718
(dp719
g62
(dp720
g70
I3
ssg71
Nsg64
(lp721
sbasbasbasbag57
(g73
g59
NtRp722
(dp723
g62
(dp724
sg71
g649
sg64
(lp725
g57
(g78
g59
NtRp726
(dp727
g62
(dp728
g82
g83
ssg71
g722
sg64
(lp729
S'cmd_options'
p730
asbag57
(g78
g59
NtRp731
(dp732
g62
(dp733
g89
g90
ssg71
g722
sg64
(lp734
S':'
asbag57
(g78
g59
NtRp735
(dp736
g62
(dp737
sg71
g722
sg64
(lp738
g57
(g58
g59
NtRp739
(dp740
g62
(dp741
g70
I4
ssg71
g735
sg64
(lp742
S"<Values at 0x391d5c8: {'verbose': False, 'ip': '127.0.0.1', 'shutdown_timeout': 5, 'taskbar': False, 'nocron': False, 'pid_filename': 'httpserver.pid', 'maxthreads': None, 'softcron': False, 'server_name': 'mellinja-PC', 'bpython': False, 'nogui': False, 'port': 8000, 'extcron': False, 'debuglevel': 30, 'test': None, 'folder': 'C:\\\\Users\\\\mellinja\\\\Documents\\\\SC2Tracker\\\\SC2TourneyTracker\\\\web2py', 'config': '', 'import_models': False, 'winservice': '', 'shell': None, 'run': '', 'log_filename': 'httpserver.log', 'args': [''], 'socket_timeout': 1, 'ssl_ca_certificate': None, 'scheduler': None, 'profiler_filename': None, 'ssl_private_key': '', 'password': '<ask>', 'request_queue_size': 5, 'ssl_certificate': '', 'cronjob': False, 'numthreads': None, 'quiet': False, 'interfaces': None, 'minthreads': None, 'timeout': 10, 'plain': False, 'nobanner': False}>"
p743
asbasbasbag57
(g73
g59
NtRp744
(dp745
g62
(dp746
sg71
g649
sg64
(lp747
g57
(g78
g59
NtRp748
(dp749
g62
(dp750
g82
g83
ssg71
g744
sg64
(lp751
S'db_sessions'
p752
asbag57
(g78
g59
NtRp753
(dp754
g62
(dp755
g89
g90
ssg71
g744
sg64
(lp756
S':'
asbag57
(g78
g59
NtRp757
(dp758
g62
(dp759
sg71
g744
sg64
(lp760
g57
(g58
g59
NtRp761
(dp762
g62
(dp763
g70
I4
ssg71
g757
sg64
(lp764
S'set([])'
p765
asbasbasbag57
(g73
g59
NtRp766
(dp767
g62
(dp768
sg71
g649
sg64
(lp769
g57
(g78
g59
NtRp770
(dp771
g62
(dp772
g82
g83
ssg71
g766
sg64
(lp773
S'debugging'
p774
asbag57
(g78
g59
NtRp775
(dp776
g62
(dp777
g89
g90
ssg71
g766
sg64
(lp778
S':'
asbag57
(g78
g59
NtRp779
(dp780
g62
(dp781
sg71
g766
sg64
(lp782
g57
(g58
g59
NtRp783
(dp784
g62
(dp785
g70
I4
ssg71
g779
sg64
(lp786
g100
asbasbasbag57
(g73
g59
NtRp787
(dp788
g62
(dp789
sg71
g649
sg64
(lp790
g57
(g78
g59
NtRp791
(dp792
g62
(dp793
g82
g83
ssg71
g787
sg64
(lp794
S'gluon_parent'
p795
asbag57
(g78
g59
NtRp796
(dp797
g62
(dp798
g89
g90
ssg71
g787
sg64
(lp799
S':'
asbag57
(g78
g59
NtRp800
(dp801
g62
(dp802
sg71
g787
sg64
(lp803
g57
(g58
g59
NtRp804
(dp805
g62
(dp806
g70
I4
ssg71
g800
sg64
(lp807
S'C:\\Users\\mellinja\\Documents\\SC2Tracker\\SC2TourneyTracker\\web2py'
p808
asbasbasbag57
(g73
g59
NtRp809
(dp810
g62
(dp811
sg71
g649
sg64
(lp812
g57
(g78
g59
NtRp813
(dp814
g62
(dp815
g82
g83
ssg71
g809
sg64
(lp816
S'http_accept'
p817
asbag57
(g78
g59
NtRp818
(dp819
g62
(dp820
g89
g90
ssg71
g809
sg64
(lp821
S':'
asbag57
(g78
g59
NtRp822
(dp823
g62
(dp824
sg71
g809
sg64
(lp825
g57
(g58
g59
NtRp826
(dp827
g62
(dp828
g70
I4
ssg71
g822
sg64
(lp829
S'text/html,application/xhtml+xml,application/xml;q=0.9,*/*;q=0.8'
p830
asbasbasbag57
(g73
g59
NtRp831
(dp832
g62
(dp833
sg71
g649
sg64
(lp834
g57
(g78
g59
NtRp835
(dp836
g62
(dp837
g82
g83
ssg71
g831
sg64
(lp838
S'http_accept_charset'
p839
asbag57
(g78
g59
NtRp840
(dp841
g62
(dp842
g89
g90
ssg71
g831
sg64
(lp843
S':'
asbag57
(g78
g59
NtRp844
(dp845
g62
(dp846
sg71
g831
sg64
(lp847
g57
(g58
g59
NtRp848
(dp849
g62
(dp850
g70
I4
ssg71
g844
sg64
(lp851
S'ISO-8859-1,utf-8;q=0.7,*;q=0.3'
p852
asbasbasbag57
(g73
g59
NtRp853
(dp854
g62
(dp855
sg71
g649
sg64
(lp856
g57
(g78
g59
NtRp857
(dp858
g62
(dp859
g82
g83
ssg71
g853
sg64
(lp860
S'http_accept_encoding'
p861
asbag57
(g78
g59
NtRp862
(dp863
g62
(dp864
g89
g90
ssg71
g853
sg64
(lp865
S':'
asbag57
(g78
g59
NtRp866
(dp867
g62
(dp868
sg71
g853
sg64
(lp869
g57
(g58
g59
NtRp870
(dp871
g62
(dp872
g70
I4
ssg71
g866
sg64
(lp873
S'gzip,deflate,sdch'
p874
asbasbasbag57
(g73
g59
NtRp875
(dp876
g62
(dp877
sg71
g649
sg64
(lp878
g57
(g78
g59
NtRp879
(dp880
g62
(dp881
g82
g83
ssg71
g875
sg64
(lp882
S'http_accept_language'
p883
asbag57
(g78
g59
NtRp884
(dp885
g62
(dp886
g89
g90
ssg71
g875
sg64
(lp887
S':'
asbag57
(g78
g59
NtRp888
(dp889
g62
(dp890
sg71
g875
sg64
(lp891
g57
(g58
g59
NtRp892
(dp893
g62
(dp894
g70
I4
ssg71
g888
sg64
(lp895
S'en-US,en;q=0.8'
p896
asbasbasbag57
(g73
g59
NtRp897
(dp898
g62
(dp899
sg71
g649
sg64
(lp900
g57
(g78
g59
NtRp901
(dp902
g62
(dp903
g82
g83
ssg71
g897
sg64
(lp904
S'http_connection'
p905
asbag57
(g78
g59
NtRp906
(dp907
g62
(dp908
g89
g90
ssg71
g897
sg64
(lp909
S':'
asbag57
(g78
g59
NtRp910
(dp911
g62
(dp912
sg71
g897
sg64
(lp913
g57
(g58
g59
NtRp914
(dp915
g62
(dp916
g70
I4
ssg71
g910
sg64
(lp917
S'keep-alive'
p918
asbasbasbag57
(g73
g59
NtRp919
(dp920
g62
(dp921
sg71
g649
sg64
(lp922
g57
(g78
g59
NtRp923
(dp924
g62
(dp925
g82
g83
ssg71
g919
sg64
(lp926
S'http_cookie'
p927
asbag57
(g78
g59
NtRp928
(dp929
g62
(dp930
g89
g90
ssg71
g919
sg64
(lp931
S':'
asbag57
(g78
g59
NtRp932
(dp933
g62
(dp934
sg71
g919
sg64
(lp935
g57
(g58
g59
NtRp936
(dp937
g62
(dp938
g70
I4
ssg71
g932
sg64
(lp939
S'session_id_admin=127.0.0.1-b47b53ba-13cb-4e89-884f-d4f0a6a5c149; session_id_welcome=127.0.0.1-3577bb45-b3be-4c0f-be7b-edc2ad5f937c'
p940
asbasbasbag57
(g73
g59
NtRp941
(dp942
g62
(dp943
sg71
g649
sg64
(lp944
g57
(g78
g59
NtRp945
(dp946
g62
(dp947
g82
g83
ssg71
g941
sg64
(lp948
S'http_host'
p949
asbag57
(g78
g59
NtRp950
(dp951
g62
(dp952
g89
g90
ssg71
g941
sg64
(lp953
S':'
asbag57
(g78
g59
NtRp954
(dp955
g62
(dp956
sg71
g941
sg64
(lp957
g57
(g58
g59
NtRp958
(dp959
g62
(dp960
g70
I4
ssg71
g954
sg64
(lp961
S'127.0.0.1:8000'
p962
asbasbasbag57
(g73
g59
NtRp963
(dp964
g62
(dp965
sg71
g649
sg64
(lp966
g57
(g78
g59
NtRp967
(dp968
g62
(dp969
g82
g83
ssg71
g963
sg64
(lp970
S'http_referer'
p971
asbag57
(g78
g59
NtRp972
(dp973
g62
(dp974
g89
g90
ssg71
g963
sg64
(lp975
S':'
asbag57
(g78
g59
NtRp976
(dp977
g62
(dp978
sg71
g963
sg64
(lp979
g57
(g58
g59
NtRp980
(dp981
g62
(dp982
g70
I4
ssg71
g976
sg64
(lp983
S'http://127.0.0.1:8000/welcome/tournament/index'
p984
asbasbasbag57
(g73
g59
NtRp985
(dp986
g62
(dp987
sg71
g649
sg64
(lp988
g57
(g78
g59
NtRp989
(dp990
g62
(dp991
g82
g83
ssg71
g985
sg64
(lp992
S'http_user_agent'
p993
asbag57
(g78
g59
NtRp994
(dp995
g62
(dp996
g89
g90
ssg71
g985
sg64
(lp997
S':'
asbag57
(g78
g59
NtRp998
(dp999
g62
(dp1000
sg71
g985
sg64
(lp1001
g57
(g58
g59
NtRp1002
(dp1003
g62
(dp1004
g70
I4
ssg71
g998
sg64
(lp1005
S'Mozilla/5.0 (Windows NT 6.1; WOW64) AppleWebKit/535.7 (KHTML, like Gecko) Chrome/16.0.912.77 Safari/535.7'
p1006
asbasbasbag57
(g73
g59
NtRp1007
(dp1008
g62
(dp1009
sg71
g649
sg64
(lp1010
g57
(g78
g59
NtRp1011
(dp1012
g62
(dp1013
g82
g83
ssg71
g1007
sg64
(lp1014
S'is_jython'
p1015
asbag57
(g78
g59
NtRp1016
(dp1017
g62
(dp1018
g89
g90
ssg71
g1007
sg64
(lp1019
S':'
asbag57
(g78
g59
NtRp1020
(dp1021
g62
(dp1022
sg71
g1007
sg64
(lp1023
g57
(g58
g59
NtRp1024
(dp1025
g62
(dp1026
g70
I4
ssg71
g1020
sg64
(lp1027
g100
asbasbasbag57
(g73
g59
NtRp1028
(dp1029
g62
(dp1030
sg71
g649
sg64
(lp1031
g57
(g78
g59
NtRp1032
(dp1033
g62
(dp1034
g82
g83
ssg71
g1028
sg64
(lp1035
S'is_pypy'
p1036
asbag57
(g78
g59
NtRp1037
(dp1038
g62
(dp1039
g89
g90
ssg71
g1028
sg64
(lp1040
S':'
asbag57
(g78
g59
NtRp1041
(dp1042
g62
(dp1043
sg71
g1028
sg64
(lp1044
g57
(g58
g59
NtRp1045
(dp1046
g62
(dp1047
g70
I4
ssg71
g1041
sg64
(lp1048
g100
asbasbasbag57
(g73
g59
NtRp1049
(dp1050
g62
(dp1051
sg71
g649
sg64
(lp1052
g57
(g78
g59
NtRp1053
(dp1054
g62
(dp1055
g82
g83
ssg71
g1049
sg64
(lp1056
S'path_info'
p1057
asbag57
(g78
g59
NtRp1058
(dp1059
g62
(dp1060
g89
g90
ssg71
g1049
sg64
(lp1061
S':'
asbag57
(g78
g59
NtRp1062
(dp1063
g62
(dp1064
sg71
g1049
sg64
(lp1065
g57
(g58
g59
NtRp1066
(dp1067
g62
(dp1068
g70
I4
ssg71
g1062
sg64
(lp1069
S'/welcome/tournament/show/7'
p1070
asbasbasbag57
(g73
g59
NtRp1071
(dp1072
g62
(dp1073
sg71
g649
sg64
(lp1074
g57
(g78
g59
NtRp1075
(dp1076
g62
(dp1077
g82
g83
ssg71
g1071
sg64
(lp1078
S'query_string'
p1079
asbag57
(g78
g59
NtRp1080
(dp1081
g62
(dp1082
g89
g90
ssg71
g1071
sg64
(lp1083
S':'
asbag57
(g78
g59
NtRp1084
(dp1085
g62
(dp1086
sg71
g1071
sg64
(lp1087
g57
(g58
g59
NtRp1088
(dp1089
g62
(dp1090
g70
I4
ssg71
g1084
sg64
(lp1091
S''
asbasbasbag57
(g73
g59
NtRp1092
(dp1093
g62
(dp1094
sg71
g649
sg64
(lp1095
g57
(g78
g59
NtRp1096
(dp1097
g62
(dp1098
g82
g83
ssg71
g1092
sg64
(lp1099
S'remote_addr'
p1100
asbag57
(g78
g59
NtRp1101
(dp1102
g62
(dp1103
g89
g90
ssg71
g1092
sg64
(lp1104
S':'
asbag57
(g78
g59
NtRp1105
(dp1106
g62
(dp1107
sg71
g1092
sg64
(lp1108
g57
(g58
g59
NtRp1109
(dp1110
g62
(dp1111
g70
I4
ssg71
g1105
sg64
(lp1112
g202
asbasbasbag57
(g73
g59
NtRp1113
(dp1114
g62
(dp1115
sg71
g649
sg64
(lp1116
g57
(g78
g59
NtRp1117
(dp1118
g62
(dp1119
g82
g83
ssg71
g1113
sg64
(lp1120
S'remote_port'
p1121
asbag57
(g78
g59
NtRp1122
(dp1123
g62
(dp1124
g89
g90
ssg71
g1113
sg64
(lp1125
S':'
asbag57
(g78
g59
NtRp1126
(dp1127
g62
(dp1128
sg71
g1113
sg64
(lp1129
g57
(g58
g59
NtRp1130
(dp1131
g62
(dp1132
g70
I4
ssg71
g1126
sg64
(lp1133
S'49689'
p1134
asbasbasbag57
(g73
g59
NtRp1135
(dp1136
g62
(dp1137
sg71
g649
sg64
(lp1138
g57
(g78
g59
NtRp1139
(dp1140
g62
(dp1141
g82
g83
ssg71
g1135
sg64
(lp1142
S'request_method'
p1143
asbag57
(g78
g59
NtRp1144
(dp1145
g62
(dp1146
g89
g90
ssg71
g1135
sg64
(lp1147
S':'
asbag57
(g78
g59
NtRp1148
(dp1149
g62
(dp1150
sg71
g1135
sg64
(lp1151
g57
(g58
g59
NtRp1152
(dp1153
g62
(dp1154
g70
I4
ssg71
g1148
sg64
(lp1155
S'GET'
p1156
asbasbasbag57
(g73
g59
NtRp1157
(dp1158
g62
(dp1159
sg71
g649
sg64
(lp1160
g57
(g78
g59
NtRp1161
(dp1162
g62
(dp1163
g82
g83
ssg71
g1157
sg64
(lp1164
S'script_name'
p1165
asbag57
(g78
g59
NtRp1166
(dp1167
g62
(dp1168
g89
g90
ssg71
g1157
sg64
(lp1169
S':'
asbag57
(g78
g59
NtRp1170
(dp1171
g62
(dp1172
sg71
g1157
sg64
(lp1173
g57
(g58
g59
NtRp1174
(dp1175
g62
(dp1176
g70
I4
ssg71
g1170
sg64
(lp1177
S''
asbasbasbag57
(g73
g59
NtRp1178
(dp1179
g62
(dp1180
sg71
g649
sg64
(lp1181
g57
(g78
g59
NtRp1182
(dp1183
g62
(dp1184
g82
g83
ssg71
g1178
sg64
(lp1185
S'server_name'
p1186
asbag57
(g78
g59
NtRp1187
(dp1188
g62
(dp1189
g89
g90
ssg71
g1178
sg64
(lp1190
S':'
asbag57
(g78
g59
NtRp1191
(dp1192
g62
(dp1193
sg71
g1178
sg64
(lp1194
g57
(g58
g59
NtRp1195
(dp1196
g62
(dp1197
g70
I4
ssg71
g1191
sg64
(lp1198
S'mellinja-PC'
p1199
asbasbasbag57
(g73
g59
NtRp1200
(dp1201
g62
(dp1202
sg71
g649
sg64
(lp1203
g57
(g78
g59
NtRp1204
(dp1205
g62
(dp1206
g82
g83
ssg71
g1200
sg64
(lp1207
S'server_port'
p1208
asbag57
(g78
g59
NtRp1209
(dp1210
g62
(dp1211
g89
g90
ssg71
g1200
sg64
(lp1212
S':'
asbag57
(g78
g59
NtRp1213
(dp1214
g62
(dp1215
sg71
g1200
sg64
(lp1216
g57
(g58
g59
NtRp1217
(dp1218
g62
(dp1219
g70
I4
ssg71
g1213
sg64
(lp1220
S'8000'
p1221
asbasbasbag57
(g73
g59
NtRp1222
(dp1223
g62
(dp1224
sg71
g649
sg64
(lp1225
g57
(g78
g59
NtRp1226
(dp1227
g62
(dp1228
g82
g83
ssg71
g1222
sg64
(lp1229
S'server_protocol'
p1230
asbag57
(g78
g59
NtRp1231
(dp1232
g62
(dp1233
g89
g90
ssg71
g1222
sg64
(lp1234
S':'
asbag57
(g78
g59
NtRp1235
(dp1236
g62
(dp1237
sg71
g1222
sg64
(lp1238
g57
(g58
g59
NtRp1239
(dp1240
g62
(dp1241
g70
I4
ssg71
g1235
sg64
(lp1242
S'HTTP/1.1'
p1243
asbasbasbag57
(g73
g59
NtRp1244
(dp1245
g62
(dp1246
sg71
g649
sg64
(lp1247
g57
(g78
g59
NtRp1248
(dp1249
g62
(dp1250
g82
g83
ssg71
g1244
sg64
(lp1251
S'server_software'
p1252
asbag57
(g78
g59
NtRp1253
(dp1254
g62
(dp1255
g89
g90
ssg71
g1244
sg64
(lp1256
S':'
asbag57
(g78
g59
NtRp1257
(dp1258
g62
(dp1259
sg71
g1244
sg64
(lp1260
g57
(g58
g59
NtRp1261
(dp1262
g62
(dp1263
g70
I4
ssg71
g1257
sg64
(lp1264
S'Rocket 1.2.4'
p1265
asbasbasbag57
(g73
g59
NtRp1266
(dp1267
g62
(dp1268
sg71
g649
sg64
(lp1269
g57
(g78
g59
NtRp1270
(dp1271
g62
(dp1272
g82
g83
ssg71
g1266
sg64
(lp1273
S'web2py_crontype'
p1274
asbag57
(g78
g59
NtRp1275
(dp1276
g62
(dp1277
g89
g90
ssg71
g1266
sg64
(lp1278
S':'
asbag57
(g78
g59
NtRp1279
(dp1280
g62
(dp1281
sg71
g1266
sg64
(lp1282
g57
(g58
g59
NtRp1283
(dp1284
g62
(dp1285
g70
I4
ssg71
g1279
sg64
(lp1286
S'hard'
p1287
asbasbasbag57
(g73
g59
NtRp1288
(dp1289
g62
(dp1290
sg71
g649
sg64
(lp1291
g57
(g78
g59
NtRp1292
(dp1293
g62
(dp1294
g82
g83
ssg71
g1288
sg64
(lp1295
S'web2py_path'
p1296
asbag57
(g78
g59
NtRp1297
(dp1298
g62
(dp1299
g89
g90
ssg71
g1288
sg64
(lp1300
S':'
asbag57
(g78
g59
NtRp1301
(dp1302
g62
(dp1303
sg71
g1288
sg64
(lp1304
g57
(g58
g59
NtRp1305
(dp1306
g62
(dp1307
g70
I4
ssg71
g1301
sg64
(lp1308
g696
asbasbasbag57
(g73
g59
NtRp1309
(dp1310
g62
(dp1311
sg71
g649
sg64
(lp1312
g57
(g78
g59
NtRp1313
(dp1314
g62
(dp1315
g82
g83
ssg71
g1309
sg64
(lp1316
S'web2py_version'
p1317
asbag57
(g78
g59
NtRp1318
(dp1319
g62
(dp1320
g89
g90
ssg71
g1309
sg64
(lp1321
S':'
asbag57
(g78
g59
NtRp1322
(dp1323
g62
(dp1324
sg71
g1309
sg64
(lp1325
g57
(g58
g59
NtRp1326
(dp1327
g62
(dp1328
g70
I4
ssg71
g1322
sg64
(lp1329
g57
(g66
g59
NtRp1330
(dp1331
g62
(dp1332
g70
I3
ssg71
Nsg64
(lp1333
g57
(g73
g59
NtRp1334
(dp1335
g62
(dp1336
sg71
g1330
sg64
(lp1337
g57
(g78
g59
NtRp1338
(dp1339
g62
(dp1340
sg71
g1334
sg64
(lp1341
g57
(g58
g59
NtRp1342
(dp1343
g62
(dp1344
g70
I3
ssg71
g1338
sg64
(lp1345
S'1'
asbasbasbag57
(g73
g59
NtRp1346
(dp1347
g62
(dp1348
sg71
g1330
sg64
(lp1349
g57
(g78
g59
NtRp1350
(dp1351
g62
(dp1352
sg71
g1346
sg64
(lp1353
g57
(g58
g59
NtRp1354
(dp1355
g62
(dp1356
g70
I3
ssg71
g1350
sg64
(lp1357
S'99'
p1358
asbasbasbag57
(g73
g59
NtRp1359
(dp1360
g62
(dp1361
sg71
g1330
sg64
(lp1362
g57
(g78
g59
NtRp1363
(dp1364
g62
(dp1365
sg71
g1359
sg64
(lp1366
g57
(g58
g59
NtRp1367
(dp1368
g62
(dp1369
g70
I3
ssg71
g1363
sg64
(lp1370
S'4'
asbasbasbag57
(g73
g59
NtRp1371
(dp1372
g62
(dp1373
sg71
g1330
sg64
(lp1374
g57
(g78
g59
NtRp1375
(dp1376
g62
(dp1377
sg71
g1371
sg64
(lp1378
g57
(g58
g59
NtRp1379
(dp1380
g62
(dp1381
g70
I3
ssg71
g1375
sg64
(lp1382
S'datetime.datetime(2011, 12, 14, 14, 46, 14)'
p1383
asbasbasbag57
(g73
g59
NtRp1384
(dp1385
g62
(dp1386
sg71
g1330
sg64
(lp1387
g57
(g78
g59
NtRp1388
(dp1389
g62
(dp1390
sg71
g1384
sg64
(lp1391
g57
(g58
g59
NtRp1392
(dp1393
g62
(dp1394
g70
I3
ssg71
g1388
sg64
(lp1395
S'stable'
p1396
asbasbasbasbasbasbasbag57
(g73
g59
NtRp1397
(dp1398
g62
(dp1399
sg71
g649
sg64
(lp1400
g57
(g78
g59
NtRp1401
(dp1402
g62
(dp1403
g82
g83
ssg71
g1397
sg64
(lp1404
S'wsgi_errors'
p1405
asbag57
(g78
g59
NtRp1406
(dp1407
g62
(dp1408
g89
g90
ssg71
g1397
sg64
(lp1409
S':'
asbag57
(g78
g59
NtRp1410
(dp1411
g62
(dp1412
sg71
g1397
sg64
(lp1413
g57
(g58
g59
NtRp1414
(dp1415
g62
(dp1416
g70
I4
ssg71
g1410
sg64
(lp1417
S"<open file '<stderr>', mode 'w' at 0x00000000020161E0>"
p1418
asbasbasbag57
(g73
g59
NtRp1419
(dp1420
g62
(dp1421
sg71
g649
sg64
(lp1422
g57
(g78
g59
NtRp1423
(dp1424
g62
(dp1425
g82
g83
ssg71
g1419
sg64
(lp1426
S'wsgi_file_wrapper'
p1427
asbag57
(g78
g59
NtRp1428
(dp1429
g62
(dp1430
g89
g90
ssg71
g1419
sg64
(lp1431
S':'
asbag57
(g78
g59
NtRp1432
(dp1433
g62
(dp1434
sg71
g1419
sg64
(lp1435
g57
(g58
g59
NtRp1436
(dp1437
g62
(dp1438
g70
I4
ssg71
g1432
sg64
(lp1439
S'<class wsgiref.util.FileWrapper at 0x000000000380D828>'
p1440
asbasbasbag57
(g73
g59
NtRp1441
(dp1442
g62
(dp1443
sg71
g649
sg64
(lp1444
g57
(g78
g59
NtRp1445
(dp1446
g62
(dp1447
g82
g83
ssg71
g1441
sg64
(lp1448
S'wsgi_input'
p1449
asbag57
(g78
g59
NtRp1450
(dp1451
g62
(dp1452
g89
g90
ssg71
g1441
sg64
(lp1453
S':'
asbag57
(g78
g59
NtRp1454
(dp1455
g62
(dp1456
sg71
g1441
sg64
(lp1457
g57
(g58
g59
NtRp1458
(dp1459
g62
(dp1460
g70
I4
ssg71
g1454
sg64
(lp1461
S'<socket._fileobject object at 0x00000000083CEED0>'
p1462
asbasbasbag57
(g73
g59
NtRp1463
(dp1464
g62
(dp1465
sg71
g649
sg64
(lp1466
g57
(g78
g59
NtRp1467
(dp1468
g62
(dp1469
g82
g83
ssg71
g1463
sg64
(lp1470
S'wsgi_multiprocess'
p1471
asbag57
(g78
g59
NtRp1472
(dp1473
g62
(dp1474
g89
g90
ssg71
g1463
sg64
(lp1475
S':'
asbag57
(g78
g59
NtRp1476
(dp1477
g62
(dp1478
sg71
g1463
sg64
(lp1479
g57
(g58
g59
NtRp1480
(dp1481
g62
(dp1482
g70
I4
ssg71
g1476
sg64
(lp1483
g100
asbasbasbag57
(g73
g59
NtRp1484
(dp1485
g62
(dp1486
sg71
g649
sg64
(lp1487
g57
(g78
g59
NtRp1488
(dp1489
g62
(dp1490
g82
g83
ssg71
g1484
sg64
(lp1491
S'wsgi_multithread'
p1492
asbag57
(g78
g59
NtRp1493
(dp1494
g62
(dp1495
g89
g90
ssg71
g1484
sg64
(lp1496
S':'
asbag57
(g78
g59
NtRp1497
(dp1498
g62
(dp1499
sg71
g1484
sg64
(lp1500
g57
(g58
g59
NtRp1501
(dp1502
g62
(dp1503
g70
I4
ssg71
g1497
sg64
(lp1504
S'True'
p1505
asbasbasbag57
(g73
g59
NtRp1506
(dp1507
g62
(dp1508
sg71
g649
sg64
(lp1509
g57
(g78
g59
NtRp1510
(dp1511
g62
(dp1512
g82
g83
ssg71
g1506
sg64
(lp1513
S'wsgi_run_once'
p1514
asbag57
(g78
g59
NtRp1515
(dp1516
g62
(dp1517
g89
g90
ssg71
g1506
sg64
(lp1518
S':'
asbag57
(g78
g59
NtRp1519
(dp1520
g62
(dp1521
sg71
g1506
sg64
(lp1522
g57
(g58
g59
NtRp1523
(dp1524
g62
(dp1525
g70
I4
ssg71
g1519
sg64
(lp1526
g100
asbasbasbag57
(g73
g59
NtRp1527
(dp1528
g62
(dp1529
sg71
g649
sg64
(lp1530
g57
(g78
g59
NtRp1531
(dp1532
g62
(dp1533
g82
g83
ssg71
g1527
sg64
(lp1534
S'wsgi_url_scheme'
p1535
asbag57
(g78
g59
NtRp1536
(dp1537
g62
(dp1538
g89
g90
ssg71
g1527
sg64
(lp1539
S':'
asbag57
(g78
g59
NtRp1540
(dp1541
g62
(dp1542
sg71
g1527
sg64
(lp1543
g57
(g58
g59
NtRp1544
(dp1545
g62
(dp1546
g70
I4
ssg71
g1540
sg64
(lp1547
S'http'
p1548
asbasbasbag57
(g73
g59
NtRp1549
(dp1550
g62
(dp1551
sg71
g649
sg64
(lp1552
g57
(g78
g59
NtRp1553
(dp1554
g62
(dp1555
g82
g83
ssg71
g1549
sg64
(lp1556
S'wsgi_version'
p1557
asbag57
(g78
g59
NtRp1558
(dp1559
g62
(dp1560
g89
g90
ssg71
g1549
sg64
(lp1561
S':'
asbag57
(g78
g59
NtRp1562
(dp1563
g62
(dp1564
sg71
g1549
sg64
(lp1565
g57
(g58
g59
NtRp1566
(dp1567
g62
(dp1568
g70
I4
ssg71
g1562
sg64
(lp1569
g57
(g66
g59
NtRp1570
(dp1571
g62
(dp1572
g70
I3
ssg71
Nsg64
(lp1573
g57
(g73
g59
NtRp1574
(dp1575
g62
(dp1576
sg71
g1570
sg64
(lp1577
g57
(g78
g59
NtRp1578
(dp1579
g62
(dp1580
sg71
g1574
sg64
(lp1581
g57
(g58
g59
NtRp1582
(dp1583
g62
(dp1584
g70
I3
ssg71
g1578
sg64
(lp1585
S'1'
asbasbasbag57
(g73
g59
NtRp1586
(dp1587
g62
(dp1588
sg71
g1570
sg64
(lp1589
g57
(g78
g59
NtRp1590
(dp1591
g62
(dp1592
sg71
g1586
sg64
(lp1593
g57
(g58
g59
NtRp1594
(dp1595
g62
(dp1596
g70
I3
ssg71
g1590
sg64
(lp1597
S'0'
asbasbasbasbasbasbasbasbasbasbasbag57
(g73
g59
NtRp1598
(dp1599
g62
(dp1600
sg71
g67
sg64
(lp1601
g57
(g78
g59
NtRp1602
(dp1603
g62
(dp1604
g82
g83
ssg71
g1598
sg64
(lp1605
S'extension'
p1606
asbag57
(g78
g59
NtRp1607
(dp1608
g62
(dp1609
g89
g90
ssg71
g1598
sg64
(lp1610
S':'
asbag57
(g78
g59
NtRp1611
(dp1612
g62
(dp1613
sg71
g1598
sg64
(lp1614
g57
(g58
g59
NtRp1615
(dp1616
g62
(dp1617
g70
I5
ssg71
g1611
sg64
(lp1618
S'html'
p1619
asbasbasbag57
(g73
g59
NtRp1620
(dp1621
g62
(dp1622
sg71
g67
sg64
(lp1623
g57
(g78
g59
NtRp1624
(dp1625
g62
(dp1626
g82
g83
ssg71
g1620
sg64
(lp1627
S'folder'
p1628
asbag57
(g78
g59
NtRp1629
(dp1630
g62
(dp1631
g89
g90
ssg71
g1620
sg64
(lp1632
S':'
asbag57
(g78
g59
NtRp1633
(dp1634
g62
(dp1635
sg71
g1620
sg64
(lp1636
g57
(g58
g59
NtRp1637
(dp1638
g62
(dp1639
g70
I5
ssg71
g1633
sg64
(lp1640
S'C:\\Users\\mellinja\\Documents\\SC2Tracker\\SC2TourneyTracker\\web2py\\applications\\welcome\\'
p1641
asbasbasbag57
(g73
g59
NtRp1642
(dp1643
g62
(dp1644
sg71
g67
sg64
(lp1645
g57
(g78
g59
NtRp1646
(dp1647
g62
(dp1648
g82
g83
ssg71
g1642
sg64
(lp1649
S'function'
p1650
asbag57
(g78
g59
NtRp1651
(dp1652
g62
(dp1653
g89
g90
ssg71
g1642
sg64
(lp1654
S':'
asbag57
(g78
g59
NtRp1655
(dp1656
g62
(dp1657
sg71
g1642
sg64
(lp1658
g57
(g58
g59
NtRp1659
(dp1660
g62
(dp1661
g70
I5
ssg71
g1655
sg64
(lp1662
S'show'
p1663
asbasbasbag57
(g73
g59
NtRp1664
(dp1665
g62
(dp1666
sg71
g67
sg64
(lp1667
g57
(g78
g59
NtRp1668
(dp1669
g62
(dp1670
g82
g83
ssg71
g1664
sg64
(lp1671
S'get_vars'
p1672
asbag57
(g78
g59
NtRp1673
(dp1674
g62
(dp1675
g89
g90
ssg71
g1664
sg64
(lp1676
S':'
asbag57
(g78
g59
NtRp1677
(dp1678
g62
(dp1679
sg71
g1664
sg64
(lp1680
g57
(g58
g59
NtRp1681
(dp1682
g62
(dp1683
g70
I5
ssg71
g1677
sg64
(lp1684
g57
(g66
g59
NtRp1685
(dp1686
g62
(dp1687
g70
I4
ssg71
Nsg64
(lp1688
sbasbasbasbag57
(g73
g59
NtRp1689
(dp1690
g62
(dp1691
sg71
g67
sg64
(lp1692
g57
(g78
g59
NtRp1693
(dp1694
g62
(dp1695
g82
g83
ssg71
g1689
sg64
(lp1696
S'global_settings'
p1697
asbag57
(g78
g59
NtRp1698
(dp1699
g62
(dp1700
g89
g90
ssg71
g1689
sg64
(lp1701
S':'
asbag57
(g78
g59
NtRp1702
(dp1703
g62
(dp1704
sg71
g1689
sg64
(lp1705
g57
(g58
g59
NtRp1706
(dp1707
g62
(dp1708
g70
I5
ssg71
g1702
sg64
(lp1709
g57
(g66
g59
NtRp1710
(dp1711
g62
(dp1712
g70
I4
ssg71
Nsg64
(lp1713
g57
(g73
g59
NtRp1714
(dp1715
g62
(dp1716
sg71
g1710
sg64
(lp1717
g57
(g78
g59
NtRp1718
(dp1719
g62
(dp1720
g82
g83
ssg71
g1714
sg64
(lp1721
g661
asbag57
(g78
g59
NtRp1722
(dp1723
g62
(dp1724
g89
g90
ssg71
g1714
sg64
(lp1725
S':'
asbag57
(g78
g59
NtRp1726
(dp1727
g62
(dp1728
sg71
g1714
sg64
(lp1729
g57
(g58
g59
NtRp1730
(dp1731
g62
(dp1732
g70
I4
ssg71
g1726
sg64
(lp1733
S"set(['C:\\\\Users\\\\mellinja\\\\Documents\\\\SC2Tracker\\\\SC2TourneyTracker\\\\web2py\\\\applications\\\\welcome\\\\', 'C:\\\\Users\\\\mellinja\\\\Documents\\\\SC2Tracker\\\\SC2TourneyTracker\\\\web2py\\\\applications\\\\admin\\\\'])"
p1734
asbasbasbag57
(g73
g59
NtRp1735
(dp1736
g62
(dp1737
sg71
g1710
sg64
(lp1738
g57
(g78
g59
NtRp1739
(dp1740
g62
(dp1741
g82
g83
ssg71
g1735
sg64
(lp1742
g683
asbag57
(g78
g59
NtRp1743
(dp1744
g62
(dp1745
g89
g90
ssg71
g1735
sg64
(lp1746
S':'
asbag57
(g78
g59
NtRp1747
(dp1748
g62
(dp1749
sg71
g1735
sg64
(lp1750
g57
(g58
g59
NtRp1751
(dp1752
g62
(dp1753
g70
I4
ssg71
g1747
sg64
(lp1754
g696
asbasbasbag57
(g73
g59
NtRp1755
(dp1756
g62
(dp1757
sg71
g1710
sg64
(lp1758
g57
(g78
g59
NtRp1759
(dp1760
g62
(dp1761
g82
g83
ssg71
g1755
sg64
(lp1762
g705
asbag57
(g78
g59
NtRp1763
(dp1764
g62
(dp1765
g89
g90
ssg71
g1755
sg64
(lp1766
S':'
asbag57
(g78
g59
NtRp1767
(dp1768
g62
(dp1769
sg71
g1755
sg64
(lp1770
g57
(g58
g59
NtRp1771
(dp1772
g62
(dp1773
g70
I4
ssg71
g1767
sg64
(lp1774
g57
(g66
g59
NtRp1775
(dp1776
g62
(dp1777
g70
I3
ssg71
Nsg64
(lp1778
sbasbasbasbag57
(g73
g59
NtRp1779
(dp1780
g62
(dp1781
sg71
g1710
sg64
(lp1782
g57
(g78
g59
NtRp1783
(dp1784
g62
(dp1785
g82
g83
ssg71
g1779
sg64
(lp1786
g730
asbag57
(g78
g59
NtRp1787
(dp1788
g62
(dp1789
g89
g90
ssg71
g1779
sg64
(lp1790
S':'
asbag57
(g78
g59
NtRp1791
(dp1792
g62
(dp1793
sg71
g1779
sg64
(lp1794
g57
(g58
g59
NtRp1795
(dp1796
g62
(dp1797
g70
I4
ssg71
g1791
sg64
(lp1798
S"<Values at 0x391d5c8: {'verbose': False, 'ip': '127.0.0.1', 'shutdown_timeout': 5, 'taskbar': False, 'nocron': False, 'pid_filename': 'httpserver.pid', 'maxthreads': None, 'softcron': False, 'server_name': 'mellinja-PC', 'bpython': False, 'nogui': False, 'port': 8000, 'extcron': False, 'debuglevel': 30, 'test': None, 'folder': 'C:\\\\Users\\\\mellinja\\\\Documents\\\\SC2Tracker\\\\SC2TourneyTracker\\\\web2py', 'config': '', 'import_models': False, 'winservice': '', 'shell': None, 'run': '', 'log_filename': 'httpserver.log', 'args': [''], 'socket_timeout': 1, 'ssl_ca_certificate': None, 'scheduler': None, 'profiler_filename': None, 'ssl_private_key': '', 'password': '<ask>', 'request_queue_size': 5, 'ssl_certificate': '', 'cronjob': False, 'numthreads': None, 'quiet': False, 'interfaces': None, 'minthreads': None, 'timeout': 10, 'plain': False, 'nobanner': False}>"
p1799
asbasbasbag57
(g73
g59
NtRp1800
(dp1801
g62
(dp1802
sg71
g1710
sg64
(lp1803
g57
(g78
g59
NtRp1804
(dp1805
g62
(dp1806
g82
g83
ssg71
g1800
sg64
(lp1807
g752
asbag57
(g78
g59
NtRp1808
(dp1809
g62
(dp1810
g89
g90
ssg71
g1800
sg64
(lp1811
S':'
asbag57
(g78
g59
NtRp1812
(dp1813
g62
(dp1814
sg71
g1800
sg64
(lp1815
g57
(g58
g59
NtRp1816
(dp1817
g62
(dp1818
g70
I4
ssg71
g1812
sg64
(lp1819
S'set([])'
p1820
asbasbasbag57
(g73
g59
NtRp1821
(dp1822
g62
(dp1823
sg71
g1710
sg64
(lp1824
g57
(g78
g59
NtRp1825
(dp1826
g62
(dp1827
g82
g83
ssg71
g1821
sg64
(lp1828
g774
asbag57
(g78
g59
NtRp1829
(dp1830
g62
(dp1831
g89
g90
ssg71
g1821
sg64
(lp1832
S':'
asbag57
(g78
g59
NtRp1833
(dp1834
g62
(dp1835
sg71
g1821
sg64
(lp1836
g57
(g58
g59
NtRp1837
(dp1838
g62
(dp1839
g70
I4
ssg71
g1833
sg64
(lp1840
g100
asbasbasbag57
(g73
g59
NtRp1841
(dp1842
g62
(dp1843
sg71
g1710
sg64
(lp1844
g57
(g78
g59
NtRp1845
(dp1846
g62
(dp1847
g82
g83
ssg71
g1841
sg64
(lp1848
g795
asbag57
(g78
g59
NtRp1849
(dp1850
g62
(dp1851
g89
g90
ssg71
g1841
sg64
(lp1852
S':'
asbag57
(g78
g59
NtRp1853
(dp1854
g62
(dp1855
sg71
g1841
sg64
(lp1856
g57
(g58
g59
NtRp1857
(dp1858
g62
(dp1859
g70
I4
ssg71
g1853
sg64
(lp1860
g808
asbasbasbag57
(g73
g59
NtRp1861
(dp1862
g62
(dp1863
sg71
g1710
sg64
(lp1864
g57
(g78
g59
NtRp1865
(dp1866
g62
(dp1867
g82
g83
ssg71
g1861
sg64
(lp1868
g1015
asbag57
(g78
g59
NtRp1869
(dp1870
g62
(dp1871
g89
g90
ssg71
g1861
sg64
(lp1872
S':'
asbag57
(g78
g59
NtRp1873
(dp1874
g62
(dp1875
sg71
g1861
sg64
(lp1876
g57
(g58
g59
NtRp1877
(dp1878
g62
(dp1879
g70
I4
ssg71
g1873
sg64
(lp1880
g100
asbasbasbag57
(g73
g59
NtRp1881
(dp1882
g62
(dp1883
sg71
g1710
sg64
(lp1884
g57
(g78
g59
NtRp1885
(dp1886
g62
(dp1887
g82
g83
ssg71
g1881
sg64
(lp1888
g1036
asbag57
(g78
g59
NtRp1889
(dp1890
g62
(dp1891
g89
g90
ssg71
g1881
sg64
(lp1892
S':'
asbag57
(g78
g59
NtRp1893
(dp1894
g62
(dp1895
sg71
g1881
sg64
(lp1896
g57
(g58
g59
NtRp1897
(dp1898
g62
(dp1899
g70
I4
ssg71
g1893
sg64
(lp1900
g100
asbasbasbag57
(g73
g59
NtRp1901
(dp1902
g62
(dp1903
sg71
g1710
sg64
(lp1904
g57
(g78
g59
NtRp1905
(dp1906
g62
(dp1907
g82
g83
ssg71
g1901
sg64
(lp1908
g1274
asbag57
(g78
g59
NtRp1909
(dp1910
g62
(dp1911
g89
g90
ssg71
g1901
sg64
(lp1912
S':'
asbag57
(g78
g59
NtRp1913
(dp1914
g62
(dp1915
sg71
g1901
sg64
(lp1916
g57
(g58
g59
NtRp1917
(dp1918
g62
(dp1919
g70
I4
ssg71
g1913
sg64
(lp1920
g1287
asbasbasbag57
(g73
g59
NtRp1921
(dp1922
g62
(dp1923
sg71
g1710
sg64
(lp1924
g57
(g78
g59
NtRp1925
(dp1926
g62
(dp1927
g82
g83
ssg71
g1921
sg64
(lp1928
g1317
asbag57
(g78
g59
NtRp1929
(dp1930
g62
(dp1931
g89
g90
ssg71
g1921
sg64
(lp1932
S':'
asbag57
(g78
g59
NtRp1933
(dp1934
g62
(dp1935
sg71
g1921
sg64
(lp1936
g57
(g58
g59
NtRp1937
(dp1938
g62
(dp1939
g70
I4
ssg71
g1933
sg64
(lp1940
g57
(g66
g59
NtRp1941
(dp1942
g62
(dp1943
g70
I3
ssg71
Nsg64
(lp1944
g57
(g73
g59
NtRp1945
(dp1946
g62
(dp1947
sg71
g1941
sg64
(lp1948
g57
(g78
g59
NtRp1949
(dp1950
g62
(dp1951
sg71
g1945
sg64
(lp1952
g57
(g58
g59
NtRp1953
(dp1954
g62
(dp1955
g70
I3
ssg71
g1949
sg64
(lp1956
S'1'
asbasbasbag57
(g73
g59
NtRp1957
(dp1958
g62
(dp1959
sg71
g1941
sg64
(lp1960
g57
(g78
g59
NtRp1961
(dp1962
g62
(dp1963
sg71
g1957
sg64
(lp1964
g57
(g58
g59
NtRp1965
(dp1966
g62
(dp1967
g70
I3
ssg71
g1961
sg64
(lp1968
S'99'
p1969
asbasbasbag57
(g73
g59
NtRp1970
(dp1971
g62
(dp1972
sg71
g1941
sg64
(lp1973
g57
(g78
g59
NtRp1974
(dp1975
g62
(dp1976
sg71
g1970
sg64
(lp1977
g57
(g58
g59
NtRp1978
(dp1979
g62
(dp1980
g70
I3
ssg71
g1974
sg64
(lp1981
S'4'
asbasbasbag57
(g73
g59
NtRp1982
(dp1983
g62
(dp1984
sg71
g1941
sg64
(lp1985
g57
(g78
g59
NtRp1986
(dp1987
g62
(dp1988
sg71
g1982
sg64
(lp1989
g57
(g58
g59
NtRp1990
(dp1991
g62
(dp1992
g70
I3
ssg71
g1986
sg64
(lp1993
S'datetime.datetime(2011, 12, 14, 14, 46, 14)'
p1994
asbasbasbag57
(g73
g59
NtRp1995
(dp1996
g62
(dp1997
sg71
g1941
sg64
(lp1998
g57
(g78
g59
NtRp1999
(dp2000
g62
(dp2001
sg71
g1995
sg64
(lp2002
g57
(g58
g59
NtRp2003
(dp2004
g62
(dp2005
g70
I3
ssg71
g1999
sg64
(lp2006
g1396
asbasbasbasbasbasbasbasbasbasbasbag57
(g73
g59
NtRp2007
(dp2008
g62
(dp2009
sg71
g67
sg64
(lp2010
g57
(g78
g59
NtRp2011
(dp2012
g62
(dp2013
g82
g83
ssg71
g2007
sg64
(lp2014
S'is_https'
p2015
asbag57
(g78
g59
NtRp2016
(dp2017
g62
(dp2018
g89
g90
ssg71
g2007
sg64
(lp2019
S':'
asbag57
(g78
g59
NtRp2020
(dp2021
g62
(dp2022
sg71
g2007
sg64
(lp2023
g57
(g58
g59
NtRp2024
(dp2025
g62
(dp2026
g70
I5
ssg71
g2020
sg64
(lp2027
g100
asbasbasbag57
(g73
g59
NtRp2028
(dp2029
g62
(dp2030
sg71
g67
sg64
(lp2031
g57
(g78
g59
NtRp2032
(dp2033
g62
(dp2034
g82
g83
ssg71
g2028
sg64
(lp2035
S'is_local'
p2036
asbag57
(g78
g59
NtRp2037
(dp2038
g62
(dp2039
g89
g90
ssg71
g2028
sg64
(lp2040
S':'
asbag57
(g78
g59
NtRp2041
(dp2042
g62
(dp2043
sg71
g2028
sg64
(lp2044
g57
(g58
g59
NtRp2045
(dp2046
g62
(dp2047
g70
I5
ssg71
g2041
sg64
(lp2048
g1505
asbasbasbag57
(g73
g59
NtRp2049
(dp2050
g62
(dp2051
sg71
g67
sg64
(lp2052
g57
(g78
g59
NtRp2053
(dp2054
g62
(dp2055
g82
g83
ssg71
g2049
sg64
(lp2056
S'is_restful'
p2057
asbag57
(g78
g59
NtRp2058
(dp2059
g62
(dp2060
g89
g90
ssg71
g2049
sg64
(lp2061
S':'
asbag57
(g78
g59
NtRp2062
(dp2063
g62
(dp2064
sg71
g2049
sg64
(lp2065
g57
(g58
g59
NtRp2066
(dp2067
g62
(dp2068
g70
I5
ssg71
g2062
sg64
(lp2069
g100
asbasbasbag57
(g73
g59
NtRp2070
(dp2071
g62
(dp2072
sg71
g67
sg64
(lp2073
g57
(g78
g59
NtRp2074
(dp2075
g62
(dp2076
g82
g83
ssg71
g2070
sg64
(lp2077
S'now'
p2078
asbag57
(g78
g59
NtRp2079
(dp2080
g62
(dp2081
g89
g90
ssg71
g2070
sg64
(lp2082
S':'
asbag57
(g78
g59
NtRp2083
(dp2084
g62
(dp2085
sg71
g2070
sg64
(lp2086
g57
(g58
g59
NtRp2087
(dp2088
g62
(dp2089
g70
I5
ssg71
g2083
sg64
(lp2090
S'datetime.datetime(2012, 2, 9, 12, 32, 19, 683000)'
p2091
asbasbasbag57
(g73
g59
NtRp2092
(dp2093
g62
(dp2094
sg71
g67
sg64
(lp2095
g57
(g78
g59
NtRp2096
(dp2097
g62
(dp2098
g82
g83
ssg71
g2092
sg64
(lp2099
S'post_vars'
p2100
asbag57
(g78
g59
NtRp2101
(dp2102
g62
(dp2103
g89
g90
ssg71
g2092
sg64
(lp2104
S':'
asbag57
(g78
g59
NtRp2105
(dp2106
g62
(dp2107
sg71
g2092
sg64
(lp2108
g57
(g58
g59
NtRp2109
(dp2110
g62
(dp2111
g70
I5
ssg71
g2105
sg64
(lp2112
g57
(g66
g59
NtRp2113
(dp2114
g62
(dp2115
g70
I4
ssg71
Nsg64
(lp2116
sbasbasbasbag57
(g73
g59
NtRp2117
(dp2118
g62
(dp2119
sg71
g67
sg64
(lp2120
g57
(g78
g59
NtRp2121
(dp2122
g62
(dp2123
g82
g83
ssg71
g2117
sg64
(lp2124
S'raw_args'
p2125
asbag57
(g78
g59
NtRp2126
(dp2127
g62
(dp2128
g89
g90
ssg71
g2117
sg64
(lp2129
S':'
asbag57
(g78
g59
NtRp2130
(dp2131
g62
(dp2132
sg71
g2117
sg64
(lp2133
g57
(g58
g59
NtRp2134
(dp2135
g62
(dp2136
g70
I5
ssg71
g2130
sg64
(lp2137
S'7'
asbasbasbag57
(g73
g59
NtRp2138
(dp2139
g62
(dp2140
sg71
g67
sg64
(lp2141
g57
(g78
g59
NtRp2142
(dp2143
g62
(dp2144
g82
g83
ssg71
g2138
sg64
(lp2145
S'url'
p2146
asbag57
(g78
g59
NtRp2147
(dp2148
g62
(dp2149
g89
g90
ssg71
g2138
sg64
(lp2150
S':'
asbag57
(g78
g59
NtRp2151
(dp2152
g62
(dp2153
sg71
g2138
sg64
(lp2154
g57
(g58
g59
NtRp2155
(dp2156
g62
(dp2157
g70
I5
ssg71
g2151
sg64
(lp2158
S'/welcome/tournament/show/7'
p2159
asbasbasbag57
(g73
g59
NtRp2160
(dp2161
g62
(dp2162
sg71
g67
sg64
(lp2163
g57
(g78
g59
NtRp2164
(dp2165
g62
(dp2166
g82
g83
ssg71
g2160
sg64
(lp2167
S'utcnow'
p2168
asbag57
(g78
g59
NtRp2169
(dp2170
g62
(dp2171
g89
g90
ssg71
g2160
sg64
(lp2172
S':'
asbag57
(g78
g59
NtRp2173
(dp2174
g62
(dp2175
sg71
g2160
sg64
(lp2176
g57
(g58
g59
NtRp2177
(dp2178
g62
(dp2179
g70
I5
ssg71
g2173
sg64
(lp2180
S'datetime.datetime(2012, 2, 9, 17, 32, 19, 683000)'
p2181
asbasbasbag57
(g73
g59
NtRp2182
(dp2183
g62
(dp2184
sg71
g67
sg64
(lp2185
g57
(g78
g59
NtRp2186
(dp2187
g62
(dp2188
g82
g83
ssg71
g2182
sg64
(lp2189
S'uuid'
p2190
asbag57
(g78
g59
NtRp2191
(dp2192
g62
(dp2193
g89
g90
ssg71
g2182
sg64
(lp2194
S':'
asbag57
(g78
g59
NtRp2195
(dp2196
g62
(dp2197
sg71
g2182
sg64
(lp2198
g57
(g58
g59
NtRp2199
(dp2200
g62
(dp2201
g70
I5
ssg71
g2195
sg64
(lp2202
S'welcome/127.0.0.1.2012-02-09.12-32-19.4606e893-e90c-4d37-9de7-63529395be2f'
p2203
asbasbasbag57
(g73
g59
NtRp2204
(dp2205
g62
(dp2206
sg71
g67
sg64
(lp2207
g57
(g78
g59
NtRp2208
(dp2209
g62
(dp2210
g82
g83
ssg71
g2204
sg64
(lp2211
S'vars'
p2212
asbag57
(g78
g59
NtRp2213
(dp2214
g62
(dp2215
g89
g90
ssg71
g2204
sg64
(lp2216
S':'
asbag57
(g78
g59
NtRp2217
(dp2218
g62
(dp2219
sg71
g2204
sg64
(lp2220
g57
(g58
g59
NtRp2221
(dp2222
g62
(dp2223
g70
I5
ssg71
g2217
sg64
(lp2224
g57
(g66
g59
NtRp2225
(dp2226
g62
(dp2227
g70
I4
ssg71
Nsg64
(lp2228
sbasbasbasbag57
(g73
g59
NtRp2229
(dp2230
g62
(dp2231
sg71
g67
sg64
(lp2232
g57
(g78
g59
NtRp2233
(dp2234
g62
(dp2235
g82
g83
ssg71
g2229
sg64
(lp2236
S'wsgi'
p2237
asbag57
(g78
g59
NtRp2238
(dp2239
g62
(dp2240
g89
g90
ssg71
g2229
sg64
(lp2241
S':'
asbag57
(g78
g59
NtRp2242
(dp2243
g62
(dp2244
sg71
g2229
sg64
(lp2245
g57
(g58
g59
NtRp2246
(dp2247
g62
(dp2248
g70
I5
ssg71
g2242
sg64
(lp2249
g57
(g66
g59
NtRp2250
(dp2251
g62
(dp2252
g70
I4
ssg71
Nsg64
(lp2253
g57
(g73
g59
NtRp2254
(dp2255
g62
(dp2256
sg71
g2250
sg64
(lp2257
g57
(g78
g59
NtRp2258
(dp2259
g62
(dp2260
g82
g83
ssg71
g2254
sg64
(lp2261
S'environ'
p2262
asbag57
(g78
g59
NtRp2263
(dp2264
g62
(dp2265
g89
g90
ssg71
g2254
sg64
(lp2266
S':'
asbag57
(g78
g59
NtRp2267
(dp2268
g62
(dp2269
sg71
g2254
sg64
(lp2270
g57
(g58
g59
NtRp2271
(dp2272
g62
(dp2273
g70
I4
ssg71
g2267
sg64
(lp2274
g57
(g66
g59
NtRp2275
(dp2276
g62
(dp2277
g70
I3
ssg71
Nsg64
(lp2278
g57
(g73
g59
NtRp2279
(dp2280
g62
(dp2281
sg71
g2275
sg64
(lp2282
g57
(g78
g59
NtRp2283
(dp2284
g62
(dp2285
g82
g83
ssg71
g2279
sg64
(lp2286
S'HTTP_ACCEPT'
p2287
asbag57
(g78
g59
NtRp2288
(dp2289
g62
(dp2290
g89
g90
ssg71
g2279
sg64
(lp2291
S':'
asbag57
(g78
g59
NtRp2292
(dp2293
g62
(dp2294
sg71
g2279
sg64
(lp2295
g57
(g58
g59
NtRp2296
(dp2297
g62
(dp2298
g70
I3
ssg71
g2292
sg64
(lp2299
g830
asbasbasbag57
(g73
g59
NtRp2300
(dp2301
g62
(dp2302
sg71
g2275
sg64
(lp2303
g57
(g78
g59
NtRp2304
(dp2305
g62
(dp2306
g82
g83
ssg71
g2300
sg64
(lp2307
S'HTTP_ACCEPT_CHARSET'
p2308
asbag57
(g78
g59
NtRp2309
(dp2310
g62
(dp2311
g89
g90
ssg71
g2300
sg64
(lp2312
S':'
asbag57
(g78
g59
NtRp2313
(dp2314
g62
(dp2315
sg71
g2300
sg64
(lp2316
g57
(g58
g59
NtRp2317
(dp2318
g62
(dp2319
g70
I3
ssg71
g2313
sg64
(lp2320
g852
asbasbasbag57
(g73
g59
NtRp2321
(dp2322
g62
(dp2323
sg71
g2275
sg64
(lp2324
g57
(g78
g59
NtRp2325
(dp2326
g62
(dp2327
g82
g83
ssg71
g2321
sg64
(lp2328
S'HTTP_ACCEPT_ENCODING'
p2329
asbag57
(g78
g59
NtRp2330
(dp2331
g62
(dp2332
g89
g90
ssg71
g2321
sg64
(lp2333
S':'
asbag57
(g78
g59
NtRp2334
(dp2335
g62
(dp2336
sg71
g2321
sg64
(lp2337
g57
(g58
g59
NtRp2338
(dp2339
g62
(dp2340
g70
I3
ssg71
g2334
sg64
(lp2341
g874
asbasbasbag57
(g73
g59
NtRp2342
(dp2343
g62
(dp2344
sg71
g2275
sg64
(lp2345
g57
(g78
g59
NtRp2346
(dp2347
g62
(dp2348
g82
g83
ssg71
g2342
sg64
(lp2349
S'HTTP_ACCEPT_LANGUAGE'
p2350
asbag57
(g78
g59
NtRp2351
(dp2352
g62
(dp2353
g89
g90
ssg71
g2342
sg64
(lp2354
S':'
asbag57
(g78
g59
NtRp2355
(dp2356
g62
(dp2357
sg71
g2342
sg64
(lp2358
g57
(g58
g59
NtRp2359
(dp2360
g62
(dp2361
g70
I3
ssg71
g2355
sg64
(lp2362
g896
asbasbasbag57
(g73
g59
NtRp2363
(dp2364
g62
(dp2365
sg71
g2275
sg64
(lp2366
g57
(g78
g59
NtRp2367
(dp2368
g62
(dp2369
g82
g83
ssg71
g2363
sg64
(lp2370
S'HTTP_CONNECTION'
p2371
asbag57
(g78
g59
NtRp2372
(dp2373
g62
(dp2374
g89
g90
ssg71
g2363
sg64
(lp2375
S':'
asbag57
(g78
g59
NtRp2376
(dp2377
g62
(dp2378
sg71
g2363
sg64
(lp2379
g57
(g58
g59
NtRp2380
(dp2381
g62
(dp2382
g70
I3
ssg71
g2376
sg64
(lp2383
g918
asbasbasbag57
(g73
g59
NtRp2384
(dp2385
g62
(dp2386
sg71
g2275
sg64
(lp2387
g57
(g78
g59
NtRp2388
(dp2389
g62
(dp2390
g82
g83
ssg71
g2384
sg64
(lp2391
S'HTTP_COOKIE'
p2392
asbag57
(g78
g59
NtRp2393
(dp2394
g62
(dp2395
g89
g90
ssg71
g2384
sg64
(lp2396
S':'
asbag57
(g78
g59
NtRp2397
(dp2398
g62
(dp2399
sg71
g2384
sg64
(lp2400
g57
(g58
g59
NtRp2401
(dp2402
g62
(dp2403
g70
I3
ssg71
g2397
sg64
(lp2404
g940
asbasbasbag57
(g73
g59
NtRp2405
(dp2406
g62
(dp2407
sg71
g2275
sg64
(lp2408
g57
(g78
g59
NtRp2409
(dp2410
g62
(dp2411
g82
g83
ssg71
g2405
sg64
(lp2412
S'HTTP_HOST'
p2413
asbag57
(g78
g59
NtRp2414
(dp2415
g62
(dp2416
g89
g90
ssg71
g2405
sg64
(lp2417
S':'
asbag57
(g78
g59
NtRp2418
(dp2419
g62
(dp2420
sg71
g2405
sg64
(lp2421
g57
(g58
g59
NtRp2422
(dp2423
g62
(dp2424
g70
I3
ssg71
g2418
sg64
(lp2425
g962
asbasbasbag57
(g73
g59
NtRp2426
(dp2427
g62
(dp2428
sg71
g2275
sg64
(lp2429
g57
(g78
g59
NtRp2430
(dp2431
g62
(dp2432
g82
g83
ssg71
g2426
sg64
(lp2433
S'HTTP_REFERER'
p2434
asbag57
(g78
g59
NtRp2435
(dp2436
g62
(dp2437
g89
g90
ssg71
g2426
sg64
(lp2438
S':'
asbag57
(g78
g59
NtRp2439
(dp2440
g62
(dp2441
sg71
g2426
sg64
(lp2442
g57
(g58
g59
NtRp2443
(dp2444
g62
(dp2445
g70
I3
ssg71
g2439
sg64
(lp2446
g984
asbasbasbag57
(g73
g59
NtRp2447
(dp2448
g62
(dp2449
sg71
g2275
sg64
(lp2450
g57
(g78
g59
NtRp2451
(dp2452
g62
(dp2453
g82
g83
ssg71
g2447
sg64
(lp2454
S'HTTP_USER_AGENT'
p2455
asbag57
(g78
g59
NtRp2456
(dp2457
g62
(dp2458
g89
g90
ssg71
g2447
sg64
(lp2459
S':'
asbag57
(g78
g59
NtRp2460
(dp2461
g62
(dp2462
sg71
g2447
sg64
(lp2463
g57
(g58
g59
NtRp2464
(dp2465
g62
(dp2466
g70
I3
ssg71
g2460
sg64
(lp2467
g1006
asbasbasbag57
(g73
g59
NtRp2468
(dp2469
g62
(dp2470
sg71
g2275
sg64
(lp2471
g57
(g78
g59
NtRp2472
(dp2473
g62
(dp2474
g82
g83
ssg71
g2468
sg64
(lp2475
S'PATH_INFO'
p2476
asbag57
(g78
g59
NtRp2477
(dp2478
g62
(dp2479
g89
g90
ssg71
g2468
sg64
(lp2480
S':'
asbag57
(g78
g59
NtRp2481
(dp2482
g62
(dp2483
sg71
g2468
sg64
(lp2484
g57
(g58
g59
NtRp2485
(dp2486
g62
(dp2487
g70
I3
ssg71
g2481
sg64
(lp2488
g1070
asbasbasbag57
(g73
g59
NtRp2489
(dp2490
g62
(dp2491
sg71
g2275
sg64
(lp2492
g57
(g78
g59
NtRp2493
(dp2494
g62
(dp2495
g82
g83
ssg71
g2489
sg64
(lp2496
S'QUERY_STRING'
p2497
asbag57
(g78
g59
NtRp2498
(dp2499
g62
(dp2500
g89
g90
ssg71
g2489
sg64
(lp2501
S':'
asbag57
(g78
g59
NtRp2502
(dp2503
g62
(dp2504
sg71
g2489
sg64
(lp2505
g57
(g58
g59
NtRp2506
(dp2507
g62
(dp2508
g70
I3
ssg71
g2502
sg64
(lp2509
S''
asbasbasbag57
(g73
g59
NtRp2510
(dp2511
g62
(dp2512
sg71
g2275
sg64
(lp2513
g57
(g78
g59
NtRp2514
(dp2515
g62
(dp2516
g82
g83
ssg71
g2510
sg64
(lp2517
S'REMOTE_ADDR'
p2518
asbag57
(g78
g59
NtRp2519
(dp2520
g62
(dp2521
g89
g90
ssg71
g2510
sg64
(lp2522
S':'
asbag57
(g78
g59
NtRp2523
(dp2524
g62
(dp2525
sg71
g2510
sg64
(lp2526
g57
(g58
g59
NtRp2527
(dp2528
g62
(dp2529
g70
I3
ssg71
g2523
sg64
(lp2530
g202
asbasbasbag57
(g73
g59
NtRp2531
(dp2532
g62
(dp2533
sg71
g2275
sg64
(lp2534
g57
(g78
g59
NtRp2535
(dp2536
g62
(dp2537
g82
g83
ssg71
g2531
sg64
(lp2538
S'REMOTE_PORT'
p2539
asbag57
(g78
g59
NtRp2540
(dp2541
g62
(dp2542
g89
g90
ssg71
g2531
sg64
(lp2543
S':'
asbag57
(g78
g59
NtRp2544
(dp2545
g62
(dp2546
sg71
g2531
sg64
(lp2547
g57
(g58
g59
NtRp2548
(dp2549
g62
(dp2550
g70
I3
ssg71
g2544
sg64
(lp2551
g1134
asbasbasbag57
(g73
g59
NtRp2552
(dp2553
g62
(dp2554
sg71
g2275
sg64
(lp2555
g57
(g78
g59
NtRp2556
(dp2557
g62
(dp2558
g82
g83
ssg71
g2552
sg64
(lp2559
S'REQUEST_METHOD'
p2560
asbag57
(g78
g59
NtRp2561
(dp2562
g62
(dp2563
g89
g90
ssg71
g2552
sg64
(lp2564
S':'
asbag57
(g78
g59
NtRp2565
(dp2566
g62
(dp2567
sg71
g2552
sg64
(lp2568
g57
(g58
g59
NtRp2569
(dp2570
g62
(dp2571
g70
I3
ssg71
g2565
sg64
(lp2572
g1156
asbasbasbag57
(g73
g59
NtRp2573
(dp2574
g62
(dp2575
sg71
g2275
sg64
(lp2576
g57
(g78
g59
NtRp2577
(dp2578
g62
(dp2579
g82
g83
ssg71
g2573
sg64
(lp2580
S'SCRIPT_NAME'
p2581
asbag57
(g78
g59
NtRp2582
(dp2583
g62
(dp2584
g89
g90
ssg71
g2573
sg64
(lp2585
S':'
asbag57
(g78
g59
NtRp2586
(dp2587
g62
(dp2588
sg71
g2573
sg64
(lp2589
g57
(g58
g59
NtRp2590
(dp2591
g62
(dp2592
g70
I3
ssg71
g2586
sg64
(lp2593
S''
asbasbasbag57
(g73
g59
NtRp2594
(dp2595
g62
(dp2596
sg71
g2275
sg64
(lp2597
g57
(g78
g59
NtRp2598
(dp2599
g62
(dp2600
g82
g83
ssg71
g2594
sg64
(lp2601
S'SERVER_NAME'
p2602
asbag57
(g78
g59
NtRp2603
(dp2604
g62
(dp2605
g89
g90
ssg71
g2594
sg64
(lp2606
S':'
asbag57
(g78
g59
NtRp2607
(dp2608
g62
(dp2609
sg71
g2594
sg64
(lp2610
g57
(g58
g59
NtRp2611
(dp2612
g62
(dp2613
g70
I3
ssg71
g2607
sg64
(lp2614
g1199
asbasbasbag57
(g73
g59
NtRp2615
(dp2616
g62
(dp2617
sg71
g2275
sg64
(lp2618
g57
(g78
g59
NtRp2619
(dp2620
g62
(dp2621
g82
g83
ssg71
g2615
sg64
(lp2622
S'SERVER_PORT'
p2623
asbag57
(g78
g59
NtRp2624
(dp2625
g62
(dp2626
g89
g90
ssg71
g2615
sg64
(lp2627
S':'
asbag57
(g78
g59
NtRp2628
(dp2629
g62
(dp2630
sg71
g2615
sg64
(lp2631
g57
(g58
g59
NtRp2632
(dp2633
g62
(dp2634
g70
I3
ssg71
g2628
sg64
(lp2635
g1221
asbasbasbag57
(g73
g59
NtRp2636
(dp2637
g62
(dp2638
sg71
g2275
sg64
(lp2639
g57
(g78
g59
NtRp2640
(dp2641
g62
(dp2642
g82
g83
ssg71
g2636
sg64
(lp2643
S'SERVER_PROTOCOL'
p2644
asbag57
(g78
g59
NtRp2645
(dp2646
g62
(dp2647
g89
g90
ssg71
g2636
sg64
(lp2648
S':'
asbag57
(g78
g59
NtRp2649
(dp2650
g62
(dp2651
sg71
g2636
sg64
(lp2652
g57
(g58
g59
NtRp2653
(dp2654
g62
(dp2655
g70
I3
ssg71
g2649
sg64
(lp2656
g1243
asbasbasbag57
(g73
g59
NtRp2657
(dp2658
g62
(dp2659
sg71
g2275
sg64
(lp2660
g57
(g78
g59
NtRp2661
(dp2662
g62
(dp2663
g82
g83
ssg71
g2657
sg64
(lp2664
S'SERVER_SOFTWARE'
p2665
asbag57
(g78
g59
NtRp2666
(dp2667
g62
(dp2668
g89
g90
ssg71
g2657
sg64
(lp2669
S':'
asbag57
(g78
g59
NtRp2670
(dp2671
g62
(dp2672
sg71
g2657
sg64
(lp2673
g57
(g58
g59
NtRp2674
(dp2675
g62
(dp2676
g70
I3
ssg71
g2670
sg64
(lp2677
g1265
asbasbasbag57
(g73
g59
NtRp2678
(dp2679
g62
(dp2680
sg71
g2275
sg64
(lp2681
g57
(g78
g59
NtRp2682
(dp2683
g62
(dp2684
g82
g83
ssg71
g2678
sg64
(lp2685
S'wsgi.errors'
p2686
asbag57
(g78
g59
NtRp2687
(dp2688
g62
(dp2689
g89
g90
ssg71
g2678
sg64
(lp2690
S':'
asbag57
(g78
g59
NtRp2691
(dp2692
g62
(dp2693
sg71
g2678
sg64
(lp2694
g57
(g58
g59
NtRp2695
(dp2696
g62
(dp2697
g70
I3
ssg71
g2691
sg64
(lp2698
S"<open file '<stderr>', mode 'w' at 0x00000000020161E0>"
p2699
asbasbasbag57
(g73
g59
NtRp2700
(dp2701
g62
(dp2702
sg71
g2275
sg64
(lp2703
g57
(g78
g59
NtRp2704
(dp2705
g62
(dp2706
g82
g83
ssg71
g2700
sg64
(lp2707
S'wsgi.file_wrapper'
p2708
asbag57
(g78
g59
NtRp2709
(dp2710
g62
(dp2711
g89
g90
ssg71
g2700
sg64
(lp2712
S':'
asbag57
(g78
g59
NtRp2713
(dp2714
g62
(dp2715
sg71
g2700
sg64
(lp2716
g57
(g58
g59
NtRp2717
(dp2718
g62
(dp2719
g70
I3
ssg71
g2713
sg64
(lp2720
S'<class wsgiref.util.FileWrapper at 0x000000000380D828>'
p2721
asbasbasbag57
(g73
g59
NtRp2722
(dp2723
g62
(dp2724
sg71
g2275
sg64
(lp2725
g57
(g78
g59
NtRp2726
(dp2727
g62
(dp2728
g82
g83
ssg71
g2722
sg64
(lp2729
S'wsgi.input'
p2730
asbag57
(g78
g59
NtRp2731
(dp2732
g62
(dp2733
g89
g90
ssg71
g2722
sg64
(lp2734
S':'
asbag57
(g78
g59
NtRp2735
(dp2736
g62
(dp2737
sg71
g2722
sg64
(lp2738
g57
(g58
g59
NtRp2739
(dp2740
g62
(dp2741
g70
I3
ssg71
g2735
sg64
(lp2742
S'<cStringIO.StringO object at 0x0000000009D98298>'
p2743
asbasbasbag57
(g73
g59
NtRp2744
(dp2745
g62
(dp2746
sg71
g2275
sg64
(lp2747
g57
(g78
g59
NtRp2748
(dp2749
g62
(dp2750
g82
g83
ssg71
g2744
sg64
(lp2751
S'wsgi.multiprocess'
p2752
asbag57
(g78
g59
NtRp2753
(dp2754
g62
(dp2755
g89
g90
ssg71
g2744
sg64
(lp2756
S':'
asbag57
(g78
g59
NtRp2757
(dp2758
g62
(dp2759
sg71
g2744
sg64
(lp2760
g57
(g58
g59
NtRp2761
(dp2762
g62
(dp2763
g70
I3
ssg71
g2757
sg64
(lp2764
g100
asbasbasbag57
(g73
g59
NtRp2765
(dp2766
g62
(dp2767
sg71
g2275
sg64
(lp2768
g57
(g78
g59
NtRp2769
(dp2770
g62
(dp2771
g82
g83
ssg71
g2765
sg64
(lp2772
S'wsgi.multithread'
p2773
asbag57
(g78
g59
NtRp2774
(dp2775
g62
(dp2776
g89
g90
ssg71
g2765
sg64
(lp2777
S':'
asbag57
(g78
g59
NtRp2778
(dp2779
g62
(dp2780
sg71
g2765
sg64
(lp2781
g57
(g58
g59
NtRp2782
(dp2783
g62
(dp2784
g70
I3
ssg71
g2778
sg64
(lp2785
g1505
asbasbasbag57
(g73
g59
NtRp2786
(dp2787
g62
(dp2788
sg71
g2275
sg64
(lp2789
g57
(g78
g59
NtRp2790
(dp2791
g62
(dp2792
g82
g83
ssg71
g2786
sg64
(lp2793
S'wsgi.run_once'
p2794
asbag57
(g78
g59
NtRp2795
(dp2796
g62
(dp2797
g89
g90
ssg71
g2786
sg64
(lp2798
S':'
asbag57
(g78
g59
NtRp2799
(dp2800
g62
(dp2801
sg71
g2786
sg64
(lp2802
g57
(g58
g59
NtRp2803
(dp2804
g62
(dp2805
g70
I3
ssg71
g2799
sg64
(lp2806
g100
asbasbasbag57
(g73
g59
NtRp2807
(dp2808
g62
(dp2809
sg71
g2275
sg64
(lp2810
g57
(g78
g59
NtRp2811
(dp2812
g62
(dp2813
g82
g83
ssg71
g2807
sg64
(lp2814
S'wsgi.url_scheme'
p2815
asbag57
(g78
g59
NtRp2816
(dp2817
g62
(dp2818
g89
g90
ssg71
g2807
sg64
(lp2819
S':'
asbag57
(g78
g59
NtRp2820
(dp2821
g62
(dp2822
sg71
g2807
sg64
(lp2823
g57
(g58
g59
NtRp2824
(dp2825
g62
(dp2826
g70
I3
ssg71
g2820
sg64
(lp2827
g1548
asbasbasbag57
(g73
g59
NtRp2828
(dp2829
g62
(dp2830
sg71
g2275
sg64
(lp2831
g57
(g78
g59
NtRp2832
(dp2833
g62
(dp2834
g82
g83
ssg71
g2828
sg64
(lp2835
S'wsgi.version'
p2836
asbag57
(g78
g59
NtRp2837
(dp2838
g62
(dp2839
g89
g90
ssg71
g2828
sg64
(lp2840
S':'
asbag57
(g78
g59
NtRp2841
(dp2842
g62
(dp2843
sg71
g2828
sg64
(lp2844
g57
(g58
g59
NtRp2845
(dp2846
g62
(dp2847
g70
I3
ssg71
g2841
sg64
(lp2848
S'1'
asbasbasbasbasbasbasbasbasbasbasbasbasbsS'frames'
p2849
(lp2850
(dp2851
S'file'
p2852
S'C:\\Users\\mellinja\\Documents\\SC2Tracker\\SC2TourneyTracker\\web2py\\gluon\\restricted.py'
p2853
sS'dump'
p2854
(dp2855
S'environment'
p2856
S"{'A': <class 'gluon.html.A'>, 'Auth': <class 'gluon.tools.Auth'>, 'B': <class 'gluon.html.B'>, 'BEAUTIFY': <class 'gluon.html.BEAUTIFY'>, 'BODY': <class 'gluon.html.BODY'>, 'BR': <class 'gluon.html.BR'>, 'BUTTON': <class 'gluon.html.BUTTON'>, 'CAT': <class 'gluon.html.CAT'>, 'CENTER': <class 'gluon.html.CENTER'>, 'CLEANUP': <class 'gluon.validators.CLEANUP'>, ...}"
p2857
sS'ccode'
p2858
S'<code object <module> at 00000000082BE3B0, file ...tions\\welcome\\controllers/tournament.py", line 3>'
p2859
ssS'lnum'
p2860
I204
sS'lines'
p2861
(dp2862
I199
S'    try:'
p2863
sI200
S'        if type(code) == types.CodeType:'
p2864
sI201
S'            ccode = code'
p2865
sI202
S'        else:'
p2866
sI203
S'            ccode = compile2(code,layer)'
p2867
sI204
S'        exec ccode in environment'
p2868
sI205
S'    except HTTP:'
p2869
sI206
S'        raise'
p2870
sI207
S'    except RestrictedError:'
p2871
sI208
S'        # do not encapsulate (obfuscate) the original RestrictedError'
p2872
ssS'call'
p2873
S'(code="# coding: utf8\\n#\\ndef index(): \\n    #db = DAL(\'ms...rnament\')\\n\\nresponse._vars=response._caller(show)\\n", environment={\'A\': <class \'gluon.html.A\'>, \'Auth\': <class \'gluon.tools.Auth\'>, \'B\': <class \'gluon.html.B\'>, \'BEAUTIFY\': <class \'gluon.html.BEAUTIFY\'>, \'BODY\': <class \'gluon.html.BODY\'>, \'BR\': <class \'gluon.html.BR\'>, \'BUTTON\': <class \'gluon.html.BUTTON\'>, \'CAT\': <class \'gluon.html.CAT\'>, \'CENTER\': <class \'gluon.html.CENTER\'>, \'CLEANUP\': <class \'gluon.validators.CLEANUP\'>, ...}, layer=r\'C:\\Users\\mellinja\\Documents\\SC2Tracker\\SC2Tourne...py\\applications\\welcome\\controllers/tournament.py\')'
p2874
sS'func'
p2875
S'restricted'
p2876
sa(dp2877
g2852
S'C:\\Users\\mellinja\\Documents\\SC2Tracker\\SC2TourneyTracker\\web2py\\applications\\welcome\\controllers\\tournament.py'
p2878
sg2854
(dp2879
sg2860
I26
sg2861
(dp2880
I15
S''
sI16
S'def join():'
p2881
sI17
S''
sI18
S'    playerID = auth.user.ID'
p2882
sI19
S'    tournyID = request.args(0)'
p2883
sI20
S'    #TODO: add tourny'
p2884
sI21
S''
sI22
S"    redirect(URL('show/'+request.args(0)))"
p2885
sI23
S"    response.flash = 'Joined the tournament'"
p2886
sI24
S"    return dict(pid = request.args(0), message = 'Joined the tournament')"
p2887
ssg2873
S'()'
p2888
sg2875
S'<module>'
p2889
sa(dp2890
g2852
S'C:\\Users\\mellinja\\Documents\\SC2Tracker\\SC2TourneyTracker\\web2py\\gluon\\globals.py'
p2891
sg2854
(dp2892
S'self'
p2893
S'undefined'
p2894
sS'f'
S'<function show>'
p2895
ssg2860
I172
sg2861
(dp2896
I167
S'        self.meta = Storage()      # used by web2py_ajax.html'
p2897
sI168
S'        self.menu = []             # used by the default view layout'
p2898
sI169
S'        self.files = []            # used by web2py_ajax.html'
p2899
sI170
S'        self.generic_patterns = [] # patterns to allow generic views'
p2900
sI171
S'        self._vars = None'
p2901
sI172
S'        self._caller = lambda f: f()'
p2902
sI173
S'        self._view_environment = None'
p2903
sI174
S'        self._custom_commit = None'
p2904
sI175
S'        self._custom_rollback = None'
p2905
sI176
S''
ssg2873
S'(f=<function show>)'
p2906
sg2875
S'<lambda>'
p2907
sa(dp2908
g2852
S'C:\\Users\\mellinja\\Documents\\SC2Tracker\\SC2TourneyTracker\\web2py\\applications\\welcome\\controllers\\tournament.py'
p2909
sg2854
(dp2910
S'test'
p2911
g2894
sS'tourny'
p2912
S"[(7, 'TestTourney', 1, 1)]"
p2913
sS'builtindict'
p2914
S"<type 'dict'>"
p2915
ssg2860
I11
sg2861
(dp2916
I6
S'    return dict(tournament = tournies)'
p2917
sI7
S''
sI8
S'def show():'
p2918
sI9
S''
sI10
S"    tourny = db.executesql('SELECT * FROM Tournament WHERE ID = ' + str(request.args(0)))"
p2919
sI11
S'    if message != "":'
p2920
sI12
S'        response.flash = message'
p2921
sI13
S'    return dict(test = tourny, pid = str(request.args(0), message = ""))'
p2922
sI14
S''
sI15
S''
ssg2873
S'()'
p2923
sg2875
S'show'
p2924
sasS'pyver'
p2925
S'Python 2.7.2: C:\\Python27\\python.exe'
p2926
sS'session'
p2927
g57
(g58
g59
NtRp2928
(dp2929
g62
(dp2930
sg64
(lp2931
g57
(g66
g59
NtRp2932
(dp2933
g62
(dp2934
g70
I5
ssg71
Nsg64
(lp2935
g57
(g73
g59
NtRp2936
(dp2937
g62
(dp2938
sg71
g2932
sg64
(lp2939
g57
(g78
g59
NtRp2940
(dp2941
g62
(dp2942
g82
g83
ssg71
g2936
sg64
(lp2943
S'auth'
p2944
asbag57
(g78
g59
NtRp2945
(dp2946
g62
(dp2947
g89
g90
ssg71
g2936
sg64
(lp2948
S':'
asbag57
(g78
g59
NtRp2949
(dp2950
g62
(dp2951
sg71
g2936
sg64
(lp2952
g57
(g58
g59
NtRp2953
(dp2954
g62
(dp2955
g70
I5
ssg71
g2949
sg64
(lp2956
g57
(g66
g59
NtRp2957
(dp2958
g62
(dp2959
g70
I4
ssg71
Nsg64
(lp2960
g57
(g73
g59
NtRp2961
(dp2962
g62
(dp2963
sg71
g2957
sg64
(lp2964
g57
(g78
g59
NtRp2965
(dp2966
g62
(dp2967
g82
g83
ssg71
g2961
sg64
(lp2968
S'expiration'
p2969
asbag57
(g78
g59
NtRp2970
(dp2971
g62
(dp2972
g89
g90
ssg71
g2961
sg64
(lp2973
S':'
asbag57
(g78
g59
NtRp2974
(dp2975
g62
(dp2976
sg71
g2961
sg64
(lp2977
g57
(g58
g59
NtRp2978
(dp2979
g62
(dp2980
g70
I4
ssg71
g2974
sg64
(lp2981
S'2592000'
p2982
asbasbasbag57
(g73
g59
NtRp2983
(dp2984
g62
(dp2985
sg71
g2957
sg64
(lp2986
g57
(g78
g59
NtRp2987
(dp2988
g62
(dp2989
g82
g83
ssg71
g2983
sg64
(lp2990
S'hmac_key'
p2991
asbag57
(g78
g59
NtRp2992
(dp2993
g62
(dp2994
g89
g90
ssg71
g2983
sg64
(lp2995
S':'
asbag57
(g78
g59
NtRp2996
(dp2997
g62
(dp2998
sg71
g2983
sg64
(lp2999
g57
(g58
g59
NtRp3000
(dp3001
g62
(dp3002
g70
I4
ssg71
g2996
sg64
(lp3003
S'a77794c6-9cc2-46ea-80d7-a81f32dd8bbb'
p3004
asbasbasbag57
(g73
g59
NtRp3005
(dp3006
g62
(dp3007
sg71
g2957
sg64
(lp3008
g57
(g78
g59
NtRp3009
(dp3010
g62
(dp3011
g82
g83
ssg71
g3005
sg64
(lp3012
S'last_visit'
p3013
asbag57
(g78
g59
NtRp3014
(dp3015
g62
(dp3016
g89
g90
ssg71
g3005
sg64
(lp3017
S':'
asbag57
(g78
g59
NtRp3018
(dp3019
g62
(dp3020
sg71
g3005
sg64
(lp3021
g57
(g58
g59
NtRp3022
(dp3023
g62
(dp3024
g70
I4
ssg71
g3018
sg64
(lp3025
S'datetime.datetime(2012, 2, 9, 12, 8, 52, 902000)'
p3026
asbasbasbag57
(g73
g59
NtRp3027
(dp3028
g62
(dp3029
sg71
g2957
sg64
(lp3030
g57
(g78
g59
NtRp3031
(dp3032
g62
(dp3033
g82
g83
ssg71
g3027
sg64
(lp3034
S'remember'
p3035
asbag57
(g78
g59
NtRp3036
(dp3037
g62
(dp3038
g89
g90
ssg71
g3027
sg64
(lp3039
S':'
asbag57
(g78
g59
NtRp3040
(dp3041
g62
(dp3042
sg71
g3027
sg64
(lp3043
g57
(g58
g59
NtRp3044
(dp3045
g62
(dp3046
g70
I4
ssg71
g3040
sg64
(lp3047
g100
asbasbasbag57
(g73
g59
NtRp3048
(dp3049
g62
(dp3050
sg71
g2957
sg64
(lp3051
g57
(g78
g59
NtRp3052
(dp3053
g62
(dp3054
g82
g83
ssg71
g3048
sg64
(lp3055
S'user'
p3056
asbag57
(g78
g59
NtRp3057
(dp3058
g62
(dp3059
g89
g90
ssg71
g3048
sg64
(lp3060
S':'
asbag57
(g78
g59
NtRp3061
(dp3062
g62
(dp3063
sg71
g3048
sg64
(lp3064
g57
(g58
g59
NtRp3065
(dp3066
g62
(dp3067
g70
I4
ssg71
g3061
sg64
(lp3068
g57
(g66
g59
NtRp3069
(dp3070
g62
(dp3071
g70
I3
ssg71
Nsg64
(lp3072
g57
(g73
g59
NtRp3073
(dp3074
g62
(dp3075
sg71
g3069
sg64
(lp3076
g57
(g78
g59
NtRp3077
(dp3078
g62
(dp3079
g82
g83
ssg71
g3073
sg64
(lp3080
S'email'
p3081
asbag57
(g78
g59
NtRp3082
(dp3083
g62
(dp3084
g89
g90
ssg71
g3073
sg64
(lp3085
S':'
asbag57
(g78
g59
NtRp3086
(dp3087
g62
(dp3088
sg71
g3073
sg64
(lp3089
g57
(g58
g59
NtRp3090
(dp3091
g62
(dp3092
g70
I3
ssg71
g3086
sg64
(lp3093
S'mellinja@gmail.com'
p3094
asbasbasbag57
(g73
g59
NtRp3095
(dp3096
g62
(dp3097
sg71
g3069
sg64
(lp3098
g57
(g78
g59
NtRp3099
(dp3100
g62
(dp3101
g82
g83
ssg71
g3095
sg64
(lp3102
S'first_name'
p3103
asbag57
(g78
g59
NtRp3104
(dp3105
g62
(dp3106
g89
g90
ssg71
g3095
sg64
(lp3107
S':'
asbag57
(g78
g59
NtRp3108
(dp3109
g62
(dp3110
sg71
g3095
sg64
(lp3111
g57
(g58
g59
NtRp3112
(dp3113
g62
(dp3114
g70
I3
ssg71
g3108
sg64
(lp3115
S'Jackson'
p3116
asbasbasbag57
(g73
g59
NtRp3117
(dp3118
g62
(dp3119
sg71
g3069
sg64
(lp3120
g57
(g78
g59
NtRp3121
(dp3122
g62
(dp3123
g82
g83
ssg71
g3117
sg64
(lp3124
S'id'
p3125
asbag57
(g78
g59
NtRp3126
(dp3127
g62
(dp3128
g89
g90
ssg71
g3117
sg64
(lp3129
S':'
asbag57
(g78
g59
NtRp3130
(dp3131
g62
(dp3132
sg71
g3117
sg64
(lp3133
g57
(g58
g59
NtRp3134
(dp3135
g62
(dp3136
g70
I3
ssg71
g3130
sg64
(lp3137
S'3'
asbasbasbag57
(g73
g59
NtRp3138
(dp3139
g62
(dp3140
sg71
g3069
sg64
(lp3141
g57
(g78
g59
NtRp3142
(dp3143
g62
(dp3144
g82
g83
ssg71
g3138
sg64
(lp3145
S'last_name'
p3146
asbag57
(g78
g59
NtRp3147
(dp3148
g62
(dp3149
g89
g90
ssg71
g3138
sg64
(lp3150
S':'
asbag57
(g78
g59
NtRp3151
(dp3152
g62
(dp3153
sg71
g3138
sg64
(lp3154
g57
(g58
g59
NtRp3155
(dp3156
g62
(dp3157
g70
I3
ssg71
g3151
sg64
(lp3158
S'Melling'
p3159
asbasbasbag57
(g73
g59
NtRp3160
(dp3161
g62
(dp3162
sg71
g3069
sg64
(lp3163
g57
(g78
g59
NtRp3164
(dp3165
g62
(dp3166
g82
g83
ssg71
g3160
sg64
(lp3167
S'password'
p3168
asbag57
(g78
g59
NtRp3169
(dp3170
g62
(dp3171
g89
g90
ssg71
g3160
sg64
(lp3172
S':'
asbag57
(g78
g59
NtRp3173
(dp3174
g62
(dp3175
sg71
g3160
sg64
(lp3176
g57
(g58
g59
NtRp3177
(dp3178
g62
(dp3179
g70
I3
ssg71
g3173
sg64
(lp3180
S'98beeff9538312abb10179bd86e0a5a2'
p3181
asbasbasbag57
(g73
g59
NtRp3182
(dp3183
g62
(dp3184
sg71
g3069
sg64
(lp3185
g57
(g78
g59
NtRp3186
(dp3187
g62
(dp3188
g82
g83
ssg71
g3182
sg64
(lp3189
S'registration_id'
p3190
asbag57
(g78
g59
NtRp3191
(dp3192
g62
(dp3193
g89
g90
ssg71
g3182
sg64
(lp3194
S':'
asbag57
(g78
g59
NtRp3195
(dp3196
g62
(dp3197
sg71
g3182
sg64
(lp3198
g57
(g58
g59
NtRp3199
(dp3200
g62
(dp3201
g70
I3
ssg71
g3195
sg64
(lp3202
S''
asbasbasbag57
(g73
g59
NtRp3203
(dp3204
g62
(dp3205
sg71
g3069
sg64
(lp3206
g57
(g78
g59
NtRp3207
(dp3208
g62
(dp3209
g82
g83
ssg71
g3203
sg64
(lp3210
S'registration_key'
p3211
asbag57
(g78
g59
NtRp3212
(dp3213
g62
(dp3214
g89
g90
ssg71
g3203
sg64
(lp3215
S':'
asbag57
(g78
g59
NtRp3216
(dp3217
g62
(dp3218
sg71
g3203
sg64
(lp3219
g57
(g58
g59
NtRp3220
(dp3221
g62
(dp3222
g70
I3
ssg71
g3216
sg64
(lp3223
S''
asbasbasbag57
(g73
g59
NtRp3224
(dp3225
g62
(dp3226
sg71
g3069
sg64
(lp3227
g57
(g78
g59
NtRp3228
(dp3229
g62
(dp3230
g82
g83
ssg71
g3224
sg64
(lp3231
S'reset_password_key'
p3232
asbag57
(g78
g59
NtRp3233
(dp3234
g62
(dp3235
g89
g90
ssg71
g3224
sg64
(lp3236
S':'
asbag57
(g78
g59
NtRp3237
(dp3238
g62
(dp3239
sg71
g3224
sg64
(lp3240
g57
(g58
g59
NtRp3241
(dp3242
g62
(dp3243
g70
I3
ssg71
g3237
sg64
(lp3244
S'1327597193-2590f763-191b-469c-bc47-fc293ee83460'
p3245
asbasbasbasbasbasbasbasbasbasbasbasbasbsS'etype'
p3246
S"<type 'exceptions.NameError'>"
p3247
sS'date'
p3248
S'Thu Feb 09 12:32:19 2012'
p3249
sS'response'
p3250
g57
(g58
g59
NtRp3251
(dp3252
g62
(dp3253
sg64
(lp3254
g57
(g66
g59
NtRp3255
(dp3256
g62
(dp3257
g70
I5
ssg71
Nsg64
(lp3258
g57
(g73
g59
NtRp3259
(dp3260
g62
(dp3261
sg71
g3255
sg64
(lp3262
g57
(g78
g59
NtRp3263
(dp3264
g62
(dp3265
g82
g83
ssg71
g3259
sg64
(lp3266
g167
asbag57
(g78
g59
NtRp3267
(dp3268
g62
(dp3269
g89
g90
ssg71
g3259
sg64
(lp3270
S':'
asbag57
(g78
g59
NtRp3271
(dp3272
g62
(dp3273
sg71
g3259
sg64
(lp3274
g57
(g58
g59
NtRp3275
(dp3276
g62
(dp3277
g70
I5
ssg71
g3271
sg64
(lp3278
S'<cStringIO.StringO object at 0x0000000009D98148>'
p3279
asbasbasbag57
(g73
g59
NtRp3280
(dp3281
g62
(dp3282
sg71
g3255
sg64
(lp3283
g57
(g78
g59
NtRp3284
(dp3285
g62
(dp3286
g82
g83
ssg71
g3280
sg64
(lp3287
g233
asbag57
(g78
g59
NtRp3288
(dp3289
g62
(dp3290
g89
g90
ssg71
g3280
sg64
(lp3291
S':'
asbag57
(g78
g59
NtRp3292
(dp3293
g62
(dp3294
sg71
g3280
sg64
(lp3295
g57
(g58
g59
NtRp3296
(dp3297
g62
(dp3298
g70
I5
ssg71
g3292
sg64
(lp3299
g57
(g66
g59
NtRp3300
(dp3301
g62
(dp3302
g70
I4
ssg71
Nsg64
(lp3303
g57
(g73
g59
NtRp3304
(dp3305
g62
(dp3306
sg71
g3300
sg64
(lp3307
g57
(g78
g59
NtRp3308
(dp3309
g62
(dp3310
g82
g83
ssg71
g3304
sg64
(lp3311
S'session_id_welcome'
p3312
asbag57
(g78
g59
NtRp3313
(dp3314
g62
(dp3315
g89
g90
ssg71
g3304
sg64
(lp3316
S':'
asbag57
(g78
g59
NtRp3317
(dp3318
g62
(dp3319
sg71
g3304
sg64
(lp3320
g57
(g58
g59
NtRp3321
(dp3322
g62
(dp3323
g70
I4
ssg71
g3317
sg64
(lp3324
g57
(g66
g59
NtRp3325
(dp3326
g62
(dp3327
g70
I3
ssg71
Nsg64
(lp3328
g57
(g73
g59
NtRp3329
(dp3330
g62
(dp3331
sg71
g3325
sg64
(lp3332
g57
(g78
g59
NtRp3333
(dp3334
g62
(dp3335
g82
g83
ssg71
g3329
sg64
(lp3336
g283
asbag57
(g78
g59
NtRp3337
(dp3338
g62
(dp3339
g89
g90
ssg71
g3329
sg64
(lp3340
S':'
asbag57
(g78
g59
NtRp3341
(dp3342
g62
(dp3343
sg71
g3329
sg64
(lp3344
g57
(g58
g59
NtRp3345
(dp3346
g62
(dp3347
g70
I3
ssg71
g3341
sg64
(lp3348
S''
asbasbasbag57
(g73
g59
NtRp3349
(dp3350
g62
(dp3351
sg71
g3325
sg64
(lp3352
g57
(g78
g59
NtRp3353
(dp3354
g62
(dp3355
g82
g83
ssg71
g3349
sg64
(lp3356
g304
asbag57
(g78
g59
NtRp3357
(dp3358
g62
(dp3359
g89
g90
ssg71
g3349
sg64
(lp3360
S':'
asbag57
(g78
g59
NtRp3361
(dp3362
g62
(dp3363
sg71
g3349
sg64
(lp3364
g57
(g58
g59
NtRp3365
(dp3366
g62
(dp3367
g70
I3
ssg71
g3361
sg64
(lp3368
S''
asbasbasbag57
(g73
g59
NtRp3369
(dp3370
g62
(dp3371
sg71
g3325
sg64
(lp3372
g57
(g78
g59
NtRp3373
(dp3374
g62
(dp3375
g82
g83
ssg71
g3369
sg64
(lp3376
g325
asbag57
(g78
g59
NtRp3377
(dp3378
g62
(dp3379
g89
g90
ssg71
g3369
sg64
(lp3380
S':'
asbag57
(g78
g59
NtRp3381
(dp3382
g62
(dp3383
sg71
g3369
sg64
(lp3384
g57
(g58
g59
NtRp3385
(dp3386
g62
(dp3387
g70
I3
ssg71
g3381
sg64
(lp3388
S''
asbasbasbag57
(g73
g59
NtRp3389
(dp3390
g62
(dp3391
sg71
g3325
sg64
(lp3392
g57
(g78
g59
NtRp3393
(dp3394
g62
(dp3395
g82
g83
ssg71
g3389
sg64
(lp3396
g346
asbag57
(g78
g59
NtRp3397
(dp3398
g62
(dp3399
g89
g90
ssg71
g3389
sg64
(lp3400
S':'
asbag57
(g78
g59
NtRp3401
(dp3402
g62
(dp3403
sg71
g3389
sg64
(lp3404
g57
(g58
g59
NtRp3405
(dp3406
g62
(dp3407
g70
I3
ssg71
g3401
sg64
(lp3408
S''
asbasbasbag57
(g73
g59
NtRp3409
(dp3410
g62
(dp3411
sg71
g3325
sg64
(lp3412
g57
(g78
g59
NtRp3413
(dp3414
g62
(dp3415
g82
g83
ssg71
g3409
sg64
(lp3416
g367
asbag57
(g78
g59
NtRp3417
(dp3418
g62
(dp3419
g89
g90
ssg71
g3409
sg64
(lp3420
S':'
asbag57
(g78
g59
NtRp3421
(dp3422
g62
(dp3423
sg71
g3409
sg64
(lp3424
g57
(g58
g59
NtRp3425
(dp3426
g62
(dp3427
g70
I3
ssg71
g3421
sg64
(lp3428
S''
asbasbasbag57
(g73
g59
NtRp3429
(dp3430
g62
(dp3431
sg71
g3325
sg64
(lp3432
g57
(g78
g59
NtRp3433
(dp3434
g62
(dp3435
g82
g83
ssg71
g3429
sg64
(lp3436
g388
asbag57
(g78
g59
NtRp3437
(dp3438
g62
(dp3439
g89
g90
ssg71
g3429
sg64
(lp3440
S':'
asbag57
(g78
g59
NtRp3441
(dp3442
g62
(dp3443
sg71
g3429
sg64
(lp3444
g57
(g58
g59
NtRp3445
(dp3446
g62
(dp3447
g70
I3
ssg71
g3441
sg64
(lp3448
S'/'
asbasbasbag57
(g73
g59
NtRp3449
(dp3450
g62
(dp3451
sg71
g3325
sg64
(lp3452
g57
(g78
g59
NtRp3453
(dp3454
g62
(dp3455
g82
g83
ssg71
g3449
sg64
(lp3456
g409
asbag57
(g78
g59
NtRp3457
(dp3458
g62
(dp3459
g89
g90
ssg71
g3449
sg64
(lp3460
S':'
asbag57
(g78
g59
NtRp3461
(dp3462
g62
(dp3463
sg71
g3449
sg64
(lp3464
g57
(g58
g59
NtRp3465
(dp3466
g62
(dp3467
g70
I3
ssg71
g3461
sg64
(lp3468
S''
asbasbasbag57
(g73
g59
NtRp3469
(dp3470
g62
(dp3471
sg71
g3325
sg64
(lp3472
g57
(g78
g59
NtRp3473
(dp3474
g62
(dp3475
g82
g83
ssg71
g3469
sg64
(lp3476
g430
asbag57
(g78
g59
NtRp3477
(dp3478
g62
(dp3479
g89
g90
ssg71
g3469
sg64
(lp3480
S':'
asbag57
(g78
g59
NtRp3481
(dp3482
g62
(dp3483
sg71
g3469
sg64
(lp3484
g57
(g58
g59
NtRp3485
(dp3486
g62
(dp3487
g70
I3
ssg71
g3481
sg64
(lp3488
S''
asbasbasbasbasbasbasbasbasbasbasbag57
(g73
g59
NtRp3489
(dp3490
g62
(dp3491
sg71
g3255
sg64
(lp3492
g57
(g78
g59
NtRp3493
(dp3494
g62
(dp3495
g82
g83
ssg71
g3489
sg64
(lp3496
S'files'
p3497
asbag57
(g78
g59
NtRp3498
(dp3499
g62
(dp3500
g89
g90
ssg71
g3489
sg64
(lp3501
S':'
asbag57
(g78
g59
NtRp3502
(dp3503
g62
(dp3504
sg71
g3489
sg64
(lp3505
g57
(g58
g59
NtRp3506
(dp3507
g62
(dp3508
g70
I5
ssg71
g3502
sg64
(lp3509
g57
(g66
g59
NtRp3510
(dp3511
g62
(dp3512
g70
I4
ssg71
Nsg64
(lp3513
sbasbasbasbag57
(g73
g59
NtRp3514
(dp3515
g62
(dp3516
sg71
g3255
sg64
(lp3517
g57
(g78
g59
NtRp3518
(dp3519
g62
(dp3520
g82
g83
ssg71
g3514
sg64
(lp3521
S'flash'
p3522
asbag57
(g78
g59
NtRp3523
(dp3524
g62
(dp3525
g89
g90
ssg71
g3514
sg64
(lp3526
S':'
asbag57
(g78
g59
NtRp3527
(dp3528
g62
(dp3529
sg71
g3514
sg64
(lp3530
g57
(g58
g59
NtRp3531
(dp3532
g62
(dp3533
g70
I5
ssg71
g3527
sg64
(lp3534
S''
asbasbasbag57
(g73
g59
NtRp3535
(dp3536
g62
(dp3537
sg71
g3255
sg64
(lp3538
g57
(g78
g59
NtRp3539
(dp3540
g62
(dp3541
g82
g83
ssg71
g3535
sg64
(lp3542
S'generic_patterns'
p3543
asbag57
(g78
g59
NtRp3544
(dp3545
g62
(dp3546
g89
g90
ssg71
g3535
sg64
(lp3547
S':'
asbag57
(g78
g59
NtRp3548
(dp3549
g62
(dp3550
sg71
g3535
sg64
(lp3551
g57
(g58
g59
NtRp3552
(dp3553
g62
(dp3554
g70
I5
ssg71
g3548
sg64
(lp3555
g57
(g66
g59
NtRp3556
(dp3557
g62
(dp3558
g70
I4
ssg71
Nsg64
(lp3559
g57
(g73
g59
NtRp3560
(dp3561
g62
(dp3562
sg71
g3556
sg64
(lp3563
g57
(g78
g59
NtRp3564
(dp3565
g62
(dp3566
sg71
g3560
sg64
(lp3567
g57
(g58
g59
NtRp3568
(dp3569
g62
(dp3570
g70
I4
ssg71
g3564
sg64
(lp3571
S'*'
asbasbasbasbasbasbasbag57
(g73
g59
NtRp3572
(dp3573
g62
(dp3574
sg71
g3255
sg64
(lp3575
g57
(g78
g59
NtRp3576
(dp3577
g62
(dp3578
g82
g83
ssg71
g3572
sg64
(lp3579
S'headers'
p3580
asbag57
(g78
g59
NtRp3581
(dp3582
g62
(dp3583
g89
g90
ssg71
g3572
sg64
(lp3584
S':'
asbag57
(g78
g59
NtRp3585
(dp3586
g62
(dp3587
sg71
g3572
sg64
(lp3588
g57
(g58
g59
NtRp3589
(dp3590
g62
(dp3591
g70
I5
ssg71
g3585
sg64
(lp3592
g57
(g66
g59
NtRp3593
(dp3594
g62
(dp3595
g70
I4
ssg71
Nsg64
(lp3596
g57
(g73
g59
NtRp3597
(dp3598
g62
(dp3599
sg71
g3593
sg64
(lp3600
g57
(g78
g59
NtRp3601
(dp3602
g62
(dp3603
g82
g83
ssg71
g3597
sg64
(lp3604
S'Cache-Control'
p3605
asbag57
(g78
g59
NtRp3606
(dp3607
g62
(dp3608
g89
g90
ssg71
g3597
sg64
(lp3609
S':'
asbag57
(g78
g59
NtRp3610
(dp3611
g62
(dp3612
sg71
g3597
sg64
(lp3613
g57
(g58
g59
NtRp3614
(dp3615
g62
(dp3616
g70
I4
ssg71
g3610
sg64
(lp3617
S'no-store, no-cache, must-revalidate, post-check=0, pre-check=0'
p3618
asbasbasbag57
(g73
g59
NtRp3619
(dp3620
g62
(dp3621
sg71
g3593
sg64
(lp3622
g57
(g78
g59
NtRp3623
(dp3624
g62
(dp3625
g82
g83
ssg71
g3619
sg64
(lp3626
S'Content-Type'
p3627
asbag57
(g78
g59
NtRp3628
(dp3629
g62
(dp3630
g89
g90
ssg71
g3619
sg64
(lp3631
S':'
asbag57
(g78
g59
NtRp3632
(dp3633
g62
(dp3634
sg71
g3619
sg64
(lp3635
g57
(g58
g59
NtRp3636
(dp3637
g62
(dp3638
g70
I4
ssg71
g3632
sg64
(lp3639
S'text/html; charset=utf-8'
p3640
asbasbasbag57
(g73
g59
NtRp3641
(dp3642
g62
(dp3643
sg71
g3593
sg64
(lp3644
g57
(g78
g59
NtRp3645
(dp3646
g62
(dp3647
g82
g83
ssg71
g3641
sg64
(lp3648
S'Expires'
p3649
asbag57
(g78
g59
NtRp3650
(dp3651
g62
(dp3652
g89
g90
ssg71
g3641
sg64
(lp3653
S':'
asbag57
(g78
g59
NtRp3654
(dp3655
g62
(dp3656
sg71
g3641
sg64
(lp3657
g57
(g58
g59
NtRp3658
(dp3659
g62
(dp3660
g70
I4
ssg71
g3654
sg64
(lp3661
S'Thu, 09 Feb 2012 17:32:19 GMT'
p3662
asbasbasbag57
(g73
g59
NtRp3663
(dp3664
g62
(dp3665
sg71
g3593
sg64
(lp3666
g57
(g78
g59
NtRp3667
(dp3668
g62
(dp3669
g82
g83
ssg71
g3663
sg64
(lp3670
S'Pragma'
p3671
asbag57
(g78
g59
NtRp3672
(dp3673
g62
(dp3674
g89
g90
ssg71
g3663
sg64
(lp3675
S':'
asbag57
(g78
g59
NtRp3676
(dp3677
g62
(dp3678
sg71
g3663
sg64
(lp3679
g57
(g58
g59
NtRp3680
(dp3681
g62
(dp3682
g70
I4
ssg71
g3676
sg64
(lp3683
S'no-cache'
p3684
asbasbasbag57
(g73
g59
NtRp3685
(dp3686
g62
(dp3687
sg71
g3593
sg64
(lp3688
g57
(g78
g59
NtRp3689
(dp3690
g62
(dp3691
g82
g83
ssg71
g3685
sg64
(lp3692
S'X-Powered-By'
p3693
asbag57
(g78
g59
NtRp3694
(dp3695
g62
(dp3696
g89
g90
ssg71
g3685
sg64
(lp3697
S':'
asbag57
(g78
g59
NtRp3698
(dp3699
g62
(dp3700
sg71
g3685
sg64
(lp3701
g57
(g58
g59
NtRp3702
(dp3703
g62
(dp3704
g70
I4
ssg71
g3698
sg64
(lp3705
S'web2py'
p3706
asbasbasbasbasbasbasbag57
(g73
g59
NtRp3707
(dp3708
g62
(dp3709
sg71
g3255
sg64
(lp3710
g57
(g78
g59
NtRp3711
(dp3712
g62
(dp3713
g82
g83
ssg71
g3707
sg64
(lp3714
S'menu'
p3715
asbag57
(g78
g59
NtRp3716
(dp3717
g62
(dp3718
g89
g90
ssg71
g3707
sg64
(lp3719
S':'
asbag57
(g78
g59
NtRp3720
(dp3721
g62
(dp3722
sg71
g3707
sg64
(lp3723
g57
(g58
g59
NtRp3724
(dp3725
g62
(dp3726
g70
I5
ssg71
g3720
sg64
(lp3727
g57
(g66
g59
NtRp3728
(dp3729
g62
(dp3730
g70
I4
ssg71
Nsg64
(lp3731
g57
(g73
g59
NtRp3732
(dp3733
g62
(dp3734
sg71
g3728
sg64
(lp3735
g57
(g78
g59
NtRp3736
(dp3737
g62
(dp3738
sg71
g3732
sg64
(lp3739
g57
(g58
g59
NtRp3740
(dp3741
g62
(dp3742
g70
I4
ssg71
g3736
sg64
(lp3743
g57
(g66
g59
NtRp3744
(dp3745
g62
(dp3746
g70
I3
ssg71
Nsg64
(lp3747
g57
(g73
g59
NtRp3748
(dp3749
g62
(dp3750
sg71
g3744
sg64
(lp3751
g57
(g78
g59
NtRp3752
(dp3753
g62
(dp3754
sg71
g3748
sg64
(lp3755
g57
(g58
g59
NtRp3756
(dp3757
g62
(dp3758
g70
I3
ssg71
g3752
sg64
(lp3759
cgluon.languages
lazyT_unpickle
p3760
(S't\x04\x00\x00\x00Home'
tRp3761
asbasbasbag57
(g73
g59
NtRp3762
(dp3763
g62
(dp3764
sg71
g3744
sg64
(lp3765
g57
(g78
g59
NtRp3766
(dp3767
g62
(dp3768
sg71
g3762
sg64
(lp3769
g57
(g58
g59
NtRp3770
(dp3771
g62
(dp3772
g70
I3
ssg71
g3766
sg64
(lp3773
g100
asbasbasbag57
(g73
g59
NtRp3774
(dp3775
g62
(dp3776
sg71
g3744
sg64
(lp3777
g57
(g78
g59
NtRp3778
(dp3779
g62
(dp3780
sg71
g3774
sg64
(lp3781
g57
(g58
g59
NtRp3782
(dp3783
g62
(dp3784
g70
I3
ssg71
g3778
sg64
(lp3785
S'/welcome/default/index'
p3786
asbasbasbag57
(g73
g59
NtRp3787
(dp3788
g62
(dp3789
sg71
g3744
sg64
(lp3790
g57
(g78
g59
NtRp3791
(dp3792
g62
(dp3793
sg71
g3787
sg64
(lp3794
g57
(g58
g59
NtRp3795
(dp3796
g62
(dp3797
g70
I3
ssg71
g3791
sg64
(lp3798
g57
(g66
g59
NtRp3799
(dp3800
g62
(dp3801
g70
I2
ssg71
Nsg64
(lp3802
sbasbasbasbasbasbasbasbasbasbasbasbag57
(g73
g59
NtRp3803
(dp3804
g62
(dp3805
sg71
g3255
sg64
(lp3806
g57
(g78
g59
NtRp3807
(dp3808
g62
(dp3809
g82
g83
ssg71
g3803
sg64
(lp3810
S'meta'
p3811
asbag57
(g78
g59
NtRp3812
(dp3813
g62
(dp3814
g89
g90
ssg71
g3803
sg64
(lp3815
S':'
asbag57
(g78
g59
NtRp3816
(dp3817
g62
(dp3818
sg71
g3803
sg64
(lp3819
g57
(g58
g59
NtRp3820
(dp3821
g62
(dp3822
g70
I5
ssg71
g3816
sg64
(lp3823
g57
(g66
g59
NtRp3824
(dp3825
g62
(dp3826
g70
I4
ssg71
Nsg64
(lp3827
g57
(g73
g59
NtRp3828
(dp3829
g62
(dp3830
sg71
g3824
sg64
(lp3831
g57
(g78
g59
NtRp3832
(dp3833
g62
(dp3834
g82
g83
ssg71
g3828
sg64
(lp3835
S'author'
p3836
asbag57
(g78
g59
NtRp3837
(dp3838
g62
(dp3839
g89
g90
ssg71
g3828
sg64
(lp3840
S':'
asbag57
(g78
g59
NtRp3841
(dp3842
g62
(dp3843
sg71
g3828
sg64
(lp3844
g57
(g58
g59
NtRp3845
(dp3846
g62
(dp3847
g70
I4
ssg71
g3841
sg64
(lp3848
S'Your Name <you@example.com>'
p3849
asbasbasbag57
(g73
g59
NtRp3850
(dp3851
g62
(dp3852
sg71
g3824
sg64
(lp3853
g57
(g78
g59
NtRp3854
(dp3855
g62
(dp3856
g82
g83
ssg71
g3850
sg64
(lp3857
S'copyright'
p3858
asbag57
(g78
g59
NtRp3859
(dp3860
g62
(dp3861
g89
g90
ssg71
g3850
sg64
(lp3862
S':'
asbag57
(g78
g59
NtRp3863
(dp3864
g62
(dp3865
sg71
g3850
sg64
(lp3866
g57
(g58
g59
NtRp3867
(dp3868
g62
(dp3869
g70
I4
ssg71
g3863
sg64
(lp3870
S'Copyright 2011'
p3871
asbasbasbag57
(g73
g59
NtRp3872
(dp3873
g62
(dp3874
sg71
g3824
sg64
(lp3875
g57
(g78
g59
NtRp3876
(dp3877
g62
(dp3878
g82
g83
ssg71
g3872
sg64
(lp3879
S'description'
p3880
asbag57
(g78
g59
NtRp3881
(dp3882
g62
(dp3883
g89
g90
ssg71
g3872
sg64
(lp3884
S':'
asbag57
(g78
g59
NtRp3885
(dp3886
g62
(dp3887
sg71
g3872
sg64
(lp3888
g57
(g58
g59
NtRp3889
(dp3890
g62
(dp3891
g70
I4
ssg71
g3885
sg64
(lp3892
S'a cool new app'
p3893
asbasbasbag57
(g73
g59
NtRp3894
(dp3895
g62
(dp3896
sg71
g3824
sg64
(lp3897
g57
(g78
g59
NtRp3898
(dp3899
g62
(dp3900
g82
g83
ssg71
g3894
sg64
(lp3901
S'generator'
p3902
asbag57
(g78
g59
NtRp3903
(dp3904
g62
(dp3905
g89
g90
ssg71
g3894
sg64
(lp3906
S':'
asbag57
(g78
g59
NtRp3907
(dp3908
g62
(dp3909
sg71
g3894
sg64
(lp3910
g57
(g58
g59
NtRp3911
(dp3912
g62
(dp3913
g70
I4
ssg71
g3907
sg64
(lp3914
S'Web2py Web Framework'
p3915
asbasbasbag57
(g73
g59
NtRp3916
(dp3917
g62
(dp3918
sg71
g3824
sg64
(lp3919
g57
(g78
g59
NtRp3920
(dp3921
g62
(dp3922
g82
g83
ssg71
g3916
sg64
(lp3923
S'keywords'
p3924
asbag57
(g78
g59
NtRp3925
(dp3926
g62
(dp3927
g89
g90
ssg71
g3916
sg64
(lp3928
S':'
asbag57
(g78
g59
NtRp3929
(dp3930
g62
(dp3931
sg71
g3916
sg64
(lp3932
g57
(g58
g59
NtRp3933
(dp3934
g62
(dp3935
g70
I4
ssg71
g3929
sg64
(lp3936
S'web2py, python, framework'
p3937
asbasbasbasbasbasbasbag57
(g73
g59
NtRp3938
(dp3939
g62
(dp3940
sg71
g3255
sg64
(lp3941
g57
(g78
g59
NtRp3942
(dp3943
g62
(dp3944
g82
g83
ssg71
g3938
sg64
(lp3945
S'postprocessing'
p3946
asbag57
(g78
g59
NtRp3947
(dp3948
g62
(dp3949
g89
g90
ssg71
g3938
sg64
(lp3950
S':'
asbag57
(g78
g59
NtRp3951
(dp3952
g62
(dp3953
sg71
g3938
sg64
(lp3954
g57
(g58
g59
NtRp3955
(dp3956
g62
(dp3957
g70
I5
ssg71
g3951
sg64
(lp3958
g57
(g66
g59
NtRp3959
(dp3960
g62
(dp3961
g70
I4
ssg71
Nsg64
(lp3962
sbasbasbasbag57
(g73
g59
NtRp3963
(dp3964
g62
(dp3965
sg71
g3255
sg64
(lp3966
g57
(g78
g59
NtRp3967
(dp3968
g62
(dp3969
g82
g83
ssg71
g3963
sg64
(lp3970
S'session_file'
p3971
asbag57
(g78
g59
NtRp3972
(dp3973
g62
(dp3974
g89
g90
ssg71
g3963
sg64
(lp3975
S':'
asbag57
(g78
g59
NtRp3976
(dp3977
g62
(dp3978
sg71
g3963
sg64
(lp3979
g57
(g58
g59
NtRp3980
(dp3981
g62
(dp3982
g70
I5
ssg71
g3976
sg64
(lp3983
S"<open file 'C:\\Users\\mellinja\\Documents\\SC2Tracker\\SC2TourneyTracker\\web2py\\applications\\welcome\\sessions\\127.0.0.1-3577bb45-b3be-4c0f-be7b-edc2ad5f937c', mode 'rb+' at 0x00000000082D4C90>"
p3984
asbasbasbag57
(g73
g59
NtRp3985
(dp3986
g62
(dp3987
sg71
g3255
sg64
(lp3988
g57
(g78
g59
NtRp3989
(dp3990
g62
(dp3991
g82
g83
ssg71
g3985
sg64
(lp3992
S'session_filename'
p3993
asbag57
(g78
g59
NtRp3994
(dp3995
g62
(dp3996
g89
g90
ssg71
g3985
sg64
(lp3997
S':'
asbag57
(g78
g59
NtRp3998
(dp3999
g62
(dp4000
sg71
g3985
sg64
(lp4001
g57
(g58
g59
NtRp4002
(dp4003
g62
(dp4004
g70
I5
ssg71
g3998
sg64
(lp4005
S'C:\\Users\\mellinja\\Documents\\SC2Tracker\\SC2TourneyTracker\\web2py\\applications\\welcome\\sessions\\127.0.0.1-3577bb45-b3be-4c0f-be7b-edc2ad5f937c'
p4006
asbasbasbag57
(g73
g59
NtRp4007
(dp4008
g62
(dp4009
sg71
g3255
sg64
(lp4010
g57
(g78
g59
NtRp4011
(dp4012
g62
(dp4013
g82
g83
ssg71
g4007
sg64
(lp4014
S'session_id'
p4015
asbag57
(g78
g59
NtRp4016
(dp4017
g62
(dp4018
g89
g90
ssg71
g4007
sg64
(lp4019
S':'
asbag57
(g78
g59
NtRp4020
(dp4021
g62
(dp4022
sg71
g4007
sg64
(lp4023
g57
(g58
g59
NtRp4024
(dp4025
g62
(dp4026
g70
I5
ssg71
g4020
sg64
(lp4027
S'127.0.0.1-3577bb45-b3be-4c0f-be7b-edc2ad5f937c'
p4028
asbasbasbag57
(g73
g59
NtRp4029
(dp4030
g62
(dp4031
sg71
g3255
sg64
(lp4032
g57
(g78
g59
NtRp4033
(dp4034
g62
(dp4035
g82
g83
ssg71
g4029
sg64
(lp4036
S'session_id_name'
p4037
asbag57
(g78
g59
NtRp4038
(dp4039
g62
(dp4040
g89
g90
ssg71
g4029
sg64
(lp4041
S':'
asbag57
(g78
g59
NtRp4042
(dp4043
g62
(dp4044
sg71
g4029
sg64
(lp4045
g57
(g58
g59
NtRp4046
(dp4047
g62
(dp4048
g70
I5
ssg71
g4042
sg64
(lp4049
g3312
asbasbasbag57
(g73
g59
NtRp4050
(dp4051
g62
(dp4052
sg71
g3255
sg64
(lp4053
g57
(g78
g59
NtRp4054
(dp4055
g62
(dp4056
g82
g83
ssg71
g4050
sg64
(lp4057
S'session_locked'
p4058
asbag57
(g78
g59
NtRp4059
(dp4060
g62
(dp4061
g89
g90
ssg71
g4050
sg64
(lp4062
S':'
asbag57
(g78
g59
NtRp4063
(dp4064
g62
(dp4065
sg71
g4050
sg64
(lp4066
g57
(g58
g59
NtRp4067
(dp4068
g62
(dp4069
g70
I5
ssg71
g4063
sg64
(lp4070
g1505
asbasbasbag57
(g73
g59
NtRp4071
(dp4072
g62
(dp4073
sg71
g3255
sg64
(lp4074
g57
(g78
g59
NtRp4075
(dp4076
g62
(dp4077
g82
g83
ssg71
g4071
sg64
(lp4078
S'session_new'
p4079
asbag57
(g78
g59
NtRp4080
(dp4081
g62
(dp4082
g89
g90
ssg71
g4071
sg64
(lp4083
S':'
asbag57
(g78
g59
NtRp4084
(dp4085
g62
(dp4086
sg71
g4071
sg64
(lp4087
g57
(g58
g59
NtRp4088
(dp4089
g62
(dp4090
g70
I5
ssg71
g4084
sg64
(lp4091
g100
asbasbasbag57
(g73
g59
NtRp4092
(dp4093
g62
(dp4094
sg71
g3255
sg64
(lp4095
g57
(g78
g59
NtRp4096
(dp4097
g62
(dp4098
g82
g83
ssg71
g4092
sg64
(lp4099
S'status'
p4100
asbag57
(g78
g59
NtRp4101
(dp4102
g62
(dp4103
g89
g90
ssg71
g4092
sg64
(lp4104
S':'
asbag57
(g78
g59
NtRp4105
(dp4106
g62
(dp4107
sg71
g4092
sg64
(lp4108
g57
(g58
g59
NtRp4109
(dp4110
g62
(dp4111
g70
I5
ssg71
g4105
sg64
(lp4112
S'200'
p4113
asbasbasbag57
(g73
g59
NtRp4114
(dp4115
g62
(dp4116
sg71
g3255
sg64
(lp4117
g57
(g78
g59
NtRp4118
(dp4119
g62
(dp4120
g82
g83
ssg71
g4114
sg64
(lp4121
S'subtitle'
p4122
asbag57
(g78
g59
NtRp4123
(dp4124
g62
(dp4125
g89
g90
ssg71
g4114
sg64
(lp4126
S':'
asbag57
(g78
g59
NtRp4127
(dp4128
g62
(dp4129
sg71
g4114
sg64
(lp4130
g57
(g58
g59
NtRp4131
(dp4132
g62
(dp4133
g70
I5
ssg71
g4127
sg64
(lp4134
g3760
(S's2\x00\x00\x00Starcraft II Custom Tournament Tracker Version 0.1'
tRp4135
asbasbasbag57
(g73
g59
NtRp4136
(dp4137
g62
(dp4138
sg71
g3255
sg64
(lp4139
g57
(g78
g59
NtRp4140
(dp4141
g62
(dp4142
g82
g83
ssg71
g4136
sg64
(lp4143
S'title'
p4144
asbag57
(g78
g59
NtRp4145
(dp4146
g62
(dp4147
g89
g90
ssg71
g4136
sg64
(lp4148
S':'
asbag57
(g78
g59
NtRp4149
(dp4150
g62
(dp4151
sg71
g4136
sg64
(lp4152
g57
(g58
g59
NtRp4153
(dp4154
g62
(dp4155
g70
I5
ssg71
g4149
sg64
(lp4156
S'SC2CTT v0.1'
p4157
asbasbasbag57
(g73
g59
NtRp4158
(dp4159
g62
(dp4160
sg71
g3255
sg64
(lp4161
g57
(g78
g59
NtRp4162
(dp4163
g62
(dp4164
g82
g83
ssg71
g4158
sg64
(lp4165
g2190
asbag57
(g78
g59
NtRp4166
(dp4167
g62
(dp4168
g89
g90
ssg71
g4158
sg64
(lp4169
S':'
asbag57
(g78
g59
NtRp4170
(dp4171
g62
(dp4172
sg71
g4158
sg64
(lp4173
g57
(g58
g59
NtRp4174
(dp4175
g62
(dp4176
g70
I5
ssg71
g4170
sg64
(lp4177
g2203
asbasbasbag57
(g73
g59
NtRp4178
(dp4179
g62
(dp4180
sg71
g3255
sg64
(lp4181
g57
(g78
g59
NtRp4182
(dp4183
g62
(dp4184
g82
g83
ssg71
g4178
sg64
(lp4185
S'view'
p4186
asbag57
(g78
g59
NtRp4187
(dp4188
g62
(dp4189
g89
g90
ssg71
g4178
sg64
(lp4190
S':'
asbag57
(g78
g59
NtRp4191
(dp4192
g62
(dp4193
sg71
g4178
sg64
(lp4194
g57
(g58
g59
NtRp4195
(dp4196
g62
(dp4197
g70
I5
ssg71
g4191
sg64
(lp4198
S'tournament/show.html'
p4199
asbasbasbasbasbsS'locals'
p4200
(dp4201
S'tourny'
p4202
S"[(7, 'TestTourney', 1, 1)]"
p4203
sssS'traceback'
p4204
S'Traceback (most recent call last):\n  File "C:\\Users\\mellinja\\Documents\\SC2Tracker\\SC2TourneyTracker\\web2py\\gluon\\restricted.py", line 204, in restricted\n    exec ccode in environment\n  File "C:\\Users\\mellinja\\Documents\\SC2Tracker\\SC2TourneyTracker\\web2py\\applications\\welcome\\controllers/tournament.py", line 26, in <module>\n  File "C:\\Users\\mellinja\\Documents\\SC2Tracker\\SC2TourneyTracker\\web2py\\gluon\\globals.py", line 172, in <lambda>\n    self._caller = lambda f: f()\n  File "C:\\Users\\mellinja\\Documents\\SC2Tracker\\SC2TourneyTracker\\web2py\\applications\\welcome\\controllers/tournament.py", line 11, in show\n    if message != "":\nNameError: global name \'message\' is not defined\n'
p4205
s.