(dp1
S'output'
p2
S"<type 'exceptions.TypeError'> cannot concatenate 'str' and 'pyodbc.Row' objects"
p3
sS'layer'
p4
S'C:\\Users\\mellinja\\Documents\\SC2Tracker\\SC2Tracker2\\web2py\\applications\\welcome\\views\\map_pool/show.html'
p5
sS'code'
p6
S'response.write(\'<!DOCTYPE html>\\r\\n<!-- paulirish.com/2008/conditional-stylesheets-vs-css-hacks-answer-neither/ -->\\r\\n<!--[if lt IE 7]><html class="ie ie6 ie-lte9 ie-lte8 ie-lte7 no-js" lang="\', escape=False)\nresponse.write(T.accepted_language or \'en\')\nresponse.write(\'"> <![endif]-->\\r\\n<!--[if IE 7]><html class="ie ie7 ie-lte9 ie-lte8 ie-lte7 no-js" lang="\', escape=False)\nresponse.write(T.accepted_language or \'en\')\nresponse.write(\'"> <![endif]-->\\r\\n<!--[if IE 8]><html class="ie ie8 ie-lte9 ie-lte8 no-js" lang="\', escape=False)\nresponse.write(T.accepted_language or \'en\')\nresponse.write(\'"> <![endif]-->\\r\\n<!--[if IE 9]><html class="ie9 ie-lte9 no-js" lang="\', escape=False)\nresponse.write(T.accepted_language or \'en\')\nresponse.write(\'"> <![endif]-->\\r\\n<!--[if (gt IE 9)|!(IE)]><!--> <html class="no-js" lang="\', escape=False)\nresponse.write(T.accepted_language or \'en\')\nresponse.write(\'"> <!--<![endif]-->\\r\\n<head>\\r\\n  <meta charset="utf-8" />\\r\\n  <!-- www.phpied.com/conditional-comments-block-downloads/ -->\\r\\n  <!-- Always force latest IE rendering engine\\r\\n       (even in intranet) & Chrome Frame\\r\\n       Remove this if you use the .htaccess -->\\r\\n  <!--[if IE]>\\r\\n    <meta http-equiv="X-UA-Compatible" content="IE=edge\', escape=False)\nresponse.write(not request.is_local and \',chrome=1\' or \'\')\nresponse.write(\'">\\r\\n  <![endif]-->\\r\\n  \\r\\n  <title>\', escape=False)\nresponse.write(response.title or request.application)\nresponse.write(\'</title>\\r\\n  \\r\\n  <!-- http://dev.w3.org/html5/markup/meta.name.html -->\\r\\n  <meta name="application-name" content="\', escape=False)\nresponse.write(request.application)\nresponse.write(\'" />\\r\\n  \\r\\n  <!-- Speaking of Google, don\\\'t forget to set your site up:\\r\\n       http://google.com/webmasters -->\\r\\n  <meta name="google-site-verification" content="" />\\r\\n\\r\\n  <!--  Mobile Viewport Fix\\r\\n      j.mp/mobileviewport & davidbcalhoun.com/2010/viewport-metatag\\r\\n      device-width: Occupy full width of the screen in its current orientation\\r\\n      initial-scale = 1.0 retains dimensions instead of zooming out if page height > device height\\r\\n      user-scalable = yes allows the user to zoom in -->\\r\\n  <meta name="viewport" content="width=device-width, initial-scale=1.0, user-scalable=yes">\\r\\n  \\r\\n  <!-- Place favicon.ico and apple-touch-icon.png in the root of your domain and delete these references -->\\r\\n  <link rel="shortcut icon" href="\', escape=False)\nresponse.write(URL(\'static\',\'favicon.ico\'))\nresponse.write(\'" type="image/x-icon">\\r\\n  <link rel="apple-touch-icon" href="\', escape=False)\nresponse.write(URL(\'static\',\'favicon.png\'))\nresponse.write(\'">\\r\\n\\r\\n  <!-- All JavaScript at the bottom, except for Modernizr which enables \\r\\n       HTML5 elements & feature detects -->\\r\\n  <script src="\', escape=False)\nresponse.write(URL(\'static\',\'js/modernizr.custom.js\'))\nresponse.write(\'"></script>  \\r\\n\\r\\n  <!-- include stylesheets -->\\r\\n  \', escape=False)\nresponse.files.append(URL(\'static\',\'css/skeleton.css\'))\nresponse.files.append(URL(\'static\',\'css/web2py.css\'))\nresponse.files.append(URL(\'static\',\'css/superfish.css\'))\nresponse.files.append(URL(\'static\',\'js/superfish.js\'))\nresponse.write(\'\\r\\n\\r\\n  \', escape=False)\nresponse.write(\'<script type="text/javascript"><!--\\r\\n    // These variables are used by the web2py_ajax_init function in web2py_ajax.js (which is loaded below).\\r\\n    var w2p_ajax_confirm_message = "\', escape=False)\nresponse.write(T(\'Are you sure you want to delete this object?\'))\nresponse.write(\'";\\r\\n    var w2p_ajax_date_format = "\', escape=False)\nresponse.write(T(\'%Y-%m-%d\'))\nresponse.write(\'";\\r\\n    var w2p_ajax_datetime_format = "\', escape=False)\nresponse.write(T(\'%Y-%m-%d %H:%M:%S\'))\nresponse.write(\'";\\r\\n    //--></script>\\r\\n\', escape=False)\nresponse.files.insert(0,URL(\'static\',\'js/jquery.js\'))\nresponse.files.insert(1,URL(\'static\',\'css/calendar.css\'))\nresponse.files.insert(2,URL(\'static\',\'js/calendar.js\'))\nresponse.files.insert(3,URL(\'static\',\'js/web2py.js\'))\nresponse.include_meta()\nresponse.include_files()\nresponse.write(\'\\r\\n\', escape=False)\nresponse.write(\'\\r\\n\\r\\n  <script type="text/javascript">\\r\\n    jQuery(function(){ jQuery(\\\'ul.sf-menu\\\').supersubs({minWidth:12,maxWidth:30,extraWidth:3}).superfish(); });\\r\\n  </script>\\r\\n\\r\\n  \', escape=False)\n# using sidebars need to know what sidebar you want to use\nleft_sidebar_enabled = globals().get(\'left_sidebar_enabled\',False)\nright_sidebar_enabled = globals().get(\'right_sidebar_enabled\',False)\nmiddle_columns = {0:\'sixteen\',1:\'twelve\',2:\'eight\'}[\n(left_sidebar_enabled and 1 or 0)+(right_sidebar_enabled and 1 or 0)]\nresponse.write(\'\\r\\n\\r\\n  <!-- uncomment here to load jquery-ui\\r\\n  <link rel="stylesheet" href="http://ajax.googleapis.com/ajax/libs/jqueryui/1.8.16/themes/base/jquery-ui.css" type="text/css" media="all" />\\r\\n  <script src="http://ajax.googleapis.com/ajax/libs/jqueryui/1.8.16/jquery-ui.min.js" type="text/javascript"></script>\\r\\n  uncomment to load jquery-ui //-->\\r\\n</head>\\r\\n<body>\\r\\n  <div class="wrapper"><!-- for sticky footer -->\\r\\n  \\r\\n    <div class="topbar">\\r\\n      <div class="container">    \\r\\n        <div class="sixteen columns">\\r\\n          <div id="navbar">\', escape=False)\nresponse.write(\'auth\' in globals() and auth.navbar(separators=(\' \',\' | \',\'\')))\nresponse.write(\'</div>\\r\\n          \', escape=False)\nis_mobile=request.user_agent().is_mobile\nresponse.write(\'\\r\\n          <div id="menu">\', escape=False)\nresponse.write(MENU(response.menu, _class=\'mobile-menu\' if is_mobile else \'sf-menu\',mobile=is_mobile))\nresponse.write(\'\\r\\n          </div>\\r\\n        </div>\\r\\n      </div>\\r\\n    </div><!-- topbar -->\\r\\n    \\r\\n    <div class="flash">\', escape=False)\nresponse.write(response.flash or \'\')\nresponse.write(\'</div>\\r\\n    \\r\\n    <div class="header">\\r\\n      <div class="container">         \\r\\n        <div class="sixteen columns">\\r\\n          <h1 class="remove-bottom" style="margin-top: .5em;">\\r\\n          \', escape=False)\nresponse.write(response.title or request.application)\nresponse.write(\'\\r\\n          </h1>\\r\\n          <h5>\', escape=False)\nresponse.write(response.subtitle or \'\')\nresponse.write(\'</h5>\\r\\n        </div>\\r\\n        <div class="sixteen columns">\\r\\n          <div class="statusbar clearfix">\\r\\n\\t\\t  \\r\\n            \', escape=False)\nresponse.write(\'\\r\\n            <div class="breadcrumbs">\', escape=False)\nresponse.write(request.function.replace(\'_\', \' \').title())\nresponse.write(\'</div>\\r\\n            \', escape=False)\nresponse.write(\'\\r\\n\\t\\t  \\r\\n            <!-- AddToAny BEGIN -->\\r\\n            <!--<div style="float:right; padding-top: .25em;" class="a2a_kit a2a_default_style">\\r\\n            <a class="a2a_dd" href="http://www.addtoany.com/share_save">Share</a></div>\\r\\n            <script type="text/javascript" src="http://static.addtoany.com/menu/page.js"></script>-->\\r\\n            <!-- AddToAny END -->\\r\\n          </div>\\r\\n        </div>\\r\\n      </div>\\r\\n    </div>\\r\\n\\r\\n    <div class="main">\\r\\n      <div class="container">                 \\r\\n        \', escape=False)\nif left_sidebar_enabled:\n    response.write(\'\\r\\n        <div class="four columns left-sidebar">\\r\\n          \', escape=False)\n    response.write(\'\\r\\n          <h3>Left Sidebar</h3>\\r\\n          <p></p>\\r\\n          \', escape=False)\n    response.write(\'\\r\\n        </div>\\r\\n        \', escape=False)\n    pass\nresponse.write(\'\\r\\n        \\r\\n        <div class="\', escape=False)\nresponse.write(middle_columns)\nresponse.write(\' columns center">\\r\\n          \', escape=False)\nresponse.write(\'\\r\\n          \', escape=False)\nresponse.write(\'\\r\\n<h1>\', escape=False)\nresponse.write(T("These are the maps in " + db.executesql("SELECT Name from Map_pool WHERE ID = " + str(poolID))[0]))\nresponse.write(\'</h1>\\r\\n\', escape=False)\nresponse.write(\'\\r\\n          \', escape=False)\nresponse.write(\'\\r\\n        </div>\\r\\n        \\r\\n        \', escape=False)\nif right_sidebar_enabled:\n    response.write(\'\\r\\n        <div class="four columns">\\r\\n          \', escape=False)\n    response.write(\'\\r\\n          <h3>Right Sidebar</h3>\\r\\n          <p></p>\\r\\n          \', escape=False)\n    response.write(\'\\r\\n        </div>    \\r\\n        \', escape=False)\n    pass\nresponse.write(\'\\r\\n        \\r\\n      </div><!-- container -->\\r\\n    </div><!-- main -->\\r\\n    \\r\\n    <div class="push"></div>\\r\\n  </div><!-- wrapper -->\\r\\n\\r\\n  <div class="footer">\\r\\n    <div class="container">    \\r\\n      <div class="sixteen columns">\\r\\n        \', escape=False)\nresponse.write(\' <!-- this is default footer -->\\r\\n        <div class="footer-content clearfix">\\r\\n          <div class="copyright">\\r\\n\\t\\t\\t  \', escape=False)\nresponse.write(T(\'Copyright\'))\nresponse.write(\' &#169; 2012 <br />\\r\\n\\t\\t\\t  Kyle Cheung, Simon Liang, Jackson Melling\\r\\n\\t\\t  </div>\\r\\n          <div style="float: right;">\\r\\n            <a href="http://www.web2py.com/">\\r\\n            <img style="padding-bottom: 0;" src="\', escape=False)\nresponse.write(URL(\'static\',\'images/poweredby.png\'))\nresponse.write(\'"/>\\r\\n            </a>\\r\\n          </div>\\r\\n        </div>\\r\\n        \', escape=False)\nresponse.write(\' \\r\\n      </div>\\r\\n    </div><!-- container -->\\r\\n  </div><!-- footer -->\\r\\n  \\r\\n  <!--[if lt IE 7 ]>\\r\\n    <script src="\', escape=False)\nresponse.write(URL(\'static\',\'js/dd_belatedpng.js\'))\nresponse.write(\'"></script>\\r\\n    <script> DD_belatedPNG.fix(\\\'img, .png_bg\\\'); //fix any <img> or .png_bg background-images </script>\\r\\n    <![endif]-->\\r\\n  \', escape=False)\nif response.google_analytics_id:\n    response.write(\'<script type="text/javascript"> var _gaq = _gaq || []; _gaq.push([\\\'_setAccount\\\', \\\'\', escape=False)\n    response.write(response.google_analytics_id)\n    response.write("\']); _gaq.push([\'_trackPageview\']); (function() { var ga = document.createElement(\'script\'); ga.type = \'text/javascript\'; ga.async = true; ga.src = (\'https:\' == document.location.protocol ? \'https://ssl\' : \'http://www\') + \'.google-analytics.com/ga.js\'; var s = document.getElementsByTagName(\'script\')[0]; s.parentNode.insertBefore(ga, s); })(); </script> ", escape=False)\n    pass\nresponse.write(\'\\r\\n</body>\\r\\n</html>\\r\\n\', escape=False)'
p7
sS'snapshot'
p8
(dp9
S'exception'
p10
(dp11
S'__hash__'
p12
S"<method-wrapper '__hash__' of exceptions.TypeError object>"
p13
sS'__setattr__'
p14
S"<method-wrapper '__setattr__' of exceptions.TypeError object>"
p15
sS'__reduce_ex__'
p16
S'<built-in method __reduce_ex__ of exceptions.TypeError object>'
p17
sS'__getslice__'
p18
S"<method-wrapper '__getslice__' of exceptions.TypeError object>"
p19
sS'__getitem__'
p20
S"<method-wrapper '__getitem__' of exceptions.TypeError object>"
p21
sS'__setstate__'
p22
S'<built-in method __setstate__ of exceptions.TypeError object>'
p23
sS'__reduce__'
p24
S'<built-in method __reduce__ of exceptions.TypeError object>'
p25
sS'__str__'
p26
S"<method-wrapper '__str__' of exceptions.TypeError object>"
p27
sS'__format__'
p28
S'<built-in method __format__ of exceptions.TypeError object>'
p29
sS'__getattribute__'
p30
S"<method-wrapper '__getattribute__' of exceptions.TypeError object>"
p31
sS'__class__'
p32
S"<type 'exceptions.TypeError'>"
p33
sS'__unicode__'
p34
S'<built-in method __unicode__ of exceptions.TypeError object>'
p35
sS'__delattr__'
p36
S"<method-wrapper '__delattr__' of exceptions.TypeError object>"
p37
sS'__subclasshook__'
p38
S'<built-in method __subclasshook__ of type object>'
p39
sS'__repr__'
p40
S"<method-wrapper '__repr__' of exceptions.TypeError object>"
p41
sS'__dict__'
p42
S'{}'
p43
sS'args'
p44
S'("cannot concatenate \'str\' and \'pyodbc.Row\' objects",)'
p45
sS'__sizeof__'
p46
S'<built-in method __sizeof__ of exceptions.TypeError object>'
p47
sS'__doc__'
p48
S"'Inappropriate argument type.'"
p49
sS'__init__'
p50
S"<method-wrapper '__init__' of exceptions.TypeError object>"
p51
sS'__new__'
p52
S'<built-in method __new__ of type object>'
p53
ssS'evalue'
p54
S"cannot concatenate 'str' and 'pyodbc.Row' objects"
p55
sS'request'
p56
ccopy_reg
_reconstructor
p57
(cgluon.html
BEAUTIFY
p58
c__builtin__
object
p59
NtRp60
(dp61
S'attributes'
p62
(dp63
sS'components'
p64
(lp65
g57
(cgluon.html
TABLE
p66
g59
NtRp67
(dp68
g62
(dp69
S'level'
p70
I5
ssS'parent'
p71
Nsg64
(lp72
g57
(cgluon.html
TR
p73
g59
NtRp74
(dp75
g62
(dp76
sg71
g67
sg64
(lp77
g57
(cgluon.html
TD
p78
g59
NtRp79
(dp80
g62
(dp81
S'_style'
p82
S'font-weight:bold;vertical-align:top'
p83
ssg71
g74
sg64
(lp84
S'ajax'
p85
asbag57
(g78
g59
NtRp86
(dp87
g62
(dp88
S'_valign'
p89
S'top'
p90
ssg71
g74
sg64
(lp91
S':'
asbag57
(g78
g59
NtRp92
(dp93
g62
(dp94
sg71
g74
sg64
(lp95
g57
(g58
g59
NtRp96
(dp97
g62
(dp98
g70
I5
ssg71
g92
sg64
(lp99
S'False'
p100
asbasbasbag57
(g73
g59
NtRp101
(dp102
g62
(dp103
sg71
g67
sg64
(lp104
g57
(g78
g59
NtRp105
(dp106
g62
(dp107
g82
g83
ssg71
g101
sg64
(lp108
S'application'
p109
asbag57
(g78
g59
NtRp110
(dp111
g62
(dp112
g89
g90
ssg71
g101
sg64
(lp113
S':'
asbag57
(g78
g59
NtRp114
(dp115
g62
(dp116
sg71
g101
sg64
(lp117
g57
(g58
g59
NtRp118
(dp119
g62
(dp120
g70
I5
ssg71
g114
sg64
(lp121
S'welcome'
p122
asbasbasbag57
(g73
g59
NtRp123
(dp124
g62
(dp125
sg71
g67
sg64
(lp126
g57
(g78
g59
NtRp127
(dp128
g62
(dp129
g82
g83
ssg71
g123
sg64
(lp130
g44
asbag57
(g78
g59
NtRp131
(dp132
g62
(dp133
g89
g90
ssg71
g123
sg64
(lp134
S':'
asbag57
(g78
g59
NtRp135
(dp136
g62
(dp137
sg71
g123
sg64
(lp138
g57
(g58
g59
NtRp139
(dp140
g62
(dp141
g70
I5
ssg71
g135
sg64
(lp142
g57
(g66
g59
NtRp143
(dp144
g62
(dp145
g70
I4
ssg71
Nsg64
(lp146
g57
(g73
g59
NtRp147
(dp148
g62
(dp149
sg71
g143
sg64
(lp150
g57
(g78
g59
NtRp151
(dp152
g62
(dp153
sg71
g147
sg64
(lp154
g57
(g58
g59
NtRp155
(dp156
g62
(dp157
g70
I4
ssg71
g151
sg64
(lp158
S'1'
asbasbasbasbasbasbasbag57
(g73
g59
NtRp159
(dp160
g62
(dp161
sg71
g67
sg64
(lp162
g57
(g78
g59
NtRp163
(dp164
g62
(dp165
g82
g83
ssg71
g159
sg64
(lp166
S'body'
p167
asbag57
(g78
g59
NtRp168
(dp169
g62
(dp170
g89
g90
ssg71
g159
sg64
(lp171
S':'
asbag57
(g78
g59
NtRp172
(dp173
g62
(dp174
sg71
g159
sg64
(lp175
g57
(g58
g59
NtRp176
(dp177
g62
(dp178
g70
I5
ssg71
g172
sg64
(lp179
S'<cStringIO.StringO object at 0x0000000008429E68>'
p180
asbasbasbag57
(g73
g59
NtRp181
(dp182
g62
(dp183
sg71
g67
sg64
(lp184
g57
(g78
g59
NtRp185
(dp186
g62
(dp187
g82
g83
ssg71
g181
sg64
(lp188
S'client'
p189
asbag57
(g78
g59
NtRp190
(dp191
g62
(dp192
g89
g90
ssg71
g181
sg64
(lp193
S':'
asbag57
(g78
g59
NtRp194
(dp195
g62
(dp196
sg71
g181
sg64
(lp197
g57
(g58
g59
NtRp198
(dp199
g62
(dp200
g70
I5
ssg71
g194
sg64
(lp201
S'127.0.0.1'
p202
asbasbasbag57
(g73
g59
NtRp203
(dp204
g62
(dp205
sg71
g67
sg64
(lp206
g57
(g78
g59
NtRp207
(dp208
g62
(dp209
g82
g83
ssg71
g203
sg64
(lp210
S'controller'
p211
asbag57
(g78
g59
NtRp212
(dp213
g62
(dp214
g89
g90
ssg71
g203
sg64
(lp215
S':'
asbag57
(g78
g59
NtRp216
(dp217
g62
(dp218
sg71
g203
sg64
(lp219
g57
(g58
g59
NtRp220
(dp221
g62
(dp222
g70
I5
ssg71
g216
sg64
(lp223
S'map_pool'
p224
asbasbasbag57
(g73
g59
NtRp225
(dp226
g62
(dp227
sg71
g67
sg64
(lp228
g57
(g78
g59
NtRp229
(dp230
g62
(dp231
g82
g83
ssg71
g225
sg64
(lp232
S'cookies'
p233
asbag57
(g78
g59
NtRp234
(dp235
g62
(dp236
g89
g90
ssg71
g225
sg64
(lp237
S':'
asbag57
(g78
g59
NtRp238
(dp239
g62
(dp240
sg71
g225
sg64
(lp241
g57
(g58
g59
NtRp242
(dp243
g62
(dp244
g70
I5
ssg71
g238
sg64
(lp245
g57
(g66
g59
NtRp246
(dp247
g62
(dp248
g70
I4
ssg71
Nsg64
(lp249
g57
(g73
g59
NtRp250
(dp251
g62
(dp252
sg71
g246
sg64
(lp253
g57
(g78
g59
NtRp254
(dp255
g62
(dp256
g82
g83
ssg71
g250
sg64
(lp257
S'session_id_admin'
p258
asbag57
(g78
g59
NtRp259
(dp260
g62
(dp261
g89
g90
ssg71
g250
sg64
(lp262
S':'
asbag57
(g78
g59
NtRp263
(dp264
g62
(dp265
sg71
g250
sg64
(lp266
g57
(g58
g59
NtRp267
(dp268
g62
(dp269
g70
I4
ssg71
g263
sg64
(lp270
g57
(g66
g59
NtRp271
(dp272
g62
(dp273
g70
I3
ssg71
Nsg64
(lp274
g57
(g73
g59
NtRp275
(dp276
g62
(dp277
sg71
g271
sg64
(lp278
g57
(g78
g59
NtRp279
(dp280
g62
(dp281
g82
g83
ssg71
g275
sg64
(lp282
S'comment'
p283
asbag57
(g78
g59
NtRp284
(dp285
g62
(dp286
g89
g90
ssg71
g275
sg64
(lp287
S':'
asbag57
(g78
g59
NtRp288
(dp289
g62
(dp290
sg71
g275
sg64
(lp291
g57
(g58
g59
NtRp292
(dp293
g62
(dp294
g70
I3
ssg71
g288
sg64
(lp295
S''
asbasbasbag57
(g73
g59
NtRp296
(dp297
g62
(dp298
sg71
g271
sg64
(lp299
g57
(g78
g59
NtRp300
(dp301
g62
(dp302
g82
g83
ssg71
g296
sg64
(lp303
S'domain'
p304
asbag57
(g78
g59
NtRp305
(dp306
g62
(dp307
g89
g90
ssg71
g296
sg64
(lp308
S':'
asbag57
(g78
g59
NtRp309
(dp310
g62
(dp311
sg71
g296
sg64
(lp312
g57
(g58
g59
NtRp313
(dp314
g62
(dp315
g70
I3
ssg71
g309
sg64
(lp316
S''
asbasbasbag57
(g73
g59
NtRp317
(dp318
g62
(dp319
sg71
g271
sg64
(lp320
g57
(g78
g59
NtRp321
(dp322
g62
(dp323
g82
g83
ssg71
g317
sg64
(lp324
S'expires'
p325
asbag57
(g78
g59
NtRp326
(dp327
g62
(dp328
g89
g90
ssg71
g317
sg64
(lp329
S':'
asbag57
(g78
g59
NtRp330
(dp331
g62
(dp332
sg71
g317
sg64
(lp333
g57
(g58
g59
NtRp334
(dp335
g62
(dp336
g70
I3
ssg71
g330
sg64
(lp337
S''
asbasbasbag57
(g73
g59
NtRp338
(dp339
g62
(dp340
sg71
g271
sg64
(lp341
g57
(g78
g59
NtRp342
(dp343
g62
(dp344
g82
g83
ssg71
g338
sg64
(lp345
S'httponly'
p346
asbag57
(g78
g59
NtRp347
(dp348
g62
(dp349
g89
g90
ssg71
g338
sg64
(lp350
S':'
asbag57
(g78
g59
NtRp351
(dp352
g62
(dp353
sg71
g338
sg64
(lp354
g57
(g58
g59
NtRp355
(dp356
g62
(dp357
g70
I3
ssg71
g351
sg64
(lp358
S''
asbasbasbag57
(g73
g59
NtRp359
(dp360
g62
(dp361
sg71
g271
sg64
(lp362
g57
(g78
g59
NtRp363
(dp364
g62
(dp365
g82
g83
ssg71
g359
sg64
(lp366
S'max-age'
p367
asbag57
(g78
g59
NtRp368
(dp369
g62
(dp370
g89
g90
ssg71
g359
sg64
(lp371
S':'
asbag57
(g78
g59
NtRp372
(dp373
g62
(dp374
sg71
g359
sg64
(lp375
g57
(g58
g59
NtRp376
(dp377
g62
(dp378
g70
I3
ssg71
g372
sg64
(lp379
S''
asbasbasbag57
(g73
g59
NtRp380
(dp381
g62
(dp382
sg71
g271
sg64
(lp383
g57
(g78
g59
NtRp384
(dp385
g62
(dp386
g82
g83
ssg71
g380
sg64
(lp387
S'path'
p388
asbag57
(g78
g59
NtRp389
(dp390
g62
(dp391
g89
g90
ssg71
g380
sg64
(lp392
S':'
asbag57
(g78
g59
NtRp393
(dp394
g62
(dp395
sg71
g380
sg64
(lp396
g57
(g58
g59
NtRp397
(dp398
g62
(dp399
g70
I3
ssg71
g393
sg64
(lp400
S''
asbasbasbag57
(g73
g59
NtRp401
(dp402
g62
(dp403
sg71
g271
sg64
(lp404
g57
(g78
g59
NtRp405
(dp406
g62
(dp407
g82
g83
ssg71
g401
sg64
(lp408
S'secure'
p409
asbag57
(g78
g59
NtRp410
(dp411
g62
(dp412
g89
g90
ssg71
g401
sg64
(lp413
S':'
asbag57
(g78
g59
NtRp414
(dp415
g62
(dp416
sg71
g401
sg64
(lp417
g57
(g58
g59
NtRp418
(dp419
g62
(dp420
g70
I3
ssg71
g414
sg64
(lp421
S''
asbasbasbag57
(g73
g59
NtRp422
(dp423
g62
(dp424
sg71
g271
sg64
(lp425
g57
(g78
g59
NtRp426
(dp427
g62
(dp428
g82
g83
ssg71
g422
sg64
(lp429
S'version'
p430
asbag57
(g78
g59
NtRp431
(dp432
g62
(dp433
g89
g90
ssg71
g422
sg64
(lp434
S':'
asbag57
(g78
g59
NtRp435
(dp436
g62
(dp437
sg71
g422
sg64
(lp438
g57
(g58
g59
NtRp439
(dp440
g62
(dp441
g70
I3
ssg71
g435
sg64
(lp442
S''
asbasbasbasbasbasbasbag57
(g73
g59
NtRp443
(dp444
g62
(dp445
sg71
g246
sg64
(lp446
g57
(g78
g59
NtRp447
(dp448
g62
(dp449
g82
g83
ssg71
g443
sg64
(lp450
S'session_id_welcome'
p451
asbag57
(g78
g59
NtRp452
(dp453
g62
(dp454
g89
g90
ssg71
g443
sg64
(lp455
S':'
asbag57
(g78
g59
NtRp456
(dp457
g62
(dp458
sg71
g443
sg64
(lp459
g57
(g58
g59
NtRp460
(dp461
g62
(dp462
g70
I4
ssg71
g456
sg64
(lp463
g57
(g66
g59
NtRp464
(dp465
g62
(dp466
g70
I3
ssg71
Nsg64
(lp467
g57
(g73
g59
NtRp468
(dp469
g62
(dp470
sg71
g464
sg64
(lp471
g57
(g78
g59
NtRp472
(dp473
g62
(dp474
g82
g83
ssg71
g468
sg64
(lp475
g283
asbag57
(g78
g59
NtRp476
(dp477
g62
(dp478
g89
g90
ssg71
g468
sg64
(lp479
S':'
asbag57
(g78
g59
NtRp480
(dp481
g62
(dp482
sg71
g468
sg64
(lp483
g57
(g58
g59
NtRp484
(dp485
g62
(dp486
g70
I3
ssg71
g480
sg64
(lp487
S''
asbasbasbag57
(g73
g59
NtRp488
(dp489
g62
(dp490
sg71
g464
sg64
(lp491
g57
(g78
g59
NtRp492
(dp493
g62
(dp494
g82
g83
ssg71
g488
sg64
(lp495
g304
asbag57
(g78
g59
NtRp496
(dp497
g62
(dp498
g89
g90
ssg71
g488
sg64
(lp499
S':'
asbag57
(g78
g59
NtRp500
(dp501
g62
(dp502
sg71
g488
sg64
(lp503
g57
(g58
g59
NtRp504
(dp505
g62
(dp506
g70
I3
ssg71
g500
sg64
(lp507
S''
asbasbasbag57
(g73
g59
NtRp508
(dp509
g62
(dp510
sg71
g464
sg64
(lp511
g57
(g78
g59
NtRp512
(dp513
g62
(dp514
g82
g83
ssg71
g508
sg64
(lp515
g325
asbag57
(g78
g59
NtRp516
(dp517
g62
(dp518
g89
g90
ssg71
g508
sg64
(lp519
S':'
asbag57
(g78
g59
NtRp520
(dp521
g62
(dp522
sg71
g508
sg64
(lp523
g57
(g58
g59
NtRp524
(dp525
g62
(dp526
g70
I3
ssg71
g520
sg64
(lp527
S''
asbasbasbag57
(g73
g59
NtRp528
(dp529
g62
(dp530
sg71
g464
sg64
(lp531
g57
(g78
g59
NtRp532
(dp533
g62
(dp534
g82
g83
ssg71
g528
sg64
(lp535
g346
asbag57
(g78
g59
NtRp536
(dp537
g62
(dp538
g89
g90
ssg71
g528
sg64
(lp539
S':'
asbag57
(g78
g59
NtRp540
(dp541
g62
(dp542
sg71
g528
sg64
(lp543
g57
(g58
g59
NtRp544
(dp545
g62
(dp546
g70
I3
ssg71
g540
sg64
(lp547
S''
asbasbasbag57
(g73
g59
NtRp548
(dp549
g62
(dp550
sg71
g464
sg64
(lp551
g57
(g78
g59
NtRp552
(dp553
g62
(dp554
g82
g83
ssg71
g548
sg64
(lp555
g367
asbag57
(g78
g59
NtRp556
(dp557
g62
(dp558
g89
g90
ssg71
g548
sg64
(lp559
S':'
asbag57
(g78
g59
NtRp560
(dp561
g62
(dp562
sg71
g548
sg64
(lp563
g57
(g58
g59
NtRp564
(dp565
g62
(dp566
g70
I3
ssg71
g560
sg64
(lp567
S''
asbasbasbag57
(g73
g59
NtRp568
(dp569
g62
(dp570
sg71
g464
sg64
(lp571
g57
(g78
g59
NtRp572
(dp573
g62
(dp574
g82
g83
ssg71
g568
sg64
(lp575
g388
asbag57
(g78
g59
NtRp576
(dp577
g62
(dp578
g89
g90
ssg71
g568
sg64
(lp579
S':'
asbag57
(g78
g59
NtRp580
(dp581
g62
(dp582
sg71
g568
sg64
(lp583
g57
(g58
g59
NtRp584
(dp585
g62
(dp586
g70
I3
ssg71
g580
sg64
(lp587
S''
asbasbasbag57
(g73
g59
NtRp588
(dp589
g62
(dp590
sg71
g464
sg64
(lp591
g57
(g78
g59
NtRp592
(dp593
g62
(dp594
g82
g83
ssg71
g588
sg64
(lp595
g409
asbag57
(g78
g59
NtRp596
(dp597
g62
(dp598
g89
g90
ssg71
g588
sg64
(lp599
S':'
asbag57
(g78
g59
NtRp600
(dp601
g62
(dp602
sg71
g588
sg64
(lp603
g57
(g58
g59
NtRp604
(dp605
g62
(dp606
g70
I3
ssg71
g600
sg64
(lp607
S''
asbasbasbag57
(g73
g59
NtRp608
(dp609
g62
(dp610
sg71
g464
sg64
(lp611
g57
(g78
g59
NtRp612
(dp613
g62
(dp614
g82
g83
ssg71
g608
sg64
(lp615
g430
asbag57
(g78
g59
NtRp616
(dp617
g62
(dp618
g89
g90
ssg71
g608
sg64
(lp619
S':'
asbag57
(g78
g59
NtRp620
(dp621
g62
(dp622
sg71
g608
sg64
(lp623
g57
(g58
g59
NtRp624
(dp625
g62
(dp626
g70
I3
ssg71
g620
sg64
(lp627
S''
asbasbasbasbasbasbasbasbasbasbasbag57
(g73
g59
NtRp628
(dp629
g62
(dp630
sg71
g67
sg64
(lp631
g57
(g78
g59
NtRp632
(dp633
g62
(dp634
g82
g83
ssg71
g628
sg64
(lp635
S'env'
p636
asbag57
(g78
g59
NtRp637
(dp638
g62
(dp639
g89
g90
ssg71
g628
sg64
(lp640
S':'
asbag57
(g78
g59
NtRp641
(dp642
g62
(dp643
sg71
g628
sg64
(lp644
g57
(g58
g59
NtRp645
(dp646
g62
(dp647
g70
I5
ssg71
g641
sg64
(lp648
g57
(g66
g59
NtRp649
(dp650
g62
(dp651
g70
I4
ssg71
Nsg64
(lp652
g57
(g73
g59
NtRp653
(dp654
g62
(dp655
sg71
g649
sg64
(lp656
g57
(g78
g59
NtRp657
(dp658
g62
(dp659
g82
g83
ssg71
g653
sg64
(lp660
S'app_folders'
p661
asbag57
(g78
g59
NtRp662
(dp663
g62
(dp664
g89
g90
ssg71
g653
sg64
(lp665
S':'
asbag57
(g78
g59
NtRp666
(dp667
g62
(dp668
sg71
g653
sg64
(lp669
g57
(g58
g59
NtRp670
(dp671
g62
(dp672
g70
I4
ssg71
g666
sg64
(lp673
S"set(['C:\\\\Users\\\\mellinja\\\\Documents\\\\SC2Tracker\\\\SC2Tracker2\\\\web2py\\\\applications\\\\welcome\\\\', 'C:\\\\Users\\\\mellinja\\\\Documents\\\\SC2Tracker\\\\SC2Tracker2\\\\web2py\\\\applications\\\\admin\\\\'])"
p674
asbasbasbag57
(g73
g59
NtRp675
(dp676
g62
(dp677
sg71
g649
sg64
(lp678
g57
(g78
g59
NtRp679
(dp680
g62
(dp681
g82
g83
ssg71
g675
sg64
(lp682
S'applications_parent'
p683
asbag57
(g78
g59
NtRp684
(dp685
g62
(dp686
g89
g90
ssg71
g675
sg64
(lp687
S':'
asbag57
(g78
g59
NtRp688
(dp689
g62
(dp690
sg71
g675
sg64
(lp691
g57
(g58
g59
NtRp692
(dp693
g62
(dp694
g70
I4
ssg71
g688
sg64
(lp695
S'C:\\Users\\mellinja\\Documents\\SC2Tracker\\SC2Tracker2\\web2py'
p696
asbasbasbag57
(g73
g59
NtRp697
(dp698
g62
(dp699
sg71
g649
sg64
(lp700
g57
(g78
g59
NtRp701
(dp702
g62
(dp703
g82
g83
ssg71
g697
sg64
(lp704
S'cmd_args'
p705
asbag57
(g78
g59
NtRp706
(dp707
g62
(dp708
g89
g90
ssg71
g697
sg64
(lp709
S':'
asbag57
(g78
g59
NtRp710
(dp711
g62
(dp712
sg71
g697
sg64
(lp713
g57
(g58
g59
NtRp714
(dp715
g62
(dp716
g70
I4
ssg71
g710
sg64
(lp717
g57
(g66
g59
NtRp718
(dp719
g62
(dp720
g70
I3
ssg71
Nsg64
(lp721
sbasbasbasbag57
(g73
g59
NtRp722
(dp723
g62
(dp724
sg71
g649
sg64
(lp725
g57
(g78
g59
NtRp726
(dp727
g62
(dp728
g82
g83
ssg71
g722
sg64
(lp729
S'cmd_options'
p730
asbag57
(g78
g59
NtRp731
(dp732
g62
(dp733
g89
g90
ssg71
g722
sg64
(lp734
S':'
asbag57
(g78
g59
NtRp735
(dp736
g62
(dp737
sg71
g722
sg64
(lp738
g57
(g58
g59
NtRp739
(dp740
g62
(dp741
g70
I4
ssg71
g735
sg64
(lp742
S"<Values at 0x37e75c8: {'verbose': False, 'ip': '127.0.0.1', 'shutdown_timeout': 5, 'taskbar': False, 'nocron': False, 'pid_filename': 'httpserver.pid', 'maxthreads': None, 'softcron': False, 'server_name': 'mellinja-PC', 'bpython': False, 'nogui': False, 'port': 8000, 'extcron': False, 'debuglevel': 30, 'test': None, 'folder': 'C:\\\\Users\\\\mellinja\\\\Documents\\\\SC2Tracker\\\\SC2Tracker2\\\\web2py', 'config': '', 'import_models': False, 'winservice': '', 'shell': None, 'run': '', 'log_filename': 'httpserver.log', 'args': [''], 'socket_timeout': 1, 'ssl_ca_certificate': None, 'scheduler': None, 'profiler_filename': None, 'ssl_private_key': '', 'password': '<ask>', 'request_queue_size': 5, 'ssl_certificate': '', 'cronjob': False, 'numthreads': None, 'quiet': False, 'interfaces': None, 'minthreads': None, 'timeout': 10, 'plain': False, 'nobanner': False}>"
p743
asbasbasbag57
(g73
g59
NtRp744
(dp745
g62
(dp746
sg71
g649
sg64
(lp747
g57
(g78
g59
NtRp748
(dp749
g62
(dp750
g82
g83
ssg71
g744
sg64
(lp751
S'db_sessions'
p752
asbag57
(g78
g59
NtRp753
(dp754
g62
(dp755
g89
g90
ssg71
g744
sg64
(lp756
S':'
asbag57
(g78
g59
NtRp757
(dp758
g62
(dp759
sg71
g744
sg64
(lp760
g57
(g58
g59
NtRp761
(dp762
g62
(dp763
g70
I4
ssg71
g757
sg64
(lp764
S'set([])'
p765
asbasbasbag57
(g73
g59
NtRp766
(dp767
g62
(dp768
sg71
g649
sg64
(lp769
g57
(g78
g59
NtRp770
(dp771
g62
(dp772
g82
g83
ssg71
g766
sg64
(lp773
S'debugging'
p774
asbag57
(g78
g59
NtRp775
(dp776
g62
(dp777
g89
g90
ssg71
g766
sg64
(lp778
S':'
asbag57
(g78
g59
NtRp779
(dp780
g62
(dp781
sg71
g766
sg64
(lp782
g57
(g58
g59
NtRp783
(dp784
g62
(dp785
g70
I4
ssg71
g779
sg64
(lp786
g100
asbasbasbag57
(g73
g59
NtRp787
(dp788
g62
(dp789
sg71
g649
sg64
(lp790
g57
(g78
g59
NtRp791
(dp792
g62
(dp793
g82
g83
ssg71
g787
sg64
(lp794
S'gluon_parent'
p795
asbag57
(g78
g59
NtRp796
(dp797
g62
(dp798
g89
g90
ssg71
g787
sg64
(lp799
S':'
asbag57
(g78
g59
NtRp800
(dp801
g62
(dp802
sg71
g787
sg64
(lp803
g57
(g58
g59
NtRp804
(dp805
g62
(dp806
g70
I4
ssg71
g800
sg64
(lp807
S'C:\\Users\\mellinja\\Documents\\SC2Tracker\\SC2Tracker2\\web2py'
p808
asbasbasbag57
(g73
g59
NtRp809
(dp810
g62
(dp811
sg71
g649
sg64
(lp812
g57
(g78
g59
NtRp813
(dp814
g62
(dp815
g82
g83
ssg71
g809
sg64
(lp816
S'http_accept'
p817
asbag57
(g78
g59
NtRp818
(dp819
g62
(dp820
g89
g90
ssg71
g809
sg64
(lp821
S':'
asbag57
(g78
g59
NtRp822
(dp823
g62
(dp824
sg71
g809
sg64
(lp825
g57
(g58
g59
NtRp826
(dp827
g62
(dp828
g70
I4
ssg71
g822
sg64
(lp829
S'text/html,application/xhtml+xml,application/xml;q=0.9,*/*;q=0.8'
p830
asbasbasbag57
(g73
g59
NtRp831
(dp832
g62
(dp833
sg71
g649
sg64
(lp834
g57
(g78
g59
NtRp835
(dp836
g62
(dp837
g82
g83
ssg71
g831
sg64
(lp838
S'http_accept_charset'
p839
asbag57
(g78
g59
NtRp840
(dp841
g62
(dp842
g89
g90
ssg71
g831
sg64
(lp843
S':'
asbag57
(g78
g59
NtRp844
(dp845
g62
(dp846
sg71
g831
sg64
(lp847
g57
(g58
g59
NtRp848
(dp849
g62
(dp850
g70
I4
ssg71
g844
sg64
(lp851
S'ISO-8859-1,utf-8;q=0.7,*;q=0.3'
p852
asbasbasbag57
(g73
g59
NtRp853
(dp854
g62
(dp855
sg71
g649
sg64
(lp856
g57
(g78
g59
NtRp857
(dp858
g62
(dp859
g82
g83
ssg71
g853
sg64
(lp860
S'http_accept_encoding'
p861
asbag57
(g78
g59
NtRp862
(dp863
g62
(dp864
g89
g90
ssg71
g853
sg64
(lp865
S':'
asbag57
(g78
g59
NtRp866
(dp867
g62
(dp868
sg71
g853
sg64
(lp869
g57
(g58
g59
NtRp870
(dp871
g62
(dp872
g70
I4
ssg71
g866
sg64
(lp873
S'gzip,deflate,sdch'
p874
asbasbasbag57
(g73
g59
NtRp875
(dp876
g62
(dp877
sg71
g649
sg64
(lp878
g57
(g78
g59
NtRp879
(dp880
g62
(dp881
g82
g83
ssg71
g875
sg64
(lp882
S'http_accept_language'
p883
asbag57
(g78
g59
NtRp884
(dp885
g62
(dp886
g89
g90
ssg71
g875
sg64
(lp887
S':'
asbag57
(g78
g59
NtRp888
(dp889
g62
(dp890
sg71
g875
sg64
(lp891
g57
(g58
g59
NtRp892
(dp893
g62
(dp894
g70
I4
ssg71
g888
sg64
(lp895
S'en-US,en;q=0.8'
p896
asbasbasbag57
(g73
g59
NtRp897
(dp898
g62
(dp899
sg71
g649
sg64
(lp900
g57
(g78
g59
NtRp901
(dp902
g62
(dp903
g82
g83
ssg71
g897
sg64
(lp904
S'http_connection'
p905
asbag57
(g78
g59
NtRp906
(dp907
g62
(dp908
g89
g90
ssg71
g897
sg64
(lp909
S':'
asbag57
(g78
g59
NtRp910
(dp911
g62
(dp912
sg71
g897
sg64
(lp913
g57
(g58
g59
NtRp914
(dp915
g62
(dp916
g70
I4
ssg71
g910
sg64
(lp917
S'keep-alive'
p918
asbasbasbag57
(g73
g59
NtRp919
(dp920
g62
(dp921
sg71
g649
sg64
(lp922
g57
(g78
g59
NtRp923
(dp924
g62
(dp925
g82
g83
ssg71
g919
sg64
(lp926
S'http_cookie'
p927
asbag57
(g78
g59
NtRp928
(dp929
g62
(dp930
g89
g90
ssg71
g919
sg64
(lp931
S':'
asbag57
(g78
g59
NtRp932
(dp933
g62
(dp934
sg71
g919
sg64
(lp935
g57
(g58
g59
NtRp936
(dp937
g62
(dp938
g70
I4
ssg71
g932
sg64
(lp939
S'session_id_admin=127.0.0.1-616ef34d-d9fb-4fe2-a512-9038b4a6dfe9; session_id_welcome=127.0.0.1-971ad393-68d1-4a60-9355-2d6ae717a7af'
p940
asbasbasbag57
(g73
g59
NtRp941
(dp942
g62
(dp943
sg71
g649
sg64
(lp944
g57
(g78
g59
NtRp945
(dp946
g62
(dp947
g82
g83
ssg71
g941
sg64
(lp948
S'http_host'
p949
asbag57
(g78
g59
NtRp950
(dp951
g62
(dp952
g89
g90
ssg71
g941
sg64
(lp953
S':'
asbag57
(g78
g59
NtRp954
(dp955
g62
(dp956
sg71
g941
sg64
(lp957
g57
(g58
g59
NtRp958
(dp959
g62
(dp960
g70
I4
ssg71
g954
sg64
(lp961
S'127.0.0.1:8000'
p962
asbasbasbag57
(g73
g59
NtRp963
(dp964
g62
(dp965
sg71
g649
sg64
(lp966
g57
(g78
g59
NtRp967
(dp968
g62
(dp969
g82
g83
ssg71
g963
sg64
(lp970
S'http_referer'
p971
asbag57
(g78
g59
NtRp972
(dp973
g62
(dp974
g89
g90
ssg71
g963
sg64
(lp975
S':'
asbag57
(g78
g59
NtRp976
(dp977
g62
(dp978
sg71
g963
sg64
(lp979
g57
(g58
g59
NtRp980
(dp981
g62
(dp982
g70
I4
ssg71
g976
sg64
(lp983
S'http://127.0.0.1:8000/welcome/map_pool/index'
p984
asbasbasbag57
(g73
g59
NtRp985
(dp986
g62
(dp987
sg71
g649
sg64
(lp988
g57
(g78
g59
NtRp989
(dp990
g62
(dp991
g82
g83
ssg71
g985
sg64
(lp992
S'http_user_agent'
p993
asbag57
(g78
g59
NtRp994
(dp995
g62
(dp996
g89
g90
ssg71
g985
sg64
(lp997
S':'
asbag57
(g78
g59
NtRp998
(dp999
g62
(dp1000
sg71
g985
sg64
(lp1001
g57
(g58
g59
NtRp1002
(dp1003
g62
(dp1004
g70
I4
ssg71
g998
sg64
(lp1005
S'Mozilla/5.0 (Windows NT 6.1; WOW64) AppleWebKit/535.7 (KHTML, like Gecko) Chrome/16.0.912.77 Safari/535.7'
p1006
asbasbasbag57
(g73
g59
NtRp1007
(dp1008
g62
(dp1009
sg71
g649
sg64
(lp1010
g57
(g78
g59
NtRp1011
(dp1012
g62
(dp1013
g82
g83
ssg71
g1007
sg64
(lp1014
S'is_jython'
p1015
asbag57
(g78
g59
NtRp1016
(dp1017
g62
(dp1018
g89
g90
ssg71
g1007
sg64
(lp1019
S':'
asbag57
(g78
g59
NtRp1020
(dp1021
g62
(dp1022
sg71
g1007
sg64
(lp1023
g57
(g58
g59
NtRp1024
(dp1025
g62
(dp1026
g70
I4
ssg71
g1020
sg64
(lp1027
g100
asbasbasbag57
(g73
g59
NtRp1028
(dp1029
g62
(dp1030
sg71
g649
sg64
(lp1031
g57
(g78
g59
NtRp1032
(dp1033
g62
(dp1034
g82
g83
ssg71
g1028
sg64
(lp1035
S'is_pypy'
p1036
asbag57
(g78
g59
NtRp1037
(dp1038
g62
(dp1039
g89
g90
ssg71
g1028
sg64
(lp1040
S':'
asbag57
(g78
g59
NtRp1041
(dp1042
g62
(dp1043
sg71
g1028
sg64
(lp1044
g57
(g58
g59
NtRp1045
(dp1046
g62
(dp1047
g70
I4
ssg71
g1041
sg64
(lp1048
g100
asbasbasbag57
(g73
g59
NtRp1049
(dp1050
g62
(dp1051
sg71
g649
sg64
(lp1052
g57
(g78
g59
NtRp1053
(dp1054
g62
(dp1055
g82
g83
ssg71
g1049
sg64
(lp1056
S'path_info'
p1057
asbag57
(g78
g59
NtRp1058
(dp1059
g62
(dp1060
g89
g90
ssg71
g1049
sg64
(lp1061
S':'
asbag57
(g78
g59
NtRp1062
(dp1063
g62
(dp1064
sg71
g1049
sg64
(lp1065
g57
(g58
g59
NtRp1066
(dp1067
g62
(dp1068
g70
I4
ssg71
g1062
sg64
(lp1069
S'/welcome/map_pool/show/1'
p1070
asbasbasbag57
(g73
g59
NtRp1071
(dp1072
g62
(dp1073
sg71
g649
sg64
(lp1074
g57
(g78
g59
NtRp1075
(dp1076
g62
(dp1077
g82
g83
ssg71
g1071
sg64
(lp1078
S'query_string'
p1079
asbag57
(g78
g59
NtRp1080
(dp1081
g62
(dp1082
g89
g90
ssg71
g1071
sg64
(lp1083
S':'
asbag57
(g78
g59
NtRp1084
(dp1085
g62
(dp1086
sg71
g1071
sg64
(lp1087
g57
(g58
g59
NtRp1088
(dp1089
g62
(dp1090
g70
I4
ssg71
g1084
sg64
(lp1091
S''
asbasbasbag57
(g73
g59
NtRp1092
(dp1093
g62
(dp1094
sg71
g649
sg64
(lp1095
g57
(g78
g59
NtRp1096
(dp1097
g62
(dp1098
g82
g83
ssg71
g1092
sg64
(lp1099
S'remote_addr'
p1100
asbag57
(g78
g59
NtRp1101
(dp1102
g62
(dp1103
g89
g90
ssg71
g1092
sg64
(lp1104
S':'
asbag57
(g78
g59
NtRp1105
(dp1106
g62
(dp1107
sg71
g1092
sg64
(lp1108
g57
(g58
g59
NtRp1109
(dp1110
g62
(dp1111
g70
I4
ssg71
g1105
sg64
(lp1112
g202
asbasbasbag57
(g73
g59
NtRp1113
(dp1114
g62
(dp1115
sg71
g649
sg64
(lp1116
g57
(g78
g59
NtRp1117
(dp1118
g62
(dp1119
g82
g83
ssg71
g1113
sg64
(lp1120
S'remote_port'
p1121
asbag57
(g78
g59
NtRp1122
(dp1123
g62
(dp1124
g89
g90
ssg71
g1113
sg64
(lp1125
S':'
asbag57
(g78
g59
NtRp1126
(dp1127
g62
(dp1128
sg71
g1113
sg64
(lp1129
g57
(g58
g59
NtRp1130
(dp1131
g62
(dp1132
g70
I4
ssg71
g1126
sg64
(lp1133
S'57327'
p1134
asbasbasbag57
(g73
g59
NtRp1135
(dp1136
g62
(dp1137
sg71
g649
sg64
(lp1138
g57
(g78
g59
NtRp1139
(dp1140
g62
(dp1141
g82
g83
ssg71
g1135
sg64
(lp1142
S'request_method'
p1143
asbag57
(g78
g59
NtRp1144
(dp1145
g62
(dp1146
g89
g90
ssg71
g1135
sg64
(lp1147
S':'
asbag57
(g78
g59
NtRp1148
(dp1149
g62
(dp1150
sg71
g1135
sg64
(lp1151
g57
(g58
g59
NtRp1152
(dp1153
g62
(dp1154
g70
I4
ssg71
g1148
sg64
(lp1155
S'GET'
p1156
asbasbasbag57
(g73
g59
NtRp1157
(dp1158
g62
(dp1159
sg71
g649
sg64
(lp1160
g57
(g78
g59
NtRp1161
(dp1162
g62
(dp1163
g82
g83
ssg71
g1157
sg64
(lp1164
S'script_name'
p1165
asbag57
(g78
g59
NtRp1166
(dp1167
g62
(dp1168
g89
g90
ssg71
g1157
sg64
(lp1169
S':'
asbag57
(g78
g59
NtRp1170
(dp1171
g62
(dp1172
sg71
g1157
sg64
(lp1173
g57
(g58
g59
NtRp1174
(dp1175
g62
(dp1176
g70
I4
ssg71
g1170
sg64
(lp1177
S''
asbasbasbag57
(g73
g59
NtRp1178
(dp1179
g62
(dp1180
sg71
g649
sg64
(lp1181
g57
(g78
g59
NtRp1182
(dp1183
g62
(dp1184
g82
g83
ssg71
g1178
sg64
(lp1185
S'server_name'
p1186
asbag57
(g78
g59
NtRp1187
(dp1188
g62
(dp1189
g89
g90
ssg71
g1178
sg64
(lp1190
S':'
asbag57
(g78
g59
NtRp1191
(dp1192
g62
(dp1193
sg71
g1178
sg64
(lp1194
g57
(g58
g59
NtRp1195
(dp1196
g62
(dp1197
g70
I4
ssg71
g1191
sg64
(lp1198
S'mellinja-PC'
p1199
asbasbasbag57
(g73
g59
NtRp1200
(dp1201
g62
(dp1202
sg71
g649
sg64
(lp1203
g57
(g78
g59
NtRp1204
(dp1205
g62
(dp1206
g82
g83
ssg71
g1200
sg64
(lp1207
S'server_port'
p1208
asbag57
(g78
g59
NtRp1209
(dp1210
g62
(dp1211
g89
g90
ssg71
g1200
sg64
(lp1212
S':'
asbag57
(g78
g59
NtRp1213
(dp1214
g62
(dp1215
sg71
g1200
sg64
(lp1216
g57
(g58
g59
NtRp1217
(dp1218
g62
(dp1219
g70
I4
ssg71
g1213
sg64
(lp1220
S'8000'
p1221
asbasbasbag57
(g73
g59
NtRp1222
(dp1223
g62
(dp1224
sg71
g649
sg64
(lp1225
g57
(g78
g59
NtRp1226
(dp1227
g62
(dp1228
g82
g83
ssg71
g1222
sg64
(lp1229
S'server_protocol'
p1230
asbag57
(g78
g59
NtRp1231
(dp1232
g62
(dp1233
g89
g90
ssg71
g1222
sg64
(lp1234
S':'
asbag57
(g78
g59
NtRp1235
(dp1236
g62
(dp1237
sg71
g1222
sg64
(lp1238
g57
(g58
g59
NtRp1239
(dp1240
g62
(dp1241
g70
I4
ssg71
g1235
sg64
(lp1242
S'HTTP/1.1'
p1243
asbasbasbag57
(g73
g59
NtRp1244
(dp1245
g62
(dp1246
sg71
g649
sg64
(lp1247
g57
(g78
g59
NtRp1248
(dp1249
g62
(dp1250
g82
g83
ssg71
g1244
sg64
(lp1251
S'server_software'
p1252
asbag57
(g78
g59
NtRp1253
(dp1254
g62
(dp1255
g89
g90
ssg71
g1244
sg64
(lp1256
S':'
asbag57
(g78
g59
NtRp1257
(dp1258
g62
(dp1259
sg71
g1244
sg64
(lp1260
g57
(g58
g59
NtRp1261
(dp1262
g62
(dp1263
g70
I4
ssg71
g1257
sg64
(lp1264
S'Rocket 1.2.4'
p1265
asbasbasbag57
(g73
g59
NtRp1266
(dp1267
g62
(dp1268
sg71
g649
sg64
(lp1269
g57
(g78
g59
NtRp1270
(dp1271
g62
(dp1272
g82
g83
ssg71
g1266
sg64
(lp1273
S'web2py_crontype'
p1274
asbag57
(g78
g59
NtRp1275
(dp1276
g62
(dp1277
g89
g90
ssg71
g1266
sg64
(lp1278
S':'
asbag57
(g78
g59
NtRp1279
(dp1280
g62
(dp1281
sg71
g1266
sg64
(lp1282
g57
(g58
g59
NtRp1283
(dp1284
g62
(dp1285
g70
I4
ssg71
g1279
sg64
(lp1286
S'hard'
p1287
asbasbasbag57
(g73
g59
NtRp1288
(dp1289
g62
(dp1290
sg71
g649
sg64
(lp1291
g57
(g78
g59
NtRp1292
(dp1293
g62
(dp1294
g82
g83
ssg71
g1288
sg64
(lp1295
S'web2py_path'
p1296
asbag57
(g78
g59
NtRp1297
(dp1298
g62
(dp1299
g89
g90
ssg71
g1288
sg64
(lp1300
S':'
asbag57
(g78
g59
NtRp1301
(dp1302
g62
(dp1303
sg71
g1288
sg64
(lp1304
g57
(g58
g59
NtRp1305
(dp1306
g62
(dp1307
g70
I4
ssg71
g1301
sg64
(lp1308
g696
asbasbasbag57
(g73
g59
NtRp1309
(dp1310
g62
(dp1311
sg71
g649
sg64
(lp1312
g57
(g78
g59
NtRp1313
(dp1314
g62
(dp1315
g82
g83
ssg71
g1309
sg64
(lp1316
S'web2py_version'
p1317
asbag57
(g78
g59
NtRp1318
(dp1319
g62
(dp1320
g89
g90
ssg71
g1309
sg64
(lp1321
S':'
asbag57
(g78
g59
NtRp1322
(dp1323
g62
(dp1324
sg71
g1309
sg64
(lp1325
g57
(g58
g59
NtRp1326
(dp1327
g62
(dp1328
g70
I4
ssg71
g1322
sg64
(lp1329
g57
(g66
g59
NtRp1330
(dp1331
g62
(dp1332
g70
I3
ssg71
Nsg64
(lp1333
g57
(g73
g59
NtRp1334
(dp1335
g62
(dp1336
sg71
g1330
sg64
(lp1337
g57
(g78
g59
NtRp1338
(dp1339
g62
(dp1340
sg71
g1334
sg64
(lp1341
g57
(g58
g59
NtRp1342
(dp1343
g62
(dp1344
g70
I3
ssg71
g1338
sg64
(lp1345
S'1'
asbasbasbag57
(g73
g59
NtRp1346
(dp1347
g62
(dp1348
sg71
g1330
sg64
(lp1349
g57
(g78
g59
NtRp1350
(dp1351
g62
(dp1352
sg71
g1346
sg64
(lp1353
g57
(g58
g59
NtRp1354
(dp1355
g62
(dp1356
g70
I3
ssg71
g1350
sg64
(lp1357
S'99'
p1358
asbasbasbag57
(g73
g59
NtRp1359
(dp1360
g62
(dp1361
sg71
g1330
sg64
(lp1362
g57
(g78
g59
NtRp1363
(dp1364
g62
(dp1365
sg71
g1359
sg64
(lp1366
g57
(g58
g59
NtRp1367
(dp1368
g62
(dp1369
g70
I3
ssg71
g1363
sg64
(lp1370
S'4'
asbasbasbag57
(g73
g59
NtRp1371
(dp1372
g62
(dp1373
sg71
g1330
sg64
(lp1374
g57
(g78
g59
NtRp1375
(dp1376
g62
(dp1377
sg71
g1371
sg64
(lp1378
g57
(g58
g59
NtRp1379
(dp1380
g62
(dp1381
g70
I3
ssg71
g1375
sg64
(lp1382
S'datetime.datetime(2011, 12, 14, 14, 46, 14)'
p1383
asbasbasbag57
(g73
g59
NtRp1384
(dp1385
g62
(dp1386
sg71
g1330
sg64
(lp1387
g57
(g78
g59
NtRp1388
(dp1389
g62
(dp1390
sg71
g1384
sg64
(lp1391
g57
(g58
g59
NtRp1392
(dp1393
g62
(dp1394
g70
I3
ssg71
g1388
sg64
(lp1395
S'stable'
p1396
asbasbasbasbasbasbasbag57
(g73
g59
NtRp1397
(dp1398
g62
(dp1399
sg71
g649
sg64
(lp1400
g57
(g78
g59
NtRp1401
(dp1402
g62
(dp1403
g82
g83
ssg71
g1397
sg64
(lp1404
S'wsgi_errors'
p1405
asbag57
(g78
g59
NtRp1406
(dp1407
g62
(dp1408
g89
g90
ssg71
g1397
sg64
(lp1409
S':'
asbag57
(g78
g59
NtRp1410
(dp1411
g62
(dp1412
sg71
g1397
sg64
(lp1413
g57
(g58
g59
NtRp1414
(dp1415
g62
(dp1416
g70
I4
ssg71
g1410
sg64
(lp1417
S"<open file '<stderr>', mode 'w' at 0x0000000001DB61E0>"
p1418
asbasbasbag57
(g73
g59
NtRp1419
(dp1420
g62
(dp1421
sg71
g649
sg64
(lp1422
g57
(g78
g59
NtRp1423
(dp1424
g62
(dp1425
g82
g83
ssg71
g1419
sg64
(lp1426
S'wsgi_file_wrapper'
p1427
asbag57
(g78
g59
NtRp1428
(dp1429
g62
(dp1430
g89
g90
ssg71
g1419
sg64
(lp1431
S':'
asbag57
(g78
g59
NtRp1432
(dp1433
g62
(dp1434
sg71
g1419
sg64
(lp1435
g57
(g58
g59
NtRp1436
(dp1437
g62
(dp1438
g70
I4
ssg71
g1432
sg64
(lp1439
S'<class wsgiref.util.FileWrapper at 0x00000000036DC948>'
p1440
asbasbasbag57
(g73
g59
NtRp1441
(dp1442
g62
(dp1443
sg71
g649
sg64
(lp1444
g57
(g78
g59
NtRp1445
(dp1446
g62
(dp1447
g82
g83
ssg71
g1441
sg64
(lp1448
S'wsgi_input'
p1449
asbag57
(g78
g59
NtRp1450
(dp1451
g62
(dp1452
g89
g90
ssg71
g1441
sg64
(lp1453
S':'
asbag57
(g78
g59
NtRp1454
(dp1455
g62
(dp1456
sg71
g1441
sg64
(lp1457
g57
(g58
g59
NtRp1458
(dp1459
g62
(dp1460
g70
I4
ssg71
g1454
sg64
(lp1461
S'<socket._fileobject object at 0x0000000003809228>'
p1462
asbasbasbag57
(g73
g59
NtRp1463
(dp1464
g62
(dp1465
sg71
g649
sg64
(lp1466
g57
(g78
g59
NtRp1467
(dp1468
g62
(dp1469
g82
g83
ssg71
g1463
sg64
(lp1470
S'wsgi_multiprocess'
p1471
asbag57
(g78
g59
NtRp1472
(dp1473
g62
(dp1474
g89
g90
ssg71
g1463
sg64
(lp1475
S':'
asbag57
(g78
g59
NtRp1476
(dp1477
g62
(dp1478
sg71
g1463
sg64
(lp1479
g57
(g58
g59
NtRp1480
(dp1481
g62
(dp1482
g70
I4
ssg71
g1476
sg64
(lp1483
g100
asbasbasbag57
(g73
g59
NtRp1484
(dp1485
g62
(dp1486
sg71
g649
sg64
(lp1487
g57
(g78
g59
NtRp1488
(dp1489
g62
(dp1490
g82
g83
ssg71
g1484
sg64
(lp1491
S'wsgi_multithread'
p1492
asbag57
(g78
g59
NtRp1493
(dp1494
g62
(dp1495
g89
g90
ssg71
g1484
sg64
(lp1496
S':'
asbag57
(g78
g59
NtRp1497
(dp1498
g62
(dp1499
sg71
g1484
sg64
(lp1500
g57
(g58
g59
NtRp1501
(dp1502
g62
(dp1503
g70
I4
ssg71
g1497
sg64
(lp1504
S'True'
p1505
asbasbasbag57
(g73
g59
NtRp1506
(dp1507
g62
(dp1508
sg71
g649
sg64
(lp1509
g57
(g78
g59
NtRp1510
(dp1511
g62
(dp1512
g82
g83
ssg71
g1506
sg64
(lp1513
S'wsgi_run_once'
p1514
asbag57
(g78
g59
NtRp1515
(dp1516
g62
(dp1517
g89
g90
ssg71
g1506
sg64
(lp1518
S':'
asbag57
(g78
g59
NtRp1519
(dp1520
g62
(dp1521
sg71
g1506
sg64
(lp1522
g57
(g58
g59
NtRp1523
(dp1524
g62
(dp1525
g70
I4
ssg71
g1519
sg64
(lp1526
g100
asbasbasbag57
(g73
g59
NtRp1527
(dp1528
g62
(dp1529
sg71
g649
sg64
(lp1530
g57
(g78
g59
NtRp1531
(dp1532
g62
(dp1533
g82
g83
ssg71
g1527
sg64
(lp1534
S'wsgi_url_scheme'
p1535
asbag57
(g78
g59
NtRp1536
(dp1537
g62
(dp1538
g89
g90
ssg71
g1527
sg64
(lp1539
S':'
asbag57
(g78
g59
NtRp1540
(dp1541
g62
(dp1542
sg71
g1527
sg64
(lp1543
g57
(g58
g59
NtRp1544
(dp1545
g62
(dp1546
g70
I4
ssg71
g1540
sg64
(lp1547
S'http'
p1548
asbasbasbag57
(g73
g59
NtRp1549
(dp1550
g62
(dp1551
sg71
g649
sg64
(lp1552
g57
(g78
g59
NtRp1553
(dp1554
g62
(dp1555
g82
g83
ssg71
g1549
sg64
(lp1556
S'wsgi_version'
p1557
asbag57
(g78
g59
NtRp1558
(dp1559
g62
(dp1560
g89
g90
ssg71
g1549
sg64
(lp1561
S':'
asbag57
(g78
g59
NtRp1562
(dp1563
g62
(dp1564
sg71
g1549
sg64
(lp1565
g57
(g58
g59
NtRp1566
(dp1567
g62
(dp1568
g70
I4
ssg71
g1562
sg64
(lp1569
g57
(g66
g59
NtRp1570
(dp1571
g62
(dp1572
g70
I3
ssg71
Nsg64
(lp1573
g57
(g73
g59
NtRp1574
(dp1575
g62
(dp1576
sg71
g1570
sg64
(lp1577
g57
(g78
g59
NtRp1578
(dp1579
g62
(dp1580
sg71
g1574
sg64
(lp1581
g57
(g58
g59
NtRp1582
(dp1583
g62
(dp1584
g70
I3
ssg71
g1578
sg64
(lp1585
S'1'
asbasbasbag57
(g73
g59
NtRp1586
(dp1587
g62
(dp1588
sg71
g1570
sg64
(lp1589
g57
(g78
g59
NtRp1590
(dp1591
g62
(dp1592
sg71
g1586
sg64
(lp1593
g57
(g58
g59
NtRp1594
(dp1595
g62
(dp1596
g70
I3
ssg71
g1590
sg64
(lp1597
S'0'
asbasbasbasbasbasbasbasbasbasbasbag57
(g73
g59
NtRp1598
(dp1599
g62
(dp1600
sg71
g67
sg64
(lp1601
g57
(g78
g59
NtRp1602
(dp1603
g62
(dp1604
g82
g83
ssg71
g1598
sg64
(lp1605
S'extension'
p1606
asbag57
(g78
g59
NtRp1607
(dp1608
g62
(dp1609
g89
g90
ssg71
g1598
sg64
(lp1610
S':'
asbag57
(g78
g59
NtRp1611
(dp1612
g62
(dp1613
sg71
g1598
sg64
(lp1614
g57
(g58
g59
NtRp1615
(dp1616
g62
(dp1617
g70
I5
ssg71
g1611
sg64
(lp1618
S'html'
p1619
asbasbasbag57
(g73
g59
NtRp1620
(dp1621
g62
(dp1622
sg71
g67
sg64
(lp1623
g57
(g78
g59
NtRp1624
(dp1625
g62
(dp1626
g82
g83
ssg71
g1620
sg64
(lp1627
S'folder'
p1628
asbag57
(g78
g59
NtRp1629
(dp1630
g62
(dp1631
g89
g90
ssg71
g1620
sg64
(lp1632
S':'
asbag57
(g78
g59
NtRp1633
(dp1634
g62
(dp1635
sg71
g1620
sg64
(lp1636
g57
(g58
g59
NtRp1637
(dp1638
g62
(dp1639
g70
I5
ssg71
g1633
sg64
(lp1640
S'C:\\Users\\mellinja\\Documents\\SC2Tracker\\SC2Tracker2\\web2py\\applications\\welcome\\'
p1641
asbasbasbag57
(g73
g59
NtRp1642
(dp1643
g62
(dp1644
sg71
g67
sg64
(lp1645
g57
(g78
g59
NtRp1646
(dp1647
g62
(dp1648
g82
g83
ssg71
g1642
sg64
(lp1649
S'function'
p1650
asbag57
(g78
g59
NtRp1651
(dp1652
g62
(dp1653
g89
g90
ssg71
g1642
sg64
(lp1654
S':'
asbag57
(g78
g59
NtRp1655
(dp1656
g62
(dp1657
sg71
g1642
sg64
(lp1658
g57
(g58
g59
NtRp1659
(dp1660
g62
(dp1661
g70
I5
ssg71
g1655
sg64
(lp1662
S'show'
p1663
asbasbasbag57
(g73
g59
NtRp1664
(dp1665
g62
(dp1666
sg71
g67
sg64
(lp1667
g57
(g78
g59
NtRp1668
(dp1669
g62
(dp1670
g82
g83
ssg71
g1664
sg64
(lp1671
S'get_vars'
p1672
asbag57
(g78
g59
NtRp1673
(dp1674
g62
(dp1675
g89
g90
ssg71
g1664
sg64
(lp1676
S':'
asbag57
(g78
g59
NtRp1677
(dp1678
g62
(dp1679
sg71
g1664
sg64
(lp1680
g57
(g58
g59
NtRp1681
(dp1682
g62
(dp1683
g70
I5
ssg71
g1677
sg64
(lp1684
g57
(g66
g59
NtRp1685
(dp1686
g62
(dp1687
g70
I4
ssg71
Nsg64
(lp1688
sbasbasbasbag57
(g73
g59
NtRp1689
(dp1690
g62
(dp1691
sg71
g67
sg64
(lp1692
g57
(g78
g59
NtRp1693
(dp1694
g62
(dp1695
g82
g83
ssg71
g1689
sg64
(lp1696
S'global_settings'
p1697
asbag57
(g78
g59
NtRp1698
(dp1699
g62
(dp1700
g89
g90
ssg71
g1689
sg64
(lp1701
S':'
asbag57
(g78
g59
NtRp1702
(dp1703
g62
(dp1704
sg71
g1689
sg64
(lp1705
g57
(g58
g59
NtRp1706
(dp1707
g62
(dp1708
g70
I5
ssg71
g1702
sg64
(lp1709
g57
(g66
g59
NtRp1710
(dp1711
g62
(dp1712
g70
I4
ssg71
Nsg64
(lp1713
g57
(g73
g59
NtRp1714
(dp1715
g62
(dp1716
sg71
g1710
sg64
(lp1717
g57
(g78
g59
NtRp1718
(dp1719
g62
(dp1720
g82
g83
ssg71
g1714
sg64
(lp1721
g661
asbag57
(g78
g59
NtRp1722
(dp1723
g62
(dp1724
g89
g90
ssg71
g1714
sg64
(lp1725
S':'
asbag57
(g78
g59
NtRp1726
(dp1727
g62
(dp1728
sg71
g1714
sg64
(lp1729
g57
(g58
g59
NtRp1730
(dp1731
g62
(dp1732
g70
I4
ssg71
g1726
sg64
(lp1733
S"set(['C:\\\\Users\\\\mellinja\\\\Documents\\\\SC2Tracker\\\\SC2Tracker2\\\\web2py\\\\applications\\\\welcome\\\\', 'C:\\\\Users\\\\mellinja\\\\Documents\\\\SC2Tracker\\\\SC2Tracker2\\\\web2py\\\\applications\\\\admin\\\\'])"
p1734
asbasbasbag57
(g73
g59
NtRp1735
(dp1736
g62
(dp1737
sg71
g1710
sg64
(lp1738
g57
(g78
g59
NtRp1739
(dp1740
g62
(dp1741
g82
g83
ssg71
g1735
sg64
(lp1742
g683
asbag57
(g78
g59
NtRp1743
(dp1744
g62
(dp1745
g89
g90
ssg71
g1735
sg64
(lp1746
S':'
asbag57
(g78
g59
NtRp1747
(dp1748
g62
(dp1749
sg71
g1735
sg64
(lp1750
g57
(g58
g59
NtRp1751
(dp1752
g62
(dp1753
g70
I4
ssg71
g1747
sg64
(lp1754
g696
asbasbasbag57
(g73
g59
NtRp1755
(dp1756
g62
(dp1757
sg71
g1710
sg64
(lp1758
g57
(g78
g59
NtRp1759
(dp1760
g62
(dp1761
g82
g83
ssg71
g1755
sg64
(lp1762
g705
asbag57
(g78
g59
NtRp1763
(dp1764
g62
(dp1765
g89
g90
ssg71
g1755
sg64
(lp1766
S':'
asbag57
(g78
g59
NtRp1767
(dp1768
g62
(dp1769
sg71
g1755
sg64
(lp1770
g57
(g58
g59
NtRp1771
(dp1772
g62
(dp1773
g70
I4
ssg71
g1767
sg64
(lp1774
g57
(g66
g59
NtRp1775
(dp1776
g62
(dp1777
g70
I3
ssg71
Nsg64
(lp1778
sbasbasbasbag57
(g73
g59
NtRp1779
(dp1780
g62
(dp1781
sg71
g1710
sg64
(lp1782
g57
(g78
g59
NtRp1783
(dp1784
g62
(dp1785
g82
g83
ssg71
g1779
sg64
(lp1786
g730
asbag57
(g78
g59
NtRp1787
(dp1788
g62
(dp1789
g89
g90
ssg71
g1779
sg64
(lp1790
S':'
asbag57
(g78
g59
NtRp1791
(dp1792
g62
(dp1793
sg71
g1779
sg64
(lp1794
g57
(g58
g59
NtRp1795
(dp1796
g62
(dp1797
g70
I4
ssg71
g1791
sg64
(lp1798
S"<Values at 0x37e75c8: {'verbose': False, 'ip': '127.0.0.1', 'shutdown_timeout': 5, 'taskbar': False, 'nocron': False, 'pid_filename': 'httpserver.pid', 'maxthreads': None, 'softcron': False, 'server_name': 'mellinja-PC', 'bpython': False, 'nogui': False, 'port': 8000, 'extcron': False, 'debuglevel': 30, 'test': None, 'folder': 'C:\\\\Users\\\\mellinja\\\\Documents\\\\SC2Tracker\\\\SC2Tracker2\\\\web2py', 'config': '', 'import_models': False, 'winservice': '', 'shell': None, 'run': '', 'log_filename': 'httpserver.log', 'args': [''], 'socket_timeout': 1, 'ssl_ca_certificate': None, 'scheduler': None, 'profiler_filename': None, 'ssl_private_key': '', 'password': '<ask>', 'request_queue_size': 5, 'ssl_certificate': '', 'cronjob': False, 'numthreads': None, 'quiet': False, 'interfaces': None, 'minthreads': None, 'timeout': 10, 'plain': False, 'nobanner': False}>"
p1799
asbasbasbag57
(g73
g59
NtRp1800
(dp1801
g62
(dp1802
sg71
g1710
sg64
(lp1803
g57
(g78
g59
NtRp1804
(dp1805
g62
(dp1806
g82
g83
ssg71
g1800
sg64
(lp1807
g752
asbag57
(g78
g59
NtRp1808
(dp1809
g62
(dp1810
g89
g90
ssg71
g1800
sg64
(lp1811
S':'
asbag57
(g78
g59
NtRp1812
(dp1813
g62
(dp1814
sg71
g1800
sg64
(lp1815
g57
(g58
g59
NtRp1816
(dp1817
g62
(dp1818
g70
I4
ssg71
g1812
sg64
(lp1819
S'set([])'
p1820
asbasbasbag57
(g73
g59
NtRp1821
(dp1822
g62
(dp1823
sg71
g1710
sg64
(lp1824
g57
(g78
g59
NtRp1825
(dp1826
g62
(dp1827
g82
g83
ssg71
g1821
sg64
(lp1828
g774
asbag57
(g78
g59
NtRp1829
(dp1830
g62
(dp1831
g89
g90
ssg71
g1821
sg64
(lp1832
S':'
asbag57
(g78
g59
NtRp1833
(dp1834
g62
(dp1835
sg71
g1821
sg64
(lp1836
g57
(g58
g59
NtRp1837
(dp1838
g62
(dp1839
g70
I4
ssg71
g1833
sg64
(lp1840
g100
asbasbasbag57
(g73
g59
NtRp1841
(dp1842
g62
(dp1843
sg71
g1710
sg64
(lp1844
g57
(g78
g59
NtRp1845
(dp1846
g62
(dp1847
g82
g83
ssg71
g1841
sg64
(lp1848
g795
asbag57
(g78
g59
NtRp1849
(dp1850
g62
(dp1851
g89
g90
ssg71
g1841
sg64
(lp1852
S':'
asbag57
(g78
g59
NtRp1853
(dp1854
g62
(dp1855
sg71
g1841
sg64
(lp1856
g57
(g58
g59
NtRp1857
(dp1858
g62
(dp1859
g70
I4
ssg71
g1853
sg64
(lp1860
g808
asbasbasbag57
(g73
g59
NtRp1861
(dp1862
g62
(dp1863
sg71
g1710
sg64
(lp1864
g57
(g78
g59
NtRp1865
(dp1866
g62
(dp1867
g82
g83
ssg71
g1861
sg64
(lp1868
g1015
asbag57
(g78
g59
NtRp1869
(dp1870
g62
(dp1871
g89
g90
ssg71
g1861
sg64
(lp1872
S':'
asbag57
(g78
g59
NtRp1873
(dp1874
g62
(dp1875
sg71
g1861
sg64
(lp1876
g57
(g58
g59
NtRp1877
(dp1878
g62
(dp1879
g70
I4
ssg71
g1873
sg64
(lp1880
g100
asbasbasbag57
(g73
g59
NtRp1881
(dp1882
g62
(dp1883
sg71
g1710
sg64
(lp1884
g57
(g78
g59
NtRp1885
(dp1886
g62
(dp1887
g82
g83
ssg71
g1881
sg64
(lp1888
g1036
asbag57
(g78
g59
NtRp1889
(dp1890
g62
(dp1891
g89
g90
ssg71
g1881
sg64
(lp1892
S':'
asbag57
(g78
g59
NtRp1893
(dp1894
g62
(dp1895
sg71
g1881
sg64
(lp1896
g57
(g58
g59
NtRp1897
(dp1898
g62
(dp1899
g70
I4
ssg71
g1893
sg64
(lp1900
g100
asbasbasbag57
(g73
g59
NtRp1901
(dp1902
g62
(dp1903
sg71
g1710
sg64
(lp1904
g57
(g78
g59
NtRp1905
(dp1906
g62
(dp1907
g82
g83
ssg71
g1901
sg64
(lp1908
g1274
asbag57
(g78
g59
NtRp1909
(dp1910
g62
(dp1911
g89
g90
ssg71
g1901
sg64
(lp1912
S':'
asbag57
(g78
g59
NtRp1913
(dp1914
g62
(dp1915
sg71
g1901
sg64
(lp1916
g57
(g58
g59
NtRp1917
(dp1918
g62
(dp1919
g70
I4
ssg71
g1913
sg64
(lp1920
g1287
asbasbasbag57
(g73
g59
NtRp1921
(dp1922
g62
(dp1923
sg71
g1710
sg64
(lp1924
g57
(g78
g59
NtRp1925
(dp1926
g62
(dp1927
g82
g83
ssg71
g1921
sg64
(lp1928
g1317
asbag57
(g78
g59
NtRp1929
(dp1930
g62
(dp1931
g89
g90
ssg71
g1921
sg64
(lp1932
S':'
asbag57
(g78
g59
NtRp1933
(dp1934
g62
(dp1935
sg71
g1921
sg64
(lp1936
g57
(g58
g59
NtRp1937
(dp1938
g62
(dp1939
g70
I4
ssg71
g1933
sg64
(lp1940
g57
(g66
g59
NtRp1941
(dp1942
g62
(dp1943
g70
I3
ssg71
Nsg64
(lp1944
g57
(g73
g59
NtRp1945
(dp1946
g62
(dp1947
sg71
g1941
sg64
(lp1948
g57
(g78
g59
NtRp1949
(dp1950
g62
(dp1951
sg71
g1945
sg64
(lp1952
g57
(g58
g59
NtRp1953
(dp1954
g62
(dp1955
g70
I3
ssg71
g1949
sg64
(lp1956
S'1'
asbasbasbag57
(g73
g59
NtRp1957
(dp1958
g62
(dp1959
sg71
g1941
sg64
(lp1960
g57
(g78
g59
NtRp1961
(dp1962
g62
(dp1963
sg71
g1957
sg64
(lp1964
g57
(g58
g59
NtRp1965
(dp1966
g62
(dp1967
g70
I3
ssg71
g1961
sg64
(lp1968
S'99'
p1969
asbasbasbag57
(g73
g59
NtRp1970
(dp1971
g62
(dp1972
sg71
g1941
sg64
(lp1973
g57
(g78
g59
NtRp1974
(dp1975
g62
(dp1976
sg71
g1970
sg64
(lp1977
g57
(g58
g59
NtRp1978
(dp1979
g62
(dp1980
g70
I3
ssg71
g1974
sg64
(lp1981
S'4'
asbasbasbag57
(g73
g59
NtRp1982
(dp1983
g62
(dp1984
sg71
g1941
sg64
(lp1985
g57
(g78
g59
NtRp1986
(dp1987
g62
(dp1988
sg71
g1982
sg64
(lp1989
g57
(g58
g59
NtRp1990
(dp1991
g62
(dp1992
g70
I3
ssg71
g1986
sg64
(lp1993
S'datetime.datetime(2011, 12, 14, 14, 46, 14)'
p1994
asbasbasbag57
(g73
g59
NtRp1995
(dp1996
g62
(dp1997
sg71
g1941
sg64
(lp1998
g57
(g78
g59
NtRp1999
(dp2000
g62
(dp2001
sg71
g1995
sg64
(lp2002
g57
(g58
g59
NtRp2003
(dp2004
g62
(dp2005
g70
I3
ssg71
g1999
sg64
(lp2006
g1396
asbasbasbasbasbasbasbasbasbasbasbag57
(g73
g59
NtRp2007
(dp2008
g62
(dp2009
sg71
g67
sg64
(lp2010
g57
(g78
g59
NtRp2011
(dp2012
g62
(dp2013
g82
g83
ssg71
g2007
sg64
(lp2014
S'is_https'
p2015
asbag57
(g78
g59
NtRp2016
(dp2017
g62
(dp2018
g89
g90
ssg71
g2007
sg64
(lp2019
S':'
asbag57
(g78
g59
NtRp2020
(dp2021
g62
(dp2022
sg71
g2007
sg64
(lp2023
g57
(g58
g59
NtRp2024
(dp2025
g62
(dp2026
g70
I5
ssg71
g2020
sg64
(lp2027
g100
asbasbasbag57
(g73
g59
NtRp2028
(dp2029
g62
(dp2030
sg71
g67
sg64
(lp2031
g57
(g78
g59
NtRp2032
(dp2033
g62
(dp2034
g82
g83
ssg71
g2028
sg64
(lp2035
S'is_local'
p2036
asbag57
(g78
g59
NtRp2037
(dp2038
g62
(dp2039
g89
g90
ssg71
g2028
sg64
(lp2040
S':'
asbag57
(g78
g59
NtRp2041
(dp2042
g62
(dp2043
sg71
g2028
sg64
(lp2044
g57
(g58
g59
NtRp2045
(dp2046
g62
(dp2047
g70
I5
ssg71
g2041
sg64
(lp2048
g1505
asbasbasbag57
(g73
g59
NtRp2049
(dp2050
g62
(dp2051
sg71
g67
sg64
(lp2052
g57
(g78
g59
NtRp2053
(dp2054
g62
(dp2055
g82
g83
ssg71
g2049
sg64
(lp2056
S'is_restful'
p2057
asbag57
(g78
g59
NtRp2058
(dp2059
g62
(dp2060
g89
g90
ssg71
g2049
sg64
(lp2061
S':'
asbag57
(g78
g59
NtRp2062
(dp2063
g62
(dp2064
sg71
g2049
sg64
(lp2065
g57
(g58
g59
NtRp2066
(dp2067
g62
(dp2068
g70
I5
ssg71
g2062
sg64
(lp2069
g100
asbasbasbag57
(g73
g59
NtRp2070
(dp2071
g62
(dp2072
sg71
g67
sg64
(lp2073
g57
(g78
g59
NtRp2074
(dp2075
g62
(dp2076
g82
g83
ssg71
g2070
sg64
(lp2077
S'now'
p2078
asbag57
(g78
g59
NtRp2079
(dp2080
g62
(dp2081
g89
g90
ssg71
g2070
sg64
(lp2082
S':'
asbag57
(g78
g59
NtRp2083
(dp2084
g62
(dp2085
sg71
g2070
sg64
(lp2086
g57
(g58
g59
NtRp2087
(dp2088
g62
(dp2089
g70
I5
ssg71
g2083
sg64
(lp2090
S'datetime.datetime(2012, 2, 13, 18, 12, 59, 996000)'
p2091
asbasbasbag57
(g73
g59
NtRp2092
(dp2093
g62
(dp2094
sg71
g67
sg64
(lp2095
g57
(g78
g59
NtRp2096
(dp2097
g62
(dp2098
g82
g83
ssg71
g2092
sg64
(lp2099
S'post_vars'
p2100
asbag57
(g78
g59
NtRp2101
(dp2102
g62
(dp2103
g89
g90
ssg71
g2092
sg64
(lp2104
S':'
asbag57
(g78
g59
NtRp2105
(dp2106
g62
(dp2107
sg71
g2092
sg64
(lp2108
g57
(g58
g59
NtRp2109
(dp2110
g62
(dp2111
g70
I5
ssg71
g2105
sg64
(lp2112
g57
(g66
g59
NtRp2113
(dp2114
g62
(dp2115
g70
I4
ssg71
Nsg64
(lp2116
sbasbasbasbag57
(g73
g59
NtRp2117
(dp2118
g62
(dp2119
sg71
g67
sg64
(lp2120
g57
(g78
g59
NtRp2121
(dp2122
g62
(dp2123
g82
g83
ssg71
g2117
sg64
(lp2124
S'raw_args'
p2125
asbag57
(g78
g59
NtRp2126
(dp2127
g62
(dp2128
g89
g90
ssg71
g2117
sg64
(lp2129
S':'
asbag57
(g78
g59
NtRp2130
(dp2131
g62
(dp2132
sg71
g2117
sg64
(lp2133
g57
(g58
g59
NtRp2134
(dp2135
g62
(dp2136
g70
I5
ssg71
g2130
sg64
(lp2137
S'1'
asbasbasbag57
(g73
g59
NtRp2138
(dp2139
g62
(dp2140
sg71
g67
sg64
(lp2141
g57
(g78
g59
NtRp2142
(dp2143
g62
(dp2144
g82
g83
ssg71
g2138
sg64
(lp2145
S'url'
p2146
asbag57
(g78
g59
NtRp2147
(dp2148
g62
(dp2149
g89
g90
ssg71
g2138
sg64
(lp2150
S':'
asbag57
(g78
g59
NtRp2151
(dp2152
g62
(dp2153
sg71
g2138
sg64
(lp2154
g57
(g58
g59
NtRp2155
(dp2156
g62
(dp2157
g70
I5
ssg71
g2151
sg64
(lp2158
S'/welcome/map_pool/show/1'
p2159
asbasbasbag57
(g73
g59
NtRp2160
(dp2161
g62
(dp2162
sg71
g67
sg64
(lp2163
g57
(g78
g59
NtRp2164
(dp2165
g62
(dp2166
g82
g83
ssg71
g2160
sg64
(lp2167
S'utcnow'
p2168
asbag57
(g78
g59
NtRp2169
(dp2170
g62
(dp2171
g89
g90
ssg71
g2160
sg64
(lp2172
S':'
asbag57
(g78
g59
NtRp2173
(dp2174
g62
(dp2175
sg71
g2160
sg64
(lp2176
g57
(g58
g59
NtRp2177
(dp2178
g62
(dp2179
g70
I5
ssg71
g2173
sg64
(lp2180
S'datetime.datetime(2012, 2, 13, 23, 12, 59, 996000)'
p2181
asbasbasbag57
(g73
g59
NtRp2182
(dp2183
g62
(dp2184
sg71
g67
sg64
(lp2185
g57
(g78
g59
NtRp2186
(dp2187
g62
(dp2188
g82
g83
ssg71
g2182
sg64
(lp2189
S'uuid'
p2190
asbag57
(g78
g59
NtRp2191
(dp2192
g62
(dp2193
g89
g90
ssg71
g2182
sg64
(lp2194
S':'
asbag57
(g78
g59
NtRp2195
(dp2196
g62
(dp2197
sg71
g2182
sg64
(lp2198
g57
(g58
g59
NtRp2199
(dp2200
g62
(dp2201
g70
I5
ssg71
g2195
sg64
(lp2202
S'welcome/127.0.0.1.2012-02-13.18-12-59.7a40bd13-8fd8-4d86-9de4-ca7690553d64'
p2203
asbasbasbag57
(g73
g59
NtRp2204
(dp2205
g62
(dp2206
sg71
g67
sg64
(lp2207
g57
(g78
g59
NtRp2208
(dp2209
g62
(dp2210
g82
g83
ssg71
g2204
sg64
(lp2211
S'vars'
p2212
asbag57
(g78
g59
NtRp2213
(dp2214
g62
(dp2215
g89
g90
ssg71
g2204
sg64
(lp2216
S':'
asbag57
(g78
g59
NtRp2217
(dp2218
g62
(dp2219
sg71
g2204
sg64
(lp2220
g57
(g58
g59
NtRp2221
(dp2222
g62
(dp2223
g70
I5
ssg71
g2217
sg64
(lp2224
g57
(g66
g59
NtRp2225
(dp2226
g62
(dp2227
g70
I4
ssg71
Nsg64
(lp2228
sbasbasbasbag57
(g73
g59
NtRp2229
(dp2230
g62
(dp2231
sg71
g67
sg64
(lp2232
g57
(g78
g59
NtRp2233
(dp2234
g62
(dp2235
g82
g83
ssg71
g2229
sg64
(lp2236
S'wsgi'
p2237
asbag57
(g78
g59
NtRp2238
(dp2239
g62
(dp2240
g89
g90
ssg71
g2229
sg64
(lp2241
S':'
asbag57
(g78
g59
NtRp2242
(dp2243
g62
(dp2244
sg71
g2229
sg64
(lp2245
g57
(g58
g59
NtRp2246
(dp2247
g62
(dp2248
g70
I5
ssg71
g2242
sg64
(lp2249
g57
(g66
g59
NtRp2250
(dp2251
g62
(dp2252
g70
I4
ssg71
Nsg64
(lp2253
g57
(g73
g59
NtRp2254
(dp2255
g62
(dp2256
sg71
g2250
sg64
(lp2257
g57
(g78
g59
NtRp2258
(dp2259
g62
(dp2260
g82
g83
ssg71
g2254
sg64
(lp2261
S'environ'
p2262
asbag57
(g78
g59
NtRp2263
(dp2264
g62
(dp2265
g89
g90
ssg71
g2254
sg64
(lp2266
S':'
asbag57
(g78
g59
NtRp2267
(dp2268
g62
(dp2269
sg71
g2254
sg64
(lp2270
g57
(g58
g59
NtRp2271
(dp2272
g62
(dp2273
g70
I4
ssg71
g2267
sg64
(lp2274
g57
(g66
g59
NtRp2275
(dp2276
g62
(dp2277
g70
I3
ssg71
Nsg64
(lp2278
g57
(g73
g59
NtRp2279
(dp2280
g62
(dp2281
sg71
g2275
sg64
(lp2282
g57
(g78
g59
NtRp2283
(dp2284
g62
(dp2285
g82
g83
ssg71
g2279
sg64
(lp2286
S'HTTP_ACCEPT'
p2287
asbag57
(g78
g59
NtRp2288
(dp2289
g62
(dp2290
g89
g90
ssg71
g2279
sg64
(lp2291
S':'
asbag57
(g78
g59
NtRp2292
(dp2293
g62
(dp2294
sg71
g2279
sg64
(lp2295
g57
(g58
g59
NtRp2296
(dp2297
g62
(dp2298
g70
I3
ssg71
g2292
sg64
(lp2299
g830
asbasbasbag57
(g73
g59
NtRp2300
(dp2301
g62
(dp2302
sg71
g2275
sg64
(lp2303
g57
(g78
g59
NtRp2304
(dp2305
g62
(dp2306
g82
g83
ssg71
g2300
sg64
(lp2307
S'HTTP_ACCEPT_CHARSET'
p2308
asbag57
(g78
g59
NtRp2309
(dp2310
g62
(dp2311
g89
g90
ssg71
g2300
sg64
(lp2312
S':'
asbag57
(g78
g59
NtRp2313
(dp2314
g62
(dp2315
sg71
g2300
sg64
(lp2316
g57
(g58
g59
NtRp2317
(dp2318
g62
(dp2319
g70
I3
ssg71
g2313
sg64
(lp2320
g852
asbasbasbag57
(g73
g59
NtRp2321
(dp2322
g62
(dp2323
sg71
g2275
sg64
(lp2324
g57
(g78
g59
NtRp2325
(dp2326
g62
(dp2327
g82
g83
ssg71
g2321
sg64
(lp2328
S'HTTP_ACCEPT_ENCODING'
p2329
asbag57
(g78
g59
NtRp2330
(dp2331
g62
(dp2332
g89
g90
ssg71
g2321
sg64
(lp2333
S':'
asbag57
(g78
g59
NtRp2334
(dp2335
g62
(dp2336
sg71
g2321
sg64
(lp2337
g57
(g58
g59
NtRp2338
(dp2339
g62
(dp2340
g70
I3
ssg71
g2334
sg64
(lp2341
g874
asbasbasbag57
(g73
g59
NtRp2342
(dp2343
g62
(dp2344
sg71
g2275
sg64
(lp2345
g57
(g78
g59
NtRp2346
(dp2347
g62
(dp2348
g82
g83
ssg71
g2342
sg64
(lp2349
S'HTTP_ACCEPT_LANGUAGE'
p2350
asbag57
(g78
g59
NtRp2351
(dp2352
g62
(dp2353
g89
g90
ssg71
g2342
sg64
(lp2354
S':'
asbag57
(g78
g59
NtRp2355
(dp2356
g62
(dp2357
sg71
g2342
sg64
(lp2358
g57
(g58
g59
NtRp2359
(dp2360
g62
(dp2361
g70
I3
ssg71
g2355
sg64
(lp2362
g896
asbasbasbag57
(g73
g59
NtRp2363
(dp2364
g62
(dp2365
sg71
g2275
sg64
(lp2366
g57
(g78
g59
NtRp2367
(dp2368
g62
(dp2369
g82
g83
ssg71
g2363
sg64
(lp2370
S'HTTP_CONNECTION'
p2371
asbag57
(g78
g59
NtRp2372
(dp2373
g62
(dp2374
g89
g90
ssg71
g2363
sg64
(lp2375
S':'
asbag57
(g78
g59
NtRp2376
(dp2377
g62
(dp2378
sg71
g2363
sg64
(lp2379
g57
(g58
g59
NtRp2380
(dp2381
g62
(dp2382
g70
I3
ssg71
g2376
sg64
(lp2383
g918
asbasbasbag57
(g73
g59
NtRp2384
(dp2385
g62
(dp2386
sg71
g2275
sg64
(lp2387
g57
(g78
g59
NtRp2388
(dp2389
g62
(dp2390
g82
g83
ssg71
g2384
sg64
(lp2391
S'HTTP_COOKIE'
p2392
asbag57
(g78
g59
NtRp2393
(dp2394
g62
(dp2395
g89
g90
ssg71
g2384
sg64
(lp2396
S':'
asbag57
(g78
g59
NtRp2397
(dp2398
g62
(dp2399
sg71
g2384
sg64
(lp2400
g57
(g58
g59
NtRp2401
(dp2402
g62
(dp2403
g70
I3
ssg71
g2397
sg64
(lp2404
g940
asbasbasbag57
(g73
g59
NtRp2405
(dp2406
g62
(dp2407
sg71
g2275
sg64
(lp2408
g57
(g78
g59
NtRp2409
(dp2410
g62
(dp2411
g82
g83
ssg71
g2405
sg64
(lp2412
S'HTTP_HOST'
p2413
asbag57
(g78
g59
NtRp2414
(dp2415
g62
(dp2416
g89
g90
ssg71
g2405
sg64
(lp2417
S':'
asbag57
(g78
g59
NtRp2418
(dp2419
g62
(dp2420
sg71
g2405
sg64
(lp2421
g57
(g58
g59
NtRp2422
(dp2423
g62
(dp2424
g70
I3
ssg71
g2418
sg64
(lp2425
g962
asbasbasbag57
(g73
g59
NtRp2426
(dp2427
g62
(dp2428
sg71
g2275
sg64
(lp2429
g57
(g78
g59
NtRp2430
(dp2431
g62
(dp2432
g82
g83
ssg71
g2426
sg64
(lp2433
S'HTTP_REFERER'
p2434
asbag57
(g78
g59
NtRp2435
(dp2436
g62
(dp2437
g89
g90
ssg71
g2426
sg64
(lp2438
S':'
asbag57
(g78
g59
NtRp2439
(dp2440
g62
(dp2441
sg71
g2426
sg64
(lp2442
g57
(g58
g59
NtRp2443
(dp2444
g62
(dp2445
g70
I3
ssg71
g2439
sg64
(lp2446
g984
asbasbasbag57
(g73
g59
NtRp2447
(dp2448
g62
(dp2449
sg71
g2275
sg64
(lp2450
g57
(g78
g59
NtRp2451
(dp2452
g62
(dp2453
g82
g83
ssg71
g2447
sg64
(lp2454
S'HTTP_USER_AGENT'
p2455
asbag57
(g78
g59
NtRp2456
(dp2457
g62
(dp2458
g89
g90
ssg71
g2447
sg64
(lp2459
S':'
asbag57
(g78
g59
NtRp2460
(dp2461
g62
(dp2462
sg71
g2447
sg64
(lp2463
g57
(g58
g59
NtRp2464
(dp2465
g62
(dp2466
g70
I3
ssg71
g2460
sg64
(lp2467
g1006
asbasbasbag57
(g73
g59
NtRp2468
(dp2469
g62
(dp2470
sg71
g2275
sg64
(lp2471
g57
(g78
g59
NtRp2472
(dp2473
g62
(dp2474
g82
g83
ssg71
g2468
sg64
(lp2475
S'PATH_INFO'
p2476
asbag57
(g78
g59
NtRp2477
(dp2478
g62
(dp2479
g89
g90
ssg71
g2468
sg64
(lp2480
S':'
asbag57
(g78
g59
NtRp2481
(dp2482
g62
(dp2483
sg71
g2468
sg64
(lp2484
g57
(g58
g59
NtRp2485
(dp2486
g62
(dp2487
g70
I3
ssg71
g2481
sg64
(lp2488
g1070
asbasbasbag57
(g73
g59
NtRp2489
(dp2490
g62
(dp2491
sg71
g2275
sg64
(lp2492
g57
(g78
g59
NtRp2493
(dp2494
g62
(dp2495
g82
g83
ssg71
g2489
sg64
(lp2496
S'QUERY_STRING'
p2497
asbag57
(g78
g59
NtRp2498
(dp2499
g62
(dp2500
g89
g90
ssg71
g2489
sg64
(lp2501
S':'
asbag57
(g78
g59
NtRp2502
(dp2503
g62
(dp2504
sg71
g2489
sg64
(lp2505
g57
(g58
g59
NtRp2506
(dp2507
g62
(dp2508
g70
I3
ssg71
g2502
sg64
(lp2509
S''
asbasbasbag57
(g73
g59
NtRp2510
(dp2511
g62
(dp2512
sg71
g2275
sg64
(lp2513
g57
(g78
g59
NtRp2514
(dp2515
g62
(dp2516
g82
g83
ssg71
g2510
sg64
(lp2517
S'REMOTE_ADDR'
p2518
asbag57
(g78
g59
NtRp2519
(dp2520
g62
(dp2521
g89
g90
ssg71
g2510
sg64
(lp2522
S':'
asbag57
(g78
g59
NtRp2523
(dp2524
g62
(dp2525
sg71
g2510
sg64
(lp2526
g57
(g58
g59
NtRp2527
(dp2528
g62
(dp2529
g70
I3
ssg71
g2523
sg64
(lp2530
g202
asbasbasbag57
(g73
g59
NtRp2531
(dp2532
g62
(dp2533
sg71
g2275
sg64
(lp2534
g57
(g78
g59
NtRp2535
(dp2536
g62
(dp2537
g82
g83
ssg71
g2531
sg64
(lp2538
S'REMOTE_PORT'
p2539
asbag57
(g78
g59
NtRp2540
(dp2541
g62
(dp2542
g89
g90
ssg71
g2531
sg64
(lp2543
S':'
asbag57
(g78
g59
NtRp2544
(dp2545
g62
(dp2546
sg71
g2531
sg64
(lp2547
g57
(g58
g59
NtRp2548
(dp2549
g62
(dp2550
g70
I3
ssg71
g2544
sg64
(lp2551
g1134
asbasbasbag57
(g73
g59
NtRp2552
(dp2553
g62
(dp2554
sg71
g2275
sg64
(lp2555
g57
(g78
g59
NtRp2556
(dp2557
g62
(dp2558
g82
g83
ssg71
g2552
sg64
(lp2559
S'REQUEST_METHOD'
p2560
asbag57
(g78
g59
NtRp2561
(dp2562
g62
(dp2563
g89
g90
ssg71
g2552
sg64
(lp2564
S':'
asbag57
(g78
g59
NtRp2565
(dp2566
g62
(dp2567
sg71
g2552
sg64
(lp2568
g57
(g58
g59
NtRp2569
(dp2570
g62
(dp2571
g70
I3
ssg71
g2565
sg64
(lp2572
g1156
asbasbasbag57
(g73
g59
NtRp2573
(dp2574
g62
(dp2575
sg71
g2275
sg64
(lp2576
g57
(g78
g59
NtRp2577
(dp2578
g62
(dp2579
g82
g83
ssg71
g2573
sg64
(lp2580
S'SCRIPT_NAME'
p2581
asbag57
(g78
g59
NtRp2582
(dp2583
g62
(dp2584
g89
g90
ssg71
g2573
sg64
(lp2585
S':'
asbag57
(g78
g59
NtRp2586
(dp2587
g62
(dp2588
sg71
g2573
sg64
(lp2589
g57
(g58
g59
NtRp2590
(dp2591
g62
(dp2592
g70
I3
ssg71
g2586
sg64
(lp2593
S''
asbasbasbag57
(g73
g59
NtRp2594
(dp2595
g62
(dp2596
sg71
g2275
sg64
(lp2597
g57
(g78
g59
NtRp2598
(dp2599
g62
(dp2600
g82
g83
ssg71
g2594
sg64
(lp2601
S'SERVER_NAME'
p2602
asbag57
(g78
g59
NtRp2603
(dp2604
g62
(dp2605
g89
g90
ssg71
g2594
sg64
(lp2606
S':'
asbag57
(g78
g59
NtRp2607
(dp2608
g62
(dp2609
sg71
g2594
sg64
(lp2610
g57
(g58
g59
NtRp2611
(dp2612
g62
(dp2613
g70
I3
ssg71
g2607
sg64
(lp2614
g1199
asbasbasbag57
(g73
g59
NtRp2615
(dp2616
g62
(dp2617
sg71
g2275
sg64
(lp2618
g57
(g78
g59
NtRp2619
(dp2620
g62
(dp2621
g82
g83
ssg71
g2615
sg64
(lp2622
S'SERVER_PORT'
p2623
asbag57
(g78
g59
NtRp2624
(dp2625
g62
(dp2626
g89
g90
ssg71
g2615
sg64
(lp2627
S':'
asbag57
(g78
g59
NtRp2628
(dp2629
g62
(dp2630
sg71
g2615
sg64
(lp2631
g57
(g58
g59
NtRp2632
(dp2633
g62
(dp2634
g70
I3
ssg71
g2628
sg64
(lp2635
g1221
asbasbasbag57
(g73
g59
NtRp2636
(dp2637
g62
(dp2638
sg71
g2275
sg64
(lp2639
g57
(g78
g59
NtRp2640
(dp2641
g62
(dp2642
g82
g83
ssg71
g2636
sg64
(lp2643
S'SERVER_PROTOCOL'
p2644
asbag57
(g78
g59
NtRp2645
(dp2646
g62
(dp2647
g89
g90
ssg71
g2636
sg64
(lp2648
S':'
asbag57
(g78
g59
NtRp2649
(dp2650
g62
(dp2651
sg71
g2636
sg64
(lp2652
g57
(g58
g59
NtRp2653
(dp2654
g62
(dp2655
g70
I3
ssg71
g2649
sg64
(lp2656
g1243
asbasbasbag57
(g73
g59
NtRp2657
(dp2658
g62
(dp2659
sg71
g2275
sg64
(lp2660
g57
(g78
g59
NtRp2661
(dp2662
g62
(dp2663
g82
g83
ssg71
g2657
sg64
(lp2664
S'SERVER_SOFTWARE'
p2665
asbag57
(g78
g59
NtRp2666
(dp2667
g62
(dp2668
g89
g90
ssg71
g2657
sg64
(lp2669
S':'
asbag57
(g78
g59
NtRp2670
(dp2671
g62
(dp2672
sg71
g2657
sg64
(lp2673
g57
(g58
g59
NtRp2674
(dp2675
g62
(dp2676
g70
I3
ssg71
g2670
sg64
(lp2677
g1265
asbasbasbag57
(g73
g59
NtRp2678
(dp2679
g62
(dp2680
sg71
g2275
sg64
(lp2681
g57
(g78
g59
NtRp2682
(dp2683
g62
(dp2684
g82
g83
ssg71
g2678
sg64
(lp2685
S'wsgi.errors'
p2686
asbag57
(g78
g59
NtRp2687
(dp2688
g62
(dp2689
g89
g90
ssg71
g2678
sg64
(lp2690
S':'
asbag57
(g78
g59
NtRp2691
(dp2692
g62
(dp2693
sg71
g2678
sg64
(lp2694
g57
(g58
g59
NtRp2695
(dp2696
g62
(dp2697
g70
I3
ssg71
g2691
sg64
(lp2698
S"<open file '<stderr>', mode 'w' at 0x0000000001DB61E0>"
p2699
asbasbasbag57
(g73
g59
NtRp2700
(dp2701
g62
(dp2702
sg71
g2275
sg64
(lp2703
g57
(g78
g59
NtRp2704
(dp2705
g62
(dp2706
g82
g83
ssg71
g2700
sg64
(lp2707
S'wsgi.file_wrapper'
p2708
asbag57
(g78
g59
NtRp2709
(dp2710
g62
(dp2711
g89
g90
ssg71
g2700
sg64
(lp2712
S':'
asbag57
(g78
g59
NtRp2713
(dp2714
g62
(dp2715
sg71
g2700
sg64
(lp2716
g57
(g58
g59
NtRp2717
(dp2718
g62
(dp2719
g70
I3
ssg71
g2713
sg64
(lp2720
S'<class wsgiref.util.FileWrapper at 0x00000000036DC948>'
p2721
asbasbasbag57
(g73
g59
NtRp2722
(dp2723
g62
(dp2724
sg71
g2275
sg64
(lp2725
g57
(g78
g59
NtRp2726
(dp2727
g62
(dp2728
g82
g83
ssg71
g2722
sg64
(lp2729
S'wsgi.input'
p2730
asbag57
(g78
g59
NtRp2731
(dp2732
g62
(dp2733
g89
g90
ssg71
g2722
sg64
(lp2734
S':'
asbag57
(g78
g59
NtRp2735
(dp2736
g62
(dp2737
sg71
g2722
sg64
(lp2738
g57
(g58
g59
NtRp2739
(dp2740
g62
(dp2741
g70
I3
ssg71
g2735
sg64
(lp2742
S'<cStringIO.StringO object at 0x0000000008429E68>'
p2743
asbasbasbag57
(g73
g59
NtRp2744
(dp2745
g62
(dp2746
sg71
g2275
sg64
(lp2747
g57
(g78
g59
NtRp2748
(dp2749
g62
(dp2750
g82
g83
ssg71
g2744
sg64
(lp2751
S'wsgi.multiprocess'
p2752
asbag57
(g78
g59
NtRp2753
(dp2754
g62
(dp2755
g89
g90
ssg71
g2744
sg64
(lp2756
S':'
asbag57
(g78
g59
NtRp2757
(dp2758
g62
(dp2759
sg71
g2744
sg64
(lp2760
g57
(g58
g59
NtRp2761
(dp2762
g62
(dp2763
g70
I3
ssg71
g2757
sg64
(lp2764
g100
asbasbasbag57
(g73
g59
NtRp2765
(dp2766
g62
(dp2767
sg71
g2275
sg64
(lp2768
g57
(g78
g59
NtRp2769
(dp2770
g62
(dp2771
g82
g83
ssg71
g2765
sg64
(lp2772
S'wsgi.multithread'
p2773
asbag57
(g78
g59
NtRp2774
(dp2775
g62
(dp2776
g89
g90
ssg71
g2765
sg64
(lp2777
S':'
asbag57
(g78
g59
NtRp2778
(dp2779
g62
(dp2780
sg71
g2765
sg64
(lp2781
g57
(g58
g59
NtRp2782
(dp2783
g62
(dp2784
g70
I3
ssg71
g2778
sg64
(lp2785
g1505
asbasbasbag57
(g73
g59
NtRp2786
(dp2787
g62
(dp2788
sg71
g2275
sg64
(lp2789
g57
(g78
g59
NtRp2790
(dp2791
g62
(dp2792
g82
g83
ssg71
g2786
sg64
(lp2793
S'wsgi.run_once'
p2794
asbag57
(g78
g59
NtRp2795
(dp2796
g62
(dp2797
g89
g90
ssg71
g2786
sg64
(lp2798
S':'
asbag57
(g78
g59
NtRp2799
(dp2800
g62
(dp2801
sg71
g2786
sg64
(lp2802
g57
(g58
g59
NtRp2803
(dp2804
g62
(dp2805
g70
I3
ssg71
g2799
sg64
(lp2806
g100
asbasbasbag57
(g73
g59
NtRp2807
(dp2808
g62
(dp2809
sg71
g2275
sg64
(lp2810
g57
(g78
g59
NtRp2811
(dp2812
g62
(dp2813
g82
g83
ssg71
g2807
sg64
(lp2814
S'wsgi.url_scheme'
p2815
asbag57
(g78
g59
NtRp2816
(dp2817
g62
(dp2818
g89
g90
ssg71
g2807
sg64
(lp2819
S':'
asbag57
(g78
g59
NtRp2820
(dp2821
g62
(dp2822
sg71
g2807
sg64
(lp2823
g57
(g58
g59
NtRp2824
(dp2825
g62
(dp2826
g70
I3
ssg71
g2820
sg64
(lp2827
g1548
asbasbasbag57
(g73
g59
NtRp2828
(dp2829
g62
(dp2830
sg71
g2275
sg64
(lp2831
g57
(g78
g59
NtRp2832
(dp2833
g62
(dp2834
g82
g83
ssg71
g2828
sg64
(lp2835
S'wsgi.version'
p2836
asbag57
(g78
g59
NtRp2837
(dp2838
g62
(dp2839
g89
g90
ssg71
g2828
sg64
(lp2840
S':'
asbag57
(g78
g59
NtRp2841
(dp2842
g62
(dp2843
sg71
g2828
sg64
(lp2844
g57
(g58
g59
NtRp2845
(dp2846
g62
(dp2847
g70
I3
ssg71
g2841
sg64
(lp2848
S'1'
asbasbasbasbasbasbasbasbasbasbasbasbasbsS'frames'
p2849
(lp2850
(dp2851
S'file'
p2852
S'C:\\Users\\mellinja\\Documents\\SC2Tracker\\SC2Tracker2\\web2py\\gluon\\restricted.py'
p2853
sS'dump'
p2854
(dp2855
S'environment'
p2856
S"{'A': <class 'gluon.html.A'>, 'Auth': <class 'gluon.tools.Auth'>, 'B': <class 'gluon.html.B'>, 'BEAUTIFY': <class 'gluon.html.BEAUTIFY'>, 'BODY': <class 'gluon.html.BODY'>, 'BR': <class 'gluon.html.BR'>, 'BUTTON': <class 'gluon.html.BUTTON'>, 'CAT': <class 'gluon.html.CAT'>, 'CENTER': <class 'gluon.html.CENTER'>, 'CLEANUP': <class 'gluon.validators.CLEANUP'>, ...}"
p2857
sS'ccode'
p2858
S'<code object <module> at 0000000008609930, file ...ations\\welcome\\views\\map_pool/show.html", line 1>'
p2859
ssS'lnum'
p2860
I204
sS'lines'
p2861
(dp2862
I199
S'    try:'
p2863
sI200
S'        if type(code) == types.CodeType:'
p2864
sI201
S'            ccode = code'
p2865
sI202
S'        else:'
p2866
sI203
S'            ccode = compile2(code,layer)'
p2867
sI204
S'        exec ccode in environment'
p2868
sI205
S'    except HTTP:'
p2869
sI206
S'        raise'
p2870
sI207
S'    except RestrictedError:'
p2871
sI208
S'        # do not encapsulate (obfuscate) the original RestrictedError'
p2872
ssS'call'
p2873
S'(code=r"response.write(\'<!DOCTYPE html>\\r\\n<!-- pauliris...write(\'\\r\\n</body>\\r\\n</html>\\r\\n\', escape=False)", environment={\'A\': <class \'gluon.html.A\'>, \'Auth\': <class \'gluon.tools.Auth\'>, \'B\': <class \'gluon.html.B\'>, \'BEAUTIFY\': <class \'gluon.html.BEAUTIFY\'>, \'BODY\': <class \'gluon.html.BODY\'>, \'BR\': <class \'gluon.html.BR\'>, \'BUTTON\': <class \'gluon.html.BUTTON\'>, \'CAT\': <class \'gluon.html.CAT\'>, \'CENTER\': <class \'gluon.html.CENTER\'>, \'CLEANUP\': <class \'gluon.validators.CLEANUP\'>, ...}, layer=r\'C:\\Users\\mellinja\\Documents\\SC2Tracker\\SC2Tracke...2py\\applications\\welcome\\views\\map_pool/show.html\')'
p2874
sS'func'
p2875
S'restricted'
p2876
sa(dp2877
g2852
S'C:\\Users\\mellinja\\Documents\\SC2Tracker\\SC2Tracker2\\web2py\\applications\\welcome\\views\\map_pool\\show.html'
p2878
sg2854
(dp2879
sg2860
I76
sg2861
(dp2880
I67
S'    response.write(\'\\r\\n        <div class="four columns left-sidebar">\\r\\n          \', escape=False)'
p2881
sI68
S"    response.write('\\r\\n          <h3>Left Sidebar</h3>\\r\\n          <p></p>\\r\\n          ', escape=False)"
p2882
sI69
S"    response.write('\\r\\n        </div>\\r\\n        ', escape=False)"
p2883
sI70
S'    pass'
p2884
sI71
S'response.write(\'\\r\\n        \\r\\n        <div class="\', escape=False)'
p2885
sI72
S'response.write(middle_columns)'
p2886
sI73
S'response.write(\' columns center">\\r\\n          \', escape=False)'
p2887
sI74
S"response.write('\\r\\n          ', escape=False)"
p2888
sI75
S"response.write('\\r\\n<h1>', escape=False)"
p2889
sI76
S'response.write(T("These are the maps in " + db.executesql("SELECT Name from Map_pool WHERE ID = " + str(poolID))[0]))'
p2890
sI77
S"response.write('</h1>\\r\\n', escape=False)"
p2891
sI78
S"response.write('\\r\\n          ', escape=False)"
p2892
sI79
S"response.write('\\r\\n        </div>\\r\\n        \\r\\n        ', escape=False)"
p2893
sI80
S'if right_sidebar_enabled:'
p2894
sI81
S'    response.write(\'\\r\\n        <div class="four columns">\\r\\n          \', escape=False)'
p2895
sI82
S"    response.write('\\r\\n          <h3>Right Sidebar</h3>\\r\\n          <p></p>\\r\\n          ', escape=False)"
p2896
sI83
S"    response.write('\\r\\n        </div>    \\r\\n        ', escape=False)"
p2897
sI84
S'    pass'
p2898
sI85
S'response.write(\'\\r\\n        \\r\\n      </div><!-- container -->\\r\\n    </div><!-- main -->\\r\\n    \\r\\n    <div class="push"></div>\\r\\n  </div><!-- wrapper -->\\r\\n\\r\\n  <div class="footer">\\r\\n    <div class="container">    \\r\\n      <div class="sixteen columns">\\r\\n        \', escape=False)'
p2899
sI86
S'response.write(\' <!-- this is default footer -->\\r\\n        <div class="footer-content clearfix">\\r\\n          <div class="copyright">\\r\\n\\t\\t\\t  \', escape=False)'
p2900
ssg2873
S'()'
p2901
sg2875
S'<module>'
p2902
sasS'pyver'
p2903
S'Python 2.7.2: C:\\Python27\\python.exe'
p2904
sS'session'
p2905
g57
(g58
g59
NtRp2906
(dp2907
g62
(dp2908
sg64
(lp2909
g57
(g66
g59
NtRp2910
(dp2911
g62
(dp2912
g70
I5
ssg71
Nsg64
(lp2913
g57
(g73
g59
NtRp2914
(dp2915
g62
(dp2916
sg71
g2910
sg64
(lp2917
g57
(g78
g59
NtRp2918
(dp2919
g62
(dp2920
g82
g83
ssg71
g2914
sg64
(lp2921
S'auth'
p2922
asbag57
(g78
g59
NtRp2923
(dp2924
g62
(dp2925
g89
g90
ssg71
g2914
sg64
(lp2926
S':'
asbag57
(g78
g59
NtRp2927
(dp2928
g62
(dp2929
sg71
g2914
sg64
(lp2930
g57
(g58
g59
NtRp2931
(dp2932
g62
(dp2933
g70
I5
ssg71
g2927
sg64
(lp2934
g57
(g66
g59
NtRp2935
(dp2936
g62
(dp2937
g70
I4
ssg71
Nsg64
(lp2938
g57
(g73
g59
NtRp2939
(dp2940
g62
(dp2941
sg71
g2935
sg64
(lp2942
g57
(g78
g59
NtRp2943
(dp2944
g62
(dp2945
g82
g83
ssg71
g2939
sg64
(lp2946
S'expiration'
p2947
asbag57
(g78
g59
NtRp2948
(dp2949
g62
(dp2950
g89
g90
ssg71
g2939
sg64
(lp2951
S':'
asbag57
(g78
g59
NtRp2952
(dp2953
g62
(dp2954
sg71
g2939
sg64
(lp2955
g57
(g58
g59
NtRp2956
(dp2957
g62
(dp2958
g70
I4
ssg71
g2952
sg64
(lp2959
S'2592000'
p2960
asbasbasbag57
(g73
g59
NtRp2961
(dp2962
g62
(dp2963
sg71
g2935
sg64
(lp2964
g57
(g78
g59
NtRp2965
(dp2966
g62
(dp2967
g82
g83
ssg71
g2961
sg64
(lp2968
S'hmac_key'
p2969
asbag57
(g78
g59
NtRp2970
(dp2971
g62
(dp2972
g89
g90
ssg71
g2961
sg64
(lp2973
S':'
asbag57
(g78
g59
NtRp2974
(dp2975
g62
(dp2976
sg71
g2961
sg64
(lp2977
g57
(g58
g59
NtRp2978
(dp2979
g62
(dp2980
g70
I4
ssg71
g2974
sg64
(lp2981
S'a71f6278-c921-48c8-9b42-960b6738cfbd'
p2982
asbasbasbag57
(g73
g59
NtRp2983
(dp2984
g62
(dp2985
sg71
g2935
sg64
(lp2986
g57
(g78
g59
NtRp2987
(dp2988
g62
(dp2989
g82
g83
ssg71
g2983
sg64
(lp2990
S'last_visit'
p2991
asbag57
(g78
g59
NtRp2992
(dp2993
g62
(dp2994
g89
g90
ssg71
g2983
sg64
(lp2995
S':'
asbag57
(g78
g59
NtRp2996
(dp2997
g62
(dp2998
sg71
g2983
sg64
(lp2999
g57
(g58
g59
NtRp3000
(dp3001
g62
(dp3002
g70
I4
ssg71
g2996
sg64
(lp3003
S'datetime.datetime(2012, 2, 13, 17, 53, 14, 371000)'
p3004
asbasbasbag57
(g73
g59
NtRp3005
(dp3006
g62
(dp3007
sg71
g2935
sg64
(lp3008
g57
(g78
g59
NtRp3009
(dp3010
g62
(dp3011
g82
g83
ssg71
g3005
sg64
(lp3012
S'remember'
p3013
asbag57
(g78
g59
NtRp3014
(dp3015
g62
(dp3016
g89
g90
ssg71
g3005
sg64
(lp3017
S':'
asbag57
(g78
g59
NtRp3018
(dp3019
g62
(dp3020
sg71
g3005
sg64
(lp3021
g57
(g58
g59
NtRp3022
(dp3023
g62
(dp3024
g70
I4
ssg71
g3018
sg64
(lp3025
g100
asbasbasbag57
(g73
g59
NtRp3026
(dp3027
g62
(dp3028
sg71
g2935
sg64
(lp3029
g57
(g78
g59
NtRp3030
(dp3031
g62
(dp3032
g82
g83
ssg71
g3026
sg64
(lp3033
S'user'
p3034
asbag57
(g78
g59
NtRp3035
(dp3036
g62
(dp3037
g89
g90
ssg71
g3026
sg64
(lp3038
S':'
asbag57
(g78
g59
NtRp3039
(dp3040
g62
(dp3041
sg71
g3026
sg64
(lp3042
g57
(g58
g59
NtRp3043
(dp3044
g62
(dp3045
g70
I4
ssg71
g3039
sg64
(lp3046
g57
(g66
g59
NtRp3047
(dp3048
g62
(dp3049
g70
I3
ssg71
Nsg64
(lp3050
g57
(g73
g59
NtRp3051
(dp3052
g62
(dp3053
sg71
g3047
sg64
(lp3054
g57
(g78
g59
NtRp3055
(dp3056
g62
(dp3057
g82
g83
ssg71
g3051
sg64
(lp3058
S'email'
p3059
asbag57
(g78
g59
NtRp3060
(dp3061
g62
(dp3062
g89
g90
ssg71
g3051
sg64
(lp3063
S':'
asbag57
(g78
g59
NtRp3064
(dp3065
g62
(dp3066
sg71
g3051
sg64
(lp3067
g57
(g58
g59
NtRp3068
(dp3069
g62
(dp3070
g70
I3
ssg71
g3064
sg64
(lp3071
S'mellinja@gmail.com'
p3072
asbasbasbag57
(g73
g59
NtRp3073
(dp3074
g62
(dp3075
sg71
g3047
sg64
(lp3076
g57
(g78
g59
NtRp3077
(dp3078
g62
(dp3079
g82
g83
ssg71
g3073
sg64
(lp3080
S'first_name'
p3081
asbag57
(g78
g59
NtRp3082
(dp3083
g62
(dp3084
g89
g90
ssg71
g3073
sg64
(lp3085
S':'
asbag57
(g78
g59
NtRp3086
(dp3087
g62
(dp3088
sg71
g3073
sg64
(lp3089
g57
(g58
g59
NtRp3090
(dp3091
g62
(dp3092
g70
I3
ssg71
g3086
sg64
(lp3093
S'Jackson'
p3094
asbasbasbag57
(g73
g59
NtRp3095
(dp3096
g62
(dp3097
sg71
g3047
sg64
(lp3098
g57
(g78
g59
NtRp3099
(dp3100
g62
(dp3101
g82
g83
ssg71
g3095
sg64
(lp3102
S'id'
p3103
asbag57
(g78
g59
NtRp3104
(dp3105
g62
(dp3106
g89
g90
ssg71
g3095
sg64
(lp3107
S':'
asbag57
(g78
g59
NtRp3108
(dp3109
g62
(dp3110
sg71
g3095
sg64
(lp3111
g57
(g58
g59
NtRp3112
(dp3113
g62
(dp3114
g70
I3
ssg71
g3108
sg64
(lp3115
S'3'
asbasbasbag57
(g73
g59
NtRp3116
(dp3117
g62
(dp3118
sg71
g3047
sg64
(lp3119
g57
(g78
g59
NtRp3120
(dp3121
g62
(dp3122
g82
g83
ssg71
g3116
sg64
(lp3123
S'last_name'
p3124
asbag57
(g78
g59
NtRp3125
(dp3126
g62
(dp3127
g89
g90
ssg71
g3116
sg64
(lp3128
S':'
asbag57
(g78
g59
NtRp3129
(dp3130
g62
(dp3131
sg71
g3116
sg64
(lp3132
g57
(g58
g59
NtRp3133
(dp3134
g62
(dp3135
g70
I3
ssg71
g3129
sg64
(lp3136
S'Melling'
p3137
asbasbasbag57
(g73
g59
NtRp3138
(dp3139
g62
(dp3140
sg71
g3047
sg64
(lp3141
g57
(g78
g59
NtRp3142
(dp3143
g62
(dp3144
g82
g83
ssg71
g3138
sg64
(lp3145
S'password'
p3146
asbag57
(g78
g59
NtRp3147
(dp3148
g62
(dp3149
g89
g90
ssg71
g3138
sg64
(lp3150
S':'
asbag57
(g78
g59
NtRp3151
(dp3152
g62
(dp3153
sg71
g3138
sg64
(lp3154
g57
(g58
g59
NtRp3155
(dp3156
g62
(dp3157
g70
I3
ssg71
g3151
sg64
(lp3158
S'98beeff9538312abb10179bd86e0a5a2'
p3159
asbasbasbag57
(g73
g59
NtRp3160
(dp3161
g62
(dp3162
sg71
g3047
sg64
(lp3163
g57
(g78
g59
NtRp3164
(dp3165
g62
(dp3166
g82
g83
ssg71
g3160
sg64
(lp3167
S'registration_id'
p3168
asbag57
(g78
g59
NtRp3169
(dp3170
g62
(dp3171
g89
g90
ssg71
g3160
sg64
(lp3172
S':'
asbag57
(g78
g59
NtRp3173
(dp3174
g62
(dp3175
sg71
g3160
sg64
(lp3176
g57
(g58
g59
NtRp3177
(dp3178
g62
(dp3179
g70
I3
ssg71
g3173
sg64
(lp3180
S''
asbasbasbag57
(g73
g59
NtRp3181
(dp3182
g62
(dp3183
sg71
g3047
sg64
(lp3184
g57
(g78
g59
NtRp3185
(dp3186
g62
(dp3187
g82
g83
ssg71
g3181
sg64
(lp3188
S'registration_key'
p3189
asbag57
(g78
g59
NtRp3190
(dp3191
g62
(dp3192
g89
g90
ssg71
g3181
sg64
(lp3193
S':'
asbag57
(g78
g59
NtRp3194
(dp3195
g62
(dp3196
sg71
g3181
sg64
(lp3197
g57
(g58
g59
NtRp3198
(dp3199
g62
(dp3200
g70
I3
ssg71
g3194
sg64
(lp3201
S''
asbasbasbag57
(g73
g59
NtRp3202
(dp3203
g62
(dp3204
sg71
g3047
sg64
(lp3205
g57
(g78
g59
NtRp3206
(dp3207
g62
(dp3208
g82
g83
ssg71
g3202
sg64
(lp3209
S'reset_password_key'
p3210
asbag57
(g78
g59
NtRp3211
(dp3212
g62
(dp3213
g89
g90
ssg71
g3202
sg64
(lp3214
S':'
asbag57
(g78
g59
NtRp3215
(dp3216
g62
(dp3217
sg71
g3202
sg64
(lp3218
g57
(g58
g59
NtRp3219
(dp3220
g62
(dp3221
g70
I3
ssg71
g3215
sg64
(lp3222
S'1327597193-2590f763-191b-469c-bc47-fc293ee83460'
p3223
asbasbasbasbasbasbasbasbasbasbasbag57
(g73
g59
NtRp3224
(dp3225
g62
(dp3226
sg71
g2910
sg64
(lp3227
g57
(g78
g59
NtRp3228
(dp3229
g62
(dp3230
g82
g83
ssg71
g3224
sg64
(lp3231
S'last_query'
p3232
asbag57
(g78
g59
NtRp3233
(dp3234
g62
(dp3235
g89
g90
ssg71
g3224
sg64
(lp3236
S':'
asbag57
(g78
g59
NtRp3237
(dp3238
g62
(dp3239
sg71
g3224
sg64
(lp3240
g57
(g58
g59
NtRp3241
(dp3242
g62
(dp3243
g70
I5
ssg71
g3237
sg64
(lp3244
S'db.Map_to_Map_Pool.id>0'
p3245
asbasbasbasbasbsS'etype'
p3246
S"<type 'exceptions.TypeError'>"
p3247
sS'date'
p3248
S'Mon Feb 13 18:13:00 2012'
p3249
sS'response'
p3250
g57
(g58
g59
NtRp3251
(dp3252
g62
(dp3253
sg64
(lp3254
g57
(g66
g59
NtRp3255
(dp3256
g62
(dp3257
g70
I5
ssg71
Nsg64
(lp3258
g57
(g73
g59
NtRp3259
(dp3260
g62
(dp3261
sg71
g3255
sg64
(lp3262
g57
(g78
g59
NtRp3263
(dp3264
g62
(dp3265
g82
g83
ssg71
g3259
sg64
(lp3266
g167
asbag57
(g78
g59
NtRp3267
(dp3268
g62
(dp3269
g89
g90
ssg71
g3259
sg64
(lp3270
S':'
asbag57
(g78
g59
NtRp3271
(dp3272
g62
(dp3273
sg71
g3259
sg64
(lp3274
g57
(g58
g59
NtRp3275
(dp3276
g62
(dp3277
g70
I5
ssg71
g3271
sg64
(lp3278
S'<cStringIO.StringO object at 0x00000000085F56F8>'
p3279
asbasbasbag57
(g73
g59
NtRp3280
(dp3281
g62
(dp3282
sg71
g3255
sg64
(lp3283
g57
(g78
g59
NtRp3284
(dp3285
g62
(dp3286
g82
g83
ssg71
g3280
sg64
(lp3287
g233
asbag57
(g78
g59
NtRp3288
(dp3289
g62
(dp3290
g89
g90
ssg71
g3280
sg64
(lp3291
S':'
asbag57
(g78
g59
NtRp3292
(dp3293
g62
(dp3294
sg71
g3280
sg64
(lp3295
g57
(g58
g59
NtRp3296
(dp3297
g62
(dp3298
g70
I5
ssg71
g3292
sg64
(lp3299
g57
(g66
g59
NtRp3300
(dp3301
g62
(dp3302
g70
I4
ssg71
Nsg64
(lp3303
g57
(g73
g59
NtRp3304
(dp3305
g62
(dp3306
sg71
g3300
sg64
(lp3307
g57
(g78
g59
NtRp3308
(dp3309
g62
(dp3310
g82
g83
ssg71
g3304
sg64
(lp3311
S'session_id_welcome'
p3312
asbag57
(g78
g59
NtRp3313
(dp3314
g62
(dp3315
g89
g90
ssg71
g3304
sg64
(lp3316
S':'
asbag57
(g78
g59
NtRp3317
(dp3318
g62
(dp3319
sg71
g3304
sg64
(lp3320
g57
(g58
g59
NtRp3321
(dp3322
g62
(dp3323
g70
I4
ssg71
g3317
sg64
(lp3324
g57
(g66
g59
NtRp3325
(dp3326
g62
(dp3327
g70
I3
ssg71
Nsg64
(lp3328
g57
(g73
g59
NtRp3329
(dp3330
g62
(dp3331
sg71
g3325
sg64
(lp3332
g57
(g78
g59
NtRp3333
(dp3334
g62
(dp3335
g82
g83
ssg71
g3329
sg64
(lp3336
g283
asbag57
(g78
g59
NtRp3337
(dp3338
g62
(dp3339
g89
g90
ssg71
g3329
sg64
(lp3340
S':'
asbag57
(g78
g59
NtRp3341
(dp3342
g62
(dp3343
sg71
g3329
sg64
(lp3344
g57
(g58
g59
NtRp3345
(dp3346
g62
(dp3347
g70
I3
ssg71
g3341
sg64
(lp3348
S''
asbasbasbag57
(g73
g59
NtRp3349
(dp3350
g62
(dp3351
sg71
g3325
sg64
(lp3352
g57
(g78
g59
NtRp3353
(dp3354
g62
(dp3355
g82
g83
ssg71
g3349
sg64
(lp3356
g304
asbag57
(g78
g59
NtRp3357
(dp3358
g62
(dp3359
g89
g90
ssg71
g3349
sg64
(lp3360
S':'
asbag57
(g78
g59
NtRp3361
(dp3362
g62
(dp3363
sg71
g3349
sg64
(lp3364
g57
(g58
g59
NtRp3365
(dp3366
g62
(dp3367
g70
I3
ssg71
g3361
sg64
(lp3368
S''
asbasbasbag57
(g73
g59
NtRp3369
(dp3370
g62
(dp3371
sg71
g3325
sg64
(lp3372
g57
(g78
g59
NtRp3373
(dp3374
g62
(dp3375
g82
g83
ssg71
g3369
sg64
(lp3376
g325
asbag57
(g78
g59
NtRp3377
(dp3378
g62
(dp3379
g89
g90
ssg71
g3369
sg64
(lp3380
S':'
asbag57
(g78
g59
NtRp3381
(dp3382
g62
(dp3383
sg71
g3369
sg64
(lp3384
g57
(g58
g59
NtRp3385
(dp3386
g62
(dp3387
g70
I3
ssg71
g3381
sg64
(lp3388
S''
asbasbasbag57
(g73
g59
NtRp3389
(dp3390
g62
(dp3391
sg71
g3325
sg64
(lp3392
g57
(g78
g59
NtRp3393
(dp3394
g62
(dp3395
g82
g83
ssg71
g3389
sg64
(lp3396
g346
asbag57
(g78
g59
NtRp3397
(dp3398
g62
(dp3399
g89
g90
ssg71
g3389
sg64
(lp3400
S':'
asbag57
(g78
g59
NtRp3401
(dp3402
g62
(dp3403
sg71
g3389
sg64
(lp3404
g57
(g58
g59
NtRp3405
(dp3406
g62
(dp3407
g70
I3
ssg71
g3401
sg64
(lp3408
S''
asbasbasbag57
(g73
g59
NtRp3409
(dp3410
g62
(dp3411
sg71
g3325
sg64
(lp3412
g57
(g78
g59
NtRp3413
(dp3414
g62
(dp3415
g82
g83
ssg71
g3409
sg64
(lp3416
g367
asbag57
(g78
g59
NtRp3417
(dp3418
g62
(dp3419
g89
g90
ssg71
g3409
sg64
(lp3420
S':'
asbag57
(g78
g59
NtRp3421
(dp3422
g62
(dp3423
sg71
g3409
sg64
(lp3424
g57
(g58
g59
NtRp3425
(dp3426
g62
(dp3427
g70
I3
ssg71
g3421
sg64
(lp3428
S''
asbasbasbag57
(g73
g59
NtRp3429
(dp3430
g62
(dp3431
sg71
g3325
sg64
(lp3432
g57
(g78
g59
NtRp3433
(dp3434
g62
(dp3435
g82
g83
ssg71
g3429
sg64
(lp3436
g388
asbag57
(g78
g59
NtRp3437
(dp3438
g62
(dp3439
g89
g90
ssg71
g3429
sg64
(lp3440
S':'
asbag57
(g78
g59
NtRp3441
(dp3442
g62
(dp3443
sg71
g3429
sg64
(lp3444
g57
(g58
g59
NtRp3445
(dp3446
g62
(dp3447
g70
I3
ssg71
g3441
sg64
(lp3448
S'/'
asbasbasbag57
(g73
g59
NtRp3449
(dp3450
g62
(dp3451
sg71
g3325
sg64
(lp3452
g57
(g78
g59
NtRp3453
(dp3454
g62
(dp3455
g82
g83
ssg71
g3449
sg64
(lp3456
g409
asbag57
(g78
g59
NtRp3457
(dp3458
g62
(dp3459
g89
g90
ssg71
g3449
sg64
(lp3460
S':'
asbag57
(g78
g59
NtRp3461
(dp3462
g62
(dp3463
sg71
g3449
sg64
(lp3464
g57
(g58
g59
NtRp3465
(dp3466
g62
(dp3467
g70
I3
ssg71
g3461
sg64
(lp3468
S''
asbasbasbag57
(g73
g59
NtRp3469
(dp3470
g62
(dp3471
sg71
g3325
sg64
(lp3472
g57
(g78
g59
NtRp3473
(dp3474
g62
(dp3475
g82
g83
ssg71
g3469
sg64
(lp3476
g430
asbag57
(g78
g59
NtRp3477
(dp3478
g62
(dp3479
g89
g90
ssg71
g3469
sg64
(lp3480
S':'
asbag57
(g78
g59
NtRp3481
(dp3482
g62
(dp3483
sg71
g3469
sg64
(lp3484
g57
(g58
g59
NtRp3485
(dp3486
g62
(dp3487
g70
I3
ssg71
g3481
sg64
(lp3488
S''
asbasbasbasbasbasbasbasbasbasbasbag57
(g73
g59
NtRp3489
(dp3490
g62
(dp3491
sg71
g3255
sg64
(lp3492
g57
(g78
g59
NtRp3493
(dp3494
g62
(dp3495
g82
g83
ssg71
g3489
sg64
(lp3496
S'files'
p3497
asbag57
(g78
g59
NtRp3498
(dp3499
g62
(dp3500
g89
g90
ssg71
g3489
sg64
(lp3501
S':'
asbag57
(g78
g59
NtRp3502
(dp3503
g62
(dp3504
sg71
g3489
sg64
(lp3505
g57
(g58
g59
NtRp3506
(dp3507
g62
(dp3508
g70
I5
ssg71
g3502
sg64
(lp3509
g57
(g66
g59
NtRp3510
(dp3511
g62
(dp3512
g70
I4
ssg71
Nsg64
(lp3513
g57
(g73
g59
NtRp3514
(dp3515
g62
(dp3516
sg71
g3510
sg64
(lp3517
g57
(g78
g59
NtRp3518
(dp3519
g62
(dp3520
sg71
g3514
sg64
(lp3521
g57
(g58
g59
NtRp3522
(dp3523
g62
(dp3524
g70
I4
ssg71
g3518
sg64
(lp3525
S'/welcome/static/js/jquery.js'
p3526
asbasbasbag57
(g73
g59
NtRp3527
(dp3528
g62
(dp3529
sg71
g3510
sg64
(lp3530
g57
(g78
g59
NtRp3531
(dp3532
g62
(dp3533
sg71
g3527
sg64
(lp3534
g57
(g58
g59
NtRp3535
(dp3536
g62
(dp3537
g70
I4
ssg71
g3531
sg64
(lp3538
S'/welcome/static/css/calendar.css'
p3539
asbasbasbag57
(g73
g59
NtRp3540
(dp3541
g62
(dp3542
sg71
g3510
sg64
(lp3543
g57
(g78
g59
NtRp3544
(dp3545
g62
(dp3546
sg71
g3540
sg64
(lp3547
g57
(g58
g59
NtRp3548
(dp3549
g62
(dp3550
g70
I4
ssg71
g3544
sg64
(lp3551
S'/welcome/static/js/calendar.js'
p3552
asbasbasbag57
(g73
g59
NtRp3553
(dp3554
g62
(dp3555
sg71
g3510
sg64
(lp3556
g57
(g78
g59
NtRp3557
(dp3558
g62
(dp3559
sg71
g3553
sg64
(lp3560
g57
(g58
g59
NtRp3561
(dp3562
g62
(dp3563
g70
I4
ssg71
g3557
sg64
(lp3564
S'/welcome/static/js/web2py.js'
p3565
asbasbasbag57
(g73
g59
NtRp3566
(dp3567
g62
(dp3568
sg71
g3510
sg64
(lp3569
g57
(g78
g59
NtRp3570
(dp3571
g62
(dp3572
sg71
g3566
sg64
(lp3573
g57
(g58
g59
NtRp3574
(dp3575
g62
(dp3576
g70
I4
ssg71
g3570
sg64
(lp3577
S'/welcome/static/css/skeleton.css'
p3578
asbasbasbag57
(g73
g59
NtRp3579
(dp3580
g62
(dp3581
sg71
g3510
sg64
(lp3582
g57
(g78
g59
NtRp3583
(dp3584
g62
(dp3585
sg71
g3579
sg64
(lp3586
g57
(g58
g59
NtRp3587
(dp3588
g62
(dp3589
g70
I4
ssg71
g3583
sg64
(lp3590
S'/welcome/static/css/web2py.css'
p3591
asbasbasbag57
(g73
g59
NtRp3592
(dp3593
g62
(dp3594
sg71
g3510
sg64
(lp3595
g57
(g78
g59
NtRp3596
(dp3597
g62
(dp3598
sg71
g3592
sg64
(lp3599
g57
(g58
g59
NtRp3600
(dp3601
g62
(dp3602
g70
I4
ssg71
g3596
sg64
(lp3603
S'/welcome/static/css/superfish.css'
p3604
asbasbasbag57
(g73
g59
NtRp3605
(dp3606
g62
(dp3607
sg71
g3510
sg64
(lp3608
g57
(g78
g59
NtRp3609
(dp3610
g62
(dp3611
sg71
g3605
sg64
(lp3612
g57
(g58
g59
NtRp3613
(dp3614
g62
(dp3615
g70
I4
ssg71
g3609
sg64
(lp3616
S'/welcome/static/js/superfish.js'
p3617
asbasbasbasbasbasbasbag57
(g73
g59
NtRp3618
(dp3619
g62
(dp3620
sg71
g3255
sg64
(lp3621
g57
(g78
g59
NtRp3622
(dp3623
g62
(dp3624
g82
g83
ssg71
g3618
sg64
(lp3625
S'flash'
p3626
asbag57
(g78
g59
NtRp3627
(dp3628
g62
(dp3629
g89
g90
ssg71
g3618
sg64
(lp3630
S':'
asbag57
(g78
g59
NtRp3631
(dp3632
g62
(dp3633
sg71
g3618
sg64
(lp3634
g57
(g58
g59
NtRp3635
(dp3636
g62
(dp3637
g70
I5
ssg71
g3631
sg64
(lp3638
S''
asbasbasbag57
(g73
g59
NtRp3639
(dp3640
g62
(dp3641
sg71
g3255
sg64
(lp3642
g57
(g78
g59
NtRp3643
(dp3644
g62
(dp3645
g82
g83
ssg71
g3639
sg64
(lp3646
S'generic_patterns'
p3647
asbag57
(g78
g59
NtRp3648
(dp3649
g62
(dp3650
g89
g90
ssg71
g3639
sg64
(lp3651
S':'
asbag57
(g78
g59
NtRp3652
(dp3653
g62
(dp3654
sg71
g3639
sg64
(lp3655
g57
(g58
g59
NtRp3656
(dp3657
g62
(dp3658
g70
I5
ssg71
g3652
sg64
(lp3659
g57
(g66
g59
NtRp3660
(dp3661
g62
(dp3662
g70
I4
ssg71
Nsg64
(lp3663
g57
(g73
g59
NtRp3664
(dp3665
g62
(dp3666
sg71
g3660
sg64
(lp3667
g57
(g78
g59
NtRp3668
(dp3669
g62
(dp3670
sg71
g3664
sg64
(lp3671
g57
(g58
g59
NtRp3672
(dp3673
g62
(dp3674
g70
I4
ssg71
g3668
sg64
(lp3675
S'*'
asbasbasbasbasbasbasbag57
(g73
g59
NtRp3676
(dp3677
g62
(dp3678
sg71
g3255
sg64
(lp3679
g57
(g78
g59
NtRp3680
(dp3681
g62
(dp3682
g82
g83
ssg71
g3676
sg64
(lp3683
S'headers'
p3684
asbag57
(g78
g59
NtRp3685
(dp3686
g62
(dp3687
g89
g90
ssg71
g3676
sg64
(lp3688
S':'
asbag57
(g78
g59
NtRp3689
(dp3690
g62
(dp3691
sg71
g3676
sg64
(lp3692
g57
(g58
g59
NtRp3693
(dp3694
g62
(dp3695
g70
I5
ssg71
g3689
sg64
(lp3696
g57
(g66
g59
NtRp3697
(dp3698
g62
(dp3699
g70
I4
ssg71
Nsg64
(lp3700
g57
(g73
g59
NtRp3701
(dp3702
g62
(dp3703
sg71
g3697
sg64
(lp3704
g57
(g78
g59
NtRp3705
(dp3706
g62
(dp3707
g82
g83
ssg71
g3701
sg64
(lp3708
S'Cache-Control'
p3709
asbag57
(g78
g59
NtRp3710
(dp3711
g62
(dp3712
g89
g90
ssg71
g3701
sg64
(lp3713
S':'
asbag57
(g78
g59
NtRp3714
(dp3715
g62
(dp3716
sg71
g3701
sg64
(lp3717
g57
(g58
g59
NtRp3718
(dp3719
g62
(dp3720
g70
I4
ssg71
g3714
sg64
(lp3721
S'no-store, no-cache, must-revalidate, post-check=0, pre-check=0'
p3722
asbasbasbag57
(g73
g59
NtRp3723
(dp3724
g62
(dp3725
sg71
g3697
sg64
(lp3726
g57
(g78
g59
NtRp3727
(dp3728
g62
(dp3729
g82
g83
ssg71
g3723
sg64
(lp3730
S'Content-Type'
p3731
asbag57
(g78
g59
NtRp3732
(dp3733
g62
(dp3734
g89
g90
ssg71
g3723
sg64
(lp3735
S':'
asbag57
(g78
g59
NtRp3736
(dp3737
g62
(dp3738
sg71
g3723
sg64
(lp3739
g57
(g58
g59
NtRp3740
(dp3741
g62
(dp3742
g70
I4
ssg71
g3736
sg64
(lp3743
S'text/html; charset=utf-8'
p3744
asbasbasbag57
(g73
g59
NtRp3745
(dp3746
g62
(dp3747
sg71
g3697
sg64
(lp3748
g57
(g78
g59
NtRp3749
(dp3750
g62
(dp3751
g82
g83
ssg71
g3745
sg64
(lp3752
S'Expires'
p3753
asbag57
(g78
g59
NtRp3754
(dp3755
g62
(dp3756
g89
g90
ssg71
g3745
sg64
(lp3757
S':'
asbag57
(g78
g59
NtRp3758
(dp3759
g62
(dp3760
sg71
g3745
sg64
(lp3761
g57
(g58
g59
NtRp3762
(dp3763
g62
(dp3764
g70
I4
ssg71
g3758
sg64
(lp3765
S'Mon, 13 Feb 2012 23:12:59 GMT'
p3766
asbasbasbag57
(g73
g59
NtRp3767
(dp3768
g62
(dp3769
sg71
g3697
sg64
(lp3770
g57
(g78
g59
NtRp3771
(dp3772
g62
(dp3773
g82
g83
ssg71
g3767
sg64
(lp3774
S'Pragma'
p3775
asbag57
(g78
g59
NtRp3776
(dp3777
g62
(dp3778
g89
g90
ssg71
g3767
sg64
(lp3779
S':'
asbag57
(g78
g59
NtRp3780
(dp3781
g62
(dp3782
sg71
g3767
sg64
(lp3783
g57
(g58
g59
NtRp3784
(dp3785
g62
(dp3786
g70
I4
ssg71
g3780
sg64
(lp3787
S'no-cache'
p3788
asbasbasbag57
(g73
g59
NtRp3789
(dp3790
g62
(dp3791
sg71
g3697
sg64
(lp3792
g57
(g78
g59
NtRp3793
(dp3794
g62
(dp3795
g82
g83
ssg71
g3789
sg64
(lp3796
S'X-Powered-By'
p3797
asbag57
(g78
g59
NtRp3798
(dp3799
g62
(dp3800
g89
g90
ssg71
g3789
sg64
(lp3801
S':'
asbag57
(g78
g59
NtRp3802
(dp3803
g62
(dp3804
sg71
g3789
sg64
(lp3805
g57
(g58
g59
NtRp3806
(dp3807
g62
(dp3808
g70
I4
ssg71
g3802
sg64
(lp3809
S'web2py'
p3810
asbasbasbasbasbasbasbag57
(g73
g59
NtRp3811
(dp3812
g62
(dp3813
sg71
g3255
sg64
(lp3814
g57
(g78
g59
NtRp3815
(dp3816
g62
(dp3817
g82
g83
ssg71
g3811
sg64
(lp3818
S'menu'
p3819
asbag57
(g78
g59
NtRp3820
(dp3821
g62
(dp3822
g89
g90
ssg71
g3811
sg64
(lp3823
S':'
asbag57
(g78
g59
NtRp3824
(dp3825
g62
(dp3826
sg71
g3811
sg64
(lp3827
g57
(g58
g59
NtRp3828
(dp3829
g62
(dp3830
g70
I5
ssg71
g3824
sg64
(lp3831
g57
(g66
g59
NtRp3832
(dp3833
g62
(dp3834
g70
I4
ssg71
Nsg64
(lp3835
g57
(g73
g59
NtRp3836
(dp3837
g62
(dp3838
sg71
g3832
sg64
(lp3839
g57
(g78
g59
NtRp3840
(dp3841
g62
(dp3842
sg71
g3836
sg64
(lp3843
g57
(g58
g59
NtRp3844
(dp3845
g62
(dp3846
g70
I4
ssg71
g3840
sg64
(lp3847
g57
(g66
g59
NtRp3848
(dp3849
g62
(dp3850
g70
I3
ssg71
Nsg64
(lp3851
g57
(g73
g59
NtRp3852
(dp3853
g62
(dp3854
sg71
g3848
sg64
(lp3855
g57
(g78
g59
NtRp3856
(dp3857
g62
(dp3858
sg71
g3852
sg64
(lp3859
g57
(g58
g59
NtRp3860
(dp3861
g62
(dp3862
g70
I3
ssg71
g3856
sg64
(lp3863
cgluon.languages
lazyT_unpickle
p3864
(S't\x04\x00\x00\x00Home'
tRp3865
asbasbasbag57
(g73
g59
NtRp3866
(dp3867
g62
(dp3868
sg71
g3848
sg64
(lp3869
g57
(g78
g59
NtRp3870
(dp3871
g62
(dp3872
sg71
g3866
sg64
(lp3873
g57
(g58
g59
NtRp3874
(dp3875
g62
(dp3876
g70
I3
ssg71
g3870
sg64
(lp3877
g100
asbasbasbag57
(g73
g59
NtRp3878
(dp3879
g62
(dp3880
sg71
g3848
sg64
(lp3881
g57
(g78
g59
NtRp3882
(dp3883
g62
(dp3884
sg71
g3878
sg64
(lp3885
g57
(g58
g59
NtRp3886
(dp3887
g62
(dp3888
g70
I3
ssg71
g3882
sg64
(lp3889
S'/welcome/default/index'
p3890
asbasbasbag57
(g73
g59
NtRp3891
(dp3892
g62
(dp3893
sg71
g3848
sg64
(lp3894
g57
(g78
g59
NtRp3895
(dp3896
g62
(dp3897
sg71
g3891
sg64
(lp3898
g57
(g58
g59
NtRp3899
(dp3900
g62
(dp3901
g70
I3
ssg71
g3895
sg64
(lp3902
g57
(g66
g59
NtRp3903
(dp3904
g62
(dp3905
g70
I2
ssg71
Nsg64
(lp3906
sbasbasbasbasbasbasbasbasbasbasbasbag57
(g73
g59
NtRp3907
(dp3908
g62
(dp3909
sg71
g3255
sg64
(lp3910
g57
(g78
g59
NtRp3911
(dp3912
g62
(dp3913
g82
g83
ssg71
g3907
sg64
(lp3914
S'meta'
p3915
asbag57
(g78
g59
NtRp3916
(dp3917
g62
(dp3918
g89
g90
ssg71
g3907
sg64
(lp3919
S':'
asbag57
(g78
g59
NtRp3920
(dp3921
g62
(dp3922
sg71
g3907
sg64
(lp3923
g57
(g58
g59
NtRp3924
(dp3925
g62
(dp3926
g70
I5
ssg71
g3920
sg64
(lp3927
g57
(g66
g59
NtRp3928
(dp3929
g62
(dp3930
g70
I4
ssg71
Nsg64
(lp3931
g57
(g73
g59
NtRp3932
(dp3933
g62
(dp3934
sg71
g3928
sg64
(lp3935
g57
(g78
g59
NtRp3936
(dp3937
g62
(dp3938
g82
g83
ssg71
g3932
sg64
(lp3939
S'author'
p3940
asbag57
(g78
g59
NtRp3941
(dp3942
g62
(dp3943
g89
g90
ssg71
g3932
sg64
(lp3944
S':'
asbag57
(g78
g59
NtRp3945
(dp3946
g62
(dp3947
sg71
g3932
sg64
(lp3948
g57
(g58
g59
NtRp3949
(dp3950
g62
(dp3951
g70
I4
ssg71
g3945
sg64
(lp3952
S'Your Name <you@example.com>'
p3953
asbasbasbag57
(g73
g59
NtRp3954
(dp3955
g62
(dp3956
sg71
g3928
sg64
(lp3957
g57
(g78
g59
NtRp3958
(dp3959
g62
(dp3960
g82
g83
ssg71
g3954
sg64
(lp3961
S'copyright'
p3962
asbag57
(g78
g59
NtRp3963
(dp3964
g62
(dp3965
g89
g90
ssg71
g3954
sg64
(lp3966
S':'
asbag57
(g78
g59
NtRp3967
(dp3968
g62
(dp3969
sg71
g3954
sg64
(lp3970
g57
(g58
g59
NtRp3971
(dp3972
g62
(dp3973
g70
I4
ssg71
g3967
sg64
(lp3974
S'Copyright 2011'
p3975
asbasbasbag57
(g73
g59
NtRp3976
(dp3977
g62
(dp3978
sg71
g3928
sg64
(lp3979
g57
(g78
g59
NtRp3980
(dp3981
g62
(dp3982
g82
g83
ssg71
g3976
sg64
(lp3983
S'description'
p3984
asbag57
(g78
g59
NtRp3985
(dp3986
g62
(dp3987
g89
g90
ssg71
g3976
sg64
(lp3988
S':'
asbag57
(g78
g59
NtRp3989
(dp3990
g62
(dp3991
sg71
g3976
sg64
(lp3992
g57
(g58
g59
NtRp3993
(dp3994
g62
(dp3995
g70
I4
ssg71
g3989
sg64
(lp3996
S'a cool new app'
p3997
asbasbasbag57
(g73
g59
NtRp3998
(dp3999
g62
(dp4000
sg71
g3928
sg64
(lp4001
g57
(g78
g59
NtRp4002
(dp4003
g62
(dp4004
g82
g83
ssg71
g3998
sg64
(lp4005
S'generator'
p4006
asbag57
(g78
g59
NtRp4007
(dp4008
g62
(dp4009
g89
g90
ssg71
g3998
sg64
(lp4010
S':'
asbag57
(g78
g59
NtRp4011
(dp4012
g62
(dp4013
sg71
g3998
sg64
(lp4014
g57
(g58
g59
NtRp4015
(dp4016
g62
(dp4017
g70
I4
ssg71
g4011
sg64
(lp4018
S'Web2py Web Framework'
p4019
asbasbasbag57
(g73
g59
NtRp4020
(dp4021
g62
(dp4022
sg71
g3928
sg64
(lp4023
g57
(g78
g59
NtRp4024
(dp4025
g62
(dp4026
g82
g83
ssg71
g4020
sg64
(lp4027
S'keywords'
p4028
asbag57
(g78
g59
NtRp4029
(dp4030
g62
(dp4031
g89
g90
ssg71
g4020
sg64
(lp4032
S':'
asbag57
(g78
g59
NtRp4033
(dp4034
g62
(dp4035
sg71
g4020
sg64
(lp4036
g57
(g58
g59
NtRp4037
(dp4038
g62
(dp4039
g70
I4
ssg71
g4033
sg64
(lp4040
S'web2py, python, framework'
p4041
asbasbasbasbasbasbasbag57
(g73
g59
NtRp4042
(dp4043
g62
(dp4044
sg71
g3255
sg64
(lp4045
g57
(g78
g59
NtRp4046
(dp4047
g62
(dp4048
g82
g83
ssg71
g4042
sg64
(lp4049
S'postprocessing'
p4050
asbag57
(g78
g59
NtRp4051
(dp4052
g62
(dp4053
g89
g90
ssg71
g4042
sg64
(lp4054
S':'
asbag57
(g78
g59
NtRp4055
(dp4056
g62
(dp4057
sg71
g4042
sg64
(lp4058
g57
(g58
g59
NtRp4059
(dp4060
g62
(dp4061
g70
I5
ssg71
g4055
sg64
(lp4062
g57
(g66
g59
NtRp4063
(dp4064
g62
(dp4065
g70
I4
ssg71
Nsg64
(lp4066
sbasbasbasbag57
(g73
g59
NtRp4067
(dp4068
g62
(dp4069
sg71
g3255
sg64
(lp4070
g57
(g78
g59
NtRp4071
(dp4072
g62
(dp4073
g82
g83
ssg71
g4067
sg64
(lp4074
S'session_file'
p4075
asbag57
(g78
g59
NtRp4076
(dp4077
g62
(dp4078
g89
g90
ssg71
g4067
sg64
(lp4079
S':'
asbag57
(g78
g59
NtRp4080
(dp4081
g62
(dp4082
sg71
g4067
sg64
(lp4083
g57
(g58
g59
NtRp4084
(dp4085
g62
(dp4086
g70
I5
ssg71
g4080
sg64
(lp4087
S"<open file 'C:\\Users\\mellinja\\Documents\\SC2Tracker\\SC2Tracker2\\web2py\\applications\\welcome\\sessions\\127.0.0.1-971ad393-68d1-4a60-9355-2d6ae717a7af', mode 'rb+' at 0x0000000007E3BA50>"
p4088
asbasbasbag57
(g73
g59
NtRp4089
(dp4090
g62
(dp4091
sg71
g3255
sg64
(lp4092
g57
(g78
g59
NtRp4093
(dp4094
g62
(dp4095
g82
g83
ssg71
g4089
sg64
(lp4096
S'session_filename'
p4097
asbag57
(g78
g59
NtRp4098
(dp4099
g62
(dp4100
g89
g90
ssg71
g4089
sg64
(lp4101
S':'
asbag57
(g78
g59
NtRp4102
(dp4103
g62
(dp4104
sg71
g4089
sg64
(lp4105
g57
(g58
g59
NtRp4106
(dp4107
g62
(dp4108
g70
I5
ssg71
g4102
sg64
(lp4109
S'C:\\Users\\mellinja\\Documents\\SC2Tracker\\SC2Tracker2\\web2py\\applications\\welcome\\sessions\\127.0.0.1-971ad393-68d1-4a60-9355-2d6ae717a7af'
p4110
asbasbasbag57
(g73
g59
NtRp4111
(dp4112
g62
(dp4113
sg71
g3255
sg64
(lp4114
g57
(g78
g59
NtRp4115
(dp4116
g62
(dp4117
g82
g83
ssg71
g4111
sg64
(lp4118
S'session_id'
p4119
asbag57
(g78
g59
NtRp4120
(dp4121
g62
(dp4122
g89
g90
ssg71
g4111
sg64
(lp4123
S':'
asbag57
(g78
g59
NtRp4124
(dp4125
g62
(dp4126
sg71
g4111
sg64
(lp4127
g57
(g58
g59
NtRp4128
(dp4129
g62
(dp4130
g70
I5
ssg71
g4124
sg64
(lp4131
S'127.0.0.1-971ad393-68d1-4a60-9355-2d6ae717a7af'
p4132
asbasbasbag57
(g73
g59
NtRp4133
(dp4134
g62
(dp4135
sg71
g3255
sg64
(lp4136
g57
(g78
g59
NtRp4137
(dp4138
g62
(dp4139
g82
g83
ssg71
g4133
sg64
(lp4140
S'session_id_name'
p4141
asbag57
(g78
g59
NtRp4142
(dp4143
g62
(dp4144
g89
g90
ssg71
g4133
sg64
(lp4145
S':'
asbag57
(g78
g59
NtRp4146
(dp4147
g62
(dp4148
sg71
g4133
sg64
(lp4149
g57
(g58
g59
NtRp4150
(dp4151
g62
(dp4152
g70
I5
ssg71
g4146
sg64
(lp4153
g3312
asbasbasbag57
(g73
g59
NtRp4154
(dp4155
g62
(dp4156
sg71
g3255
sg64
(lp4157
g57
(g78
g59
NtRp4158
(dp4159
g62
(dp4160
g82
g83
ssg71
g4154
sg64
(lp4161
S'session_locked'
p4162
asbag57
(g78
g59
NtRp4163
(dp4164
g62
(dp4165
g89
g90
ssg71
g4154
sg64
(lp4166
S':'
asbag57
(g78
g59
NtRp4167
(dp4168
g62
(dp4169
sg71
g4154
sg64
(lp4170
g57
(g58
g59
NtRp4171
(dp4172
g62
(dp4173
g70
I5
ssg71
g4167
sg64
(lp4174
g1505
asbasbasbag57
(g73
g59
NtRp4175
(dp4176
g62
(dp4177
sg71
g3255
sg64
(lp4178
g57
(g78
g59
NtRp4179
(dp4180
g62
(dp4181
g82
g83
ssg71
g4175
sg64
(lp4182
S'session_new'
p4183
asbag57
(g78
g59
NtRp4184
(dp4185
g62
(dp4186
g89
g90
ssg71
g4175
sg64
(lp4187
S':'
asbag57
(g78
g59
NtRp4188
(dp4189
g62
(dp4190
sg71
g4175
sg64
(lp4191
g57
(g58
g59
NtRp4192
(dp4193
g62
(dp4194
g70
I5
ssg71
g4188
sg64
(lp4195
g100
asbasbasbag57
(g73
g59
NtRp4196
(dp4197
g62
(dp4198
sg71
g3255
sg64
(lp4199
g57
(g78
g59
NtRp4200
(dp4201
g62
(dp4202
g82
g83
ssg71
g4196
sg64
(lp4203
S'status'
p4204
asbag57
(g78
g59
NtRp4205
(dp4206
g62
(dp4207
g89
g90
ssg71
g4196
sg64
(lp4208
S':'
asbag57
(g78
g59
NtRp4209
(dp4210
g62
(dp4211
sg71
g4196
sg64
(lp4212
g57
(g58
g59
NtRp4213
(dp4214
g62
(dp4215
g70
I5
ssg71
g4209
sg64
(lp4216
S'200'
p4217
asbasbasbag57
(g73
g59
NtRp4218
(dp4219
g62
(dp4220
sg71
g3255
sg64
(lp4221
g57
(g78
g59
NtRp4222
(dp4223
g62
(dp4224
g82
g83
ssg71
g4218
sg64
(lp4225
S'subtitle'
p4226
asbag57
(g78
g59
NtRp4227
(dp4228
g62
(dp4229
g89
g90
ssg71
g4218
sg64
(lp4230
S':'
asbag57
(g78
g59
NtRp4231
(dp4232
g62
(dp4233
sg71
g4218
sg64
(lp4234
g57
(g58
g59
NtRp4235
(dp4236
g62
(dp4237
g70
I5
ssg71
g4231
sg64
(lp4238
g3864
(S's2\x00\x00\x00Starcraft II Custom Tournament Tracker Version 0.1'
tRp4239
asbasbasbag57
(g73
g59
NtRp4240
(dp4241
g62
(dp4242
sg71
g3255
sg64
(lp4243
g57
(g78
g59
NtRp4244
(dp4245
g62
(dp4246
g82
g83
ssg71
g4240
sg64
(lp4247
S'title'
p4248
asbag57
(g78
g59
NtRp4249
(dp4250
g62
(dp4251
g89
g90
ssg71
g4240
sg64
(lp4252
S':'
asbag57
(g78
g59
NtRp4253
(dp4254
g62
(dp4255
sg71
g4240
sg64
(lp4256
g57
(g58
g59
NtRp4257
(dp4258
g62
(dp4259
g70
I5
ssg71
g4253
sg64
(lp4260
S'SC2CTT v0.1'
p4261
asbasbasbag57
(g73
g59
NtRp4262
(dp4263
g62
(dp4264
sg71
g3255
sg64
(lp4265
g57
(g78
g59
NtRp4266
(dp4267
g62
(dp4268
g82
g83
ssg71
g4262
sg64
(lp4269
g2190
asbag57
(g78
g59
NtRp4270
(dp4271
g62
(dp4272
g89
g90
ssg71
g4262
sg64
(lp4273
S':'
asbag57
(g78
g59
NtRp4274
(dp4275
g62
(dp4276
sg71
g4262
sg64
(lp4277
g57
(g58
g59
NtRp4278
(dp4279
g62
(dp4280
g70
I5
ssg71
g4274
sg64
(lp4281
g2203
asbasbasbag57
(g73
g59
NtRp4282
(dp4283
g62
(dp4284
sg71
g3255
sg64
(lp4285
g57
(g78
g59
NtRp4286
(dp4287
g62
(dp4288
g82
g83
ssg71
g4282
sg64
(lp4289
S'view'
p4290
asbag57
(g78
g59
NtRp4291
(dp4292
g62
(dp4293
g89
g90
ssg71
g4282
sg64
(lp4294
S':'
asbag57
(g78
g59
NtRp4295
(dp4296
g62
(dp4297
sg71
g4282
sg64
(lp4298
g57
(g58
g59
NtRp4299
(dp4300
g62
(dp4301
g70
I5
ssg71
g4295
sg64
(lp4302
S'map_pool/show.html'
p4303
asbasbasbasbasbsS'locals'
p4304
(dp4305
S'Service'
p4306
S"<class 'gluon.tools.Service'>"
p4307
sS'OBJECT'
p4308
S"<class 'gluon.html.OBJECT'>"
p4309
sS'SQLDB'
p4310
S"<class 'gluon.dal.DAL'>"
p4311
sg2905
S"<Storage {'last_query': 'db.Map_to_Map_Pool.id>0...login]': '2ed15cb2-b2c3-4845-94b3-4b9b1d4913e0'}>"
p4312
sS'LINK'
p4313
S"<class 'gluon.html.LINK'>"
p4314
sS'BR'
p4315
S"<class 'gluon.html.BR'>"
p4316
sS'local_import'
p4317
S'<function <lambda>>'
p4318
sS'OPTGROUP'
p4319
S"<class 'gluon.html.OPTGROUP'>"
p4320
sS'PRE'
p4321
S"<class 'gluon.html.PRE'>"
p4322
sS'IS_INT_IN_RANGE'
p4323
S"<class 'gluon.validators.IS_INT_IN_RANGE'>"
p4324
sS'left_sidebar_enabled'
p4325
g100
sS'IS_LOWER'
p4326
S"<class 'gluon.validators.IS_LOWER'>"
p4327
sS'IS_STRONG'
p4328
S"<class 'gluon.validators.IS_STRONG'>"
p4329
sS'cache'
p4330
S'<gluon.cache.Cache object>'
p4331
sS'IS_IN_DB'
p4332
S"<class 'gluon.validators.IS_IN_DB'>"
p4333
sS'TAG'
p4334
S'<gluon.html.__TAG__ object>'
p4335
sS'SQLField'
p4336
S"<class 'gluon.dal.Field'>"
p4337
sS'mail'
p4338
S'<gluon.tools.Mail object>'
p4339
sS'BODY'
p4340
S"<class 'gluon.html.BODY'>"
p4341
sS'IS_DATE_IN_RANGE'
p4342
S"<class 'gluon.validators.IS_DATE_IN_RANGE'>"
p4343
sS'TH'
p4344
S"<class 'gluon.html.TH'>"
p4345
sS'URL'
p4346
S'<function URL>'
p4347
sS'__file__'
p4348
S"r'C:\\Users\\mellinja\\Documents\\SC2Tracker\\SC2Tracke...2py\\applications\\welcome\\views\\map_pool/show.html'"
p4349
sS'db'
p4350
S"<DAL {'auth_event': <Table {'origin': <gluon.dal...gluon.dal.Field object at 0x00000000087DCB70>}>}>"
p4351
sS'auth'
p4352
S'<gluon.tools.Auth object>'
p4353
sS'P'
S"<class 'gluon.html.P'>"
p4354
sS'TFOOT'
p4355
S"<class 'gluon.html.TFOOT'>"
p4356
sS'XHTML'
p4357
S"<class 'gluon.html.XHTML'>"
p4358
sS'subprocess'
p4359
S"<module 'subprocess' from 'C:\\Python27\\lib\\subprocess.pyc'>"
p4360
sS'ON'
p4361
g1505
sS'OL'
p4362
S"<class 'gluon.html.OL'>"
p4363
sS'TEXTAREA'
p4364
S"<class 'gluon.html.TEXTAREA'>"
p4365
sS'MENU'
p4366
S"<class 'gluon.html.MENU'>"
p4367
sS'shlex'
p4368
S"<module 'shlex' from 'C:\\Python27\\lib\\shlex.pyc'>"
p4369
sS'IS_IMAGE'
p4370
S"<class 'gluon.validators.IS_IMAGE'>"
p4371
sS'LOAD'
p4372
S'<function LOAD>'
p4373
sS'CODE'
p4374
S"<class 'gluon.html.CODE'>"
p4375
sS'HTTP'
p4376
S"<class 'gluon.http.HTTP'>"
p4377
sS'HR'
p4378
S"<class 'gluon.html.HR'>"
p4379
sS'IS_DATETIME'
p4380
S"<class 'gluon.validators.IS_DATETIME'>"
p4381
sS'HEAD'
p4382
S"<class 'gluon.html.HEAD'>"
p4383
sS'LABEL'
p4384
S"<class 'gluon.html.LABEL'>"
p4385
sS'CLEANUP'
p4386
S"<class 'gluon.validators.CLEANUP'>"
p4387
sS'plugins'
p4388
S'<gluon.tools.PluginManager object>'
p4389
sS'SELECT'
p4390
S"<class 'gluon.html.SELECT'>"
p4391
sS'use_janrain'
p4392
S'<function use_janrain>'
p4393
sS'CENTER'
p4394
S"<class 'gluon.html.CENTER'>"
p4395
sS'prettydate'
p4396
S'<function prettydate>'
p4397
sS'parseReplay'
p4398
S'<function parseReplay>'
p4399
sS'Crud'
p4400
S"<class 'gluon.tools.Crud'>"
p4401
sS'Auth'
p4402
S"<class 'gluon.tools.Auth'>"
p4403
sS'IS_EQUAL_TO'
p4404
S"<class 'gluon.validators.IS_EQUAL_TO'>"
p4405
sS'HTML'
p4406
S"<class 'gluon.html.HTML'>"
p4407
sS'SQLFORM'
p4408
S"<class 'gluon.sqlhtml.SQLFORM'>"
p4409
sS'EM'
p4410
S"<class 'gluon.html.EM'>"
p4411
sS'redirect'
p4412
S'<function redirect>'
p4413
sS'FIELDSET'
p4414
S"<class 'gluon.html.FIELDSET'>"
p4415
sS'__builtins__'
p4416
S"{'ArithmeticError': <type 'exceptions.ArithmeticError'>, 'AssertionError': <type 'exceptions.AssertionError'>, 'AttributeError': <type 'exceptions.AttributeError'>, 'BaseException': <type 'exceptions.BaseException'>, 'BufferError': <type 'exceptions.BufferError'>, 'BytesWarning': <type 'exceptions.BytesWarning'>, 'DeprecationWarning': <type 'exceptions.DeprecationWarning'>, 'EOFError': <type 'exceptions.EOFError'>, 'Ellipsis': Ellipsis, 'EnvironmentError': <type 'exceptions.EnvironmentError'>, ...}"
p4417
sS'mapIDs'
p4418
S'[(10001, ), (10002, ), (10003, ), (10004, ), (10005, )]'
p4419
sS'embed64'
p4420
S'<function embed64>'
p4421
sS'IS_LIST_OF'
p4422
S"<class 'gluon.validators.IS_LIST_OF'>"
p4423
sS'poolID'
p4424
S"'1'"
p4425
sS'INPUT'
p4426
S"<class 'gluon.html.INPUT'>"
p4427
sS'EMBED'
p4428
S"<class 'gluon.html.EMBED'>"
p4429
sS'_'
S'<function _>'
p4430
sS'H2'
p4431
S"<class 'gluon.html.H2'>"
p4432
sS'H3'
p4433
S"<class 'gluon.html.H3'>"
p4434
sS'BUTTON'
p4435
S"<class 'gluon.html.BUTTON'>"
p4436
sS'H1'
p4437
S"<class 'gluon.html.H1'>"
p4438
sS'H6'
p4439
S"<class 'gluon.html.H6'>"
p4440
sS'H4'
p4441
S"<class 'gluon.html.H4'>"
p4442
sS'H5'
p4443
S"<class 'gluon.html.H5'>"
p4444
sS'UL'
p4445
S"<class 'gluon.html.UL'>"
p4446
sS'IS_UPPER'
p4447
S"<class 'gluon.validators.IS_UPPER'>"
p4448
sS'xmlescape'
p4449
S'<function xmlescape>'
p4450
sS'IS_TIME'
p4451
S"<class 'gluon.validators.IS_TIME'>"
p4452
sS'os'
p4453
S"<module 'os' from 'C:\\Python27\\lib\\os.pyc'>"
p4454
sS'OPTION'
p4455
S"<class 'gluon.html.OPTION'>"
p4456
sS'TITLE'
p4457
S"<class 'gluon.html.TITLE'>"
p4458
sS'CRYPT'
p4459
S"<class 'gluon.validators.CRYPT'>"
p4460
sS'IS_EMPTY_OR'
p4461
S"<class 'gluon.validators.IS_EMPTY_OR'>"
p4462
sS'MARKMIN'
p4463
S"<class 'gluon.html.MARKMIN'>"
p4464
sg388
S"'C:/Users/mellinja/Documents/SC2Tracker/SC2Tracker2/web2py/applications/welcome/static/Sc2gears/'"
p4465
sS'COL'
p4466
S"<class 'gluon.html.COL'>"
p4467
sS'service'
p4468
S'<gluon.tools.Service object>'
p4469
sS'SCRIPT'
p4470
S"<class 'gluon.html.SCRIPT'>"
p4471
sS'is_mobile'
p4472
g100
sS'TABLE'
p4473
S"<class 'gluon.html.TABLE'>"
p4474
sS'IS_IPV4'
p4475
S"<class 'gluon.validators.IS_IPV4'>"
p4476
sS'IS_LENGTH'
p4477
S"<class 'gluon.validators.IS_LENGTH'>"
p4478
sS'XML'
p4479
S"<class 'gluon.html.XML'>"
p4480
sS'B'
S"<class 'gluon.html.B'>"
p4481
sS'IMG'
p4482
S"<class 'gluon.html.IMG'>"
p4483
sS'SQLTABLE'
p4484
S"<class 'gluon.sqlhtml.SQLTABLE'>"
p4485
sS'IS_MATCH'
p4486
S"<class 'gluon.validators.IS_MATCH'>"
p4487
sS'IS_ALPHANUMERIC'
p4488
S"<class 'gluon.validators.IS_ALPHANUMERIC'>"
p4489
sS'info'
p4490
S'<subprocess.STARTUPINFO instance>'
p4491
sS'SPAN'
p4492
S"<class 'gluon.html.SPAN'>"
p4493
sS'IS_SLUG'
p4494
S"<class 'gluon.validators.IS_SLUG'>"
p4495
sS'META'
p4496
S"<class 'gluon.html.META'>"
p4497
sS'requestFolder'
p4498
S"'C:/Users/mellinja/Documents/SC2Tracker/SC2Tracker2/web2py/applications/welcome/'"
p4499
sS'store_path'
p4500
S"'C:/Users/mellinja/Documents/SC2Tracker/SC2Tracker2/web2py/applications/welcome/uploads/replay_info/'"
p4501
sS'IS_DATE'
p4502
S"<class 'gluon.validators.IS_DATE'>"
p4503
sS'IS_EMAIL'
p4504
S"<class 'gluon.validators.IS_EMAIL'>"
p4505
sS'IS_NOT_EMPTY'
p4506
S"<class 'gluon.validators.IS_NOT_EMPTY'>"
p4507
sg56
S"<Storage {'body': <cStringIO.StringO object at 0..._vars': <Storage {}>, 'post_vars': <Storage {}>}>"
p4508
sS'BEAUTIFY'
p4509
S"<class 'gluon.html.BEAUTIFY'>"
p4510
sS'TBODY'
p4511
S"<class 'gluon.html.TBODY'>"
p4512
sS'CAT'
p4513
S"<class 'gluon.html.CAT'>"
p4514
sS'Field'
p4515
S"<class 'gluon.dal.Field'>"
p4516
sS'middle_columns'
p4517
S"'sixteen'"
p4518
sS'DIV'
p4519
S"<class 'gluon.html.DIV'>"
p4520
sS'LEGEND'
p4521
S"<class 'gluon.html.LEGEND'>"
p4522
sS'COLGROUP'
p4523
S"<class 'gluon.html.COLGROUP'>"
p4524
sS'DAL'
p4525
S"<class 'gluon.dal.DAL'>"
p4526
sS'TT'
p4527
S"<class 'gluon.html.TT'>"
p4528
sS'TR'
p4529
S"<class 'gluon.html.TR'>"
p4530
sS'LI'
p4531
S"<class 'gluon.html.LI'>"
p4532
sS'right_sidebar_enabled'
p4533
g100
sS'IFRAME'
p4534
S"<class 'gluon.html.IFRAME'>"
p4535
sS'TD'
p4536
S"<class 'gluon.html.TD'>"
p4537
sS'PluginManager'
p4538
S"<class 'gluon.tools.PluginManager'>"
p4539
sS'IS_URL'
p4540
S"<class 'gluon.validators.IS_URL'>"
p4541
sS'A'
S"<class 'gluon.html.A'>"
p4542
sS'STYLE'
p4543
S"<class 'gluon.html.STYLE'>"
p4544
sS'IS_DATETIME_IN_RANGE'
p4545
S"<class 'gluon.validators.IS_DATETIME_IN_RANGE'>"
p4546
sS'FORM'
p4547
S"<class 'gluon.html.FORM'>"
p4548
sS'I'
S"<class 'gluon.html.I'>"
p4549
sS'crud'
p4550
S'<gluon.tools.Crud object>'
p4551
sS'IS_NOT_IN_DB'
p4552
S"<class 'gluon.validators.IS_NOT_IN_DB'>"
p4553
sg3250
S"<Storage {'body': <cStringIO.StringO object at 0...00000000087FC588>, 'view': 'map_pool/show.html'}>"
p4554
sS'THEAD'
p4555
S"<class 'gluon.html.THEAD'>"
p4556
sS'IS_NULL_OR'
p4557
S"<class 'gluon.validators.IS_EMPTY_OR'>"
p4558
sS'IS_FLOAT_IN_RANGE'
p4559
S"<class 'gluon.validators.IS_FLOAT_IN_RANGE'>"
p4560
sS'IS_EXPR'
p4561
S"<class 'gluon.validators.IS_EXPR'>"
p4562
sS'T'
S'<gluon.languages.translator object>'
p4563
sS'IS_IN_SET'
p4564
S"<class 'gluon.validators.IS_IN_SET'>"
p4565
sS'IS_UPLOAD_FILENAME'
p4566
S"<class 'gluon.validators.IS_UPLOAD_FILENAME'>"
p4567
sS'IS_DECIMAL_IN_RANGE'
p4568
S"<class 'gluon.validators.IS_DECIMAL_IN_RANGE'>"
p4569
sssS'traceback'
p4570
S'Traceback (most recent call last):\n  File "C:\\Users\\mellinja\\Documents\\SC2Tracker\\SC2Tracker2\\web2py\\gluon\\restricted.py", line 204, in restricted\n    exec ccode in environment\n  File "C:\\Users\\mellinja\\Documents\\SC2Tracker\\SC2Tracker2\\web2py\\applications\\welcome\\views\\map_pool/show.html", line 76, in <module>\nTypeError: cannot concatenate \'str\' and \'pyodbc.Row\' objects\n'
p4571
s.