(dp1
S'output'
p2
S"<class 'pyodbc.ProgrammingError'> ('42000', '[42000] [Microsoft][ODBC SQL Server Driver][SQL Server]Error converting data type nvarchar to int. (8114) (SQLExecDirectW)')"
p3
sS'layer'
p4
S'C:\\Users\\mellinja\\Documents\\SC2Tracker\\SC2Tracker2\\web2py\\applications\\welcome\\controllers/tournament.py'
p5
sS'code'
p6
S'# coding: utf8\n#\ndef index(): \n    #db = DAL(\'mssql://cheungkt:mechanes5@whale.cs.rose-hulman.edu/SC2tracker\')\n    tournies = db.executesql(\'SELECT Name, ID FROM Tournament\')\n    return dict(tournament = tournies)\n    \ndef show():\n    \n    tourny = db.executesql(\'SELECT * FROM Tournament WHERE ID = \' + str(request.args(0)))\n    pids = db(db.Player.Auth_User_ID == auth.user_id).select()\n    pnames = []\n    for player in pids:\n        pnames += db.executesql("SELECT InGameName FROM Player WHERE ID = "+str(player[\'id\']))[0]\n    form = FORM(\'Join as : \', SELECT(pnames,_name = "Player",requires=IS_IN_SET(pnames)),INPUT(_type=\'submit\',_value=\'Join\'))\n    if form.accepts(request,session):\n        playerName=str(form.vars[\'Player\'])\n        pid = db.executesql("SELECT ID FROM Player WHERE Auth_User_Id = " + str(auth.user_id) + " AND InGameName = \'" + playerName+"\'")\n        db.executesql(\'EXEC [player_to_tourney_sp] \' + str(pid) + ", " + str(request.args(0)))\n\n    return dict(tourny = tourny,form = form,v = form.vars)\n\nresponse._vars=response._caller(show)\n'
p7
sS'snapshot'
p8
(dp9
S'exception'
p10
(dp11
S'__module__'
p12
S"'pyodbc'"
p13
sS'__getslice__'
p14
S"<method-wrapper '__getslice__' of ProgrammingError object>"
p15
sS'__str__'
p16
S"<method-wrapper '__str__' of ProgrammingError object>"
p17
sS'__reduce__'
p18
S'<built-in method __reduce__ of ProgrammingError object>'
p19
sS'__dict__'
p20
S'{}'
p21
sS'__sizeof__'
p22
S'<built-in method __sizeof__ of ProgrammingError object>'
p23
sS'__weakref__'
p24
S'None'
p25
sS'__init__'
p26
S"<method-wrapper '__init__' of ProgrammingError object>"
p27
sS'__setattr__'
p28
S"<method-wrapper '__setattr__' of ProgrammingError object>"
p29
sS'__reduce_ex__'
p30
S'<built-in method __reduce_ex__ of ProgrammingError object>'
p31
sS'__new__'
p32
S'<built-in method __new__ of type object>'
p33
sS'__format__'
p34
S'<built-in method __format__ of ProgrammingError object>'
p35
sS'__class__'
p36
S"<class 'pyodbc.ProgrammingError'>"
p37
sS'__doc__'
p38
S"'Exception raised for programming errors, e.g. ta...ement, wrong number of parameters\\nspecified, etc.'"
p39
sS'__getitem__'
p40
S"<method-wrapper '__getitem__' of ProgrammingError object>"
p41
sS'__setstate__'
p42
S'<built-in method __setstate__ of ProgrammingError object>'
p43
sS'__getattribute__'
p44
S"<method-wrapper '__getattribute__' of ProgrammingError object>"
p45
sS'args'
p46
S"('42000', '[42000] [Microsoft][ODBC SQL Server Driver][SQL ...ata type nvarchar to int. (8114) (SQLExecDirectW)')"
p47
sS'__subclasshook__'
p48
S'<built-in method __subclasshook__ of type object>'
p49
sS'__unicode__'
p50
S'<built-in method __unicode__ of ProgrammingError object>'
p51
sS'__delattr__'
p52
S"<method-wrapper '__delattr__' of ProgrammingError object>"
p53
sS'__repr__'
p54
S"<method-wrapper '__repr__' of ProgrammingError object>"
p55
sS'__hash__'
p56
S"<method-wrapper '__hash__' of ProgrammingError object>"
p57
ssS'evalue'
p58
S"('42000', '[42000] [Microsoft][ODBC SQL Server Driver][SQL Server]Error converting data type nvarchar to int. (8114) (SQLExecDirectW)')"
p59
sS'request'
p60
ccopy_reg
_reconstructor
p61
(cgluon.html
BEAUTIFY
p62
c__builtin__
object
p63
NtRp64
(dp65
S'attributes'
p66
(dp67
sS'components'
p68
(lp69
g61
(cgluon.html
TABLE
p70
g63
NtRp71
(dp72
g66
(dp73
S'level'
p74
I5
ssS'parent'
p75
Nsg68
(lp76
g61
(cgluon.html
TR
p77
g63
NtRp78
(dp79
g66
(dp80
sg75
g71
sg68
(lp81
g61
(cgluon.html
TD
p82
g63
NtRp83
(dp84
g66
(dp85
S'_style'
p86
S'font-weight:bold;vertical-align:top'
p87
ssg75
g78
sg68
(lp88
S'ajax'
p89
asbag61
(g82
g63
NtRp90
(dp91
g66
(dp92
S'_valign'
p93
S'top'
p94
ssg75
g78
sg68
(lp95
S':'
asbag61
(g82
g63
NtRp96
(dp97
g66
(dp98
sg75
g78
sg68
(lp99
g61
(g62
g63
NtRp100
(dp101
g66
(dp102
g74
I5
ssg75
g96
sg68
(lp103
S'False'
p104
asbasbasbag61
(g77
g63
NtRp105
(dp106
g66
(dp107
sg75
g71
sg68
(lp108
g61
(g82
g63
NtRp109
(dp110
g66
(dp111
g86
g87
ssg75
g105
sg68
(lp112
S'application'
p113
asbag61
(g82
g63
NtRp114
(dp115
g66
(dp116
g93
g94
ssg75
g105
sg68
(lp117
S':'
asbag61
(g82
g63
NtRp118
(dp119
g66
(dp120
sg75
g105
sg68
(lp121
g61
(g62
g63
NtRp122
(dp123
g66
(dp124
g74
I5
ssg75
g118
sg68
(lp125
S'welcome'
p126
asbasbasbag61
(g77
g63
NtRp127
(dp128
g66
(dp129
sg75
g71
sg68
(lp130
g61
(g82
g63
NtRp131
(dp132
g66
(dp133
g86
g87
ssg75
g127
sg68
(lp134
g46
asbag61
(g82
g63
NtRp135
(dp136
g66
(dp137
g93
g94
ssg75
g127
sg68
(lp138
S':'
asbag61
(g82
g63
NtRp139
(dp140
g66
(dp141
sg75
g127
sg68
(lp142
g61
(g62
g63
NtRp143
(dp144
g66
(dp145
g74
I5
ssg75
g139
sg68
(lp146
g61
(g70
g63
NtRp147
(dp148
g66
(dp149
g74
I4
ssg75
Nsg68
(lp150
g61
(g77
g63
NtRp151
(dp152
g66
(dp153
sg75
g147
sg68
(lp154
g61
(g82
g63
NtRp155
(dp156
g66
(dp157
sg75
g151
sg68
(lp158
g61
(g62
g63
NtRp159
(dp160
g66
(dp161
g74
I4
ssg75
g155
sg68
(lp162
S'7'
asbasbasbasbasbasbasbag61
(g77
g63
NtRp163
(dp164
g66
(dp165
sg75
g71
sg68
(lp166
g61
(g82
g63
NtRp167
(dp168
g66
(dp169
g86
g87
ssg75
g163
sg68
(lp170
S'body'
p171
asbag61
(g82
g63
NtRp172
(dp173
g66
(dp174
g93
g94
ssg75
g163
sg68
(lp175
S':'
asbag61
(g82
g63
NtRp176
(dp177
g66
(dp178
sg75
g163
sg68
(lp179
g61
(g62
g63
NtRp180
(dp181
g66
(dp182
g74
I5
ssg75
g176
sg68
(lp183
S"<open file '<fdopen>', mode 'w+b' at 0x00000000085EDA50>"
p184
asbasbasbag61
(g77
g63
NtRp185
(dp186
g66
(dp187
sg75
g71
sg68
(lp188
g61
(g82
g63
NtRp189
(dp190
g66
(dp191
g86
g87
ssg75
g185
sg68
(lp192
S'client'
p193
asbag61
(g82
g63
NtRp194
(dp195
g66
(dp196
g93
g94
ssg75
g185
sg68
(lp197
S':'
asbag61
(g82
g63
NtRp198
(dp199
g66
(dp200
sg75
g185
sg68
(lp201
g61
(g62
g63
NtRp202
(dp203
g66
(dp204
g74
I5
ssg75
g198
sg68
(lp205
S'127.0.0.1'
p206
asbasbasbag61
(g77
g63
NtRp207
(dp208
g66
(dp209
sg75
g71
sg68
(lp210
g61
(g82
g63
NtRp211
(dp212
g66
(dp213
g86
g87
ssg75
g207
sg68
(lp214
S'controller'
p215
asbag61
(g82
g63
NtRp216
(dp217
g66
(dp218
g93
g94
ssg75
g207
sg68
(lp219
S':'
asbag61
(g82
g63
NtRp220
(dp221
g66
(dp222
sg75
g207
sg68
(lp223
g61
(g62
g63
NtRp224
(dp225
g66
(dp226
g74
I5
ssg75
g220
sg68
(lp227
S'tournament'
p228
asbasbasbag61
(g77
g63
NtRp229
(dp230
g66
(dp231
sg75
g71
sg68
(lp232
g61
(g82
g63
NtRp233
(dp234
g66
(dp235
g86
g87
ssg75
g229
sg68
(lp236
S'cookies'
p237
asbag61
(g82
g63
NtRp238
(dp239
g66
(dp240
g93
g94
ssg75
g229
sg68
(lp241
S':'
asbag61
(g82
g63
NtRp242
(dp243
g66
(dp244
sg75
g229
sg68
(lp245
g61
(g62
g63
NtRp246
(dp247
g66
(dp248
g74
I5
ssg75
g242
sg68
(lp249
g61
(g70
g63
NtRp250
(dp251
g66
(dp252
g74
I4
ssg75
Nsg68
(lp253
g61
(g77
g63
NtRp254
(dp255
g66
(dp256
sg75
g250
sg68
(lp257
g61
(g82
g63
NtRp258
(dp259
g66
(dp260
g86
g87
ssg75
g254
sg68
(lp261
S'session_id_admin'
p262
asbag61
(g82
g63
NtRp263
(dp264
g66
(dp265
g93
g94
ssg75
g254
sg68
(lp266
S':'
asbag61
(g82
g63
NtRp267
(dp268
g66
(dp269
sg75
g254
sg68
(lp270
g61
(g62
g63
NtRp271
(dp272
g66
(dp273
g74
I4
ssg75
g267
sg68
(lp274
g61
(g70
g63
NtRp275
(dp276
g66
(dp277
g74
I3
ssg75
Nsg68
(lp278
g61
(g77
g63
NtRp279
(dp280
g66
(dp281
sg75
g275
sg68
(lp282
g61
(g82
g63
NtRp283
(dp284
g66
(dp285
g86
g87
ssg75
g279
sg68
(lp286
S'comment'
p287
asbag61
(g82
g63
NtRp288
(dp289
g66
(dp290
g93
g94
ssg75
g279
sg68
(lp291
S':'
asbag61
(g82
g63
NtRp292
(dp293
g66
(dp294
sg75
g279
sg68
(lp295
g61
(g62
g63
NtRp296
(dp297
g66
(dp298
g74
I3
ssg75
g292
sg68
(lp299
S''
asbasbasbag61
(g77
g63
NtRp300
(dp301
g66
(dp302
sg75
g275
sg68
(lp303
g61
(g82
g63
NtRp304
(dp305
g66
(dp306
g86
g87
ssg75
g300
sg68
(lp307
S'domain'
p308
asbag61
(g82
g63
NtRp309
(dp310
g66
(dp311
g93
g94
ssg75
g300
sg68
(lp312
S':'
asbag61
(g82
g63
NtRp313
(dp314
g66
(dp315
sg75
g300
sg68
(lp316
g61
(g62
g63
NtRp317
(dp318
g66
(dp319
g74
I3
ssg75
g313
sg68
(lp320
S''
asbasbasbag61
(g77
g63
NtRp321
(dp322
g66
(dp323
sg75
g275
sg68
(lp324
g61
(g82
g63
NtRp325
(dp326
g66
(dp327
g86
g87
ssg75
g321
sg68
(lp328
S'expires'
p329
asbag61
(g82
g63
NtRp330
(dp331
g66
(dp332
g93
g94
ssg75
g321
sg68
(lp333
S':'
asbag61
(g82
g63
NtRp334
(dp335
g66
(dp336
sg75
g321
sg68
(lp337
g61
(g62
g63
NtRp338
(dp339
g66
(dp340
g74
I3
ssg75
g334
sg68
(lp341
S''
asbasbasbag61
(g77
g63
NtRp342
(dp343
g66
(dp344
sg75
g275
sg68
(lp345
g61
(g82
g63
NtRp346
(dp347
g66
(dp348
g86
g87
ssg75
g342
sg68
(lp349
S'httponly'
p350
asbag61
(g82
g63
NtRp351
(dp352
g66
(dp353
g93
g94
ssg75
g342
sg68
(lp354
S':'
asbag61
(g82
g63
NtRp355
(dp356
g66
(dp357
sg75
g342
sg68
(lp358
g61
(g62
g63
NtRp359
(dp360
g66
(dp361
g74
I3
ssg75
g355
sg68
(lp362
S''
asbasbasbag61
(g77
g63
NtRp363
(dp364
g66
(dp365
sg75
g275
sg68
(lp366
g61
(g82
g63
NtRp367
(dp368
g66
(dp369
g86
g87
ssg75
g363
sg68
(lp370
S'max-age'
p371
asbag61
(g82
g63
NtRp372
(dp373
g66
(dp374
g93
g94
ssg75
g363
sg68
(lp375
S':'
asbag61
(g82
g63
NtRp376
(dp377
g66
(dp378
sg75
g363
sg68
(lp379
g61
(g62
g63
NtRp380
(dp381
g66
(dp382
g74
I3
ssg75
g376
sg68
(lp383
S''
asbasbasbag61
(g77
g63
NtRp384
(dp385
g66
(dp386
sg75
g275
sg68
(lp387
g61
(g82
g63
NtRp388
(dp389
g66
(dp390
g86
g87
ssg75
g384
sg68
(lp391
S'path'
p392
asbag61
(g82
g63
NtRp393
(dp394
g66
(dp395
g93
g94
ssg75
g384
sg68
(lp396
S':'
asbag61
(g82
g63
NtRp397
(dp398
g66
(dp399
sg75
g384
sg68
(lp400
g61
(g62
g63
NtRp401
(dp402
g66
(dp403
g74
I3
ssg75
g397
sg68
(lp404
S''
asbasbasbag61
(g77
g63
NtRp405
(dp406
g66
(dp407
sg75
g275
sg68
(lp408
g61
(g82
g63
NtRp409
(dp410
g66
(dp411
g86
g87
ssg75
g405
sg68
(lp412
S'secure'
p413
asbag61
(g82
g63
NtRp414
(dp415
g66
(dp416
g93
g94
ssg75
g405
sg68
(lp417
S':'
asbag61
(g82
g63
NtRp418
(dp419
g66
(dp420
sg75
g405
sg68
(lp421
g61
(g62
g63
NtRp422
(dp423
g66
(dp424
g74
I3
ssg75
g418
sg68
(lp425
S''
asbasbasbag61
(g77
g63
NtRp426
(dp427
g66
(dp428
sg75
g275
sg68
(lp429
g61
(g82
g63
NtRp430
(dp431
g66
(dp432
g86
g87
ssg75
g426
sg68
(lp433
S'version'
p434
asbag61
(g82
g63
NtRp435
(dp436
g66
(dp437
g93
g94
ssg75
g426
sg68
(lp438
S':'
asbag61
(g82
g63
NtRp439
(dp440
g66
(dp441
sg75
g426
sg68
(lp442
g61
(g62
g63
NtRp443
(dp444
g66
(dp445
g74
I3
ssg75
g439
sg68
(lp446
S''
asbasbasbasbasbasbasbag61
(g77
g63
NtRp447
(dp448
g66
(dp449
sg75
g250
sg68
(lp450
g61
(g82
g63
NtRp451
(dp452
g66
(dp453
g86
g87
ssg75
g447
sg68
(lp454
S'session_id_welcome'
p455
asbag61
(g82
g63
NtRp456
(dp457
g66
(dp458
g93
g94
ssg75
g447
sg68
(lp459
S':'
asbag61
(g82
g63
NtRp460
(dp461
g66
(dp462
sg75
g447
sg68
(lp463
g61
(g62
g63
NtRp464
(dp465
g66
(dp466
g74
I4
ssg75
g460
sg68
(lp467
g61
(g70
g63
NtRp468
(dp469
g66
(dp470
g74
I3
ssg75
Nsg68
(lp471
g61
(g77
g63
NtRp472
(dp473
g66
(dp474
sg75
g468
sg68
(lp475
g61
(g82
g63
NtRp476
(dp477
g66
(dp478
g86
g87
ssg75
g472
sg68
(lp479
g287
asbag61
(g82
g63
NtRp480
(dp481
g66
(dp482
g93
g94
ssg75
g472
sg68
(lp483
S':'
asbag61
(g82
g63
NtRp484
(dp485
g66
(dp486
sg75
g472
sg68
(lp487
g61
(g62
g63
NtRp488
(dp489
g66
(dp490
g74
I3
ssg75
g484
sg68
(lp491
S''
asbasbasbag61
(g77
g63
NtRp492
(dp493
g66
(dp494
sg75
g468
sg68
(lp495
g61
(g82
g63
NtRp496
(dp497
g66
(dp498
g86
g87
ssg75
g492
sg68
(lp499
g308
asbag61
(g82
g63
NtRp500
(dp501
g66
(dp502
g93
g94
ssg75
g492
sg68
(lp503
S':'
asbag61
(g82
g63
NtRp504
(dp505
g66
(dp506
sg75
g492
sg68
(lp507
g61
(g62
g63
NtRp508
(dp509
g66
(dp510
g74
I3
ssg75
g504
sg68
(lp511
S''
asbasbasbag61
(g77
g63
NtRp512
(dp513
g66
(dp514
sg75
g468
sg68
(lp515
g61
(g82
g63
NtRp516
(dp517
g66
(dp518
g86
g87
ssg75
g512
sg68
(lp519
g329
asbag61
(g82
g63
NtRp520
(dp521
g66
(dp522
g93
g94
ssg75
g512
sg68
(lp523
S':'
asbag61
(g82
g63
NtRp524
(dp525
g66
(dp526
sg75
g512
sg68
(lp527
g61
(g62
g63
NtRp528
(dp529
g66
(dp530
g74
I3
ssg75
g524
sg68
(lp531
S''
asbasbasbag61
(g77
g63
NtRp532
(dp533
g66
(dp534
sg75
g468
sg68
(lp535
g61
(g82
g63
NtRp536
(dp537
g66
(dp538
g86
g87
ssg75
g532
sg68
(lp539
g350
asbag61
(g82
g63
NtRp540
(dp541
g66
(dp542
g93
g94
ssg75
g532
sg68
(lp543
S':'
asbag61
(g82
g63
NtRp544
(dp545
g66
(dp546
sg75
g532
sg68
(lp547
g61
(g62
g63
NtRp548
(dp549
g66
(dp550
g74
I3
ssg75
g544
sg68
(lp551
S''
asbasbasbag61
(g77
g63
NtRp552
(dp553
g66
(dp554
sg75
g468
sg68
(lp555
g61
(g82
g63
NtRp556
(dp557
g66
(dp558
g86
g87
ssg75
g552
sg68
(lp559
g371
asbag61
(g82
g63
NtRp560
(dp561
g66
(dp562
g93
g94
ssg75
g552
sg68
(lp563
S':'
asbag61
(g82
g63
NtRp564
(dp565
g66
(dp566
sg75
g552
sg68
(lp567
g61
(g62
g63
NtRp568
(dp569
g66
(dp570
g74
I3
ssg75
g564
sg68
(lp571
S''
asbasbasbag61
(g77
g63
NtRp572
(dp573
g66
(dp574
sg75
g468
sg68
(lp575
g61
(g82
g63
NtRp576
(dp577
g66
(dp578
g86
g87
ssg75
g572
sg68
(lp579
g392
asbag61
(g82
g63
NtRp580
(dp581
g66
(dp582
g93
g94
ssg75
g572
sg68
(lp583
S':'
asbag61
(g82
g63
NtRp584
(dp585
g66
(dp586
sg75
g572
sg68
(lp587
g61
(g62
g63
NtRp588
(dp589
g66
(dp590
g74
I3
ssg75
g584
sg68
(lp591
S''
asbasbasbag61
(g77
g63
NtRp592
(dp593
g66
(dp594
sg75
g468
sg68
(lp595
g61
(g82
g63
NtRp596
(dp597
g66
(dp598
g86
g87
ssg75
g592
sg68
(lp599
g413
asbag61
(g82
g63
NtRp600
(dp601
g66
(dp602
g93
g94
ssg75
g592
sg68
(lp603
S':'
asbag61
(g82
g63
NtRp604
(dp605
g66
(dp606
sg75
g592
sg68
(lp607
g61
(g62
g63
NtRp608
(dp609
g66
(dp610
g74
I3
ssg75
g604
sg68
(lp611
S''
asbasbasbag61
(g77
g63
NtRp612
(dp613
g66
(dp614
sg75
g468
sg68
(lp615
g61
(g82
g63
NtRp616
(dp617
g66
(dp618
g86
g87
ssg75
g612
sg68
(lp619
g434
asbag61
(g82
g63
NtRp620
(dp621
g66
(dp622
g93
g94
ssg75
g612
sg68
(lp623
S':'
asbag61
(g82
g63
NtRp624
(dp625
g66
(dp626
sg75
g612
sg68
(lp627
g61
(g62
g63
NtRp628
(dp629
g66
(dp630
g74
I3
ssg75
g624
sg68
(lp631
S''
asbasbasbasbasbasbasbasbasbasbasbag61
(g77
g63
NtRp632
(dp633
g66
(dp634
sg75
g71
sg68
(lp635
g61
(g82
g63
NtRp636
(dp637
g66
(dp638
g86
g87
ssg75
g632
sg68
(lp639
S'env'
p640
asbag61
(g82
g63
NtRp641
(dp642
g66
(dp643
g93
g94
ssg75
g632
sg68
(lp644
S':'
asbag61
(g82
g63
NtRp645
(dp646
g66
(dp647
sg75
g632
sg68
(lp648
g61
(g62
g63
NtRp649
(dp650
g66
(dp651
g74
I5
ssg75
g645
sg68
(lp652
g61
(g70
g63
NtRp653
(dp654
g66
(dp655
g74
I4
ssg75
Nsg68
(lp656
g61
(g77
g63
NtRp657
(dp658
g66
(dp659
sg75
g653
sg68
(lp660
g61
(g82
g63
NtRp661
(dp662
g66
(dp663
g86
g87
ssg75
g657
sg68
(lp664
S'app_folders'
p665
asbag61
(g82
g63
NtRp666
(dp667
g66
(dp668
g93
g94
ssg75
g657
sg68
(lp669
S':'
asbag61
(g82
g63
NtRp670
(dp671
g66
(dp672
sg75
g657
sg68
(lp673
g61
(g62
g63
NtRp674
(dp675
g66
(dp676
g74
I4
ssg75
g670
sg68
(lp677
S"set(['C:\\\\Users\\\\mellinja\\\\Documents\\\\SC2Tracker\\\\SC2Tracker2\\\\web2py\\\\applications\\\\welcome\\\\', 'C:\\\\Users\\\\mellinja\\\\Documents\\\\SC2Tracker\\\\SC2Tracker2\\\\web2py\\\\applications\\\\admin\\\\'])"
p678
asbasbasbag61
(g77
g63
NtRp679
(dp680
g66
(dp681
sg75
g653
sg68
(lp682
g61
(g82
g63
NtRp683
(dp684
g66
(dp685
g86
g87
ssg75
g679
sg68
(lp686
S'applications_parent'
p687
asbag61
(g82
g63
NtRp688
(dp689
g66
(dp690
g93
g94
ssg75
g679
sg68
(lp691
S':'
asbag61
(g82
g63
NtRp692
(dp693
g66
(dp694
sg75
g679
sg68
(lp695
g61
(g62
g63
NtRp696
(dp697
g66
(dp698
g74
I4
ssg75
g692
sg68
(lp699
S'C:\\Users\\mellinja\\Documents\\SC2Tracker\\SC2Tracker2\\web2py'
p700
asbasbasbag61
(g77
g63
NtRp701
(dp702
g66
(dp703
sg75
g653
sg68
(lp704
g61
(g82
g63
NtRp705
(dp706
g66
(dp707
g86
g87
ssg75
g701
sg68
(lp708
S'cmd_args'
p709
asbag61
(g82
g63
NtRp710
(dp711
g66
(dp712
g93
g94
ssg75
g701
sg68
(lp713
S':'
asbag61
(g82
g63
NtRp714
(dp715
g66
(dp716
sg75
g701
sg68
(lp717
g61
(g62
g63
NtRp718
(dp719
g66
(dp720
g74
I4
ssg75
g714
sg68
(lp721
g61
(g70
g63
NtRp722
(dp723
g66
(dp724
g74
I3
ssg75
Nsg68
(lp725
sbasbasbasbag61
(g77
g63
NtRp726
(dp727
g66
(dp728
sg75
g653
sg68
(lp729
g61
(g82
g63
NtRp730
(dp731
g66
(dp732
g86
g87
ssg75
g726
sg68
(lp733
S'cmd_options'
p734
asbag61
(g82
g63
NtRp735
(dp736
g66
(dp737
g93
g94
ssg75
g726
sg68
(lp738
S':'
asbag61
(g82
g63
NtRp739
(dp740
g66
(dp741
sg75
g726
sg68
(lp742
g61
(g62
g63
NtRp743
(dp744
g66
(dp745
g74
I4
ssg75
g739
sg68
(lp746
S"<Values at 0x37275c8: {'verbose': False, 'ip': '127.0.0.1', 'shutdown_timeout': 5, 'taskbar': False, 'nocron': False, 'pid_filename': 'httpserver.pid', 'maxthreads': None, 'softcron': False, 'server_name': 'mellinja-PC', 'bpython': False, 'nogui': False, 'port': 8000, 'extcron': False, 'debuglevel': 30, 'test': None, 'folder': 'C:\\\\Users\\\\mellinja\\\\Documents\\\\SC2Tracker\\\\SC2Tracker2\\\\web2py', 'config': '', 'import_models': False, 'winservice': '', 'shell': None, 'run': '', 'log_filename': 'httpserver.log', 'args': [''], 'socket_timeout': 1, 'ssl_ca_certificate': None, 'scheduler': None, 'profiler_filename': None, 'ssl_private_key': '', 'password': '<ask>', 'request_queue_size': 5, 'ssl_certificate': '', 'cronjob': False, 'numthreads': None, 'quiet': False, 'interfaces': None, 'minthreads': None, 'timeout': 10, 'plain': False, 'nobanner': False}>"
p747
asbasbasbag61
(g77
g63
NtRp748
(dp749
g66
(dp750
sg75
g653
sg68
(lp751
g61
(g82
g63
NtRp752
(dp753
g66
(dp754
g86
g87
ssg75
g748
sg68
(lp755
S'content_length'
p756
asbag61
(g82
g63
NtRp757
(dp758
g66
(dp759
g93
g94
ssg75
g748
sg68
(lp760
S':'
asbag61
(g82
g63
NtRp761
(dp762
g66
(dp763
sg75
g748
sg68
(lp764
g61
(g62
g63
NtRp765
(dp766
g66
(dp767
g74
I4
ssg75
g761
sg68
(lp768
S'379'
p769
asbasbasbag61
(g77
g63
NtRp770
(dp771
g66
(dp772
sg75
g653
sg68
(lp773
g61
(g82
g63
NtRp774
(dp775
g66
(dp776
g86
g87
ssg75
g770
sg68
(lp777
S'content_type'
p778
asbag61
(g82
g63
NtRp779
(dp780
g66
(dp781
g93
g94
ssg75
g770
sg68
(lp782
S':'
asbag61
(g82
g63
NtRp783
(dp784
g66
(dp785
sg75
g770
sg68
(lp786
g61
(g62
g63
NtRp787
(dp788
g66
(dp789
g74
I4
ssg75
g783
sg68
(lp790
S'multipart/form-data; boundary=----WebKitFormBoundaryEBIpx6OtvWzEfBmu'
p791
asbasbasbag61
(g77
g63
NtRp792
(dp793
g66
(dp794
sg75
g653
sg68
(lp795
g61
(g82
g63
NtRp796
(dp797
g66
(dp798
g86
g87
ssg75
g792
sg68
(lp799
S'db_sessions'
p800
asbag61
(g82
g63
NtRp801
(dp802
g66
(dp803
g93
g94
ssg75
g792
sg68
(lp804
S':'
asbag61
(g82
g63
NtRp805
(dp806
g66
(dp807
sg75
g792
sg68
(lp808
g61
(g62
g63
NtRp809
(dp810
g66
(dp811
g74
I4
ssg75
g805
sg68
(lp812
S'set([])'
p813
asbasbasbag61
(g77
g63
NtRp814
(dp815
g66
(dp816
sg75
g653
sg68
(lp817
g61
(g82
g63
NtRp818
(dp819
g66
(dp820
g86
g87
ssg75
g814
sg68
(lp821
S'debugging'
p822
asbag61
(g82
g63
NtRp823
(dp824
g66
(dp825
g93
g94
ssg75
g814
sg68
(lp826
S':'
asbag61
(g82
g63
NtRp827
(dp828
g66
(dp829
sg75
g814
sg68
(lp830
g61
(g62
g63
NtRp831
(dp832
g66
(dp833
g74
I4
ssg75
g827
sg68
(lp834
g104
asbasbasbag61
(g77
g63
NtRp835
(dp836
g66
(dp837
sg75
g653
sg68
(lp838
g61
(g82
g63
NtRp839
(dp840
g66
(dp841
g86
g87
ssg75
g835
sg68
(lp842
S'gluon_parent'
p843
asbag61
(g82
g63
NtRp844
(dp845
g66
(dp846
g93
g94
ssg75
g835
sg68
(lp847
S':'
asbag61
(g82
g63
NtRp848
(dp849
g66
(dp850
sg75
g835
sg68
(lp851
g61
(g62
g63
NtRp852
(dp853
g66
(dp854
g74
I4
ssg75
g848
sg68
(lp855
S'C:\\Users\\mellinja\\Documents\\SC2Tracker\\SC2Tracker2\\web2py'
p856
asbasbasbag61
(g77
g63
NtRp857
(dp858
g66
(dp859
sg75
g653
sg68
(lp860
g61
(g82
g63
NtRp861
(dp862
g66
(dp863
g86
g87
ssg75
g857
sg68
(lp864
S'http_accept'
p865
asbag61
(g82
g63
NtRp866
(dp867
g66
(dp868
g93
g94
ssg75
g857
sg68
(lp869
S':'
asbag61
(g82
g63
NtRp870
(dp871
g66
(dp872
sg75
g857
sg68
(lp873
g61
(g62
g63
NtRp874
(dp875
g66
(dp876
g74
I4
ssg75
g870
sg68
(lp877
S'text/html,application/xhtml+xml,application/xml;q=0.9,*/*;q=0.8'
p878
asbasbasbag61
(g77
g63
NtRp879
(dp880
g66
(dp881
sg75
g653
sg68
(lp882
g61
(g82
g63
NtRp883
(dp884
g66
(dp885
g86
g87
ssg75
g879
sg68
(lp886
S'http_accept_charset'
p887
asbag61
(g82
g63
NtRp888
(dp889
g66
(dp890
g93
g94
ssg75
g879
sg68
(lp891
S':'
asbag61
(g82
g63
NtRp892
(dp893
g66
(dp894
sg75
g879
sg68
(lp895
g61
(g62
g63
NtRp896
(dp897
g66
(dp898
g74
I4
ssg75
g892
sg68
(lp899
S'ISO-8859-1,utf-8;q=0.7,*;q=0.3'
p900
asbasbasbag61
(g77
g63
NtRp901
(dp902
g66
(dp903
sg75
g653
sg68
(lp904
g61
(g82
g63
NtRp905
(dp906
g66
(dp907
g86
g87
ssg75
g901
sg68
(lp908
S'http_accept_encoding'
p909
asbag61
(g82
g63
NtRp910
(dp911
g66
(dp912
g93
g94
ssg75
g901
sg68
(lp913
S':'
asbag61
(g82
g63
NtRp914
(dp915
g66
(dp916
sg75
g901
sg68
(lp917
g61
(g62
g63
NtRp918
(dp919
g66
(dp920
g74
I4
ssg75
g914
sg68
(lp921
S'gzip,deflate,sdch'
p922
asbasbasbag61
(g77
g63
NtRp923
(dp924
g66
(dp925
sg75
g653
sg68
(lp926
g61
(g82
g63
NtRp927
(dp928
g66
(dp929
g86
g87
ssg75
g923
sg68
(lp930
S'http_accept_language'
p931
asbag61
(g82
g63
NtRp932
(dp933
g66
(dp934
g93
g94
ssg75
g923
sg68
(lp935
S':'
asbag61
(g82
g63
NtRp936
(dp937
g66
(dp938
sg75
g923
sg68
(lp939
g61
(g62
g63
NtRp940
(dp941
g66
(dp942
g74
I4
ssg75
g936
sg68
(lp943
S'en-US,en;q=0.8'
p944
asbasbasbag61
(g77
g63
NtRp945
(dp946
g66
(dp947
sg75
g653
sg68
(lp948
g61
(g82
g63
NtRp949
(dp950
g66
(dp951
g86
g87
ssg75
g945
sg68
(lp952
S'http_cache_control'
p953
asbag61
(g82
g63
NtRp954
(dp955
g66
(dp956
g93
g94
ssg75
g945
sg68
(lp957
S':'
asbag61
(g82
g63
NtRp958
(dp959
g66
(dp960
sg75
g945
sg68
(lp961
g61
(g62
g63
NtRp962
(dp963
g66
(dp964
g74
I4
ssg75
g958
sg68
(lp965
S'max-age=0'
p966
asbasbasbag61
(g77
g63
NtRp967
(dp968
g66
(dp969
sg75
g653
sg68
(lp970
g61
(g82
g63
NtRp971
(dp972
g66
(dp973
g86
g87
ssg75
g967
sg68
(lp974
S'http_connection'
p975
asbag61
(g82
g63
NtRp976
(dp977
g66
(dp978
g93
g94
ssg75
g967
sg68
(lp979
S':'
asbag61
(g82
g63
NtRp980
(dp981
g66
(dp982
sg75
g967
sg68
(lp983
g61
(g62
g63
NtRp984
(dp985
g66
(dp986
g74
I4
ssg75
g980
sg68
(lp987
S'keep-alive'
p988
asbasbasbag61
(g77
g63
NtRp989
(dp990
g66
(dp991
sg75
g653
sg68
(lp992
g61
(g82
g63
NtRp993
(dp994
g66
(dp995
g86
g87
ssg75
g989
sg68
(lp996
S'http_content_length'
p997
asbag61
(g82
g63
NtRp998
(dp999
g66
(dp1000
g93
g94
ssg75
g989
sg68
(lp1001
S':'
asbag61
(g82
g63
NtRp1002
(dp1003
g66
(dp1004
sg75
g989
sg68
(lp1005
g61
(g62
g63
NtRp1006
(dp1007
g66
(dp1008
g74
I4
ssg75
g1002
sg68
(lp1009
g769
asbasbasbag61
(g77
g63
NtRp1010
(dp1011
g66
(dp1012
sg75
g653
sg68
(lp1013
g61
(g82
g63
NtRp1014
(dp1015
g66
(dp1016
g86
g87
ssg75
g1010
sg68
(lp1017
S'http_content_type'
p1018
asbag61
(g82
g63
NtRp1019
(dp1020
g66
(dp1021
g93
g94
ssg75
g1010
sg68
(lp1022
S':'
asbag61
(g82
g63
NtRp1023
(dp1024
g66
(dp1025
sg75
g1010
sg68
(lp1026
g61
(g62
g63
NtRp1027
(dp1028
g66
(dp1029
g74
I4
ssg75
g1023
sg68
(lp1030
g791
asbasbasbag61
(g77
g63
NtRp1031
(dp1032
g66
(dp1033
sg75
g653
sg68
(lp1034
g61
(g82
g63
NtRp1035
(dp1036
g66
(dp1037
g86
g87
ssg75
g1031
sg68
(lp1038
S'http_cookie'
p1039
asbag61
(g82
g63
NtRp1040
(dp1041
g66
(dp1042
g93
g94
ssg75
g1031
sg68
(lp1043
S':'
asbag61
(g82
g63
NtRp1044
(dp1045
g66
(dp1046
sg75
g1031
sg68
(lp1047
g61
(g62
g63
NtRp1048
(dp1049
g66
(dp1050
g74
I4
ssg75
g1044
sg68
(lp1051
S'session_id_admin=127.0.0.1-4a630a3d-354c-4fe8-8759-a1634a574f0b; session_id_welcome=127.0.0.1-a90ce443-1437-4832-bce2-e811b9654eea'
p1052
asbasbasbag61
(g77
g63
NtRp1053
(dp1054
g66
(dp1055
sg75
g653
sg68
(lp1056
g61
(g82
g63
NtRp1057
(dp1058
g66
(dp1059
g86
g87
ssg75
g1053
sg68
(lp1060
S'http_host'
p1061
asbag61
(g82
g63
NtRp1062
(dp1063
g66
(dp1064
g93
g94
ssg75
g1053
sg68
(lp1065
S':'
asbag61
(g82
g63
NtRp1066
(dp1067
g66
(dp1068
sg75
g1053
sg68
(lp1069
g61
(g62
g63
NtRp1070
(dp1071
g66
(dp1072
g74
I4
ssg75
g1066
sg68
(lp1073
S'127.0.0.1:8000'
p1074
asbasbasbag61
(g77
g63
NtRp1075
(dp1076
g66
(dp1077
sg75
g653
sg68
(lp1078
g61
(g82
g63
NtRp1079
(dp1080
g66
(dp1081
g86
g87
ssg75
g1075
sg68
(lp1082
S'http_origin'
p1083
asbag61
(g82
g63
NtRp1084
(dp1085
g66
(dp1086
g93
g94
ssg75
g1075
sg68
(lp1087
S':'
asbag61
(g82
g63
NtRp1088
(dp1089
g66
(dp1090
sg75
g1075
sg68
(lp1091
g61
(g62
g63
NtRp1092
(dp1093
g66
(dp1094
g74
I4
ssg75
g1088
sg68
(lp1095
S'http://127.0.0.1:8000'
p1096
asbasbasbag61
(g77
g63
NtRp1097
(dp1098
g66
(dp1099
sg75
g653
sg68
(lp1100
g61
(g82
g63
NtRp1101
(dp1102
g66
(dp1103
g86
g87
ssg75
g1097
sg68
(lp1104
S'http_referer'
p1105
asbag61
(g82
g63
NtRp1106
(dp1107
g66
(dp1108
g93
g94
ssg75
g1097
sg68
(lp1109
S':'
asbag61
(g82
g63
NtRp1110
(dp1111
g66
(dp1112
sg75
g1097
sg68
(lp1113
g61
(g62
g63
NtRp1114
(dp1115
g66
(dp1116
g74
I4
ssg75
g1110
sg68
(lp1117
S'http://127.0.0.1:8000/welcome/tournament/show/7'
p1118
asbasbasbag61
(g77
g63
NtRp1119
(dp1120
g66
(dp1121
sg75
g653
sg68
(lp1122
g61
(g82
g63
NtRp1123
(dp1124
g66
(dp1125
g86
g87
ssg75
g1119
sg68
(lp1126
S'http_user_agent'
p1127
asbag61
(g82
g63
NtRp1128
(dp1129
g66
(dp1130
g93
g94
ssg75
g1119
sg68
(lp1131
S':'
asbag61
(g82
g63
NtRp1132
(dp1133
g66
(dp1134
sg75
g1119
sg68
(lp1135
g61
(g62
g63
NtRp1136
(dp1137
g66
(dp1138
g74
I4
ssg75
g1132
sg68
(lp1139
S'Mozilla/5.0 (Windows NT 6.1; WOW64) AppleWebKit/535.7 (KHTML, like Gecko) Chrome/16.0.912.77 Safari/535.7'
p1140
asbasbasbag61
(g77
g63
NtRp1141
(dp1142
g66
(dp1143
sg75
g653
sg68
(lp1144
g61
(g82
g63
NtRp1145
(dp1146
g66
(dp1147
g86
g87
ssg75
g1141
sg68
(lp1148
S'is_jython'
p1149
asbag61
(g82
g63
NtRp1150
(dp1151
g66
(dp1152
g93
g94
ssg75
g1141
sg68
(lp1153
S':'
asbag61
(g82
g63
NtRp1154
(dp1155
g66
(dp1156
sg75
g1141
sg68
(lp1157
g61
(g62
g63
NtRp1158
(dp1159
g66
(dp1160
g74
I4
ssg75
g1154
sg68
(lp1161
g104
asbasbasbag61
(g77
g63
NtRp1162
(dp1163
g66
(dp1164
sg75
g653
sg68
(lp1165
g61
(g82
g63
NtRp1166
(dp1167
g66
(dp1168
g86
g87
ssg75
g1162
sg68
(lp1169
S'is_pypy'
p1170
asbag61
(g82
g63
NtRp1171
(dp1172
g66
(dp1173
g93
g94
ssg75
g1162
sg68
(lp1174
S':'
asbag61
(g82
g63
NtRp1175
(dp1176
g66
(dp1177
sg75
g1162
sg68
(lp1178
g61
(g62
g63
NtRp1179
(dp1180
g66
(dp1181
g74
I4
ssg75
g1175
sg68
(lp1182
g104
asbasbasbag61
(g77
g63
NtRp1183
(dp1184
g66
(dp1185
sg75
g653
sg68
(lp1186
g61
(g82
g63
NtRp1187
(dp1188
g66
(dp1189
g86
g87
ssg75
g1183
sg68
(lp1190
S'path_info'
p1191
asbag61
(g82
g63
NtRp1192
(dp1193
g66
(dp1194
g93
g94
ssg75
g1183
sg68
(lp1195
S':'
asbag61
(g82
g63
NtRp1196
(dp1197
g66
(dp1198
sg75
g1183
sg68
(lp1199
g61
(g62
g63
NtRp1200
(dp1201
g66
(dp1202
g74
I4
ssg75
g1196
sg68
(lp1203
S'/welcome/tournament/show/7'
p1204
asbasbasbag61
(g77
g63
NtRp1205
(dp1206
g66
(dp1207
sg75
g653
sg68
(lp1208
g61
(g82
g63
NtRp1209
(dp1210
g66
(dp1211
g86
g87
ssg75
g1205
sg68
(lp1212
S'query_string'
p1213
asbag61
(g82
g63
NtRp1214
(dp1215
g66
(dp1216
g93
g94
ssg75
g1205
sg68
(lp1217
S':'
asbag61
(g82
g63
NtRp1218
(dp1219
g66
(dp1220
sg75
g1205
sg68
(lp1221
g61
(g62
g63
NtRp1222
(dp1223
g66
(dp1224
g74
I4
ssg75
g1218
sg68
(lp1225
S''
asbasbasbag61
(g77
g63
NtRp1226
(dp1227
g66
(dp1228
sg75
g653
sg68
(lp1229
g61
(g82
g63
NtRp1230
(dp1231
g66
(dp1232
g86
g87
ssg75
g1226
sg68
(lp1233
S'remote_addr'
p1234
asbag61
(g82
g63
NtRp1235
(dp1236
g66
(dp1237
g93
g94
ssg75
g1226
sg68
(lp1238
S':'
asbag61
(g82
g63
NtRp1239
(dp1240
g66
(dp1241
sg75
g1226
sg68
(lp1242
g61
(g62
g63
NtRp1243
(dp1244
g66
(dp1245
g74
I4
ssg75
g1239
sg68
(lp1246
g206
asbasbasbag61
(g77
g63
NtRp1247
(dp1248
g66
(dp1249
sg75
g653
sg68
(lp1250
g61
(g82
g63
NtRp1251
(dp1252
g66
(dp1253
g86
g87
ssg75
g1247
sg68
(lp1254
S'remote_port'
p1255
asbag61
(g82
g63
NtRp1256
(dp1257
g66
(dp1258
g93
g94
ssg75
g1247
sg68
(lp1259
S':'
asbag61
(g82
g63
NtRp1260
(dp1261
g66
(dp1262
sg75
g1247
sg68
(lp1263
g61
(g62
g63
NtRp1264
(dp1265
g66
(dp1266
g74
I4
ssg75
g1260
sg68
(lp1267
S'55069'
p1268
asbasbasbag61
(g77
g63
NtRp1269
(dp1270
g66
(dp1271
sg75
g653
sg68
(lp1272
g61
(g82
g63
NtRp1273
(dp1274
g66
(dp1275
g86
g87
ssg75
g1269
sg68
(lp1276
S'request_method'
p1277
asbag61
(g82
g63
NtRp1278
(dp1279
g66
(dp1280
g93
g94
ssg75
g1269
sg68
(lp1281
S':'
asbag61
(g82
g63
NtRp1282
(dp1283
g66
(dp1284
sg75
g1269
sg68
(lp1285
g61
(g62
g63
NtRp1286
(dp1287
g66
(dp1288
g74
I4
ssg75
g1282
sg68
(lp1289
S'POST'
p1290
asbasbasbag61
(g77
g63
NtRp1291
(dp1292
g66
(dp1293
sg75
g653
sg68
(lp1294
g61
(g82
g63
NtRp1295
(dp1296
g66
(dp1297
g86
g87
ssg75
g1291
sg68
(lp1298
S'script_name'
p1299
asbag61
(g82
g63
NtRp1300
(dp1301
g66
(dp1302
g93
g94
ssg75
g1291
sg68
(lp1303
S':'
asbag61
(g82
g63
NtRp1304
(dp1305
g66
(dp1306
sg75
g1291
sg68
(lp1307
g61
(g62
g63
NtRp1308
(dp1309
g66
(dp1310
g74
I4
ssg75
g1304
sg68
(lp1311
S''
asbasbasbag61
(g77
g63
NtRp1312
(dp1313
g66
(dp1314
sg75
g653
sg68
(lp1315
g61
(g82
g63
NtRp1316
(dp1317
g66
(dp1318
g86
g87
ssg75
g1312
sg68
(lp1319
S'server_name'
p1320
asbag61
(g82
g63
NtRp1321
(dp1322
g66
(dp1323
g93
g94
ssg75
g1312
sg68
(lp1324
S':'
asbag61
(g82
g63
NtRp1325
(dp1326
g66
(dp1327
sg75
g1312
sg68
(lp1328
g61
(g62
g63
NtRp1329
(dp1330
g66
(dp1331
g74
I4
ssg75
g1325
sg68
(lp1332
S'mellinja-PC'
p1333
asbasbasbag61
(g77
g63
NtRp1334
(dp1335
g66
(dp1336
sg75
g653
sg68
(lp1337
g61
(g82
g63
NtRp1338
(dp1339
g66
(dp1340
g86
g87
ssg75
g1334
sg68
(lp1341
S'server_port'
p1342
asbag61
(g82
g63
NtRp1343
(dp1344
g66
(dp1345
g93
g94
ssg75
g1334
sg68
(lp1346
S':'
asbag61
(g82
g63
NtRp1347
(dp1348
g66
(dp1349
sg75
g1334
sg68
(lp1350
g61
(g62
g63
NtRp1351
(dp1352
g66
(dp1353
g74
I4
ssg75
g1347
sg68
(lp1354
S'8000'
p1355
asbasbasbag61
(g77
g63
NtRp1356
(dp1357
g66
(dp1358
sg75
g653
sg68
(lp1359
g61
(g82
g63
NtRp1360
(dp1361
g66
(dp1362
g86
g87
ssg75
g1356
sg68
(lp1363
S'server_protocol'
p1364
asbag61
(g82
g63
NtRp1365
(dp1366
g66
(dp1367
g93
g94
ssg75
g1356
sg68
(lp1368
S':'
asbag61
(g82
g63
NtRp1369
(dp1370
g66
(dp1371
sg75
g1356
sg68
(lp1372
g61
(g62
g63
NtRp1373
(dp1374
g66
(dp1375
g74
I4
ssg75
g1369
sg68
(lp1376
S'HTTP/1.1'
p1377
asbasbasbag61
(g77
g63
NtRp1378
(dp1379
g66
(dp1380
sg75
g653
sg68
(lp1381
g61
(g82
g63
NtRp1382
(dp1383
g66
(dp1384
g86
g87
ssg75
g1378
sg68
(lp1385
S'server_software'
p1386
asbag61
(g82
g63
NtRp1387
(dp1388
g66
(dp1389
g93
g94
ssg75
g1378
sg68
(lp1390
S':'
asbag61
(g82
g63
NtRp1391
(dp1392
g66
(dp1393
sg75
g1378
sg68
(lp1394
g61
(g62
g63
NtRp1395
(dp1396
g66
(dp1397
g74
I4
ssg75
g1391
sg68
(lp1398
S'Rocket 1.2.4'
p1399
asbasbasbag61
(g77
g63
NtRp1400
(dp1401
g66
(dp1402
sg75
g653
sg68
(lp1403
g61
(g82
g63
NtRp1404
(dp1405
g66
(dp1406
g86
g87
ssg75
g1400
sg68
(lp1407
S'web2py_crontype'
p1408
asbag61
(g82
g63
NtRp1409
(dp1410
g66
(dp1411
g93
g94
ssg75
g1400
sg68
(lp1412
S':'
asbag61
(g82
g63
NtRp1413
(dp1414
g66
(dp1415
sg75
g1400
sg68
(lp1416
g61
(g62
g63
NtRp1417
(dp1418
g66
(dp1419
g74
I4
ssg75
g1413
sg68
(lp1420
S'hard'
p1421
asbasbasbag61
(g77
g63
NtRp1422
(dp1423
g66
(dp1424
sg75
g653
sg68
(lp1425
g61
(g82
g63
NtRp1426
(dp1427
g66
(dp1428
g86
g87
ssg75
g1422
sg68
(lp1429
S'web2py_path'
p1430
asbag61
(g82
g63
NtRp1431
(dp1432
g66
(dp1433
g93
g94
ssg75
g1422
sg68
(lp1434
S':'
asbag61
(g82
g63
NtRp1435
(dp1436
g66
(dp1437
sg75
g1422
sg68
(lp1438
g61
(g62
g63
NtRp1439
(dp1440
g66
(dp1441
g74
I4
ssg75
g1435
sg68
(lp1442
g700
asbasbasbag61
(g77
g63
NtRp1443
(dp1444
g66
(dp1445
sg75
g653
sg68
(lp1446
g61
(g82
g63
NtRp1447
(dp1448
g66
(dp1449
g86
g87
ssg75
g1443
sg68
(lp1450
S'web2py_version'
p1451
asbag61
(g82
g63
NtRp1452
(dp1453
g66
(dp1454
g93
g94
ssg75
g1443
sg68
(lp1455
S':'
asbag61
(g82
g63
NtRp1456
(dp1457
g66
(dp1458
sg75
g1443
sg68
(lp1459
g61
(g62
g63
NtRp1460
(dp1461
g66
(dp1462
g74
I4
ssg75
g1456
sg68
(lp1463
g61
(g70
g63
NtRp1464
(dp1465
g66
(dp1466
g74
I3
ssg75
Nsg68
(lp1467
g61
(g77
g63
NtRp1468
(dp1469
g66
(dp1470
sg75
g1464
sg68
(lp1471
g61
(g82
g63
NtRp1472
(dp1473
g66
(dp1474
sg75
g1468
sg68
(lp1475
g61
(g62
g63
NtRp1476
(dp1477
g66
(dp1478
g74
I3
ssg75
g1472
sg68
(lp1479
S'1'
asbasbasbag61
(g77
g63
NtRp1480
(dp1481
g66
(dp1482
sg75
g1464
sg68
(lp1483
g61
(g82
g63
NtRp1484
(dp1485
g66
(dp1486
sg75
g1480
sg68
(lp1487
g61
(g62
g63
NtRp1488
(dp1489
g66
(dp1490
g74
I3
ssg75
g1484
sg68
(lp1491
S'99'
p1492
asbasbasbag61
(g77
g63
NtRp1493
(dp1494
g66
(dp1495
sg75
g1464
sg68
(lp1496
g61
(g82
g63
NtRp1497
(dp1498
g66
(dp1499
sg75
g1493
sg68
(lp1500
g61
(g62
g63
NtRp1501
(dp1502
g66
(dp1503
g74
I3
ssg75
g1497
sg68
(lp1504
S'4'
asbasbasbag61
(g77
g63
NtRp1505
(dp1506
g66
(dp1507
sg75
g1464
sg68
(lp1508
g61
(g82
g63
NtRp1509
(dp1510
g66
(dp1511
sg75
g1505
sg68
(lp1512
g61
(g62
g63
NtRp1513
(dp1514
g66
(dp1515
g74
I3
ssg75
g1509
sg68
(lp1516
S'datetime.datetime(2011, 12, 14, 14, 46, 14)'
p1517
asbasbasbag61
(g77
g63
NtRp1518
(dp1519
g66
(dp1520
sg75
g1464
sg68
(lp1521
g61
(g82
g63
NtRp1522
(dp1523
g66
(dp1524
sg75
g1518
sg68
(lp1525
g61
(g62
g63
NtRp1526
(dp1527
g66
(dp1528
g74
I3
ssg75
g1522
sg68
(lp1529
S'stable'
p1530
asbasbasbasbasbasbasbag61
(g77
g63
NtRp1531
(dp1532
g66
(dp1533
sg75
g653
sg68
(lp1534
g61
(g82
g63
NtRp1535
(dp1536
g66
(dp1537
g86
g87
ssg75
g1531
sg68
(lp1538
S'wsgi_errors'
p1539
asbag61
(g82
g63
NtRp1540
(dp1541
g66
(dp1542
g93
g94
ssg75
g1531
sg68
(lp1543
S':'
asbag61
(g82
g63
NtRp1544
(dp1545
g66
(dp1546
sg75
g1531
sg68
(lp1547
g61
(g62
g63
NtRp1548
(dp1549
g66
(dp1550
g74
I4
ssg75
g1544
sg68
(lp1551
S"<open file '<stderr>', mode 'w' at 0x0000000001EF61E0>"
p1552
asbasbasbag61
(g77
g63
NtRp1553
(dp1554
g66
(dp1555
sg75
g653
sg68
(lp1556
g61
(g82
g63
NtRp1557
(dp1558
g66
(dp1559
g86
g87
ssg75
g1553
sg68
(lp1560
S'wsgi_file_wrapper'
p1561
asbag61
(g82
g63
NtRp1562
(dp1563
g66
(dp1564
g93
g94
ssg75
g1553
sg68
(lp1565
S':'
asbag61
(g82
g63
NtRp1566
(dp1567
g66
(dp1568
sg75
g1553
sg68
(lp1569
g61
(g62
g63
NtRp1570
(dp1571
g66
(dp1572
g74
I4
ssg75
g1566
sg68
(lp1573
S'<class wsgiref.util.FileWrapper at 0x000000000361C948>'
p1574
asbasbasbag61
(g77
g63
NtRp1575
(dp1576
g66
(dp1577
sg75
g653
sg68
(lp1578
g61
(g82
g63
NtRp1579
(dp1580
g66
(dp1581
g86
g87
ssg75
g1575
sg68
(lp1582
S'wsgi_input'
p1583
asbag61
(g82
g63
NtRp1584
(dp1585
g66
(dp1586
g93
g94
ssg75
g1575
sg68
(lp1587
S':'
asbag61
(g82
g63
NtRp1588
(dp1589
g66
(dp1590
sg75
g1575
sg68
(lp1591
g61
(g62
g63
NtRp1592
(dp1593
g66
(dp1594
g74
I4
ssg75
g1588
sg68
(lp1595
S'<socket._fileobject object at 0x00000000084C1F48>'
p1596
asbasbasbag61
(g77
g63
NtRp1597
(dp1598
g66
(dp1599
sg75
g653
sg68
(lp1600
g61
(g82
g63
NtRp1601
(dp1602
g66
(dp1603
g86
g87
ssg75
g1597
sg68
(lp1604
S'wsgi_multiprocess'
p1605
asbag61
(g82
g63
NtRp1606
(dp1607
g66
(dp1608
g93
g94
ssg75
g1597
sg68
(lp1609
S':'
asbag61
(g82
g63
NtRp1610
(dp1611
g66
(dp1612
sg75
g1597
sg68
(lp1613
g61
(g62
g63
NtRp1614
(dp1615
g66
(dp1616
g74
I4
ssg75
g1610
sg68
(lp1617
g104
asbasbasbag61
(g77
g63
NtRp1618
(dp1619
g66
(dp1620
sg75
g653
sg68
(lp1621
g61
(g82
g63
NtRp1622
(dp1623
g66
(dp1624
g86
g87
ssg75
g1618
sg68
(lp1625
S'wsgi_multithread'
p1626
asbag61
(g82
g63
NtRp1627
(dp1628
g66
(dp1629
g93
g94
ssg75
g1618
sg68
(lp1630
S':'
asbag61
(g82
g63
NtRp1631
(dp1632
g66
(dp1633
sg75
g1618
sg68
(lp1634
g61
(g62
g63
NtRp1635
(dp1636
g66
(dp1637
g74
I4
ssg75
g1631
sg68
(lp1638
S'True'
p1639
asbasbasbag61
(g77
g63
NtRp1640
(dp1641
g66
(dp1642
sg75
g653
sg68
(lp1643
g61
(g82
g63
NtRp1644
(dp1645
g66
(dp1646
g86
g87
ssg75
g1640
sg68
(lp1647
S'wsgi_run_once'
p1648
asbag61
(g82
g63
NtRp1649
(dp1650
g66
(dp1651
g93
g94
ssg75
g1640
sg68
(lp1652
S':'
asbag61
(g82
g63
NtRp1653
(dp1654
g66
(dp1655
sg75
g1640
sg68
(lp1656
g61
(g62
g63
NtRp1657
(dp1658
g66
(dp1659
g74
I4
ssg75
g1653
sg68
(lp1660
g104
asbasbasbag61
(g77
g63
NtRp1661
(dp1662
g66
(dp1663
sg75
g653
sg68
(lp1664
g61
(g82
g63
NtRp1665
(dp1666
g66
(dp1667
g86
g87
ssg75
g1661
sg68
(lp1668
S'wsgi_url_scheme'
p1669
asbag61
(g82
g63
NtRp1670
(dp1671
g66
(dp1672
g93
g94
ssg75
g1661
sg68
(lp1673
S':'
asbag61
(g82
g63
NtRp1674
(dp1675
g66
(dp1676
sg75
g1661
sg68
(lp1677
g61
(g62
g63
NtRp1678
(dp1679
g66
(dp1680
g74
I4
ssg75
g1674
sg68
(lp1681
S'http'
p1682
asbasbasbag61
(g77
g63
NtRp1683
(dp1684
g66
(dp1685
sg75
g653
sg68
(lp1686
g61
(g82
g63
NtRp1687
(dp1688
g66
(dp1689
g86
g87
ssg75
g1683
sg68
(lp1690
S'wsgi_version'
p1691
asbag61
(g82
g63
NtRp1692
(dp1693
g66
(dp1694
g93
g94
ssg75
g1683
sg68
(lp1695
S':'
asbag61
(g82
g63
NtRp1696
(dp1697
g66
(dp1698
sg75
g1683
sg68
(lp1699
g61
(g62
g63
NtRp1700
(dp1701
g66
(dp1702
g74
I4
ssg75
g1696
sg68
(lp1703
g61
(g70
g63
NtRp1704
(dp1705
g66
(dp1706
g74
I3
ssg75
Nsg68
(lp1707
g61
(g77
g63
NtRp1708
(dp1709
g66
(dp1710
sg75
g1704
sg68
(lp1711
g61
(g82
g63
NtRp1712
(dp1713
g66
(dp1714
sg75
g1708
sg68
(lp1715
g61
(g62
g63
NtRp1716
(dp1717
g66
(dp1718
g74
I3
ssg75
g1712
sg68
(lp1719
S'1'
asbasbasbag61
(g77
g63
NtRp1720
(dp1721
g66
(dp1722
sg75
g1704
sg68
(lp1723
g61
(g82
g63
NtRp1724
(dp1725
g66
(dp1726
sg75
g1720
sg68
(lp1727
g61
(g62
g63
NtRp1728
(dp1729
g66
(dp1730
g74
I3
ssg75
g1724
sg68
(lp1731
S'0'
asbasbasbasbasbasbasbasbasbasbasbag61
(g77
g63
NtRp1732
(dp1733
g66
(dp1734
sg75
g71
sg68
(lp1735
g61
(g82
g63
NtRp1736
(dp1737
g66
(dp1738
g86
g87
ssg75
g1732
sg68
(lp1739
S'extension'
p1740
asbag61
(g82
g63
NtRp1741
(dp1742
g66
(dp1743
g93
g94
ssg75
g1732
sg68
(lp1744
S':'
asbag61
(g82
g63
NtRp1745
(dp1746
g66
(dp1747
sg75
g1732
sg68
(lp1748
g61
(g62
g63
NtRp1749
(dp1750
g66
(dp1751
g74
I5
ssg75
g1745
sg68
(lp1752
S'html'
p1753
asbasbasbag61
(g77
g63
NtRp1754
(dp1755
g66
(dp1756
sg75
g71
sg68
(lp1757
g61
(g82
g63
NtRp1758
(dp1759
g66
(dp1760
g86
g87
ssg75
g1754
sg68
(lp1761
S'folder'
p1762
asbag61
(g82
g63
NtRp1763
(dp1764
g66
(dp1765
g93
g94
ssg75
g1754
sg68
(lp1766
S':'
asbag61
(g82
g63
NtRp1767
(dp1768
g66
(dp1769
sg75
g1754
sg68
(lp1770
g61
(g62
g63
NtRp1771
(dp1772
g66
(dp1773
g74
I5
ssg75
g1767
sg68
(lp1774
S'C:\\Users\\mellinja\\Documents\\SC2Tracker\\SC2Tracker2\\web2py\\applications\\welcome\\'
p1775
asbasbasbag61
(g77
g63
NtRp1776
(dp1777
g66
(dp1778
sg75
g71
sg68
(lp1779
g61
(g82
g63
NtRp1780
(dp1781
g66
(dp1782
g86
g87
ssg75
g1776
sg68
(lp1783
S'function'
p1784
asbag61
(g82
g63
NtRp1785
(dp1786
g66
(dp1787
g93
g94
ssg75
g1776
sg68
(lp1788
S':'
asbag61
(g82
g63
NtRp1789
(dp1790
g66
(dp1791
sg75
g1776
sg68
(lp1792
g61
(g62
g63
NtRp1793
(dp1794
g66
(dp1795
g74
I5
ssg75
g1789
sg68
(lp1796
S'show'
p1797
asbasbasbag61
(g77
g63
NtRp1798
(dp1799
g66
(dp1800
sg75
g71
sg68
(lp1801
g61
(g82
g63
NtRp1802
(dp1803
g66
(dp1804
g86
g87
ssg75
g1798
sg68
(lp1805
S'get_vars'
p1806
asbag61
(g82
g63
NtRp1807
(dp1808
g66
(dp1809
g93
g94
ssg75
g1798
sg68
(lp1810
S':'
asbag61
(g82
g63
NtRp1811
(dp1812
g66
(dp1813
sg75
g1798
sg68
(lp1814
g61
(g62
g63
NtRp1815
(dp1816
g66
(dp1817
g74
I5
ssg75
g1811
sg68
(lp1818
g61
(g70
g63
NtRp1819
(dp1820
g66
(dp1821
g74
I4
ssg75
Nsg68
(lp1822
sbasbasbasbag61
(g77
g63
NtRp1823
(dp1824
g66
(dp1825
sg75
g71
sg68
(lp1826
g61
(g82
g63
NtRp1827
(dp1828
g66
(dp1829
g86
g87
ssg75
g1823
sg68
(lp1830
S'global_settings'
p1831
asbag61
(g82
g63
NtRp1832
(dp1833
g66
(dp1834
g93
g94
ssg75
g1823
sg68
(lp1835
S':'
asbag61
(g82
g63
NtRp1836
(dp1837
g66
(dp1838
sg75
g1823
sg68
(lp1839
g61
(g62
g63
NtRp1840
(dp1841
g66
(dp1842
g74
I5
ssg75
g1836
sg68
(lp1843
g61
(g70
g63
NtRp1844
(dp1845
g66
(dp1846
g74
I4
ssg75
Nsg68
(lp1847
g61
(g77
g63
NtRp1848
(dp1849
g66
(dp1850
sg75
g1844
sg68
(lp1851
g61
(g82
g63
NtRp1852
(dp1853
g66
(dp1854
g86
g87
ssg75
g1848
sg68
(lp1855
g665
asbag61
(g82
g63
NtRp1856
(dp1857
g66
(dp1858
g93
g94
ssg75
g1848
sg68
(lp1859
S':'
asbag61
(g82
g63
NtRp1860
(dp1861
g66
(dp1862
sg75
g1848
sg68
(lp1863
g61
(g62
g63
NtRp1864
(dp1865
g66
(dp1866
g74
I4
ssg75
g1860
sg68
(lp1867
S"set(['C:\\\\Users\\\\mellinja\\\\Documents\\\\SC2Tracker\\\\SC2Tracker2\\\\web2py\\\\applications\\\\welcome\\\\', 'C:\\\\Users\\\\mellinja\\\\Documents\\\\SC2Tracker\\\\SC2Tracker2\\\\web2py\\\\applications\\\\admin\\\\'])"
p1868
asbasbasbag61
(g77
g63
NtRp1869
(dp1870
g66
(dp1871
sg75
g1844
sg68
(lp1872
g61
(g82
g63
NtRp1873
(dp1874
g66
(dp1875
g86
g87
ssg75
g1869
sg68
(lp1876
g687
asbag61
(g82
g63
NtRp1877
(dp1878
g66
(dp1879
g93
g94
ssg75
g1869
sg68
(lp1880
S':'
asbag61
(g82
g63
NtRp1881
(dp1882
g66
(dp1883
sg75
g1869
sg68
(lp1884
g61
(g62
g63
NtRp1885
(dp1886
g66
(dp1887
g74
I4
ssg75
g1881
sg68
(lp1888
g700
asbasbasbag61
(g77
g63
NtRp1889
(dp1890
g66
(dp1891
sg75
g1844
sg68
(lp1892
g61
(g82
g63
NtRp1893
(dp1894
g66
(dp1895
g86
g87
ssg75
g1889
sg68
(lp1896
g709
asbag61
(g82
g63
NtRp1897
(dp1898
g66
(dp1899
g93
g94
ssg75
g1889
sg68
(lp1900
S':'
asbag61
(g82
g63
NtRp1901
(dp1902
g66
(dp1903
sg75
g1889
sg68
(lp1904
g61
(g62
g63
NtRp1905
(dp1906
g66
(dp1907
g74
I4
ssg75
g1901
sg68
(lp1908
g61
(g70
g63
NtRp1909
(dp1910
g66
(dp1911
g74
I3
ssg75
Nsg68
(lp1912
sbasbasbasbag61
(g77
g63
NtRp1913
(dp1914
g66
(dp1915
sg75
g1844
sg68
(lp1916
g61
(g82
g63
NtRp1917
(dp1918
g66
(dp1919
g86
g87
ssg75
g1913
sg68
(lp1920
g734
asbag61
(g82
g63
NtRp1921
(dp1922
g66
(dp1923
g93
g94
ssg75
g1913
sg68
(lp1924
S':'
asbag61
(g82
g63
NtRp1925
(dp1926
g66
(dp1927
sg75
g1913
sg68
(lp1928
g61
(g62
g63
NtRp1929
(dp1930
g66
(dp1931
g74
I4
ssg75
g1925
sg68
(lp1932
S"<Values at 0x37275c8: {'verbose': False, 'ip': '127.0.0.1', 'shutdown_timeout': 5, 'taskbar': False, 'nocron': False, 'pid_filename': 'httpserver.pid', 'maxthreads': None, 'softcron': False, 'server_name': 'mellinja-PC', 'bpython': False, 'nogui': False, 'port': 8000, 'extcron': False, 'debuglevel': 30, 'test': None, 'folder': 'C:\\\\Users\\\\mellinja\\\\Documents\\\\SC2Tracker\\\\SC2Tracker2\\\\web2py', 'config': '', 'import_models': False, 'winservice': '', 'shell': None, 'run': '', 'log_filename': 'httpserver.log', 'args': [''], 'socket_timeout': 1, 'ssl_ca_certificate': None, 'scheduler': None, 'profiler_filename': None, 'ssl_private_key': '', 'password': '<ask>', 'request_queue_size': 5, 'ssl_certificate': '', 'cronjob': False, 'numthreads': None, 'quiet': False, 'interfaces': None, 'minthreads': None, 'timeout': 10, 'plain': False, 'nobanner': False}>"
p1933
asbasbasbag61
(g77
g63
NtRp1934
(dp1935
g66
(dp1936
sg75
g1844
sg68
(lp1937
g61
(g82
g63
NtRp1938
(dp1939
g66
(dp1940
g86
g87
ssg75
g1934
sg68
(lp1941
g800
asbag61
(g82
g63
NtRp1942
(dp1943
g66
(dp1944
g93
g94
ssg75
g1934
sg68
(lp1945
S':'
asbag61
(g82
g63
NtRp1946
(dp1947
g66
(dp1948
sg75
g1934
sg68
(lp1949
g61
(g62
g63
NtRp1950
(dp1951
g66
(dp1952
g74
I4
ssg75
g1946
sg68
(lp1953
S'set([])'
p1954
asbasbasbag61
(g77
g63
NtRp1955
(dp1956
g66
(dp1957
sg75
g1844
sg68
(lp1958
g61
(g82
g63
NtRp1959
(dp1960
g66
(dp1961
g86
g87
ssg75
g1955
sg68
(lp1962
g822
asbag61
(g82
g63
NtRp1963
(dp1964
g66
(dp1965
g93
g94
ssg75
g1955
sg68
(lp1966
S':'
asbag61
(g82
g63
NtRp1967
(dp1968
g66
(dp1969
sg75
g1955
sg68
(lp1970
g61
(g62
g63
NtRp1971
(dp1972
g66
(dp1973
g74
I4
ssg75
g1967
sg68
(lp1974
g104
asbasbasbag61
(g77
g63
NtRp1975
(dp1976
g66
(dp1977
sg75
g1844
sg68
(lp1978
g61
(g82
g63
NtRp1979
(dp1980
g66
(dp1981
g86
g87
ssg75
g1975
sg68
(lp1982
g843
asbag61
(g82
g63
NtRp1983
(dp1984
g66
(dp1985
g93
g94
ssg75
g1975
sg68
(lp1986
S':'
asbag61
(g82
g63
NtRp1987
(dp1988
g66
(dp1989
sg75
g1975
sg68
(lp1990
g61
(g62
g63
NtRp1991
(dp1992
g66
(dp1993
g74
I4
ssg75
g1987
sg68
(lp1994
g856
asbasbasbag61
(g77
g63
NtRp1995
(dp1996
g66
(dp1997
sg75
g1844
sg68
(lp1998
g61
(g82
g63
NtRp1999
(dp2000
g66
(dp2001
g86
g87
ssg75
g1995
sg68
(lp2002
g1149
asbag61
(g82
g63
NtRp2003
(dp2004
g66
(dp2005
g93
g94
ssg75
g1995
sg68
(lp2006
S':'
asbag61
(g82
g63
NtRp2007
(dp2008
g66
(dp2009
sg75
g1995
sg68
(lp2010
g61
(g62
g63
NtRp2011
(dp2012
g66
(dp2013
g74
I4
ssg75
g2007
sg68
(lp2014
g104
asbasbasbag61
(g77
g63
NtRp2015
(dp2016
g66
(dp2017
sg75
g1844
sg68
(lp2018
g61
(g82
g63
NtRp2019
(dp2020
g66
(dp2021
g86
g87
ssg75
g2015
sg68
(lp2022
g1170
asbag61
(g82
g63
NtRp2023
(dp2024
g66
(dp2025
g93
g94
ssg75
g2015
sg68
(lp2026
S':'
asbag61
(g82
g63
NtRp2027
(dp2028
g66
(dp2029
sg75
g2015
sg68
(lp2030
g61
(g62
g63
NtRp2031
(dp2032
g66
(dp2033
g74
I4
ssg75
g2027
sg68
(lp2034
g104
asbasbasbag61
(g77
g63
NtRp2035
(dp2036
g66
(dp2037
sg75
g1844
sg68
(lp2038
g61
(g82
g63
NtRp2039
(dp2040
g66
(dp2041
g86
g87
ssg75
g2035
sg68
(lp2042
g1408
asbag61
(g82
g63
NtRp2043
(dp2044
g66
(dp2045
g93
g94
ssg75
g2035
sg68
(lp2046
S':'
asbag61
(g82
g63
NtRp2047
(dp2048
g66
(dp2049
sg75
g2035
sg68
(lp2050
g61
(g62
g63
NtRp2051
(dp2052
g66
(dp2053
g74
I4
ssg75
g2047
sg68
(lp2054
g1421
asbasbasbag61
(g77
g63
NtRp2055
(dp2056
g66
(dp2057
sg75
g1844
sg68
(lp2058
g61
(g82
g63
NtRp2059
(dp2060
g66
(dp2061
g86
g87
ssg75
g2055
sg68
(lp2062
g1451
asbag61
(g82
g63
NtRp2063
(dp2064
g66
(dp2065
g93
g94
ssg75
g2055
sg68
(lp2066
S':'
asbag61
(g82
g63
NtRp2067
(dp2068
g66
(dp2069
sg75
g2055
sg68
(lp2070
g61
(g62
g63
NtRp2071
(dp2072
g66
(dp2073
g74
I4
ssg75
g2067
sg68
(lp2074
g61
(g70
g63
NtRp2075
(dp2076
g66
(dp2077
g74
I3
ssg75
Nsg68
(lp2078
g61
(g77
g63
NtRp2079
(dp2080
g66
(dp2081
sg75
g2075
sg68
(lp2082
g61
(g82
g63
NtRp2083
(dp2084
g66
(dp2085
sg75
g2079
sg68
(lp2086
g61
(g62
g63
NtRp2087
(dp2088
g66
(dp2089
g74
I3
ssg75
g2083
sg68
(lp2090
S'1'
asbasbasbag61
(g77
g63
NtRp2091
(dp2092
g66
(dp2093
sg75
g2075
sg68
(lp2094
g61
(g82
g63
NtRp2095
(dp2096
g66
(dp2097
sg75
g2091
sg68
(lp2098
g61
(g62
g63
NtRp2099
(dp2100
g66
(dp2101
g74
I3
ssg75
g2095
sg68
(lp2102
S'99'
p2103
asbasbasbag61
(g77
g63
NtRp2104
(dp2105
g66
(dp2106
sg75
g2075
sg68
(lp2107
g61
(g82
g63
NtRp2108
(dp2109
g66
(dp2110
sg75
g2104
sg68
(lp2111
g61
(g62
g63
NtRp2112
(dp2113
g66
(dp2114
g74
I3
ssg75
g2108
sg68
(lp2115
S'4'
asbasbasbag61
(g77
g63
NtRp2116
(dp2117
g66
(dp2118
sg75
g2075
sg68
(lp2119
g61
(g82
g63
NtRp2120
(dp2121
g66
(dp2122
sg75
g2116
sg68
(lp2123
g61
(g62
g63
NtRp2124
(dp2125
g66
(dp2126
g74
I3
ssg75
g2120
sg68
(lp2127
S'datetime.datetime(2011, 12, 14, 14, 46, 14)'
p2128
asbasbasbag61
(g77
g63
NtRp2129
(dp2130
g66
(dp2131
sg75
g2075
sg68
(lp2132
g61
(g82
g63
NtRp2133
(dp2134
g66
(dp2135
sg75
g2129
sg68
(lp2136
g61
(g62
g63
NtRp2137
(dp2138
g66
(dp2139
g74
I3
ssg75
g2133
sg68
(lp2140
g1530
asbasbasbasbasbasbasbasbasbasbasbag61
(g77
g63
NtRp2141
(dp2142
g66
(dp2143
sg75
g71
sg68
(lp2144
g61
(g82
g63
NtRp2145
(dp2146
g66
(dp2147
g86
g87
ssg75
g2141
sg68
(lp2148
S'is_https'
p2149
asbag61
(g82
g63
NtRp2150
(dp2151
g66
(dp2152
g93
g94
ssg75
g2141
sg68
(lp2153
S':'
asbag61
(g82
g63
NtRp2154
(dp2155
g66
(dp2156
sg75
g2141
sg68
(lp2157
g61
(g62
g63
NtRp2158
(dp2159
g66
(dp2160
g74
I5
ssg75
g2154
sg68
(lp2161
g104
asbasbasbag61
(g77
g63
NtRp2162
(dp2163
g66
(dp2164
sg75
g71
sg68
(lp2165
g61
(g82
g63
NtRp2166
(dp2167
g66
(dp2168
g86
g87
ssg75
g2162
sg68
(lp2169
S'is_local'
p2170
asbag61
(g82
g63
NtRp2171
(dp2172
g66
(dp2173
g93
g94
ssg75
g2162
sg68
(lp2174
S':'
asbag61
(g82
g63
NtRp2175
(dp2176
g66
(dp2177
sg75
g2162
sg68
(lp2178
g61
(g62
g63
NtRp2179
(dp2180
g66
(dp2181
g74
I5
ssg75
g2175
sg68
(lp2182
g1639
asbasbasbag61
(g77
g63
NtRp2183
(dp2184
g66
(dp2185
sg75
g71
sg68
(lp2186
g61
(g82
g63
NtRp2187
(dp2188
g66
(dp2189
g86
g87
ssg75
g2183
sg68
(lp2190
S'is_restful'
p2191
asbag61
(g82
g63
NtRp2192
(dp2193
g66
(dp2194
g93
g94
ssg75
g2183
sg68
(lp2195
S':'
asbag61
(g82
g63
NtRp2196
(dp2197
g66
(dp2198
sg75
g2183
sg68
(lp2199
g61
(g62
g63
NtRp2200
(dp2201
g66
(dp2202
g74
I5
ssg75
g2196
sg68
(lp2203
g104
asbasbasbag61
(g77
g63
NtRp2204
(dp2205
g66
(dp2206
sg75
g71
sg68
(lp2207
g61
(g82
g63
NtRp2208
(dp2209
g66
(dp2210
g86
g87
ssg75
g2204
sg68
(lp2211
S'now'
p2212
asbag61
(g82
g63
NtRp2213
(dp2214
g66
(dp2215
g93
g94
ssg75
g2204
sg68
(lp2216
S':'
asbag61
(g82
g63
NtRp2217
(dp2218
g66
(dp2219
sg75
g2204
sg68
(lp2220
g61
(g62
g63
NtRp2221
(dp2222
g66
(dp2223
g74
I5
ssg75
g2217
sg68
(lp2224
S'datetime.datetime(2012, 2, 13, 16, 38, 16, 160000)'
p2225
asbasbasbag61
(g77
g63
NtRp2226
(dp2227
g66
(dp2228
sg75
g71
sg68
(lp2229
g61
(g82
g63
NtRp2230
(dp2231
g66
(dp2232
g86
g87
ssg75
g2226
sg68
(lp2233
S'post_vars'
p2234
asbag61
(g82
g63
NtRp2235
(dp2236
g66
(dp2237
g93
g94
ssg75
g2226
sg68
(lp2238
S':'
asbag61
(g82
g63
NtRp2239
(dp2240
g66
(dp2241
sg75
g2226
sg68
(lp2242
g61
(g62
g63
NtRp2243
(dp2244
g66
(dp2245
g74
I5
ssg75
g2239
sg68
(lp2246
g61
(g70
g63
NtRp2247
(dp2248
g66
(dp2249
g74
I4
ssg75
Nsg68
(lp2250
g61
(g77
g63
NtRp2251
(dp2252
g66
(dp2253
sg75
g2247
sg68
(lp2254
g61
(g82
g63
NtRp2255
(dp2256
g66
(dp2257
g86
g87
ssg75
g2251
sg68
(lp2258
S'Player'
p2259
asbag61
(g82
g63
NtRp2260
(dp2261
g66
(dp2262
g93
g94
ssg75
g2251
sg68
(lp2263
S':'
asbag61
(g82
g63
NtRp2264
(dp2265
g66
(dp2266
sg75
g2251
sg68
(lp2267
g61
(g62
g63
NtRp2268
(dp2269
g66
(dp2270
g74
I4
ssg75
g2264
sg68
(lp2271
S'Bisquits'
p2272
asbasbasbasbasbasbasbag61
(g77
g63
NtRp2273
(dp2274
g66
(dp2275
sg75
g71
sg68
(lp2276
g61
(g82
g63
NtRp2277
(dp2278
g66
(dp2279
g86
g87
ssg75
g2273
sg68
(lp2280
S'raw_args'
p2281
asbag61
(g82
g63
NtRp2282
(dp2283
g66
(dp2284
g93
g94
ssg75
g2273
sg68
(lp2285
S':'
asbag61
(g82
g63
NtRp2286
(dp2287
g66
(dp2288
sg75
g2273
sg68
(lp2289
g61
(g62
g63
NtRp2290
(dp2291
g66
(dp2292
g74
I5
ssg75
g2286
sg68
(lp2293
S'7'
asbasbasbag61
(g77
g63
NtRp2294
(dp2295
g66
(dp2296
sg75
g71
sg68
(lp2297
g61
(g82
g63
NtRp2298
(dp2299
g66
(dp2300
g86
g87
ssg75
g2294
sg68
(lp2301
S'url'
p2302
asbag61
(g82
g63
NtRp2303
(dp2304
g66
(dp2305
g93
g94
ssg75
g2294
sg68
(lp2306
S':'
asbag61
(g82
g63
NtRp2307
(dp2308
g66
(dp2309
sg75
g2294
sg68
(lp2310
g61
(g62
g63
NtRp2311
(dp2312
g66
(dp2313
g74
I5
ssg75
g2307
sg68
(lp2314
S'/welcome/tournament/show/7'
p2315
asbasbasbag61
(g77
g63
NtRp2316
(dp2317
g66
(dp2318
sg75
g71
sg68
(lp2319
g61
(g82
g63
NtRp2320
(dp2321
g66
(dp2322
g86
g87
ssg75
g2316
sg68
(lp2323
S'utcnow'
p2324
asbag61
(g82
g63
NtRp2325
(dp2326
g66
(dp2327
g93
g94
ssg75
g2316
sg68
(lp2328
S':'
asbag61
(g82
g63
NtRp2329
(dp2330
g66
(dp2331
sg75
g2316
sg68
(lp2332
g61
(g62
g63
NtRp2333
(dp2334
g66
(dp2335
g74
I5
ssg75
g2329
sg68
(lp2336
S'datetime.datetime(2012, 2, 13, 21, 38, 16, 160000)'
p2337
asbasbasbag61
(g77
g63
NtRp2338
(dp2339
g66
(dp2340
sg75
g71
sg68
(lp2341
g61
(g82
g63
NtRp2342
(dp2343
g66
(dp2344
g86
g87
ssg75
g2338
sg68
(lp2345
S'uuid'
p2346
asbag61
(g82
g63
NtRp2347
(dp2348
g66
(dp2349
g93
g94
ssg75
g2338
sg68
(lp2350
S':'
asbag61
(g82
g63
NtRp2351
(dp2352
g66
(dp2353
sg75
g2338
sg68
(lp2354
g61
(g62
g63
NtRp2355
(dp2356
g66
(dp2357
g74
I5
ssg75
g2351
sg68
(lp2358
S'welcome/127.0.0.1.2012-02-13.16-38-16.491170d4-5f4f-4d06-9dd6-d9a0a2979297'
p2359
asbasbasbag61
(g77
g63
NtRp2360
(dp2361
g66
(dp2362
sg75
g71
sg68
(lp2363
g61
(g82
g63
NtRp2364
(dp2365
g66
(dp2366
g86
g87
ssg75
g2360
sg68
(lp2367
S'vars'
p2368
asbag61
(g82
g63
NtRp2369
(dp2370
g66
(dp2371
g93
g94
ssg75
g2360
sg68
(lp2372
S':'
asbag61
(g82
g63
NtRp2373
(dp2374
g66
(dp2375
sg75
g2360
sg68
(lp2376
g61
(g62
g63
NtRp2377
(dp2378
g66
(dp2379
g74
I5
ssg75
g2373
sg68
(lp2380
g61
(g70
g63
NtRp2381
(dp2382
g66
(dp2383
g74
I4
ssg75
Nsg68
(lp2384
g61
(g77
g63
NtRp2385
(dp2386
g66
(dp2387
sg75
g2381
sg68
(lp2388
g61
(g82
g63
NtRp2389
(dp2390
g66
(dp2391
g86
g87
ssg75
g2385
sg68
(lp2392
g2259
asbag61
(g82
g63
NtRp2393
(dp2394
g66
(dp2395
g93
g94
ssg75
g2385
sg68
(lp2396
S':'
asbag61
(g82
g63
NtRp2397
(dp2398
g66
(dp2399
sg75
g2385
sg68
(lp2400
g61
(g62
g63
NtRp2401
(dp2402
g66
(dp2403
g74
I4
ssg75
g2397
sg68
(lp2404
g2272
asbasbasbasbasbasbasbag61
(g77
g63
NtRp2405
(dp2406
g66
(dp2407
sg75
g71
sg68
(lp2408
g61
(g82
g63
NtRp2409
(dp2410
g66
(dp2411
g86
g87
ssg75
g2405
sg68
(lp2412
S'wsgi'
p2413
asbag61
(g82
g63
NtRp2414
(dp2415
g66
(dp2416
g93
g94
ssg75
g2405
sg68
(lp2417
S':'
asbag61
(g82
g63
NtRp2418
(dp2419
g66
(dp2420
sg75
g2405
sg68
(lp2421
g61
(g62
g63
NtRp2422
(dp2423
g66
(dp2424
g74
I5
ssg75
g2418
sg68
(lp2425
g61
(g70
g63
NtRp2426
(dp2427
g66
(dp2428
g74
I4
ssg75
Nsg68
(lp2429
g61
(g77
g63
NtRp2430
(dp2431
g66
(dp2432
sg75
g2426
sg68
(lp2433
g61
(g82
g63
NtRp2434
(dp2435
g66
(dp2436
g86
g87
ssg75
g2430
sg68
(lp2437
S'environ'
p2438
asbag61
(g82
g63
NtRp2439
(dp2440
g66
(dp2441
g93
g94
ssg75
g2430
sg68
(lp2442
S':'
asbag61
(g82
g63
NtRp2443
(dp2444
g66
(dp2445
sg75
g2430
sg68
(lp2446
g61
(g62
g63
NtRp2447
(dp2448
g66
(dp2449
g74
I4
ssg75
g2443
sg68
(lp2450
g61
(g70
g63
NtRp2451
(dp2452
g66
(dp2453
g74
I3
ssg75
Nsg68
(lp2454
g61
(g77
g63
NtRp2455
(dp2456
g66
(dp2457
sg75
g2451
sg68
(lp2458
g61
(g82
g63
NtRp2459
(dp2460
g66
(dp2461
g86
g87
ssg75
g2455
sg68
(lp2462
S'CONTENT_LENGTH'
p2463
asbag61
(g82
g63
NtRp2464
(dp2465
g66
(dp2466
g93
g94
ssg75
g2455
sg68
(lp2467
S':'
asbag61
(g82
g63
NtRp2468
(dp2469
g66
(dp2470
sg75
g2455
sg68
(lp2471
g61
(g62
g63
NtRp2472
(dp2473
g66
(dp2474
g74
I3
ssg75
g2468
sg68
(lp2475
g769
asbasbasbag61
(g77
g63
NtRp2476
(dp2477
g66
(dp2478
sg75
g2451
sg68
(lp2479
g61
(g82
g63
NtRp2480
(dp2481
g66
(dp2482
g86
g87
ssg75
g2476
sg68
(lp2483
S'CONTENT_TYPE'
p2484
asbag61
(g82
g63
NtRp2485
(dp2486
g66
(dp2487
g93
g94
ssg75
g2476
sg68
(lp2488
S':'
asbag61
(g82
g63
NtRp2489
(dp2490
g66
(dp2491
sg75
g2476
sg68
(lp2492
g61
(g62
g63
NtRp2493
(dp2494
g66
(dp2495
g74
I3
ssg75
g2489
sg68
(lp2496
g791
asbasbasbag61
(g77
g63
NtRp2497
(dp2498
g66
(dp2499
sg75
g2451
sg68
(lp2500
g61
(g82
g63
NtRp2501
(dp2502
g66
(dp2503
g86
g87
ssg75
g2497
sg68
(lp2504
S'HTTP_ACCEPT'
p2505
asbag61
(g82
g63
NtRp2506
(dp2507
g66
(dp2508
g93
g94
ssg75
g2497
sg68
(lp2509
S':'
asbag61
(g82
g63
NtRp2510
(dp2511
g66
(dp2512
sg75
g2497
sg68
(lp2513
g61
(g62
g63
NtRp2514
(dp2515
g66
(dp2516
g74
I3
ssg75
g2510
sg68
(lp2517
g878
asbasbasbag61
(g77
g63
NtRp2518
(dp2519
g66
(dp2520
sg75
g2451
sg68
(lp2521
g61
(g82
g63
NtRp2522
(dp2523
g66
(dp2524
g86
g87
ssg75
g2518
sg68
(lp2525
S'HTTP_ACCEPT_CHARSET'
p2526
asbag61
(g82
g63
NtRp2527
(dp2528
g66
(dp2529
g93
g94
ssg75
g2518
sg68
(lp2530
S':'
asbag61
(g82
g63
NtRp2531
(dp2532
g66
(dp2533
sg75
g2518
sg68
(lp2534
g61
(g62
g63
NtRp2535
(dp2536
g66
(dp2537
g74
I3
ssg75
g2531
sg68
(lp2538
g900
asbasbasbag61
(g77
g63
NtRp2539
(dp2540
g66
(dp2541
sg75
g2451
sg68
(lp2542
g61
(g82
g63
NtRp2543
(dp2544
g66
(dp2545
g86
g87
ssg75
g2539
sg68
(lp2546
S'HTTP_ACCEPT_ENCODING'
p2547
asbag61
(g82
g63
NtRp2548
(dp2549
g66
(dp2550
g93
g94
ssg75
g2539
sg68
(lp2551
S':'
asbag61
(g82
g63
NtRp2552
(dp2553
g66
(dp2554
sg75
g2539
sg68
(lp2555
g61
(g62
g63
NtRp2556
(dp2557
g66
(dp2558
g74
I3
ssg75
g2552
sg68
(lp2559
g922
asbasbasbag61
(g77
g63
NtRp2560
(dp2561
g66
(dp2562
sg75
g2451
sg68
(lp2563
g61
(g82
g63
NtRp2564
(dp2565
g66
(dp2566
g86
g87
ssg75
g2560
sg68
(lp2567
S'HTTP_ACCEPT_LANGUAGE'
p2568
asbag61
(g82
g63
NtRp2569
(dp2570
g66
(dp2571
g93
g94
ssg75
g2560
sg68
(lp2572
S':'
asbag61
(g82
g63
NtRp2573
(dp2574
g66
(dp2575
sg75
g2560
sg68
(lp2576
g61
(g62
g63
NtRp2577
(dp2578
g66
(dp2579
g74
I3
ssg75
g2573
sg68
(lp2580
g944
asbasbasbag61
(g77
g63
NtRp2581
(dp2582
g66
(dp2583
sg75
g2451
sg68
(lp2584
g61
(g82
g63
NtRp2585
(dp2586
g66
(dp2587
g86
g87
ssg75
g2581
sg68
(lp2588
S'HTTP_CACHE_CONTROL'
p2589
asbag61
(g82
g63
NtRp2590
(dp2591
g66
(dp2592
g93
g94
ssg75
g2581
sg68
(lp2593
S':'
asbag61
(g82
g63
NtRp2594
(dp2595
g66
(dp2596
sg75
g2581
sg68
(lp2597
g61
(g62
g63
NtRp2598
(dp2599
g66
(dp2600
g74
I3
ssg75
g2594
sg68
(lp2601
g966
asbasbasbag61
(g77
g63
NtRp2602
(dp2603
g66
(dp2604
sg75
g2451
sg68
(lp2605
g61
(g82
g63
NtRp2606
(dp2607
g66
(dp2608
g86
g87
ssg75
g2602
sg68
(lp2609
S'HTTP_CONNECTION'
p2610
asbag61
(g82
g63
NtRp2611
(dp2612
g66
(dp2613
g93
g94
ssg75
g2602
sg68
(lp2614
S':'
asbag61
(g82
g63
NtRp2615
(dp2616
g66
(dp2617
sg75
g2602
sg68
(lp2618
g61
(g62
g63
NtRp2619
(dp2620
g66
(dp2621
g74
I3
ssg75
g2615
sg68
(lp2622
g988
asbasbasbag61
(g77
g63
NtRp2623
(dp2624
g66
(dp2625
sg75
g2451
sg68
(lp2626
g61
(g82
g63
NtRp2627
(dp2628
g66
(dp2629
g86
g87
ssg75
g2623
sg68
(lp2630
S'HTTP_CONTENT_LENGTH'
p2631
asbag61
(g82
g63
NtRp2632
(dp2633
g66
(dp2634
g93
g94
ssg75
g2623
sg68
(lp2635
S':'
asbag61
(g82
g63
NtRp2636
(dp2637
g66
(dp2638
sg75
g2623
sg68
(lp2639
g61
(g62
g63
NtRp2640
(dp2641
g66
(dp2642
g74
I3
ssg75
g2636
sg68
(lp2643
g769
asbasbasbag61
(g77
g63
NtRp2644
(dp2645
g66
(dp2646
sg75
g2451
sg68
(lp2647
g61
(g82
g63
NtRp2648
(dp2649
g66
(dp2650
g86
g87
ssg75
g2644
sg68
(lp2651
S'HTTP_CONTENT_TYPE'
p2652
asbag61
(g82
g63
NtRp2653
(dp2654
g66
(dp2655
g93
g94
ssg75
g2644
sg68
(lp2656
S':'
asbag61
(g82
g63
NtRp2657
(dp2658
g66
(dp2659
sg75
g2644
sg68
(lp2660
g61
(g62
g63
NtRp2661
(dp2662
g66
(dp2663
g74
I3
ssg75
g2657
sg68
(lp2664
g791
asbasbasbag61
(g77
g63
NtRp2665
(dp2666
g66
(dp2667
sg75
g2451
sg68
(lp2668
g61
(g82
g63
NtRp2669
(dp2670
g66
(dp2671
g86
g87
ssg75
g2665
sg68
(lp2672
S'HTTP_COOKIE'
p2673
asbag61
(g82
g63
NtRp2674
(dp2675
g66
(dp2676
g93
g94
ssg75
g2665
sg68
(lp2677
S':'
asbag61
(g82
g63
NtRp2678
(dp2679
g66
(dp2680
sg75
g2665
sg68
(lp2681
g61
(g62
g63
NtRp2682
(dp2683
g66
(dp2684
g74
I3
ssg75
g2678
sg68
(lp2685
g1052
asbasbasbag61
(g77
g63
NtRp2686
(dp2687
g66
(dp2688
sg75
g2451
sg68
(lp2689
g61
(g82
g63
NtRp2690
(dp2691
g66
(dp2692
g86
g87
ssg75
g2686
sg68
(lp2693
S'HTTP_HOST'
p2694
asbag61
(g82
g63
NtRp2695
(dp2696
g66
(dp2697
g93
g94
ssg75
g2686
sg68
(lp2698
S':'
asbag61
(g82
g63
NtRp2699
(dp2700
g66
(dp2701
sg75
g2686
sg68
(lp2702
g61
(g62
g63
NtRp2703
(dp2704
g66
(dp2705
g74
I3
ssg75
g2699
sg68
(lp2706
g1074
asbasbasbag61
(g77
g63
NtRp2707
(dp2708
g66
(dp2709
sg75
g2451
sg68
(lp2710
g61
(g82
g63
NtRp2711
(dp2712
g66
(dp2713
g86
g87
ssg75
g2707
sg68
(lp2714
S'HTTP_ORIGIN'
p2715
asbag61
(g82
g63
NtRp2716
(dp2717
g66
(dp2718
g93
g94
ssg75
g2707
sg68
(lp2719
S':'
asbag61
(g82
g63
NtRp2720
(dp2721
g66
(dp2722
sg75
g2707
sg68
(lp2723
g61
(g62
g63
NtRp2724
(dp2725
g66
(dp2726
g74
I3
ssg75
g2720
sg68
(lp2727
g1096
asbasbasbag61
(g77
g63
NtRp2728
(dp2729
g66
(dp2730
sg75
g2451
sg68
(lp2731
g61
(g82
g63
NtRp2732
(dp2733
g66
(dp2734
g86
g87
ssg75
g2728
sg68
(lp2735
S'HTTP_REFERER'
p2736
asbag61
(g82
g63
NtRp2737
(dp2738
g66
(dp2739
g93
g94
ssg75
g2728
sg68
(lp2740
S':'
asbag61
(g82
g63
NtRp2741
(dp2742
g66
(dp2743
sg75
g2728
sg68
(lp2744
g61
(g62
g63
NtRp2745
(dp2746
g66
(dp2747
g74
I3
ssg75
g2741
sg68
(lp2748
g1118
asbasbasbag61
(g77
g63
NtRp2749
(dp2750
g66
(dp2751
sg75
g2451
sg68
(lp2752
g61
(g82
g63
NtRp2753
(dp2754
g66
(dp2755
g86
g87
ssg75
g2749
sg68
(lp2756
S'HTTP_USER_AGENT'
p2757
asbag61
(g82
g63
NtRp2758
(dp2759
g66
(dp2760
g93
g94
ssg75
g2749
sg68
(lp2761
S':'
asbag61
(g82
g63
NtRp2762
(dp2763
g66
(dp2764
sg75
g2749
sg68
(lp2765
g61
(g62
g63
NtRp2766
(dp2767
g66
(dp2768
g74
I3
ssg75
g2762
sg68
(lp2769
g1140
asbasbasbag61
(g77
g63
NtRp2770
(dp2771
g66
(dp2772
sg75
g2451
sg68
(lp2773
g61
(g82
g63
NtRp2774
(dp2775
g66
(dp2776
g86
g87
ssg75
g2770
sg68
(lp2777
S'PATH_INFO'
p2778
asbag61
(g82
g63
NtRp2779
(dp2780
g66
(dp2781
g93
g94
ssg75
g2770
sg68
(lp2782
S':'
asbag61
(g82
g63
NtRp2783
(dp2784
g66
(dp2785
sg75
g2770
sg68
(lp2786
g61
(g62
g63
NtRp2787
(dp2788
g66
(dp2789
g74
I3
ssg75
g2783
sg68
(lp2790
g1204
asbasbasbag61
(g77
g63
NtRp2791
(dp2792
g66
(dp2793
sg75
g2451
sg68
(lp2794
g61
(g82
g63
NtRp2795
(dp2796
g66
(dp2797
g86
g87
ssg75
g2791
sg68
(lp2798
S'QUERY_STRING'
p2799
asbag61
(g82
g63
NtRp2800
(dp2801
g66
(dp2802
g93
g94
ssg75
g2791
sg68
(lp2803
S':'
asbag61
(g82
g63
NtRp2804
(dp2805
g66
(dp2806
sg75
g2791
sg68
(lp2807
g61
(g62
g63
NtRp2808
(dp2809
g66
(dp2810
g74
I3
ssg75
g2804
sg68
(lp2811
S''
asbasbasbag61
(g77
g63
NtRp2812
(dp2813
g66
(dp2814
sg75
g2451
sg68
(lp2815
g61
(g82
g63
NtRp2816
(dp2817
g66
(dp2818
g86
g87
ssg75
g2812
sg68
(lp2819
S'REMOTE_ADDR'
p2820
asbag61
(g82
g63
NtRp2821
(dp2822
g66
(dp2823
g93
g94
ssg75
g2812
sg68
(lp2824
S':'
asbag61
(g82
g63
NtRp2825
(dp2826
g66
(dp2827
sg75
g2812
sg68
(lp2828
g61
(g62
g63
NtRp2829
(dp2830
g66
(dp2831
g74
I3
ssg75
g2825
sg68
(lp2832
g206
asbasbasbag61
(g77
g63
NtRp2833
(dp2834
g66
(dp2835
sg75
g2451
sg68
(lp2836
g61
(g82
g63
NtRp2837
(dp2838
g66
(dp2839
g86
g87
ssg75
g2833
sg68
(lp2840
S'REMOTE_PORT'
p2841
asbag61
(g82
g63
NtRp2842
(dp2843
g66
(dp2844
g93
g94
ssg75
g2833
sg68
(lp2845
S':'
asbag61
(g82
g63
NtRp2846
(dp2847
g66
(dp2848
sg75
g2833
sg68
(lp2849
g61
(g62
g63
NtRp2850
(dp2851
g66
(dp2852
g74
I3
ssg75
g2846
sg68
(lp2853
g1268
asbasbasbag61
(g77
g63
NtRp2854
(dp2855
g66
(dp2856
sg75
g2451
sg68
(lp2857
g61
(g82
g63
NtRp2858
(dp2859
g66
(dp2860
g86
g87
ssg75
g2854
sg68
(lp2861
S'REQUEST_METHOD'
p2862
asbag61
(g82
g63
NtRp2863
(dp2864
g66
(dp2865
g93
g94
ssg75
g2854
sg68
(lp2866
S':'
asbag61
(g82
g63
NtRp2867
(dp2868
g66
(dp2869
sg75
g2854
sg68
(lp2870
g61
(g62
g63
NtRp2871
(dp2872
g66
(dp2873
g74
I3
ssg75
g2867
sg68
(lp2874
g1290
asbasbasbag61
(g77
g63
NtRp2875
(dp2876
g66
(dp2877
sg75
g2451
sg68
(lp2878
g61
(g82
g63
NtRp2879
(dp2880
g66
(dp2881
g86
g87
ssg75
g2875
sg68
(lp2882
S'SCRIPT_NAME'
p2883
asbag61
(g82
g63
NtRp2884
(dp2885
g66
(dp2886
g93
g94
ssg75
g2875
sg68
(lp2887
S':'
asbag61
(g82
g63
NtRp2888
(dp2889
g66
(dp2890
sg75
g2875
sg68
(lp2891
g61
(g62
g63
NtRp2892
(dp2893
g66
(dp2894
g74
I3
ssg75
g2888
sg68
(lp2895
S''
asbasbasbag61
(g77
g63
NtRp2896
(dp2897
g66
(dp2898
sg75
g2451
sg68
(lp2899
g61
(g82
g63
NtRp2900
(dp2901
g66
(dp2902
g86
g87
ssg75
g2896
sg68
(lp2903
S'SERVER_NAME'
p2904
asbag61
(g82
g63
NtRp2905
(dp2906
g66
(dp2907
g93
g94
ssg75
g2896
sg68
(lp2908
S':'
asbag61
(g82
g63
NtRp2909
(dp2910
g66
(dp2911
sg75
g2896
sg68
(lp2912
g61
(g62
g63
NtRp2913
(dp2914
g66
(dp2915
g74
I3
ssg75
g2909
sg68
(lp2916
g1333
asbasbasbag61
(g77
g63
NtRp2917
(dp2918
g66
(dp2919
sg75
g2451
sg68
(lp2920
g61
(g82
g63
NtRp2921
(dp2922
g66
(dp2923
g86
g87
ssg75
g2917
sg68
(lp2924
S'SERVER_PORT'
p2925
asbag61
(g82
g63
NtRp2926
(dp2927
g66
(dp2928
g93
g94
ssg75
g2917
sg68
(lp2929
S':'
asbag61
(g82
g63
NtRp2930
(dp2931
g66
(dp2932
sg75
g2917
sg68
(lp2933
g61
(g62
g63
NtRp2934
(dp2935
g66
(dp2936
g74
I3
ssg75
g2930
sg68
(lp2937
g1355
asbasbasbag61
(g77
g63
NtRp2938
(dp2939
g66
(dp2940
sg75
g2451
sg68
(lp2941
g61
(g82
g63
NtRp2942
(dp2943
g66
(dp2944
g86
g87
ssg75
g2938
sg68
(lp2945
S'SERVER_PROTOCOL'
p2946
asbag61
(g82
g63
NtRp2947
(dp2948
g66
(dp2949
g93
g94
ssg75
g2938
sg68
(lp2950
S':'
asbag61
(g82
g63
NtRp2951
(dp2952
g66
(dp2953
sg75
g2938
sg68
(lp2954
g61
(g62
g63
NtRp2955
(dp2956
g66
(dp2957
g74
I3
ssg75
g2951
sg68
(lp2958
g1377
asbasbasbag61
(g77
g63
NtRp2959
(dp2960
g66
(dp2961
sg75
g2451
sg68
(lp2962
g61
(g82
g63
NtRp2963
(dp2964
g66
(dp2965
g86
g87
ssg75
g2959
sg68
(lp2966
S'SERVER_SOFTWARE'
p2967
asbag61
(g82
g63
NtRp2968
(dp2969
g66
(dp2970
g93
g94
ssg75
g2959
sg68
(lp2971
S':'
asbag61
(g82
g63
NtRp2972
(dp2973
g66
(dp2974
sg75
g2959
sg68
(lp2975
g61
(g62
g63
NtRp2976
(dp2977
g66
(dp2978
g74
I3
ssg75
g2972
sg68
(lp2979
g1399
asbasbasbag61
(g77
g63
NtRp2980
(dp2981
g66
(dp2982
sg75
g2451
sg68
(lp2983
g61
(g82
g63
NtRp2984
(dp2985
g66
(dp2986
g86
g87
ssg75
g2980
sg68
(lp2987
S'wsgi.errors'
p2988
asbag61
(g82
g63
NtRp2989
(dp2990
g66
(dp2991
g93
g94
ssg75
g2980
sg68
(lp2992
S':'
asbag61
(g82
g63
NtRp2993
(dp2994
g66
(dp2995
sg75
g2980
sg68
(lp2996
g61
(g62
g63
NtRp2997
(dp2998
g66
(dp2999
g74
I3
ssg75
g2993
sg68
(lp3000
S"<open file '<stderr>', mode 'w' at 0x0000000001EF61E0>"
p3001
asbasbasbag61
(g77
g63
NtRp3002
(dp3003
g66
(dp3004
sg75
g2451
sg68
(lp3005
g61
(g82
g63
NtRp3006
(dp3007
g66
(dp3008
g86
g87
ssg75
g3002
sg68
(lp3009
S'wsgi.file_wrapper'
p3010
asbag61
(g82
g63
NtRp3011
(dp3012
g66
(dp3013
g93
g94
ssg75
g3002
sg68
(lp3014
S':'
asbag61
(g82
g63
NtRp3015
(dp3016
g66
(dp3017
sg75
g3002
sg68
(lp3018
g61
(g62
g63
NtRp3019
(dp3020
g66
(dp3021
g74
I3
ssg75
g3015
sg68
(lp3022
S'<class wsgiref.util.FileWrapper at 0x000000000361C948>'
p3023
asbasbasbag61
(g77
g63
NtRp3024
(dp3025
g66
(dp3026
sg75
g2451
sg68
(lp3027
g61
(g82
g63
NtRp3028
(dp3029
g66
(dp3030
g86
g87
ssg75
g3024
sg68
(lp3031
S'wsgi.input'
p3032
asbag61
(g82
g63
NtRp3033
(dp3034
g66
(dp3035
g93
g94
ssg75
g3024
sg68
(lp3036
S':'
asbag61
(g82
g63
NtRp3037
(dp3038
g66
(dp3039
sg75
g3024
sg68
(lp3040
g61
(g62
g63
NtRp3041
(dp3042
g66
(dp3043
g74
I3
ssg75
g3037
sg68
(lp3044
S"<open file '<fdopen>', mode 'w+b' at 0x00000000085EDA50>"
p3045
asbasbasbag61
(g77
g63
NtRp3046
(dp3047
g66
(dp3048
sg75
g2451
sg68
(lp3049
g61
(g82
g63
NtRp3050
(dp3051
g66
(dp3052
g86
g87
ssg75
g3046
sg68
(lp3053
S'wsgi.multiprocess'
p3054
asbag61
(g82
g63
NtRp3055
(dp3056
g66
(dp3057
g93
g94
ssg75
g3046
sg68
(lp3058
S':'
asbag61
(g82
g63
NtRp3059
(dp3060
g66
(dp3061
sg75
g3046
sg68
(lp3062
g61
(g62
g63
NtRp3063
(dp3064
g66
(dp3065
g74
I3
ssg75
g3059
sg68
(lp3066
g104
asbasbasbag61
(g77
g63
NtRp3067
(dp3068
g66
(dp3069
sg75
g2451
sg68
(lp3070
g61
(g82
g63
NtRp3071
(dp3072
g66
(dp3073
g86
g87
ssg75
g3067
sg68
(lp3074
S'wsgi.multithread'
p3075
asbag61
(g82
g63
NtRp3076
(dp3077
g66
(dp3078
g93
g94
ssg75
g3067
sg68
(lp3079
S':'
asbag61
(g82
g63
NtRp3080
(dp3081
g66
(dp3082
sg75
g3067
sg68
(lp3083
g61
(g62
g63
NtRp3084
(dp3085
g66
(dp3086
g74
I3
ssg75
g3080
sg68
(lp3087
g1639
asbasbasbag61
(g77
g63
NtRp3088
(dp3089
g66
(dp3090
sg75
g2451
sg68
(lp3091
g61
(g82
g63
NtRp3092
(dp3093
g66
(dp3094
g86
g87
ssg75
g3088
sg68
(lp3095
S'wsgi.run_once'
p3096
asbag61
(g82
g63
NtRp3097
(dp3098
g66
(dp3099
g93
g94
ssg75
g3088
sg68
(lp3100
S':'
asbag61
(g82
g63
NtRp3101
(dp3102
g66
(dp3103
sg75
g3088
sg68
(lp3104
g61
(g62
g63
NtRp3105
(dp3106
g66
(dp3107
g74
I3
ssg75
g3101
sg68
(lp3108
g104
asbasbasbag61
(g77
g63
NtRp3109
(dp3110
g66
(dp3111
sg75
g2451
sg68
(lp3112
g61
(g82
g63
NtRp3113
(dp3114
g66
(dp3115
g86
g87
ssg75
g3109
sg68
(lp3116
S'wsgi.url_scheme'
p3117
asbag61
(g82
g63
NtRp3118
(dp3119
g66
(dp3120
g93
g94
ssg75
g3109
sg68
(lp3121
S':'
asbag61
(g82
g63
NtRp3122
(dp3123
g66
(dp3124
sg75
g3109
sg68
(lp3125
g61
(g62
g63
NtRp3126
(dp3127
g66
(dp3128
g74
I3
ssg75
g3122
sg68
(lp3129
g1682
asbasbasbag61
(g77
g63
NtRp3130
(dp3131
g66
(dp3132
sg75
g2451
sg68
(lp3133
g61
(g82
g63
NtRp3134
(dp3135
g66
(dp3136
g86
g87
ssg75
g3130
sg68
(lp3137
S'wsgi.version'
p3138
asbag61
(g82
g63
NtRp3139
(dp3140
g66
(dp3141
g93
g94
ssg75
g3130
sg68
(lp3142
S':'
asbag61
(g82
g63
NtRp3143
(dp3144
g66
(dp3145
sg75
g3130
sg68
(lp3146
g61
(g62
g63
NtRp3147
(dp3148
g66
(dp3149
g74
I3
ssg75
g3143
sg68
(lp3150
S'1'
asbasbasbasbasbasbasbasbasbasbasbasbasbsS'frames'
p3151
(lp3152
(dp3153
S'file'
p3154
S'C:\\Users\\mellinja\\Documents\\SC2Tracker\\SC2Tracker2\\web2py\\gluon\\restricted.py'
p3155
sS'dump'
p3156
(dp3157
S'environment'
p3158
S"{'A': <class 'gluon.html.A'>, 'Auth': <class 'gluon.tools.Auth'>, 'B': <class 'gluon.html.B'>, 'BEAUTIFY': <class 'gluon.html.BEAUTIFY'>, 'BODY': <class 'gluon.html.BODY'>, 'BR': <class 'gluon.html.BR'>, 'BUTTON': <class 'gluon.html.BUTTON'>, 'CAT': <class 'gluon.html.CAT'>, 'CENTER': <class 'gluon.html.CENTER'>, 'CLEANUP': <class 'gluon.validators.CLEANUP'>, ...}"
p3159
sS'ccode'
p3160
S'<code object <module> at 0000000008CD7230, file ...tions\\welcome\\controllers/tournament.py", line 3>'
p3161
ssS'lnum'
p3162
I204
sS'lines'
p3163
(dp3164
I199
S'    try:'
p3165
sI200
S'        if type(code) == types.CodeType:'
p3166
sI201
S'            ccode = code'
p3167
sI202
S'        else:'
p3168
sI203
S'            ccode = compile2(code,layer)'
p3169
sI204
S'        exec ccode in environment'
p3170
sI205
S'    except HTTP:'
p3171
sI206
S'        raise'
p3172
sI207
S'    except RestrictedError:'
p3173
sI208
S'        # do not encapsulate (obfuscate) the original RestrictedError'
p3174
ssS'call'
p3175
S'(code="# coding: utf8\\n#\\ndef index(): \\n    #db = DAL(\'ms...orm.vars)\\n\\nresponse._vars=response._caller(show)\\n", environment={\'A\': <class \'gluon.html.A\'>, \'Auth\': <class \'gluon.tools.Auth\'>, \'B\': <class \'gluon.html.B\'>, \'BEAUTIFY\': <class \'gluon.html.BEAUTIFY\'>, \'BODY\': <class \'gluon.html.BODY\'>, \'BR\': <class \'gluon.html.BR\'>, \'BUTTON\': <class \'gluon.html.BUTTON\'>, \'CAT\': <class \'gluon.html.CAT\'>, \'CENTER\': <class \'gluon.html.CENTER\'>, \'CLEANUP\': <class \'gluon.validators.CLEANUP\'>, ...}, layer=r\'C:\\Users\\mellinja\\Documents\\SC2Tracker\\SC2Tracke...py\\applications\\welcome\\controllers/tournament.py\')'
p3176
sS'func'
p3177
S'restricted'
p3178
sa(dp3179
g3154
S'C:\\Users\\mellinja\\Documents\\SC2Tracker\\SC2Tracker2\\web2py\\applications\\welcome\\controllers\\tournament.py'
p3180
sg3156
(dp3181
S'playerID'
p3182
S'undefined'
p3183
sS'auth.user'
p3184
S"<Storage {'first_name': 'Jackson', 'last_name': ...tration_key': '', 'email': 'mellinja@gmail.com'}>"
p3185
sS'auth.user.ID'
p3186
S'None'
p3187
sS'auth'
p3188
S'<gluon.tools.Auth object>'
p3189
ssg3162
I23
sg3163
(dp3190
I12
S'    pnames = []'
p3191
sI13
S'    for player in pids:'
p3192
sI14
S'        pnames += db.executesql("SELECT InGameName FROM Player WHERE ID = "+str(player[\'id\']))[0]'
p3193
sI15
S'    form = FORM(\'Join as : \', SELECT(pnames,_name = "Player",requires=IS_IN_SET(pnames)),INPUT(_type=\'submit\',_value=\'Join\'))'
p3194
sI16
S'    if form.accepts(request,session):'
p3195
sI17
S"        playerName=str(form.vars['Player'])"
p3196
sI18
S'        pid = db.executesql("SELECT ID FROM Player WHERE Auth_User_Id = " + str(auth.user_id) + " AND InGameName = \'" + playerName+"\'")'
p3197
sI19
S'        db.executesql(\'EXEC [player_to_tourney_sp] \' + str(pid) + ", " + str(request.args(0)))'
p3198
sI20
S''
sI21
S'    return dict(tourny = tourny,form = form,v = form.vars)'
p3199
ssg3175
S'()'
p3200
sg3177
S'<module>'
p3201
sa(dp3202
g3154
S'C:\\Users\\mellinja\\Documents\\SC2Tracker\\SC2Tracker2\\web2py\\gluon\\globals.py'
p3203
sg3156
(dp3204
S'self'
p3205
g3183
sS'f'
S'<function show>'
p3206
ssg3162
I172
sg3163
(dp3207
I167
S'        self.meta = Storage()      # used by web2py_ajax.html'
p3208
sI168
S'        self.menu = []             # used by the default view layout'
p3209
sI169
S'        self.files = []            # used by web2py_ajax.html'
p3210
sI170
S'        self.generic_patterns = [] # patterns to allow generic views'
p3211
sI171
S'        self._vars = None'
p3212
sI172
S'        self._caller = lambda f: f()'
p3213
sI173
S'        self._view_environment = None'
p3214
sI174
S'        self._custom_commit = None'
p3215
sI175
S'        self._custom_rollback = None'
p3216
sI176
S''
ssg3175
S'(f=<function show>)'
p3217
sg3177
S'<lambda>'
p3218
sa(dp3219
g3154
S'C:\\Users\\mellinja\\Documents\\SC2Tracker\\SC2Tracker2\\web2py\\applications\\welcome\\controllers\\tournament.py'
p3220
sg3156
(dp3221
S'join'
p3222
g3183
ssg3162
I19
sg3163
(dp3223
I12
S'    pnames = []'
p3224
sI13
S'    for player in pids:'
p3225
sI14
S'        pnames += db.executesql("SELECT InGameName FROM Player WHERE ID = "+str(player[\'id\']))[0]'
p3226
sI15
S'    form = FORM(\'Join as : \', SELECT(pnames,_name = "Player",requires=IS_IN_SET(pnames)),INPUT(_type=\'submit\',_value=\'Join\'))'
p3227
sI16
S'    if form.accepts(request,session):'
p3228
sI17
S"        playerName=str(form.vars['Player'])"
p3229
sI18
S'        pid = db.executesql("SELECT ID FROM Player WHERE Auth_User_Id = " + str(auth.user_id) + " AND InGameName = \'" + playerName+"\'")'
p3230
sI19
S'        db.executesql(\'EXEC [player_to_tourney_sp] \' + str(pid) + ", " + str(request.args(0)))'
p3231
sI20
S''
sI21
S'    return dict(tourny = tourny,form = form,v = form.vars)'
p3232
ssg3175
S'()'
p3233
sg3177
S'show'
p3234
sa(dp3235
g3154
S'C:\\Users\\mellinja\\Documents\\SC2Tracker\\SC2Tracker2\\web2py\\gluon\\dal.py'
p3236
sg3156
(dp3237
S'query'
p3238
S"'EXEC [player_to_tourney_sp] [(5, )], 7'"
p3239
sS'self'
p3240
S"<DAL {'auth_event': <Table {'origin': <gluon.dal...gluon.dal.Field object at 0x0000000008968BE0>}>}>"
p3241
sS'self._adapter'
p3242
S'<gluon.dal.MSSQLAdapter object>'
p3243
sS'self._adapter.execute'
p3244
S'<bound method MSSQLAdapter.execute of <gluon.dal.MSSQLAdapter object>>'
p3245
ssg3162
I5170
sg3163
(dp3246
I5165
S'        --bmeredyk'
p3247
sI5166
S'        """'
p3248
sI5167
S'        if placeholders:'
p3249
sI5168
S'            self._adapter.execute(query, placeholders)'
p3250
sI5169
S'        else:'
p3251
sI5170
S'            self._adapter.execute(query)'
p3252
sI5171
S'        if as_dict:'
p3253
sI5172
S"            if not hasattr(self._adapter.cursor,'description'):"
p3254
sI5173
S'                raise RuntimeError, "database does not support executesql(...,as_dict=True)"'
p3255
sI5174
S'            # Non-DAL legacy db query, converts cursor results to dict.'
p3256
ssg3175
S"(self=<DAL {'auth_event': <Table {'origin': <gluon.dal...gluon.dal.Field object at 0x0000000008968BE0>}>}>, query='EXEC [player_to_tourney_sp] [(5, )], 7', placeholders=None, as_dict=False)"
p3257
sg3177
S'executesql'
p3258
sa(dp3259
g3154
S'C:\\Users\\mellinja\\Documents\\SC2Tracker\\SC2Tracker2\\web2py\\gluon\\dal.py'
p3260
sg3156
(dp3261
S'a'
S"('EXEC [player_to_tourney_sp] [(5, )], 7',)"
p3262
sS'self'
p3263
S'<gluon.dal.MSSQLAdapter object>'
p3264
sS'b'
g21
sS'self.log_execute'
p3265
S'<bound method MSSQLAdapter.log_execute of <gluon.dal.MSSQLAdapter object>>'
p3266
ssg3162
I1359
sg3163
(dp3267
I1354
S'        self.db._timings.append((a[0],time.time()-t0))'
p3268
sI1355
S'        del self.db._timings[:-TIMINGSSIZE]'
p3269
sI1356
S'        return ret'
p3270
sI1357
S''
sI1358
S'    def execute(self, *a, **b):'
p3271
sI1359
S'        return self.log_execute(*a, **b)'
p3272
sI1360
S''
sI1361
S'    def represent(self, obj, fieldtype):'
p3273
sI1362
S'        if isinstance(obj, CALLABLETYPES):'
p3274
sI1363
S'            obj = obj()'
p3275
ssg3175
S"(self=<gluon.dal.MSSQLAdapter object>, *a=('EXEC [player_to_tourney_sp] [(5, )], 7',), **b={})"
p3276
sg3177
S'execute'
p3277
sa(dp3278
g3154
S'C:\\Users\\mellinja\\Documents\\SC2Tracker\\SC2Tracker2\\web2py\\gluon\\dal.py'
p3279
sg3156
(dp3280
S'a'
S"('EXEC [player_to_tourney_sp] [(5, )], 7',)"
p3281
sS'b'
g21
sS'self'
p3282
S'<gluon.dal.MSSQLAdapter object>'
p3283
sS'ret'
p3284
g3183
sS'self.cursor'
p3285
S'<pyodbc.Cursor object>'
p3286
sS'self.cursor.execute'
p3287
S'<built-in method execute of pyodbc.Cursor object>'
p3288
ssg3162
I1353
sg3163
(dp3289
I1348
S'        self.execute(query)'
p3290
sI1349
S''
sI1350
S'    def log_execute(self, *a, **b):'
p3291
sI1351
S'        self.db._lastsql = a[0]'
p3292
sI1352
S'        t0 = time.time()'
p3293
sI1353
S'        ret = self.cursor.execute(*a, **b)'
p3294
sI1354
S'        self.db._timings.append((a[0],time.time()-t0))'
p3295
sI1355
S'        del self.db._timings[:-TIMINGSSIZE]'
p3296
sI1356
S'        return ret'
p3297
sI1357
S''
ssg3175
S"(self=<gluon.dal.MSSQLAdapter object>, *a=('EXEC [player_to_tourney_sp] [(5, )], 7',), **b={})"
p3298
sg3177
S'log_execute'
p3299
sasS'pyver'
p3300
S'Python 2.7.2: C:\\Python27\\python.exe'
p3301
sS'session'
p3302
g61
(g62
g63
NtRp3303
(dp3304
g66
(dp3305
sg68
(lp3306
g61
(g70
g63
NtRp3307
(dp3308
g66
(dp3309
g74
I5
ssg75
Nsg68
(lp3310
g61
(g77
g63
NtRp3311
(dp3312
g66
(dp3313
sg75
g3307
sg68
(lp3314
g61
(g82
g63
NtRp3315
(dp3316
g66
(dp3317
g86
g87
ssg75
g3311
sg68
(lp3318
S'auth'
p3319
asbag61
(g82
g63
NtRp3320
(dp3321
g66
(dp3322
g93
g94
ssg75
g3311
sg68
(lp3323
S':'
asbag61
(g82
g63
NtRp3324
(dp3325
g66
(dp3326
sg75
g3311
sg68
(lp3327
g61
(g62
g63
NtRp3328
(dp3329
g66
(dp3330
g74
I5
ssg75
g3324
sg68
(lp3331
g61
(g70
g63
NtRp3332
(dp3333
g66
(dp3334
g74
I4
ssg75
Nsg68
(lp3335
g61
(g77
g63
NtRp3336
(dp3337
g66
(dp3338
sg75
g3332
sg68
(lp3339
g61
(g82
g63
NtRp3340
(dp3341
g66
(dp3342
g86
g87
ssg75
g3336
sg68
(lp3343
S'expiration'
p3344
asbag61
(g82
g63
NtRp3345
(dp3346
g66
(dp3347
g93
g94
ssg75
g3336
sg68
(lp3348
S':'
asbag61
(g82
g63
NtRp3349
(dp3350
g66
(dp3351
sg75
g3336
sg68
(lp3352
g61
(g62
g63
NtRp3353
(dp3354
g66
(dp3355
g74
I4
ssg75
g3349
sg68
(lp3356
S'2592000'
p3357
asbasbasbag61
(g77
g63
NtRp3358
(dp3359
g66
(dp3360
sg75
g3332
sg68
(lp3361
g61
(g82
g63
NtRp3362
(dp3363
g66
(dp3364
g86
g87
ssg75
g3358
sg68
(lp3365
S'hmac_key'
p3366
asbag61
(g82
g63
NtRp3367
(dp3368
g66
(dp3369
g93
g94
ssg75
g3358
sg68
(lp3370
S':'
asbag61
(g82
g63
NtRp3371
(dp3372
g66
(dp3373
sg75
g3358
sg68
(lp3374
g61
(g62
g63
NtRp3375
(dp3376
g66
(dp3377
g74
I4
ssg75
g3371
sg68
(lp3378
S'616f8e11-5d47-461b-8e3b-a55cdeab7c8b'
p3379
asbasbasbag61
(g77
g63
NtRp3380
(dp3381
g66
(dp3382
sg75
g3332
sg68
(lp3383
g61
(g82
g63
NtRp3384
(dp3385
g66
(dp3386
g86
g87
ssg75
g3380
sg68
(lp3387
S'last_visit'
p3388
asbag61
(g82
g63
NtRp3389
(dp3390
g66
(dp3391
g93
g94
ssg75
g3380
sg68
(lp3392
S':'
asbag61
(g82
g63
NtRp3393
(dp3394
g66
(dp3395
sg75
g3380
sg68
(lp3396
g61
(g62
g63
NtRp3397
(dp3398
g66
(dp3399
g74
I4
ssg75
g3393
sg68
(lp3400
S'datetime.datetime(2012, 2, 13, 14, 56, 57, 355000)'
p3401
asbasbasbag61
(g77
g63
NtRp3402
(dp3403
g66
(dp3404
sg75
g3332
sg68
(lp3405
g61
(g82
g63
NtRp3406
(dp3407
g66
(dp3408
g86
g87
ssg75
g3402
sg68
(lp3409
S'remember'
p3410
asbag61
(g82
g63
NtRp3411
(dp3412
g66
(dp3413
g93
g94
ssg75
g3402
sg68
(lp3414
S':'
asbag61
(g82
g63
NtRp3415
(dp3416
g66
(dp3417
sg75
g3402
sg68
(lp3418
g61
(g62
g63
NtRp3419
(dp3420
g66
(dp3421
g74
I4
ssg75
g3415
sg68
(lp3422
g104
asbasbasbag61
(g77
g63
NtRp3423
(dp3424
g66
(dp3425
sg75
g3332
sg68
(lp3426
g61
(g82
g63
NtRp3427
(dp3428
g66
(dp3429
g86
g87
ssg75
g3423
sg68
(lp3430
S'user'
p3431
asbag61
(g82
g63
NtRp3432
(dp3433
g66
(dp3434
g93
g94
ssg75
g3423
sg68
(lp3435
S':'
asbag61
(g82
g63
NtRp3436
(dp3437
g66
(dp3438
sg75
g3423
sg68
(lp3439
g61
(g62
g63
NtRp3440
(dp3441
g66
(dp3442
g74
I4
ssg75
g3436
sg68
(lp3443
g61
(g70
g63
NtRp3444
(dp3445
g66
(dp3446
g74
I3
ssg75
Nsg68
(lp3447
g61
(g77
g63
NtRp3448
(dp3449
g66
(dp3450
sg75
g3444
sg68
(lp3451
g61
(g82
g63
NtRp3452
(dp3453
g66
(dp3454
g86
g87
ssg75
g3448
sg68
(lp3455
S'email'
p3456
asbag61
(g82
g63
NtRp3457
(dp3458
g66
(dp3459
g93
g94
ssg75
g3448
sg68
(lp3460
S':'
asbag61
(g82
g63
NtRp3461
(dp3462
g66
(dp3463
sg75
g3448
sg68
(lp3464
g61
(g62
g63
NtRp3465
(dp3466
g66
(dp3467
g74
I3
ssg75
g3461
sg68
(lp3468
S'mellinja@gmail.com'
p3469
asbasbasbag61
(g77
g63
NtRp3470
(dp3471
g66
(dp3472
sg75
g3444
sg68
(lp3473
g61
(g82
g63
NtRp3474
(dp3475
g66
(dp3476
g86
g87
ssg75
g3470
sg68
(lp3477
S'first_name'
p3478
asbag61
(g82
g63
NtRp3479
(dp3480
g66
(dp3481
g93
g94
ssg75
g3470
sg68
(lp3482
S':'
asbag61
(g82
g63
NtRp3483
(dp3484
g66
(dp3485
sg75
g3470
sg68
(lp3486
g61
(g62
g63
NtRp3487
(dp3488
g66
(dp3489
g74
I3
ssg75
g3483
sg68
(lp3490
S'Jackson'
p3491
asbasbasbag61
(g77
g63
NtRp3492
(dp3493
g66
(dp3494
sg75
g3444
sg68
(lp3495
g61
(g82
g63
NtRp3496
(dp3497
g66
(dp3498
g86
g87
ssg75
g3492
sg68
(lp3499
S'id'
p3500
asbag61
(g82
g63
NtRp3501
(dp3502
g66
(dp3503
g93
g94
ssg75
g3492
sg68
(lp3504
S':'
asbag61
(g82
g63
NtRp3505
(dp3506
g66
(dp3507
sg75
g3492
sg68
(lp3508
g61
(g62
g63
NtRp3509
(dp3510
g66
(dp3511
g74
I3
ssg75
g3505
sg68
(lp3512
S'3'
asbasbasbag61
(g77
g63
NtRp3513
(dp3514
g66
(dp3515
sg75
g3444
sg68
(lp3516
g61
(g82
g63
NtRp3517
(dp3518
g66
(dp3519
g86
g87
ssg75
g3513
sg68
(lp3520
S'last_name'
p3521
asbag61
(g82
g63
NtRp3522
(dp3523
g66
(dp3524
g93
g94
ssg75
g3513
sg68
(lp3525
S':'
asbag61
(g82
g63
NtRp3526
(dp3527
g66
(dp3528
sg75
g3513
sg68
(lp3529
g61
(g62
g63
NtRp3530
(dp3531
g66
(dp3532
g74
I3
ssg75
g3526
sg68
(lp3533
S'Melling'
p3534
asbasbasbag61
(g77
g63
NtRp3535
(dp3536
g66
(dp3537
sg75
g3444
sg68
(lp3538
g61
(g82
g63
NtRp3539
(dp3540
g66
(dp3541
g86
g87
ssg75
g3535
sg68
(lp3542
S'password'
p3543
asbag61
(g82
g63
NtRp3544
(dp3545
g66
(dp3546
g93
g94
ssg75
g3535
sg68
(lp3547
S':'
asbag61
(g82
g63
NtRp3548
(dp3549
g66
(dp3550
sg75
g3535
sg68
(lp3551
g61
(g62
g63
NtRp3552
(dp3553
g66
(dp3554
g74
I3
ssg75
g3548
sg68
(lp3555
S'98beeff9538312abb10179bd86e0a5a2'
p3556
asbasbasbag61
(g77
g63
NtRp3557
(dp3558
g66
(dp3559
sg75
g3444
sg68
(lp3560
g61
(g82
g63
NtRp3561
(dp3562
g66
(dp3563
g86
g87
ssg75
g3557
sg68
(lp3564
S'registration_id'
p3565
asbag61
(g82
g63
NtRp3566
(dp3567
g66
(dp3568
g93
g94
ssg75
g3557
sg68
(lp3569
S':'
asbag61
(g82
g63
NtRp3570
(dp3571
g66
(dp3572
sg75
g3557
sg68
(lp3573
g61
(g62
g63
NtRp3574
(dp3575
g66
(dp3576
g74
I3
ssg75
g3570
sg68
(lp3577
S''
asbasbasbag61
(g77
g63
NtRp3578
(dp3579
g66
(dp3580
sg75
g3444
sg68
(lp3581
g61
(g82
g63
NtRp3582
(dp3583
g66
(dp3584
g86
g87
ssg75
g3578
sg68
(lp3585
S'registration_key'
p3586
asbag61
(g82
g63
NtRp3587
(dp3588
g66
(dp3589
g93
g94
ssg75
g3578
sg68
(lp3590
S':'
asbag61
(g82
g63
NtRp3591
(dp3592
g66
(dp3593
sg75
g3578
sg68
(lp3594
g61
(g62
g63
NtRp3595
(dp3596
g66
(dp3597
g74
I3
ssg75
g3591
sg68
(lp3598
S''
asbasbasbag61
(g77
g63
NtRp3599
(dp3600
g66
(dp3601
sg75
g3444
sg68
(lp3602
g61
(g82
g63
NtRp3603
(dp3604
g66
(dp3605
g86
g87
ssg75
g3599
sg68
(lp3606
S'reset_password_key'
p3607
asbag61
(g82
g63
NtRp3608
(dp3609
g66
(dp3610
g93
g94
ssg75
g3599
sg68
(lp3611
S':'
asbag61
(g82
g63
NtRp3612
(dp3613
g66
(dp3614
sg75
g3599
sg68
(lp3615
g61
(g62
g63
NtRp3616
(dp3617
g66
(dp3618
g74
I3
ssg75
g3612
sg68
(lp3619
S'1327597193-2590f763-191b-469c-bc47-fc293ee83460'
p3620
asbasbasbasbasbasbasbasbasbasbasbag61
(g77
g63
NtRp3621
(dp3622
g66
(dp3623
sg75
g3307
sg68
(lp3624
g61
(g82
g63
NtRp3625
(dp3626
g66
(dp3627
g86
g87
ssg75
g3621
sg68
(lp3628
S'last_query'
p3629
asbag61
(g82
g63
NtRp3630
(dp3631
g66
(dp3632
g93
g94
ssg75
g3621
sg68
(lp3633
S':'
asbag61
(g82
g63
NtRp3634
(dp3635
g66
(dp3636
sg75
g3621
sg68
(lp3637
g61
(g62
g63
NtRp3638
(dp3639
g66
(dp3640
g74
I5
ssg75
g3634
sg68
(lp3641
S'db.Players_in_Tournament.id>0'
p3642
asbasbasbasbasbsS'etype'
p3643
S"<class 'pyodbc.ProgrammingError'>"
p3644
sS'date'
p3645
S'Mon Feb 13 16:38:16 2012'
p3646
sS'response'
p3647
g61
(g62
g63
NtRp3648
(dp3649
g66
(dp3650
sg68
(lp3651
g61
(g70
g63
NtRp3652
(dp3653
g66
(dp3654
g74
I5
ssg75
Nsg68
(lp3655
g61
(g77
g63
NtRp3656
(dp3657
g66
(dp3658
sg75
g3652
sg68
(lp3659
g61
(g82
g63
NtRp3660
(dp3661
g66
(dp3662
g86
g87
ssg75
g3656
sg68
(lp3663
g171
asbag61
(g82
g63
NtRp3664
(dp3665
g66
(dp3666
g93
g94
ssg75
g3656
sg68
(lp3667
S':'
asbag61
(g82
g63
NtRp3668
(dp3669
g66
(dp3670
sg75
g3656
sg68
(lp3671
g61
(g62
g63
NtRp3672
(dp3673
g66
(dp3674
g74
I5
ssg75
g3668
sg68
(lp3675
S'<cStringIO.StringO object at 0x000000000874E538>'
p3676
asbasbasbag61
(g77
g63
NtRp3677
(dp3678
g66
(dp3679
sg75
g3652
sg68
(lp3680
g61
(g82
g63
NtRp3681
(dp3682
g66
(dp3683
g86
g87
ssg75
g3677
sg68
(lp3684
g237
asbag61
(g82
g63
NtRp3685
(dp3686
g66
(dp3687
g93
g94
ssg75
g3677
sg68
(lp3688
S':'
asbag61
(g82
g63
NtRp3689
(dp3690
g66
(dp3691
sg75
g3677
sg68
(lp3692
g61
(g62
g63
NtRp3693
(dp3694
g66
(dp3695
g74
I5
ssg75
g3689
sg68
(lp3696
g61
(g70
g63
NtRp3697
(dp3698
g66
(dp3699
g74
I4
ssg75
Nsg68
(lp3700
g61
(g77
g63
NtRp3701
(dp3702
g66
(dp3703
sg75
g3697
sg68
(lp3704
g61
(g82
g63
NtRp3705
(dp3706
g66
(dp3707
g86
g87
ssg75
g3701
sg68
(lp3708
S'session_id_welcome'
p3709
asbag61
(g82
g63
NtRp3710
(dp3711
g66
(dp3712
g93
g94
ssg75
g3701
sg68
(lp3713
S':'
asbag61
(g82
g63
NtRp3714
(dp3715
g66
(dp3716
sg75
g3701
sg68
(lp3717
g61
(g62
g63
NtRp3718
(dp3719
g66
(dp3720
g74
I4
ssg75
g3714
sg68
(lp3721
g61
(g70
g63
NtRp3722
(dp3723
g66
(dp3724
g74
I3
ssg75
Nsg68
(lp3725
g61
(g77
g63
NtRp3726
(dp3727
g66
(dp3728
sg75
g3722
sg68
(lp3729
g61
(g82
g63
NtRp3730
(dp3731
g66
(dp3732
g86
g87
ssg75
g3726
sg68
(lp3733
g287
asbag61
(g82
g63
NtRp3734
(dp3735
g66
(dp3736
g93
g94
ssg75
g3726
sg68
(lp3737
S':'
asbag61
(g82
g63
NtRp3738
(dp3739
g66
(dp3740
sg75
g3726
sg68
(lp3741
g61
(g62
g63
NtRp3742
(dp3743
g66
(dp3744
g74
I3
ssg75
g3738
sg68
(lp3745
S''
asbasbasbag61
(g77
g63
NtRp3746
(dp3747
g66
(dp3748
sg75
g3722
sg68
(lp3749
g61
(g82
g63
NtRp3750
(dp3751
g66
(dp3752
g86
g87
ssg75
g3746
sg68
(lp3753
g308
asbag61
(g82
g63
NtRp3754
(dp3755
g66
(dp3756
g93
g94
ssg75
g3746
sg68
(lp3757
S':'
asbag61
(g82
g63
NtRp3758
(dp3759
g66
(dp3760
sg75
g3746
sg68
(lp3761
g61
(g62
g63
NtRp3762
(dp3763
g66
(dp3764
g74
I3
ssg75
g3758
sg68
(lp3765
S''
asbasbasbag61
(g77
g63
NtRp3766
(dp3767
g66
(dp3768
sg75
g3722
sg68
(lp3769
g61
(g82
g63
NtRp3770
(dp3771
g66
(dp3772
g86
g87
ssg75
g3766
sg68
(lp3773
g329
asbag61
(g82
g63
NtRp3774
(dp3775
g66
(dp3776
g93
g94
ssg75
g3766
sg68
(lp3777
S':'
asbag61
(g82
g63
NtRp3778
(dp3779
g66
(dp3780
sg75
g3766
sg68
(lp3781
g61
(g62
g63
NtRp3782
(dp3783
g66
(dp3784
g74
I3
ssg75
g3778
sg68
(lp3785
S''
asbasbasbag61
(g77
g63
NtRp3786
(dp3787
g66
(dp3788
sg75
g3722
sg68
(lp3789
g61
(g82
g63
NtRp3790
(dp3791
g66
(dp3792
g86
g87
ssg75
g3786
sg68
(lp3793
g350
asbag61
(g82
g63
NtRp3794
(dp3795
g66
(dp3796
g93
g94
ssg75
g3786
sg68
(lp3797
S':'
asbag61
(g82
g63
NtRp3798
(dp3799
g66
(dp3800
sg75
g3786
sg68
(lp3801
g61
(g62
g63
NtRp3802
(dp3803
g66
(dp3804
g74
I3
ssg75
g3798
sg68
(lp3805
S''
asbasbasbag61
(g77
g63
NtRp3806
(dp3807
g66
(dp3808
sg75
g3722
sg68
(lp3809
g61
(g82
g63
NtRp3810
(dp3811
g66
(dp3812
g86
g87
ssg75
g3806
sg68
(lp3813
g371
asbag61
(g82
g63
NtRp3814
(dp3815
g66
(dp3816
g93
g94
ssg75
g3806
sg68
(lp3817
S':'
asbag61
(g82
g63
NtRp3818
(dp3819
g66
(dp3820
sg75
g3806
sg68
(lp3821
g61
(g62
g63
NtRp3822
(dp3823
g66
(dp3824
g74
I3
ssg75
g3818
sg68
(lp3825
S''
asbasbasbag61
(g77
g63
NtRp3826
(dp3827
g66
(dp3828
sg75
g3722
sg68
(lp3829
g61
(g82
g63
NtRp3830
(dp3831
g66
(dp3832
g86
g87
ssg75
g3826
sg68
(lp3833
g392
asbag61
(g82
g63
NtRp3834
(dp3835
g66
(dp3836
g93
g94
ssg75
g3826
sg68
(lp3837
S':'
asbag61
(g82
g63
NtRp3838
(dp3839
g66
(dp3840
sg75
g3826
sg68
(lp3841
g61
(g62
g63
NtRp3842
(dp3843
g66
(dp3844
g74
I3
ssg75
g3838
sg68
(lp3845
S'/'
asbasbasbag61
(g77
g63
NtRp3846
(dp3847
g66
(dp3848
sg75
g3722
sg68
(lp3849
g61
(g82
g63
NtRp3850
(dp3851
g66
(dp3852
g86
g87
ssg75
g3846
sg68
(lp3853
g413
asbag61
(g82
g63
NtRp3854
(dp3855
g66
(dp3856
g93
g94
ssg75
g3846
sg68
(lp3857
S':'
asbag61
(g82
g63
NtRp3858
(dp3859
g66
(dp3860
sg75
g3846
sg68
(lp3861
g61
(g62
g63
NtRp3862
(dp3863
g66
(dp3864
g74
I3
ssg75
g3858
sg68
(lp3865
S''
asbasbasbag61
(g77
g63
NtRp3866
(dp3867
g66
(dp3868
sg75
g3722
sg68
(lp3869
g61
(g82
g63
NtRp3870
(dp3871
g66
(dp3872
g86
g87
ssg75
g3866
sg68
(lp3873
g434
asbag61
(g82
g63
NtRp3874
(dp3875
g66
(dp3876
g93
g94
ssg75
g3866
sg68
(lp3877
S':'
asbag61
(g82
g63
NtRp3878
(dp3879
g66
(dp3880
sg75
g3866
sg68
(lp3881
g61
(g62
g63
NtRp3882
(dp3883
g66
(dp3884
g74
I3
ssg75
g3878
sg68
(lp3885
S''
asbasbasbasbasbasbasbasbasbasbasbag61
(g77
g63
NtRp3886
(dp3887
g66
(dp3888
sg75
g3652
sg68
(lp3889
g61
(g82
g63
NtRp3890
(dp3891
g66
(dp3892
g86
g87
ssg75
g3886
sg68
(lp3893
S'files'
p3894
asbag61
(g82
g63
NtRp3895
(dp3896
g66
(dp3897
g93
g94
ssg75
g3886
sg68
(lp3898
S':'
asbag61
(g82
g63
NtRp3899
(dp3900
g66
(dp3901
sg75
g3886
sg68
(lp3902
g61
(g62
g63
NtRp3903
(dp3904
g66
(dp3905
g74
I5
ssg75
g3899
sg68
(lp3906
g61
(g70
g63
NtRp3907
(dp3908
g66
(dp3909
g74
I4
ssg75
Nsg68
(lp3910
sbasbasbasbag61
(g77
g63
NtRp3911
(dp3912
g66
(dp3913
sg75
g3652
sg68
(lp3914
g61
(g82
g63
NtRp3915
(dp3916
g66
(dp3917
g86
g87
ssg75
g3911
sg68
(lp3918
S'flash'
p3919
asbag61
(g82
g63
NtRp3920
(dp3921
g66
(dp3922
g93
g94
ssg75
g3911
sg68
(lp3923
S':'
asbag61
(g82
g63
NtRp3924
(dp3925
g66
(dp3926
sg75
g3911
sg68
(lp3927
g61
(g62
g63
NtRp3928
(dp3929
g66
(dp3930
g74
I5
ssg75
g3924
sg68
(lp3931
S''
asbasbasbag61
(g77
g63
NtRp3932
(dp3933
g66
(dp3934
sg75
g3652
sg68
(lp3935
g61
(g82
g63
NtRp3936
(dp3937
g66
(dp3938
g86
g87
ssg75
g3932
sg68
(lp3939
S'generic_patterns'
p3940
asbag61
(g82
g63
NtRp3941
(dp3942
g66
(dp3943
g93
g94
ssg75
g3932
sg68
(lp3944
S':'
asbag61
(g82
g63
NtRp3945
(dp3946
g66
(dp3947
sg75
g3932
sg68
(lp3948
g61
(g62
g63
NtRp3949
(dp3950
g66
(dp3951
g74
I5
ssg75
g3945
sg68
(lp3952
g61
(g70
g63
NtRp3953
(dp3954
g66
(dp3955
g74
I4
ssg75
Nsg68
(lp3956
g61
(g77
g63
NtRp3957
(dp3958
g66
(dp3959
sg75
g3953
sg68
(lp3960
g61
(g82
g63
NtRp3961
(dp3962
g66
(dp3963
sg75
g3957
sg68
(lp3964
g61
(g62
g63
NtRp3965
(dp3966
g66
(dp3967
g74
I4
ssg75
g3961
sg68
(lp3968
S'*'
asbasbasbasbasbasbasbag61
(g77
g63
NtRp3969
(dp3970
g66
(dp3971
sg75
g3652
sg68
(lp3972
g61
(g82
g63
NtRp3973
(dp3974
g66
(dp3975
g86
g87
ssg75
g3969
sg68
(lp3976
S'headers'
p3977
asbag61
(g82
g63
NtRp3978
(dp3979
g66
(dp3980
g93
g94
ssg75
g3969
sg68
(lp3981
S':'
asbag61
(g82
g63
NtRp3982
(dp3983
g66
(dp3984
sg75
g3969
sg68
(lp3985
g61
(g62
g63
NtRp3986
(dp3987
g66
(dp3988
g74
I5
ssg75
g3982
sg68
(lp3989
g61
(g70
g63
NtRp3990
(dp3991
g66
(dp3992
g74
I4
ssg75
Nsg68
(lp3993
g61
(g77
g63
NtRp3994
(dp3995
g66
(dp3996
sg75
g3990
sg68
(lp3997
g61
(g82
g63
NtRp3998
(dp3999
g66
(dp4000
g86
g87
ssg75
g3994
sg68
(lp4001
S'Cache-Control'
p4002
asbag61
(g82
g63
NtRp4003
(dp4004
g66
(dp4005
g93
g94
ssg75
g3994
sg68
(lp4006
S':'
asbag61
(g82
g63
NtRp4007
(dp4008
g66
(dp4009
sg75
g3994
sg68
(lp4010
g61
(g62
g63
NtRp4011
(dp4012
g66
(dp4013
g74
I4
ssg75
g4007
sg68
(lp4014
S'no-store, no-cache, must-revalidate, post-check=0, pre-check=0'
p4015
asbasbasbag61
(g77
g63
NtRp4016
(dp4017
g66
(dp4018
sg75
g3990
sg68
(lp4019
g61
(g82
g63
NtRp4020
(dp4021
g66
(dp4022
g86
g87
ssg75
g4016
sg68
(lp4023
S'Content-Type'
p4024
asbag61
(g82
g63
NtRp4025
(dp4026
g66
(dp4027
g93
g94
ssg75
g4016
sg68
(lp4028
S':'
asbag61
(g82
g63
NtRp4029
(dp4030
g66
(dp4031
sg75
g4016
sg68
(lp4032
g61
(g62
g63
NtRp4033
(dp4034
g66
(dp4035
g74
I4
ssg75
g4029
sg68
(lp4036
S'text/html; charset=utf-8'
p4037
asbasbasbag61
(g77
g63
NtRp4038
(dp4039
g66
(dp4040
sg75
g3990
sg68
(lp4041
g61
(g82
g63
NtRp4042
(dp4043
g66
(dp4044
g86
g87
ssg75
g4038
sg68
(lp4045
S'Expires'
p4046
asbag61
(g82
g63
NtRp4047
(dp4048
g66
(dp4049
g93
g94
ssg75
g4038
sg68
(lp4050
S':'
asbag61
(g82
g63
NtRp4051
(dp4052
g66
(dp4053
sg75
g4038
sg68
(lp4054
g61
(g62
g63
NtRp4055
(dp4056
g66
(dp4057
g74
I4
ssg75
g4051
sg68
(lp4058
S'Mon, 13 Feb 2012 21:38:16 GMT'
p4059
asbasbasbag61
(g77
g63
NtRp4060
(dp4061
g66
(dp4062
sg75
g3990
sg68
(lp4063
g61
(g82
g63
NtRp4064
(dp4065
g66
(dp4066
g86
g87
ssg75
g4060
sg68
(lp4067
S'Pragma'
p4068
asbag61
(g82
g63
NtRp4069
(dp4070
g66
(dp4071
g93
g94
ssg75
g4060
sg68
(lp4072
S':'
asbag61
(g82
g63
NtRp4073
(dp4074
g66
(dp4075
sg75
g4060
sg68
(lp4076
g61
(g62
g63
NtRp4077
(dp4078
g66
(dp4079
g74
I4
ssg75
g4073
sg68
(lp4080
S'no-cache'
p4081
asbasbasbag61
(g77
g63
NtRp4082
(dp4083
g66
(dp4084
sg75
g3990
sg68
(lp4085
g61
(g82
g63
NtRp4086
(dp4087
g66
(dp4088
g86
g87
ssg75
g4082
sg68
(lp4089
S'X-Powered-By'
p4090
asbag61
(g82
g63
NtRp4091
(dp4092
g66
(dp4093
g93
g94
ssg75
g4082
sg68
(lp4094
S':'
asbag61
(g82
g63
NtRp4095
(dp4096
g66
(dp4097
sg75
g4082
sg68
(lp4098
g61
(g62
g63
NtRp4099
(dp4100
g66
(dp4101
g74
I4
ssg75
g4095
sg68
(lp4102
S'web2py'
p4103
asbasbasbasbasbasbasbag61
(g77
g63
NtRp4104
(dp4105
g66
(dp4106
sg75
g3652
sg68
(lp4107
g61
(g82
g63
NtRp4108
(dp4109
g66
(dp4110
g86
g87
ssg75
g4104
sg68
(lp4111
S'menu'
p4112
asbag61
(g82
g63
NtRp4113
(dp4114
g66
(dp4115
g93
g94
ssg75
g4104
sg68
(lp4116
S':'
asbag61
(g82
g63
NtRp4117
(dp4118
g66
(dp4119
sg75
g4104
sg68
(lp4120
g61
(g62
g63
NtRp4121
(dp4122
g66
(dp4123
g74
I5
ssg75
g4117
sg68
(lp4124
g61
(g70
g63
NtRp4125
(dp4126
g66
(dp4127
g74
I4
ssg75
Nsg68
(lp4128
g61
(g77
g63
NtRp4129
(dp4130
g66
(dp4131
sg75
g4125
sg68
(lp4132
g61
(g82
g63
NtRp4133
(dp4134
g66
(dp4135
sg75
g4129
sg68
(lp4136
g61
(g62
g63
NtRp4137
(dp4138
g66
(dp4139
g74
I4
ssg75
g4133
sg68
(lp4140
g61
(g70
g63
NtRp4141
(dp4142
g66
(dp4143
g74
I3
ssg75
Nsg68
(lp4144
g61
(g77
g63
NtRp4145
(dp4146
g66
(dp4147
sg75
g4141
sg68
(lp4148
g61
(g82
g63
NtRp4149
(dp4150
g66
(dp4151
sg75
g4145
sg68
(lp4152
g61
(g62
g63
NtRp4153
(dp4154
g66
(dp4155
g74
I3
ssg75
g4149
sg68
(lp4156
cgluon.languages
lazyT_unpickle
p4157
(S't\x04\x00\x00\x00Home'
tRp4158
asbasbasbag61
(g77
g63
NtRp4159
(dp4160
g66
(dp4161
sg75
g4141
sg68
(lp4162
g61
(g82
g63
NtRp4163
(dp4164
g66
(dp4165
sg75
g4159
sg68
(lp4166
g61
(g62
g63
NtRp4167
(dp4168
g66
(dp4169
g74
I3
ssg75
g4163
sg68
(lp4170
g104
asbasbasbag61
(g77
g63
NtRp4171
(dp4172
g66
(dp4173
sg75
g4141
sg68
(lp4174
g61
(g82
g63
NtRp4175
(dp4176
g66
(dp4177
sg75
g4171
sg68
(lp4178
g61
(g62
g63
NtRp4179
(dp4180
g66
(dp4181
g74
I3
ssg75
g4175
sg68
(lp4182
S'/welcome/default/index'
p4183
asbasbasbag61
(g77
g63
NtRp4184
(dp4185
g66
(dp4186
sg75
g4141
sg68
(lp4187
g61
(g82
g63
NtRp4188
(dp4189
g66
(dp4190
sg75
g4184
sg68
(lp4191
g61
(g62
g63
NtRp4192
(dp4193
g66
(dp4194
g74
I3
ssg75
g4188
sg68
(lp4195
g61
(g70
g63
NtRp4196
(dp4197
g66
(dp4198
g74
I2
ssg75
Nsg68
(lp4199
sbasbasbasbasbasbasbasbasbasbasbasbag61
(g77
g63
NtRp4200
(dp4201
g66
(dp4202
sg75
g3652
sg68
(lp4203
g61
(g82
g63
NtRp4204
(dp4205
g66
(dp4206
g86
g87
ssg75
g4200
sg68
(lp4207
S'meta'
p4208
asbag61
(g82
g63
NtRp4209
(dp4210
g66
(dp4211
g93
g94
ssg75
g4200
sg68
(lp4212
S':'
asbag61
(g82
g63
NtRp4213
(dp4214
g66
(dp4215
sg75
g4200
sg68
(lp4216
g61
(g62
g63
NtRp4217
(dp4218
g66
(dp4219
g74
I5
ssg75
g4213
sg68
(lp4220
g61
(g70
g63
NtRp4221
(dp4222
g66
(dp4223
g74
I4
ssg75
Nsg68
(lp4224
g61
(g77
g63
NtRp4225
(dp4226
g66
(dp4227
sg75
g4221
sg68
(lp4228
g61
(g82
g63
NtRp4229
(dp4230
g66
(dp4231
g86
g87
ssg75
g4225
sg68
(lp4232
S'author'
p4233
asbag61
(g82
g63
NtRp4234
(dp4235
g66
(dp4236
g93
g94
ssg75
g4225
sg68
(lp4237
S':'
asbag61
(g82
g63
NtRp4238
(dp4239
g66
(dp4240
sg75
g4225
sg68
(lp4241
g61
(g62
g63
NtRp4242
(dp4243
g66
(dp4244
g74
I4
ssg75
g4238
sg68
(lp4245
S'Your Name <you@example.com>'
p4246
asbasbasbag61
(g77
g63
NtRp4247
(dp4248
g66
(dp4249
sg75
g4221
sg68
(lp4250
g61
(g82
g63
NtRp4251
(dp4252
g66
(dp4253
g86
g87
ssg75
g4247
sg68
(lp4254
S'copyright'
p4255
asbag61
(g82
g63
NtRp4256
(dp4257
g66
(dp4258
g93
g94
ssg75
g4247
sg68
(lp4259
S':'
asbag61
(g82
g63
NtRp4260
(dp4261
g66
(dp4262
sg75
g4247
sg68
(lp4263
g61
(g62
g63
NtRp4264
(dp4265
g66
(dp4266
g74
I4
ssg75
g4260
sg68
(lp4267
S'Copyright 2011'
p4268
asbasbasbag61
(g77
g63
NtRp4269
(dp4270
g66
(dp4271
sg75
g4221
sg68
(lp4272
g61
(g82
g63
NtRp4273
(dp4274
g66
(dp4275
g86
g87
ssg75
g4269
sg68
(lp4276
S'description'
p4277
asbag61
(g82
g63
NtRp4278
(dp4279
g66
(dp4280
g93
g94
ssg75
g4269
sg68
(lp4281
S':'
asbag61
(g82
g63
NtRp4282
(dp4283
g66
(dp4284
sg75
g4269
sg68
(lp4285
g61
(g62
g63
NtRp4286
(dp4287
g66
(dp4288
g74
I4
ssg75
g4282
sg68
(lp4289
S'a cool new app'
p4290
asbasbasbag61
(g77
g63
NtRp4291
(dp4292
g66
(dp4293
sg75
g4221
sg68
(lp4294
g61
(g82
g63
NtRp4295
(dp4296
g66
(dp4297
g86
g87
ssg75
g4291
sg68
(lp4298
S'generator'
p4299
asbag61
(g82
g63
NtRp4300
(dp4301
g66
(dp4302
g93
g94
ssg75
g4291
sg68
(lp4303
S':'
asbag61
(g82
g63
NtRp4304
(dp4305
g66
(dp4306
sg75
g4291
sg68
(lp4307
g61
(g62
g63
NtRp4308
(dp4309
g66
(dp4310
g74
I4
ssg75
g4304
sg68
(lp4311
S'Web2py Web Framework'
p4312
asbasbasbag61
(g77
g63
NtRp4313
(dp4314
g66
(dp4315
sg75
g4221
sg68
(lp4316
g61
(g82
g63
NtRp4317
(dp4318
g66
(dp4319
g86
g87
ssg75
g4313
sg68
(lp4320
S'keywords'
p4321
asbag61
(g82
g63
NtRp4322
(dp4323
g66
(dp4324
g93
g94
ssg75
g4313
sg68
(lp4325
S':'
asbag61
(g82
g63
NtRp4326
(dp4327
g66
(dp4328
sg75
g4313
sg68
(lp4329
g61
(g62
g63
NtRp4330
(dp4331
g66
(dp4332
g74
I4
ssg75
g4326
sg68
(lp4333
S'web2py, python, framework'
p4334
asbasbasbasbasbasbasbag61
(g77
g63
NtRp4335
(dp4336
g66
(dp4337
sg75
g3652
sg68
(lp4338
g61
(g82
g63
NtRp4339
(dp4340
g66
(dp4341
g86
g87
ssg75
g4335
sg68
(lp4342
S'postprocessing'
p4343
asbag61
(g82
g63
NtRp4344
(dp4345
g66
(dp4346
g93
g94
ssg75
g4335
sg68
(lp4347
S':'
asbag61
(g82
g63
NtRp4348
(dp4349
g66
(dp4350
sg75
g4335
sg68
(lp4351
g61
(g62
g63
NtRp4352
(dp4353
g66
(dp4354
g74
I5
ssg75
g4348
sg68
(lp4355
g61
(g70
g63
NtRp4356
(dp4357
g66
(dp4358
g74
I4
ssg75
Nsg68
(lp4359
sbasbasbasbag61
(g77
g63
NtRp4360
(dp4361
g66
(dp4362
sg75
g3652
sg68
(lp4363
g61
(g82
g63
NtRp4364
(dp4365
g66
(dp4366
g86
g87
ssg75
g4360
sg68
(lp4367
S'session_file'
p4368
asbag61
(g82
g63
NtRp4369
(dp4370
g66
(dp4371
g93
g94
ssg75
g4360
sg68
(lp4372
S':'
asbag61
(g82
g63
NtRp4373
(dp4374
g66
(dp4375
sg75
g4360
sg68
(lp4376
g61
(g62
g63
NtRp4377
(dp4378
g66
(dp4379
g74
I5
ssg75
g4373
sg68
(lp4380
S"<open file 'C:\\Users\\mellinja\\Documents\\SC2Tracker\\SC2Tracker2\\web2py\\applications\\welcome\\sessions\\127.0.0.1-a90ce443-1437-4832-bce2-e811b9654eea', mode 'rb+' at 0x00000000085ED6F0>"
p4381
asbasbasbag61
(g77
g63
NtRp4382
(dp4383
g66
(dp4384
sg75
g3652
sg68
(lp4385
g61
(g82
g63
NtRp4386
(dp4387
g66
(dp4388
g86
g87
ssg75
g4382
sg68
(lp4389
S'session_filename'
p4390
asbag61
(g82
g63
NtRp4391
(dp4392
g66
(dp4393
g93
g94
ssg75
g4382
sg68
(lp4394
S':'
asbag61
(g82
g63
NtRp4395
(dp4396
g66
(dp4397
sg75
g4382
sg68
(lp4398
g61
(g62
g63
NtRp4399
(dp4400
g66
(dp4401
g74
I5
ssg75
g4395
sg68
(lp4402
S'C:\\Users\\mellinja\\Documents\\SC2Tracker\\SC2Tracker2\\web2py\\applications\\welcome\\sessions\\127.0.0.1-a90ce443-1437-4832-bce2-e811b9654eea'
p4403
asbasbasbag61
(g77
g63
NtRp4404
(dp4405
g66
(dp4406
sg75
g3652
sg68
(lp4407
g61
(g82
g63
NtRp4408
(dp4409
g66
(dp4410
g86
g87
ssg75
g4404
sg68
(lp4411
S'session_id'
p4412
asbag61
(g82
g63
NtRp4413
(dp4414
g66
(dp4415
g93
g94
ssg75
g4404
sg68
(lp4416
S':'
asbag61
(g82
g63
NtRp4417
(dp4418
g66
(dp4419
sg75
g4404
sg68
(lp4420
g61
(g62
g63
NtRp4421
(dp4422
g66
(dp4423
g74
I5
ssg75
g4417
sg68
(lp4424
S'127.0.0.1-a90ce443-1437-4832-bce2-e811b9654eea'
p4425
asbasbasbag61
(g77
g63
NtRp4426
(dp4427
g66
(dp4428
sg75
g3652
sg68
(lp4429
g61
(g82
g63
NtRp4430
(dp4431
g66
(dp4432
g86
g87
ssg75
g4426
sg68
(lp4433
S'session_id_name'
p4434
asbag61
(g82
g63
NtRp4435
(dp4436
g66
(dp4437
g93
g94
ssg75
g4426
sg68
(lp4438
S':'
asbag61
(g82
g63
NtRp4439
(dp4440
g66
(dp4441
sg75
g4426
sg68
(lp4442
g61
(g62
g63
NtRp4443
(dp4444
g66
(dp4445
g74
I5
ssg75
g4439
sg68
(lp4446
g3709
asbasbasbag61
(g77
g63
NtRp4447
(dp4448
g66
(dp4449
sg75
g3652
sg68
(lp4450
g61
(g82
g63
NtRp4451
(dp4452
g66
(dp4453
g86
g87
ssg75
g4447
sg68
(lp4454
S'session_locked'
p4455
asbag61
(g82
g63
NtRp4456
(dp4457
g66
(dp4458
g93
g94
ssg75
g4447
sg68
(lp4459
S':'
asbag61
(g82
g63
NtRp4460
(dp4461
g66
(dp4462
sg75
g4447
sg68
(lp4463
g61
(g62
g63
NtRp4464
(dp4465
g66
(dp4466
g74
I5
ssg75
g4460
sg68
(lp4467
g1639
asbasbasbag61
(g77
g63
NtRp4468
(dp4469
g66
(dp4470
sg75
g3652
sg68
(lp4471
g61
(g82
g63
NtRp4472
(dp4473
g66
(dp4474
g86
g87
ssg75
g4468
sg68
(lp4475
S'session_new'
p4476
asbag61
(g82
g63
NtRp4477
(dp4478
g66
(dp4479
g93
g94
ssg75
g4468
sg68
(lp4480
S':'
asbag61
(g82
g63
NtRp4481
(dp4482
g66
(dp4483
sg75
g4468
sg68
(lp4484
g61
(g62
g63
NtRp4485
(dp4486
g66
(dp4487
g74
I5
ssg75
g4481
sg68
(lp4488
g104
asbasbasbag61
(g77
g63
NtRp4489
(dp4490
g66
(dp4491
sg75
g3652
sg68
(lp4492
g61
(g82
g63
NtRp4493
(dp4494
g66
(dp4495
g86
g87
ssg75
g4489
sg68
(lp4496
S'status'
p4497
asbag61
(g82
g63
NtRp4498
(dp4499
g66
(dp4500
g93
g94
ssg75
g4489
sg68
(lp4501
S':'
asbag61
(g82
g63
NtRp4502
(dp4503
g66
(dp4504
sg75
g4489
sg68
(lp4505
g61
(g62
g63
NtRp4506
(dp4507
g66
(dp4508
g74
I5
ssg75
g4502
sg68
(lp4509
S'200'
p4510
asbasbasbag61
(g77
g63
NtRp4511
(dp4512
g66
(dp4513
sg75
g3652
sg68
(lp4514
g61
(g82
g63
NtRp4515
(dp4516
g66
(dp4517
g86
g87
ssg75
g4511
sg68
(lp4518
S'subtitle'
p4519
asbag61
(g82
g63
NtRp4520
(dp4521
g66
(dp4522
g93
g94
ssg75
g4511
sg68
(lp4523
S':'
asbag61
(g82
g63
NtRp4524
(dp4525
g66
(dp4526
sg75
g4511
sg68
(lp4527
g61
(g62
g63
NtRp4528
(dp4529
g66
(dp4530
g74
I5
ssg75
g4524
sg68
(lp4531
g4157
(S's2\x00\x00\x00Starcraft II Custom Tournament Tracker Version 0.1'
tRp4532
asbasbasbag61
(g77
g63
NtRp4533
(dp4534
g66
(dp4535
sg75
g3652
sg68
(lp4536
g61
(g82
g63
NtRp4537
(dp4538
g66
(dp4539
g86
g87
ssg75
g4533
sg68
(lp4540
S'title'
p4541
asbag61
(g82
g63
NtRp4542
(dp4543
g66
(dp4544
g93
g94
ssg75
g4533
sg68
(lp4545
S':'
asbag61
(g82
g63
NtRp4546
(dp4547
g66
(dp4548
sg75
g4533
sg68
(lp4549
g61
(g62
g63
NtRp4550
(dp4551
g66
(dp4552
g74
I5
ssg75
g4546
sg68
(lp4553
S'SC2CTT v0.1'
p4554
asbasbasbag61
(g77
g63
NtRp4555
(dp4556
g66
(dp4557
sg75
g3652
sg68
(lp4558
g61
(g82
g63
NtRp4559
(dp4560
g66
(dp4561
g86
g87
ssg75
g4555
sg68
(lp4562
g2346
asbag61
(g82
g63
NtRp4563
(dp4564
g66
(dp4565
g93
g94
ssg75
g4555
sg68
(lp4566
S':'
asbag61
(g82
g63
NtRp4567
(dp4568
g66
(dp4569
sg75
g4555
sg68
(lp4570
g61
(g62
g63
NtRp4571
(dp4572
g66
(dp4573
g74
I5
ssg75
g4567
sg68
(lp4574
g2359
asbasbasbag61
(g77
g63
NtRp4575
(dp4576
g66
(dp4577
sg75
g3652
sg68
(lp4578
g61
(g82
g63
NtRp4579
(dp4580
g66
(dp4581
g86
g87
ssg75
g4575
sg68
(lp4582
S'view'
p4583
asbag61
(g82
g63
NtRp4584
(dp4585
g66
(dp4586
g93
g94
ssg75
g4575
sg68
(lp4587
S':'
asbag61
(g82
g63
NtRp4588
(dp4589
g66
(dp4590
sg75
g4575
sg68
(lp4591
g61
(g62
g63
NtRp4592
(dp4593
g66
(dp4594
g74
I5
ssg75
g4588
sg68
(lp4595
S'tournament/show.html'
p4596
asbasbasbasbasbsS'locals'
p4597
(dp4598
S'a'
S"('EXEC [player_to_tourney_sp] [(5, )], 7',)"
p4599
sS'self'
p4600
S'<gluon.dal.MSSQLAdapter object>'
p4601
sS'b'
g21
sS't0'
p4602
S'1329169096.227'
p4603
sssS'traceback'
p4604
S'Traceback (most recent call last):\n  File "C:\\Users\\mellinja\\Documents\\SC2Tracker\\SC2Tracker2\\web2py\\gluon\\restricted.py", line 204, in restricted\n    exec ccode in environment\n  File "C:\\Users\\mellinja\\Documents\\SC2Tracker\\SC2Tracker2\\web2py\\applications\\welcome\\controllers/tournament.py", line 23, in <module>\n  File "C:\\Users\\mellinja\\Documents\\SC2Tracker\\SC2Tracker2\\web2py\\gluon\\globals.py", line 172, in <lambda>\n    self._caller = lambda f: f()\n  File "C:\\Users\\mellinja\\Documents\\SC2Tracker\\SC2Tracker2\\web2py\\applications\\welcome\\controllers/tournament.py", line 19, in show\n    db.executesql(\'EXEC [player_to_tourney_sp] \' + str(pid) + ", " + str(request.args(0)))\n  File "C:\\Users\\mellinja\\Documents\\SC2Tracker\\SC2Tracker2\\web2py\\gluon\\dal.py", line 5170, in executesql\n    self._adapter.execute(query)\n  File "C:\\Users\\mellinja\\Documents\\SC2Tracker\\SC2Tracker2\\web2py\\gluon\\dal.py", line 1359, in execute\n    return self.log_execute(*a, **b)\n  File "C:\\Users\\mellinja\\Documents\\SC2Tracker\\SC2Tracker2\\web2py\\gluon\\dal.py", line 1353, in log_execute\n    ret = self.cursor.execute(*a, **b)\nProgrammingError: (\'42000\', \'[42000] [Microsoft][ODBC SQL Server Driver][SQL Server]Error converting data type nvarchar to int. (8114) (SQLExecDirectW)\')\n'
p4605
s.