(dp1
S'output'
p2
S'<class \'pyodbc.ProgrammingError\'> (\'42000\', \'[42000] [Microsoft][ODBC SQL Server Driver][SQL Server]The multi-part identifier "google.com" could not be bound. (4104) (SQLExecDirectW)\')'
p3
sS'layer'
p4
S'C:\\Users\\mellinja\\Documents\\SC2Tracker\\SC2Tracker2\\web2py\\applications\\welcome\\controllers/tournament.py'
p5
sS'code'
p6
S'# coding: utf8\n#\ndef index(): \n    #db = DAL(\'mssql://cheungkt:mechanes5@whale.cs.rose-hulman.edu/SC2tracker\')\n    tournies = db.executesql(\'SELECT Name, ID FROM Tournament\')\n    return dict(tournament = tournies)\n    \ndef show():\n    \n    tourny = db.executesql(\'SELECT * FROM Tournament WHERE ID = \' + str(request.args(0)))\n    pids = db(db.Player.Auth_User_ID == auth.user_id).select()\n    forms = []\n    for player in pids:\n        form = FORM(INPUT( _type = \'submit\',_value="Join as " + str(player[\'InGameName\'])))\n        \n        if form.process().accepted:\n            response.flash = \'Joined the tournament!\'\n            redirect(\'google.com\')\n            #pid = player[\'id\']\n            #db.executesql(\'EXEC [player_to_tourney_sp] \' + str(pid) + ", " + str(request.args(0)))    \n\n    return dict(tourny = tourny,form = form)\n\n\ndef join():\n    \n    playerID = auth.user.ID\n    tournyID = request.args(0)\n    #TODO: add tourny\n    \n    redirect(URL(\'show/\'+request.args(0)))\n    response.flash = \'Joined the tournament\'\n    return dict(pid = request.args(0), message = \'Joined the tournament\')\n\nresponse._vars=response._caller(show)\n'
p7
sS'snapshot'
p8
(dp9
S'exception'
p10
(dp11
S'__module__'
p12
S"'pyodbc'"
p13
sS'__getslice__'
p14
S"<method-wrapper '__getslice__' of ProgrammingError object>"
p15
sS'__str__'
p16
S"<method-wrapper '__str__' of ProgrammingError object>"
p17
sS'__reduce__'
p18
S'<built-in method __reduce__ of ProgrammingError object>'
p19
sS'__dict__'
p20
S'{}'
p21
sS'__sizeof__'
p22
S'<built-in method __sizeof__ of ProgrammingError object>'
p23
sS'__weakref__'
p24
S'None'
p25
sS'__init__'
p26
S"<method-wrapper '__init__' of ProgrammingError object>"
p27
sS'__setattr__'
p28
S"<method-wrapper '__setattr__' of ProgrammingError object>"
p29
sS'__reduce_ex__'
p30
S'<built-in method __reduce_ex__ of ProgrammingError object>'
p31
sS'__new__'
p32
S'<built-in method __new__ of type object>'
p33
sS'__format__'
p34
S'<built-in method __format__ of ProgrammingError object>'
p35
sS'__class__'
p36
S"<class 'pyodbc.ProgrammingError'>"
p37
sS'__doc__'
p38
S"'Exception raised for programming errors, e.g. ta...ement, wrong number of parameters\\nspecified, etc.'"
p39
sS'__getitem__'
p40
S"<method-wrapper '__getitem__' of ProgrammingError object>"
p41
sS'__setstate__'
p42
S'<built-in method __setstate__ of ProgrammingError object>'
p43
sS'__getattribute__'
p44
S"<method-wrapper '__getattribute__' of ProgrammingError object>"
p45
sS'args'
p46
S'(\'42000\', \'[42000] [Microsoft][ODBC SQL Server Driver][SQL ....com" could not be bound. (4104) (SQLExecDirectW)\')'
p47
sS'__subclasshook__'
p48
S'<built-in method __subclasshook__ of type object>'
p49
sS'__unicode__'
p50
S'<built-in method __unicode__ of ProgrammingError object>'
p51
sS'__delattr__'
p52
S"<method-wrapper '__delattr__' of ProgrammingError object>"
p53
sS'__repr__'
p54
S"<method-wrapper '__repr__' of ProgrammingError object>"
p55
sS'__hash__'
p56
S"<method-wrapper '__hash__' of ProgrammingError object>"
p57
ssS'evalue'
p58
S'(\'42000\', \'[42000] [Microsoft][ODBC SQL Server Driver][SQL Server]The multi-part identifier "google.com" could not be bound. (4104) (SQLExecDirectW)\')'
p59
sS'request'
p60
ccopy_reg
_reconstructor
p61
(cgluon.html
BEAUTIFY
p62
c__builtin__
object
p63
NtRp64
(dp65
S'attributes'
p66
(dp67
sS'components'
p68
(lp69
g61
(cgluon.html
TABLE
p70
g63
NtRp71
(dp72
g66
(dp73
S'level'
p74
I5
ssS'parent'
p75
Nsg68
(lp76
g61
(cgluon.html
TR
p77
g63
NtRp78
(dp79
g66
(dp80
sg75
g71
sg68
(lp81
g61
(cgluon.html
TD
p82
g63
NtRp83
(dp84
g66
(dp85
S'_style'
p86
S'font-weight:bold;vertical-align:top'
p87
ssg75
g78
sg68
(lp88
S'ajax'
p89
asbag61
(g82
g63
NtRp90
(dp91
g66
(dp92
S'_valign'
p93
S'top'
p94
ssg75
g78
sg68
(lp95
S':'
asbag61
(g82
g63
NtRp96
(dp97
g66
(dp98
sg75
g78
sg68
(lp99
g61
(g62
g63
NtRp100
(dp101
g66
(dp102
g74
I5
ssg75
g96
sg68
(lp103
S'False'
p104
asbasbasbag61
(g77
g63
NtRp105
(dp106
g66
(dp107
sg75
g71
sg68
(lp108
g61
(g82
g63
NtRp109
(dp110
g66
(dp111
g86
g87
ssg75
g105
sg68
(lp112
S'application'
p113
asbag61
(g82
g63
NtRp114
(dp115
g66
(dp116
g93
g94
ssg75
g105
sg68
(lp117
S':'
asbag61
(g82
g63
NtRp118
(dp119
g66
(dp120
sg75
g105
sg68
(lp121
g61
(g62
g63
NtRp122
(dp123
g66
(dp124
g74
I5
ssg75
g118
sg68
(lp125
S'welcome'
p126
asbasbasbag61
(g77
g63
NtRp127
(dp128
g66
(dp129
sg75
g71
sg68
(lp130
g61
(g82
g63
NtRp131
(dp132
g66
(dp133
g86
g87
ssg75
g127
sg68
(lp134
g46
asbag61
(g82
g63
NtRp135
(dp136
g66
(dp137
g93
g94
ssg75
g127
sg68
(lp138
S':'
asbag61
(g82
g63
NtRp139
(dp140
g66
(dp141
sg75
g127
sg68
(lp142
g61
(g62
g63
NtRp143
(dp144
g66
(dp145
g74
I5
ssg75
g139
sg68
(lp146
g61
(g70
g63
NtRp147
(dp148
g66
(dp149
g74
I4
ssg75
Nsg68
(lp150
g61
(g77
g63
NtRp151
(dp152
g66
(dp153
sg75
g147
sg68
(lp154
g61
(g82
g63
NtRp155
(dp156
g66
(dp157
sg75
g151
sg68
(lp158
g61
(g62
g63
NtRp159
(dp160
g66
(dp161
g74
I4
ssg75
g155
sg68
(lp162
S'google.com'
p163
asbasbasbasbasbasbasbag61
(g77
g63
NtRp164
(dp165
g66
(dp166
sg75
g71
sg68
(lp167
g61
(g82
g63
NtRp168
(dp169
g66
(dp170
g86
g87
ssg75
g164
sg68
(lp171
S'body'
p172
asbag61
(g82
g63
NtRp173
(dp174
g66
(dp175
g93
g94
ssg75
g164
sg68
(lp176
S':'
asbag61
(g82
g63
NtRp177
(dp178
g66
(dp179
sg75
g164
sg68
(lp180
g61
(g62
g63
NtRp181
(dp182
g66
(dp183
g74
I5
ssg75
g177
sg68
(lp184
S'<cStringIO.StringO object at 0x0000000008B7DC38>'
p185
asbasbasbag61
(g77
g63
NtRp186
(dp187
g66
(dp188
sg75
g71
sg68
(lp189
g61
(g82
g63
NtRp190
(dp191
g66
(dp192
g86
g87
ssg75
g186
sg68
(lp193
S'client'
p194
asbag61
(g82
g63
NtRp195
(dp196
g66
(dp197
g93
g94
ssg75
g186
sg68
(lp198
S':'
asbag61
(g82
g63
NtRp199
(dp200
g66
(dp201
sg75
g186
sg68
(lp202
g61
(g62
g63
NtRp203
(dp204
g66
(dp205
g74
I5
ssg75
g199
sg68
(lp206
S'127.0.0.1'
p207
asbasbasbag61
(g77
g63
NtRp208
(dp209
g66
(dp210
sg75
g71
sg68
(lp211
g61
(g82
g63
NtRp212
(dp213
g66
(dp214
g86
g87
ssg75
g208
sg68
(lp215
S'controller'
p216
asbag61
(g82
g63
NtRp217
(dp218
g66
(dp219
g93
g94
ssg75
g208
sg68
(lp220
S':'
asbag61
(g82
g63
NtRp221
(dp222
g66
(dp223
sg75
g208
sg68
(lp224
g61
(g62
g63
NtRp225
(dp226
g66
(dp227
g74
I5
ssg75
g221
sg68
(lp228
S'tournament'
p229
asbasbasbag61
(g77
g63
NtRp230
(dp231
g66
(dp232
sg75
g71
sg68
(lp233
g61
(g82
g63
NtRp234
(dp235
g66
(dp236
g86
g87
ssg75
g230
sg68
(lp237
S'cookies'
p238
asbag61
(g82
g63
NtRp239
(dp240
g66
(dp241
g93
g94
ssg75
g230
sg68
(lp242
S':'
asbag61
(g82
g63
NtRp243
(dp244
g66
(dp245
sg75
g230
sg68
(lp246
g61
(g62
g63
NtRp247
(dp248
g66
(dp249
g74
I5
ssg75
g243
sg68
(lp250
g61
(g70
g63
NtRp251
(dp252
g66
(dp253
g74
I4
ssg75
Nsg68
(lp254
g61
(g77
g63
NtRp255
(dp256
g66
(dp257
sg75
g251
sg68
(lp258
g61
(g82
g63
NtRp259
(dp260
g66
(dp261
g86
g87
ssg75
g255
sg68
(lp262
S'session_id_admin'
p263
asbag61
(g82
g63
NtRp264
(dp265
g66
(dp266
g93
g94
ssg75
g255
sg68
(lp267
S':'
asbag61
(g82
g63
NtRp268
(dp269
g66
(dp270
sg75
g255
sg68
(lp271
g61
(g62
g63
NtRp272
(dp273
g66
(dp274
g74
I4
ssg75
g268
sg68
(lp275
g61
(g70
g63
NtRp276
(dp277
g66
(dp278
g74
I3
ssg75
Nsg68
(lp279
g61
(g77
g63
NtRp280
(dp281
g66
(dp282
sg75
g276
sg68
(lp283
g61
(g82
g63
NtRp284
(dp285
g66
(dp286
g86
g87
ssg75
g280
sg68
(lp287
S'comment'
p288
asbag61
(g82
g63
NtRp289
(dp290
g66
(dp291
g93
g94
ssg75
g280
sg68
(lp292
S':'
asbag61
(g82
g63
NtRp293
(dp294
g66
(dp295
sg75
g280
sg68
(lp296
g61
(g62
g63
NtRp297
(dp298
g66
(dp299
g74
I3
ssg75
g293
sg68
(lp300
S''
asbasbasbag61
(g77
g63
NtRp301
(dp302
g66
(dp303
sg75
g276
sg68
(lp304
g61
(g82
g63
NtRp305
(dp306
g66
(dp307
g86
g87
ssg75
g301
sg68
(lp308
S'domain'
p309
asbag61
(g82
g63
NtRp310
(dp311
g66
(dp312
g93
g94
ssg75
g301
sg68
(lp313
S':'
asbag61
(g82
g63
NtRp314
(dp315
g66
(dp316
sg75
g301
sg68
(lp317
g61
(g62
g63
NtRp318
(dp319
g66
(dp320
g74
I3
ssg75
g314
sg68
(lp321
S''
asbasbasbag61
(g77
g63
NtRp322
(dp323
g66
(dp324
sg75
g276
sg68
(lp325
g61
(g82
g63
NtRp326
(dp327
g66
(dp328
g86
g87
ssg75
g322
sg68
(lp329
S'expires'
p330
asbag61
(g82
g63
NtRp331
(dp332
g66
(dp333
g93
g94
ssg75
g322
sg68
(lp334
S':'
asbag61
(g82
g63
NtRp335
(dp336
g66
(dp337
sg75
g322
sg68
(lp338
g61
(g62
g63
NtRp339
(dp340
g66
(dp341
g74
I3
ssg75
g335
sg68
(lp342
S''
asbasbasbag61
(g77
g63
NtRp343
(dp344
g66
(dp345
sg75
g276
sg68
(lp346
g61
(g82
g63
NtRp347
(dp348
g66
(dp349
g86
g87
ssg75
g343
sg68
(lp350
S'httponly'
p351
asbag61
(g82
g63
NtRp352
(dp353
g66
(dp354
g93
g94
ssg75
g343
sg68
(lp355
S':'
asbag61
(g82
g63
NtRp356
(dp357
g66
(dp358
sg75
g343
sg68
(lp359
g61
(g62
g63
NtRp360
(dp361
g66
(dp362
g74
I3
ssg75
g356
sg68
(lp363
S''
asbasbasbag61
(g77
g63
NtRp364
(dp365
g66
(dp366
sg75
g276
sg68
(lp367
g61
(g82
g63
NtRp368
(dp369
g66
(dp370
g86
g87
ssg75
g364
sg68
(lp371
S'max-age'
p372
asbag61
(g82
g63
NtRp373
(dp374
g66
(dp375
g93
g94
ssg75
g364
sg68
(lp376
S':'
asbag61
(g82
g63
NtRp377
(dp378
g66
(dp379
sg75
g364
sg68
(lp380
g61
(g62
g63
NtRp381
(dp382
g66
(dp383
g74
I3
ssg75
g377
sg68
(lp384
S''
asbasbasbag61
(g77
g63
NtRp385
(dp386
g66
(dp387
sg75
g276
sg68
(lp388
g61
(g82
g63
NtRp389
(dp390
g66
(dp391
g86
g87
ssg75
g385
sg68
(lp392
S'path'
p393
asbag61
(g82
g63
NtRp394
(dp395
g66
(dp396
g93
g94
ssg75
g385
sg68
(lp397
S':'
asbag61
(g82
g63
NtRp398
(dp399
g66
(dp400
sg75
g385
sg68
(lp401
g61
(g62
g63
NtRp402
(dp403
g66
(dp404
g74
I3
ssg75
g398
sg68
(lp405
S''
asbasbasbag61
(g77
g63
NtRp406
(dp407
g66
(dp408
sg75
g276
sg68
(lp409
g61
(g82
g63
NtRp410
(dp411
g66
(dp412
g86
g87
ssg75
g406
sg68
(lp413
S'secure'
p414
asbag61
(g82
g63
NtRp415
(dp416
g66
(dp417
g93
g94
ssg75
g406
sg68
(lp418
S':'
asbag61
(g82
g63
NtRp419
(dp420
g66
(dp421
sg75
g406
sg68
(lp422
g61
(g62
g63
NtRp423
(dp424
g66
(dp425
g74
I3
ssg75
g419
sg68
(lp426
S''
asbasbasbag61
(g77
g63
NtRp427
(dp428
g66
(dp429
sg75
g276
sg68
(lp430
g61
(g82
g63
NtRp431
(dp432
g66
(dp433
g86
g87
ssg75
g427
sg68
(lp434
S'version'
p435
asbag61
(g82
g63
NtRp436
(dp437
g66
(dp438
g93
g94
ssg75
g427
sg68
(lp439
S':'
asbag61
(g82
g63
NtRp440
(dp441
g66
(dp442
sg75
g427
sg68
(lp443
g61
(g62
g63
NtRp444
(dp445
g66
(dp446
g74
I3
ssg75
g440
sg68
(lp447
S''
asbasbasbasbasbasbasbag61
(g77
g63
NtRp448
(dp449
g66
(dp450
sg75
g251
sg68
(lp451
g61
(g82
g63
NtRp452
(dp453
g66
(dp454
g86
g87
ssg75
g448
sg68
(lp455
S'session_id_welcome'
p456
asbag61
(g82
g63
NtRp457
(dp458
g66
(dp459
g93
g94
ssg75
g448
sg68
(lp460
S':'
asbag61
(g82
g63
NtRp461
(dp462
g66
(dp463
sg75
g448
sg68
(lp464
g61
(g62
g63
NtRp465
(dp466
g66
(dp467
g74
I4
ssg75
g461
sg68
(lp468
g61
(g70
g63
NtRp469
(dp470
g66
(dp471
g74
I3
ssg75
Nsg68
(lp472
g61
(g77
g63
NtRp473
(dp474
g66
(dp475
sg75
g469
sg68
(lp476
g61
(g82
g63
NtRp477
(dp478
g66
(dp479
g86
g87
ssg75
g473
sg68
(lp480
g288
asbag61
(g82
g63
NtRp481
(dp482
g66
(dp483
g93
g94
ssg75
g473
sg68
(lp484
S':'
asbag61
(g82
g63
NtRp485
(dp486
g66
(dp487
sg75
g473
sg68
(lp488
g61
(g62
g63
NtRp489
(dp490
g66
(dp491
g74
I3
ssg75
g485
sg68
(lp492
S''
asbasbasbag61
(g77
g63
NtRp493
(dp494
g66
(dp495
sg75
g469
sg68
(lp496
g61
(g82
g63
NtRp497
(dp498
g66
(dp499
g86
g87
ssg75
g493
sg68
(lp500
g309
asbag61
(g82
g63
NtRp501
(dp502
g66
(dp503
g93
g94
ssg75
g493
sg68
(lp504
S':'
asbag61
(g82
g63
NtRp505
(dp506
g66
(dp507
sg75
g493
sg68
(lp508
g61
(g62
g63
NtRp509
(dp510
g66
(dp511
g74
I3
ssg75
g505
sg68
(lp512
S''
asbasbasbag61
(g77
g63
NtRp513
(dp514
g66
(dp515
sg75
g469
sg68
(lp516
g61
(g82
g63
NtRp517
(dp518
g66
(dp519
g86
g87
ssg75
g513
sg68
(lp520
g330
asbag61
(g82
g63
NtRp521
(dp522
g66
(dp523
g93
g94
ssg75
g513
sg68
(lp524
S':'
asbag61
(g82
g63
NtRp525
(dp526
g66
(dp527
sg75
g513
sg68
(lp528
g61
(g62
g63
NtRp529
(dp530
g66
(dp531
g74
I3
ssg75
g525
sg68
(lp532
S''
asbasbasbag61
(g77
g63
NtRp533
(dp534
g66
(dp535
sg75
g469
sg68
(lp536
g61
(g82
g63
NtRp537
(dp538
g66
(dp539
g86
g87
ssg75
g533
sg68
(lp540
g351
asbag61
(g82
g63
NtRp541
(dp542
g66
(dp543
g93
g94
ssg75
g533
sg68
(lp544
S':'
asbag61
(g82
g63
NtRp545
(dp546
g66
(dp547
sg75
g533
sg68
(lp548
g61
(g62
g63
NtRp549
(dp550
g66
(dp551
g74
I3
ssg75
g545
sg68
(lp552
S''
asbasbasbag61
(g77
g63
NtRp553
(dp554
g66
(dp555
sg75
g469
sg68
(lp556
g61
(g82
g63
NtRp557
(dp558
g66
(dp559
g86
g87
ssg75
g553
sg68
(lp560
g372
asbag61
(g82
g63
NtRp561
(dp562
g66
(dp563
g93
g94
ssg75
g553
sg68
(lp564
S':'
asbag61
(g82
g63
NtRp565
(dp566
g66
(dp567
sg75
g553
sg68
(lp568
g61
(g62
g63
NtRp569
(dp570
g66
(dp571
g74
I3
ssg75
g565
sg68
(lp572
S''
asbasbasbag61
(g77
g63
NtRp573
(dp574
g66
(dp575
sg75
g469
sg68
(lp576
g61
(g82
g63
NtRp577
(dp578
g66
(dp579
g86
g87
ssg75
g573
sg68
(lp580
g393
asbag61
(g82
g63
NtRp581
(dp582
g66
(dp583
g93
g94
ssg75
g573
sg68
(lp584
S':'
asbag61
(g82
g63
NtRp585
(dp586
g66
(dp587
sg75
g573
sg68
(lp588
g61
(g62
g63
NtRp589
(dp590
g66
(dp591
g74
I3
ssg75
g585
sg68
(lp592
S''
asbasbasbag61
(g77
g63
NtRp593
(dp594
g66
(dp595
sg75
g469
sg68
(lp596
g61
(g82
g63
NtRp597
(dp598
g66
(dp599
g86
g87
ssg75
g593
sg68
(lp600
g414
asbag61
(g82
g63
NtRp601
(dp602
g66
(dp603
g93
g94
ssg75
g593
sg68
(lp604
S':'
asbag61
(g82
g63
NtRp605
(dp606
g66
(dp607
sg75
g593
sg68
(lp608
g61
(g62
g63
NtRp609
(dp610
g66
(dp611
g74
I3
ssg75
g605
sg68
(lp612
S''
asbasbasbag61
(g77
g63
NtRp613
(dp614
g66
(dp615
sg75
g469
sg68
(lp616
g61
(g82
g63
NtRp617
(dp618
g66
(dp619
g86
g87
ssg75
g613
sg68
(lp620
g435
asbag61
(g82
g63
NtRp621
(dp622
g66
(dp623
g93
g94
ssg75
g613
sg68
(lp624
S':'
asbag61
(g82
g63
NtRp625
(dp626
g66
(dp627
sg75
g613
sg68
(lp628
g61
(g62
g63
NtRp629
(dp630
g66
(dp631
g74
I3
ssg75
g625
sg68
(lp632
S''
asbasbasbasbasbasbasbasbasbasbasbag61
(g77
g63
NtRp633
(dp634
g66
(dp635
sg75
g71
sg68
(lp636
g61
(g82
g63
NtRp637
(dp638
g66
(dp639
g86
g87
ssg75
g633
sg68
(lp640
S'env'
p641
asbag61
(g82
g63
NtRp642
(dp643
g66
(dp644
g93
g94
ssg75
g633
sg68
(lp645
S':'
asbag61
(g82
g63
NtRp646
(dp647
g66
(dp648
sg75
g633
sg68
(lp649
g61
(g62
g63
NtRp650
(dp651
g66
(dp652
g74
I5
ssg75
g646
sg68
(lp653
g61
(g70
g63
NtRp654
(dp655
g66
(dp656
g74
I4
ssg75
Nsg68
(lp657
g61
(g77
g63
NtRp658
(dp659
g66
(dp660
sg75
g654
sg68
(lp661
g61
(g82
g63
NtRp662
(dp663
g66
(dp664
g86
g87
ssg75
g658
sg68
(lp665
S'app_folders'
p666
asbag61
(g82
g63
NtRp667
(dp668
g66
(dp669
g93
g94
ssg75
g658
sg68
(lp670
S':'
asbag61
(g82
g63
NtRp671
(dp672
g66
(dp673
sg75
g658
sg68
(lp674
g61
(g62
g63
NtRp675
(dp676
g66
(dp677
g74
I4
ssg75
g671
sg68
(lp678
S"set(['C:\\\\Users\\\\mellinja\\\\Documents\\\\SC2Tracker\\\\SC2Tracker2\\\\web2py\\\\applications\\\\welcome\\\\', 'C:\\\\Users\\\\mellinja\\\\Documents\\\\SC2Tracker\\\\SC2Tracker2\\\\web2py\\\\applications\\\\admin\\\\'])"
p679
asbasbasbag61
(g77
g63
NtRp680
(dp681
g66
(dp682
sg75
g654
sg68
(lp683
g61
(g82
g63
NtRp684
(dp685
g66
(dp686
g86
g87
ssg75
g680
sg68
(lp687
S'applications_parent'
p688
asbag61
(g82
g63
NtRp689
(dp690
g66
(dp691
g93
g94
ssg75
g680
sg68
(lp692
S':'
asbag61
(g82
g63
NtRp693
(dp694
g66
(dp695
sg75
g680
sg68
(lp696
g61
(g62
g63
NtRp697
(dp698
g66
(dp699
g74
I4
ssg75
g693
sg68
(lp700
S'C:\\Users\\mellinja\\Documents\\SC2Tracker\\SC2Tracker2\\web2py'
p701
asbasbasbag61
(g77
g63
NtRp702
(dp703
g66
(dp704
sg75
g654
sg68
(lp705
g61
(g82
g63
NtRp706
(dp707
g66
(dp708
g86
g87
ssg75
g702
sg68
(lp709
S'cmd_args'
p710
asbag61
(g82
g63
NtRp711
(dp712
g66
(dp713
g93
g94
ssg75
g702
sg68
(lp714
S':'
asbag61
(g82
g63
NtRp715
(dp716
g66
(dp717
sg75
g702
sg68
(lp718
g61
(g62
g63
NtRp719
(dp720
g66
(dp721
g74
I4
ssg75
g715
sg68
(lp722
g61
(g70
g63
NtRp723
(dp724
g66
(dp725
g74
I3
ssg75
Nsg68
(lp726
sbasbasbasbag61
(g77
g63
NtRp727
(dp728
g66
(dp729
sg75
g654
sg68
(lp730
g61
(g82
g63
NtRp731
(dp732
g66
(dp733
g86
g87
ssg75
g727
sg68
(lp734
S'cmd_options'
p735
asbag61
(g82
g63
NtRp736
(dp737
g66
(dp738
g93
g94
ssg75
g727
sg68
(lp739
S':'
asbag61
(g82
g63
NtRp740
(dp741
g66
(dp742
sg75
g727
sg68
(lp743
g61
(g62
g63
NtRp744
(dp745
g66
(dp746
g74
I4
ssg75
g740
sg68
(lp747
S"<Values at 0x37275c8: {'verbose': False, 'ip': '127.0.0.1', 'shutdown_timeout': 5, 'taskbar': False, 'nocron': False, 'pid_filename': 'httpserver.pid', 'maxthreads': None, 'softcron': False, 'server_name': 'mellinja-PC', 'bpython': False, 'nogui': False, 'port': 8000, 'extcron': False, 'debuglevel': 30, 'test': None, 'folder': 'C:\\\\Users\\\\mellinja\\\\Documents\\\\SC2Tracker\\\\SC2Tracker2\\\\web2py', 'config': '', 'import_models': False, 'winservice': '', 'shell': None, 'run': '', 'log_filename': 'httpserver.log', 'args': [''], 'socket_timeout': 1, 'ssl_ca_certificate': None, 'scheduler': None, 'profiler_filename': None, 'ssl_private_key': '', 'password': '<ask>', 'request_queue_size': 5, 'ssl_certificate': '', 'cronjob': False, 'numthreads': None, 'quiet': False, 'interfaces': None, 'minthreads': None, 'timeout': 10, 'plain': False, 'nobanner': False}>"
p748
asbasbasbag61
(g77
g63
NtRp749
(dp750
g66
(dp751
sg75
g654
sg68
(lp752
g61
(g82
g63
NtRp753
(dp754
g66
(dp755
g86
g87
ssg75
g749
sg68
(lp756
S'db_sessions'
p757
asbag61
(g82
g63
NtRp758
(dp759
g66
(dp760
g93
g94
ssg75
g749
sg68
(lp761
S':'
asbag61
(g82
g63
NtRp762
(dp763
g66
(dp764
sg75
g749
sg68
(lp765
g61
(g62
g63
NtRp766
(dp767
g66
(dp768
g74
I4
ssg75
g762
sg68
(lp769
S'set([])'
p770
asbasbasbag61
(g77
g63
NtRp771
(dp772
g66
(dp773
sg75
g654
sg68
(lp774
g61
(g82
g63
NtRp775
(dp776
g66
(dp777
g86
g87
ssg75
g771
sg68
(lp778
S'debugging'
p779
asbag61
(g82
g63
NtRp780
(dp781
g66
(dp782
g93
g94
ssg75
g771
sg68
(lp783
S':'
asbag61
(g82
g63
NtRp784
(dp785
g66
(dp786
sg75
g771
sg68
(lp787
g61
(g62
g63
NtRp788
(dp789
g66
(dp790
g74
I4
ssg75
g784
sg68
(lp791
g104
asbasbasbag61
(g77
g63
NtRp792
(dp793
g66
(dp794
sg75
g654
sg68
(lp795
g61
(g82
g63
NtRp796
(dp797
g66
(dp798
g86
g87
ssg75
g792
sg68
(lp799
S'gluon_parent'
p800
asbag61
(g82
g63
NtRp801
(dp802
g66
(dp803
g93
g94
ssg75
g792
sg68
(lp804
S':'
asbag61
(g82
g63
NtRp805
(dp806
g66
(dp807
sg75
g792
sg68
(lp808
g61
(g62
g63
NtRp809
(dp810
g66
(dp811
g74
I4
ssg75
g805
sg68
(lp812
S'C:\\Users\\mellinja\\Documents\\SC2Tracker\\SC2Tracker2\\web2py'
p813
asbasbasbag61
(g77
g63
NtRp814
(dp815
g66
(dp816
sg75
g654
sg68
(lp817
g61
(g82
g63
NtRp818
(dp819
g66
(dp820
g86
g87
ssg75
g814
sg68
(lp821
S'http_accept'
p822
asbag61
(g82
g63
NtRp823
(dp824
g66
(dp825
g93
g94
ssg75
g814
sg68
(lp826
S':'
asbag61
(g82
g63
NtRp827
(dp828
g66
(dp829
sg75
g814
sg68
(lp830
g61
(g62
g63
NtRp831
(dp832
g66
(dp833
g74
I4
ssg75
g827
sg68
(lp834
S'text/html,application/xhtml+xml,application/xml;q=0.9,*/*;q=0.8'
p835
asbasbasbag61
(g77
g63
NtRp836
(dp837
g66
(dp838
sg75
g654
sg68
(lp839
g61
(g82
g63
NtRp840
(dp841
g66
(dp842
g86
g87
ssg75
g836
sg68
(lp843
S'http_accept_charset'
p844
asbag61
(g82
g63
NtRp845
(dp846
g66
(dp847
g93
g94
ssg75
g836
sg68
(lp848
S':'
asbag61
(g82
g63
NtRp849
(dp850
g66
(dp851
sg75
g836
sg68
(lp852
g61
(g62
g63
NtRp853
(dp854
g66
(dp855
g74
I4
ssg75
g849
sg68
(lp856
S'ISO-8859-1,utf-8;q=0.7,*;q=0.3'
p857
asbasbasbag61
(g77
g63
NtRp858
(dp859
g66
(dp860
sg75
g654
sg68
(lp861
g61
(g82
g63
NtRp862
(dp863
g66
(dp864
g86
g87
ssg75
g858
sg68
(lp865
S'http_accept_encoding'
p866
asbag61
(g82
g63
NtRp867
(dp868
g66
(dp869
g93
g94
ssg75
g858
sg68
(lp870
S':'
asbag61
(g82
g63
NtRp871
(dp872
g66
(dp873
sg75
g858
sg68
(lp874
g61
(g62
g63
NtRp875
(dp876
g66
(dp877
g74
I4
ssg75
g871
sg68
(lp878
S'gzip,deflate,sdch'
p879
asbasbasbag61
(g77
g63
NtRp880
(dp881
g66
(dp882
sg75
g654
sg68
(lp883
g61
(g82
g63
NtRp884
(dp885
g66
(dp886
g86
g87
ssg75
g880
sg68
(lp887
S'http_accept_language'
p888
asbag61
(g82
g63
NtRp889
(dp890
g66
(dp891
g93
g94
ssg75
g880
sg68
(lp892
S':'
asbag61
(g82
g63
NtRp893
(dp894
g66
(dp895
sg75
g880
sg68
(lp896
g61
(g62
g63
NtRp897
(dp898
g66
(dp899
g74
I4
ssg75
g893
sg68
(lp900
S'en-US,en;q=0.8'
p901
asbasbasbag61
(g77
g63
NtRp902
(dp903
g66
(dp904
sg75
g654
sg68
(lp905
g61
(g82
g63
NtRp906
(dp907
g66
(dp908
g86
g87
ssg75
g902
sg68
(lp909
S'http_cache_control'
p910
asbag61
(g82
g63
NtRp911
(dp912
g66
(dp913
g93
g94
ssg75
g902
sg68
(lp914
S':'
asbag61
(g82
g63
NtRp915
(dp916
g66
(dp917
sg75
g902
sg68
(lp918
g61
(g62
g63
NtRp919
(dp920
g66
(dp921
g74
I4
ssg75
g915
sg68
(lp922
S'max-age=0'
p923
asbasbasbag61
(g77
g63
NtRp924
(dp925
g66
(dp926
sg75
g654
sg68
(lp927
g61
(g82
g63
NtRp928
(dp929
g66
(dp930
g86
g87
ssg75
g924
sg68
(lp931
S'http_connection'
p932
asbag61
(g82
g63
NtRp933
(dp934
g66
(dp935
g93
g94
ssg75
g924
sg68
(lp936
S':'
asbag61
(g82
g63
NtRp937
(dp938
g66
(dp939
sg75
g924
sg68
(lp940
g61
(g62
g63
NtRp941
(dp942
g66
(dp943
g74
I4
ssg75
g937
sg68
(lp944
S'keep-alive'
p945
asbasbasbag61
(g77
g63
NtRp946
(dp947
g66
(dp948
sg75
g654
sg68
(lp949
g61
(g82
g63
NtRp950
(dp951
g66
(dp952
g86
g87
ssg75
g946
sg68
(lp953
S'http_cookie'
p954
asbag61
(g82
g63
NtRp955
(dp956
g66
(dp957
g93
g94
ssg75
g946
sg68
(lp958
S':'
asbag61
(g82
g63
NtRp959
(dp960
g66
(dp961
sg75
g946
sg68
(lp962
g61
(g62
g63
NtRp963
(dp964
g66
(dp965
g74
I4
ssg75
g959
sg68
(lp966
S'session_id_admin=127.0.0.1-4a630a3d-354c-4fe8-8759-a1634a574f0b; session_id_welcome=127.0.0.1-a90ce443-1437-4832-bce2-e811b9654eea'
p967
asbasbasbag61
(g77
g63
NtRp968
(dp969
g66
(dp970
sg75
g654
sg68
(lp971
g61
(g82
g63
NtRp972
(dp973
g66
(dp974
g86
g87
ssg75
g968
sg68
(lp975
S'http_host'
p976
asbag61
(g82
g63
NtRp977
(dp978
g66
(dp979
g93
g94
ssg75
g968
sg68
(lp980
S':'
asbag61
(g82
g63
NtRp981
(dp982
g66
(dp983
sg75
g968
sg68
(lp984
g61
(g62
g63
NtRp985
(dp986
g66
(dp987
g74
I4
ssg75
g981
sg68
(lp988
S'127.0.0.1:8000'
p989
asbasbasbag61
(g77
g63
NtRp990
(dp991
g66
(dp992
sg75
g654
sg68
(lp993
g61
(g82
g63
NtRp994
(dp995
g66
(dp996
g86
g87
ssg75
g990
sg68
(lp997
S'http_referer'
p998
asbag61
(g82
g63
NtRp999
(dp1000
g66
(dp1001
g93
g94
ssg75
g990
sg68
(lp1002
S':'
asbag61
(g82
g63
NtRp1003
(dp1004
g66
(dp1005
sg75
g990
sg68
(lp1006
g61
(g62
g63
NtRp1007
(dp1008
g66
(dp1009
g74
I4
ssg75
g1003
sg68
(lp1010
S'http://127.0.0.1:8000/welcome/tournament/show/7'
p1011
asbasbasbag61
(g77
g63
NtRp1012
(dp1013
g66
(dp1014
sg75
g654
sg68
(lp1015
g61
(g82
g63
NtRp1016
(dp1017
g66
(dp1018
g86
g87
ssg75
g1012
sg68
(lp1019
S'http_user_agent'
p1020
asbag61
(g82
g63
NtRp1021
(dp1022
g66
(dp1023
g93
g94
ssg75
g1012
sg68
(lp1024
S':'
asbag61
(g82
g63
NtRp1025
(dp1026
g66
(dp1027
sg75
g1012
sg68
(lp1028
g61
(g62
g63
NtRp1029
(dp1030
g66
(dp1031
g74
I4
ssg75
g1025
sg68
(lp1032
S'Mozilla/5.0 (Windows NT 6.1; WOW64) AppleWebKit/535.7 (KHTML, like Gecko) Chrome/16.0.912.77 Safari/535.7'
p1033
asbasbasbag61
(g77
g63
NtRp1034
(dp1035
g66
(dp1036
sg75
g654
sg68
(lp1037
g61
(g82
g63
NtRp1038
(dp1039
g66
(dp1040
g86
g87
ssg75
g1034
sg68
(lp1041
S'is_jython'
p1042
asbag61
(g82
g63
NtRp1043
(dp1044
g66
(dp1045
g93
g94
ssg75
g1034
sg68
(lp1046
S':'
asbag61
(g82
g63
NtRp1047
(dp1048
g66
(dp1049
sg75
g1034
sg68
(lp1050
g61
(g62
g63
NtRp1051
(dp1052
g66
(dp1053
g74
I4
ssg75
g1047
sg68
(lp1054
g104
asbasbasbag61
(g77
g63
NtRp1055
(dp1056
g66
(dp1057
sg75
g654
sg68
(lp1058
g61
(g82
g63
NtRp1059
(dp1060
g66
(dp1061
g86
g87
ssg75
g1055
sg68
(lp1062
S'is_pypy'
p1063
asbag61
(g82
g63
NtRp1064
(dp1065
g66
(dp1066
g93
g94
ssg75
g1055
sg68
(lp1067
S':'
asbag61
(g82
g63
NtRp1068
(dp1069
g66
(dp1070
sg75
g1055
sg68
(lp1071
g61
(g62
g63
NtRp1072
(dp1073
g66
(dp1074
g74
I4
ssg75
g1068
sg68
(lp1075
g104
asbasbasbag61
(g77
g63
NtRp1076
(dp1077
g66
(dp1078
sg75
g654
sg68
(lp1079
g61
(g82
g63
NtRp1080
(dp1081
g66
(dp1082
g86
g87
ssg75
g1076
sg68
(lp1083
S'path_info'
p1084
asbag61
(g82
g63
NtRp1085
(dp1086
g66
(dp1087
g93
g94
ssg75
g1076
sg68
(lp1088
S':'
asbag61
(g82
g63
NtRp1089
(dp1090
g66
(dp1091
sg75
g1076
sg68
(lp1092
g61
(g62
g63
NtRp1093
(dp1094
g66
(dp1095
g74
I4
ssg75
g1089
sg68
(lp1096
S'/welcome/tournament/show/google.com'
p1097
asbasbasbag61
(g77
g63
NtRp1098
(dp1099
g66
(dp1100
sg75
g654
sg68
(lp1101
g61
(g82
g63
NtRp1102
(dp1103
g66
(dp1104
g86
g87
ssg75
g1098
sg68
(lp1105
S'query_string'
p1106
asbag61
(g82
g63
NtRp1107
(dp1108
g66
(dp1109
g93
g94
ssg75
g1098
sg68
(lp1110
S':'
asbag61
(g82
g63
NtRp1111
(dp1112
g66
(dp1113
sg75
g1098
sg68
(lp1114
g61
(g62
g63
NtRp1115
(dp1116
g66
(dp1117
g74
I4
ssg75
g1111
sg68
(lp1118
S''
asbasbasbag61
(g77
g63
NtRp1119
(dp1120
g66
(dp1121
sg75
g654
sg68
(lp1122
g61
(g82
g63
NtRp1123
(dp1124
g66
(dp1125
g86
g87
ssg75
g1119
sg68
(lp1126
S'remote_addr'
p1127
asbag61
(g82
g63
NtRp1128
(dp1129
g66
(dp1130
g93
g94
ssg75
g1119
sg68
(lp1131
S':'
asbag61
(g82
g63
NtRp1132
(dp1133
g66
(dp1134
sg75
g1119
sg68
(lp1135
g61
(g62
g63
NtRp1136
(dp1137
g66
(dp1138
g74
I4
ssg75
g1132
sg68
(lp1139
g207
asbasbasbag61
(g77
g63
NtRp1140
(dp1141
g66
(dp1142
sg75
g654
sg68
(lp1143
g61
(g82
g63
NtRp1144
(dp1145
g66
(dp1146
g86
g87
ssg75
g1140
sg68
(lp1147
S'remote_port'
p1148
asbag61
(g82
g63
NtRp1149
(dp1150
g66
(dp1151
g93
g94
ssg75
g1140
sg68
(lp1152
S':'
asbag61
(g82
g63
NtRp1153
(dp1154
g66
(dp1155
sg75
g1140
sg68
(lp1156
g61
(g62
g63
NtRp1157
(dp1158
g66
(dp1159
g74
I4
ssg75
g1153
sg68
(lp1160
S'53198'
p1161
asbasbasbag61
(g77
g63
NtRp1162
(dp1163
g66
(dp1164
sg75
g654
sg68
(lp1165
g61
(g82
g63
NtRp1166
(dp1167
g66
(dp1168
g86
g87
ssg75
g1162
sg68
(lp1169
S'request_method'
p1170
asbag61
(g82
g63
NtRp1171
(dp1172
g66
(dp1173
g93
g94
ssg75
g1162
sg68
(lp1174
S':'
asbag61
(g82
g63
NtRp1175
(dp1176
g66
(dp1177
sg75
g1162
sg68
(lp1178
g61
(g62
g63
NtRp1179
(dp1180
g66
(dp1181
g74
I4
ssg75
g1175
sg68
(lp1182
S'GET'
p1183
asbasbasbag61
(g77
g63
NtRp1184
(dp1185
g66
(dp1186
sg75
g654
sg68
(lp1187
g61
(g82
g63
NtRp1188
(dp1189
g66
(dp1190
g86
g87
ssg75
g1184
sg68
(lp1191
S'script_name'
p1192
asbag61
(g82
g63
NtRp1193
(dp1194
g66
(dp1195
g93
g94
ssg75
g1184
sg68
(lp1196
S':'
asbag61
(g82
g63
NtRp1197
(dp1198
g66
(dp1199
sg75
g1184
sg68
(lp1200
g61
(g62
g63
NtRp1201
(dp1202
g66
(dp1203
g74
I4
ssg75
g1197
sg68
(lp1204
S''
asbasbasbag61
(g77
g63
NtRp1205
(dp1206
g66
(dp1207
sg75
g654
sg68
(lp1208
g61
(g82
g63
NtRp1209
(dp1210
g66
(dp1211
g86
g87
ssg75
g1205
sg68
(lp1212
S'server_name'
p1213
asbag61
(g82
g63
NtRp1214
(dp1215
g66
(dp1216
g93
g94
ssg75
g1205
sg68
(lp1217
S':'
asbag61
(g82
g63
NtRp1218
(dp1219
g66
(dp1220
sg75
g1205
sg68
(lp1221
g61
(g62
g63
NtRp1222
(dp1223
g66
(dp1224
g74
I4
ssg75
g1218
sg68
(lp1225
S'mellinja-PC'
p1226
asbasbasbag61
(g77
g63
NtRp1227
(dp1228
g66
(dp1229
sg75
g654
sg68
(lp1230
g61
(g82
g63
NtRp1231
(dp1232
g66
(dp1233
g86
g87
ssg75
g1227
sg68
(lp1234
S'server_port'
p1235
asbag61
(g82
g63
NtRp1236
(dp1237
g66
(dp1238
g93
g94
ssg75
g1227
sg68
(lp1239
S':'
asbag61
(g82
g63
NtRp1240
(dp1241
g66
(dp1242
sg75
g1227
sg68
(lp1243
g61
(g62
g63
NtRp1244
(dp1245
g66
(dp1246
g74
I4
ssg75
g1240
sg68
(lp1247
S'8000'
p1248
asbasbasbag61
(g77
g63
NtRp1249
(dp1250
g66
(dp1251
sg75
g654
sg68
(lp1252
g61
(g82
g63
NtRp1253
(dp1254
g66
(dp1255
g86
g87
ssg75
g1249
sg68
(lp1256
S'server_protocol'
p1257
asbag61
(g82
g63
NtRp1258
(dp1259
g66
(dp1260
g93
g94
ssg75
g1249
sg68
(lp1261
S':'
asbag61
(g82
g63
NtRp1262
(dp1263
g66
(dp1264
sg75
g1249
sg68
(lp1265
g61
(g62
g63
NtRp1266
(dp1267
g66
(dp1268
g74
I4
ssg75
g1262
sg68
(lp1269
S'HTTP/1.1'
p1270
asbasbasbag61
(g77
g63
NtRp1271
(dp1272
g66
(dp1273
sg75
g654
sg68
(lp1274
g61
(g82
g63
NtRp1275
(dp1276
g66
(dp1277
g86
g87
ssg75
g1271
sg68
(lp1278
S'server_software'
p1279
asbag61
(g82
g63
NtRp1280
(dp1281
g66
(dp1282
g93
g94
ssg75
g1271
sg68
(lp1283
S':'
asbag61
(g82
g63
NtRp1284
(dp1285
g66
(dp1286
sg75
g1271
sg68
(lp1287
g61
(g62
g63
NtRp1288
(dp1289
g66
(dp1290
g74
I4
ssg75
g1284
sg68
(lp1291
S'Rocket 1.2.4'
p1292
asbasbasbag61
(g77
g63
NtRp1293
(dp1294
g66
(dp1295
sg75
g654
sg68
(lp1296
g61
(g82
g63
NtRp1297
(dp1298
g66
(dp1299
g86
g87
ssg75
g1293
sg68
(lp1300
S'web2py_crontype'
p1301
asbag61
(g82
g63
NtRp1302
(dp1303
g66
(dp1304
g93
g94
ssg75
g1293
sg68
(lp1305
S':'
asbag61
(g82
g63
NtRp1306
(dp1307
g66
(dp1308
sg75
g1293
sg68
(lp1309
g61
(g62
g63
NtRp1310
(dp1311
g66
(dp1312
g74
I4
ssg75
g1306
sg68
(lp1313
S'hard'
p1314
asbasbasbag61
(g77
g63
NtRp1315
(dp1316
g66
(dp1317
sg75
g654
sg68
(lp1318
g61
(g82
g63
NtRp1319
(dp1320
g66
(dp1321
g86
g87
ssg75
g1315
sg68
(lp1322
S'web2py_path'
p1323
asbag61
(g82
g63
NtRp1324
(dp1325
g66
(dp1326
g93
g94
ssg75
g1315
sg68
(lp1327
S':'
asbag61
(g82
g63
NtRp1328
(dp1329
g66
(dp1330
sg75
g1315
sg68
(lp1331
g61
(g62
g63
NtRp1332
(dp1333
g66
(dp1334
g74
I4
ssg75
g1328
sg68
(lp1335
g701
asbasbasbag61
(g77
g63
NtRp1336
(dp1337
g66
(dp1338
sg75
g654
sg68
(lp1339
g61
(g82
g63
NtRp1340
(dp1341
g66
(dp1342
g86
g87
ssg75
g1336
sg68
(lp1343
S'web2py_version'
p1344
asbag61
(g82
g63
NtRp1345
(dp1346
g66
(dp1347
g93
g94
ssg75
g1336
sg68
(lp1348
S':'
asbag61
(g82
g63
NtRp1349
(dp1350
g66
(dp1351
sg75
g1336
sg68
(lp1352
g61
(g62
g63
NtRp1353
(dp1354
g66
(dp1355
g74
I4
ssg75
g1349
sg68
(lp1356
g61
(g70
g63
NtRp1357
(dp1358
g66
(dp1359
g74
I3
ssg75
Nsg68
(lp1360
g61
(g77
g63
NtRp1361
(dp1362
g66
(dp1363
sg75
g1357
sg68
(lp1364
g61
(g82
g63
NtRp1365
(dp1366
g66
(dp1367
sg75
g1361
sg68
(lp1368
g61
(g62
g63
NtRp1369
(dp1370
g66
(dp1371
g74
I3
ssg75
g1365
sg68
(lp1372
S'1'
asbasbasbag61
(g77
g63
NtRp1373
(dp1374
g66
(dp1375
sg75
g1357
sg68
(lp1376
g61
(g82
g63
NtRp1377
(dp1378
g66
(dp1379
sg75
g1373
sg68
(lp1380
g61
(g62
g63
NtRp1381
(dp1382
g66
(dp1383
g74
I3
ssg75
g1377
sg68
(lp1384
S'99'
p1385
asbasbasbag61
(g77
g63
NtRp1386
(dp1387
g66
(dp1388
sg75
g1357
sg68
(lp1389
g61
(g82
g63
NtRp1390
(dp1391
g66
(dp1392
sg75
g1386
sg68
(lp1393
g61
(g62
g63
NtRp1394
(dp1395
g66
(dp1396
g74
I3
ssg75
g1390
sg68
(lp1397
S'4'
asbasbasbag61
(g77
g63
NtRp1398
(dp1399
g66
(dp1400
sg75
g1357
sg68
(lp1401
g61
(g82
g63
NtRp1402
(dp1403
g66
(dp1404
sg75
g1398
sg68
(lp1405
g61
(g62
g63
NtRp1406
(dp1407
g66
(dp1408
g74
I3
ssg75
g1402
sg68
(lp1409
S'datetime.datetime(2011, 12, 14, 14, 46, 14)'
p1410
asbasbasbag61
(g77
g63
NtRp1411
(dp1412
g66
(dp1413
sg75
g1357
sg68
(lp1414
g61
(g82
g63
NtRp1415
(dp1416
g66
(dp1417
sg75
g1411
sg68
(lp1418
g61
(g62
g63
NtRp1419
(dp1420
g66
(dp1421
g74
I3
ssg75
g1415
sg68
(lp1422
S'stable'
p1423
asbasbasbasbasbasbasbag61
(g77
g63
NtRp1424
(dp1425
g66
(dp1426
sg75
g654
sg68
(lp1427
g61
(g82
g63
NtRp1428
(dp1429
g66
(dp1430
g86
g87
ssg75
g1424
sg68
(lp1431
S'wsgi_errors'
p1432
asbag61
(g82
g63
NtRp1433
(dp1434
g66
(dp1435
g93
g94
ssg75
g1424
sg68
(lp1436
S':'
asbag61
(g82
g63
NtRp1437
(dp1438
g66
(dp1439
sg75
g1424
sg68
(lp1440
g61
(g62
g63
NtRp1441
(dp1442
g66
(dp1443
g74
I4
ssg75
g1437
sg68
(lp1444
S"<open file '<stderr>', mode 'w' at 0x0000000001EF61E0>"
p1445
asbasbasbag61
(g77
g63
NtRp1446
(dp1447
g66
(dp1448
sg75
g654
sg68
(lp1449
g61
(g82
g63
NtRp1450
(dp1451
g66
(dp1452
g86
g87
ssg75
g1446
sg68
(lp1453
S'wsgi_file_wrapper'
p1454
asbag61
(g82
g63
NtRp1455
(dp1456
g66
(dp1457
g93
g94
ssg75
g1446
sg68
(lp1458
S':'
asbag61
(g82
g63
NtRp1459
(dp1460
g66
(dp1461
sg75
g1446
sg68
(lp1462
g61
(g62
g63
NtRp1463
(dp1464
g66
(dp1465
g74
I4
ssg75
g1459
sg68
(lp1466
S'<class wsgiref.util.FileWrapper at 0x000000000361C948>'
p1467
asbasbasbag61
(g77
g63
NtRp1468
(dp1469
g66
(dp1470
sg75
g654
sg68
(lp1471
g61
(g82
g63
NtRp1472
(dp1473
g66
(dp1474
g86
g87
ssg75
g1468
sg68
(lp1475
S'wsgi_input'
p1476
asbag61
(g82
g63
NtRp1477
(dp1478
g66
(dp1479
g93
g94
ssg75
g1468
sg68
(lp1480
S':'
asbag61
(g82
g63
NtRp1481
(dp1482
g66
(dp1483
sg75
g1468
sg68
(lp1484
g61
(g62
g63
NtRp1485
(dp1486
g66
(dp1487
g74
I4
ssg75
g1481
sg68
(lp1488
S'<socket._fileobject object at 0x00000000037491B0>'
p1489
asbasbasbag61
(g77
g63
NtRp1490
(dp1491
g66
(dp1492
sg75
g654
sg68
(lp1493
g61
(g82
g63
NtRp1494
(dp1495
g66
(dp1496
g86
g87
ssg75
g1490
sg68
(lp1497
S'wsgi_multiprocess'
p1498
asbag61
(g82
g63
NtRp1499
(dp1500
g66
(dp1501
g93
g94
ssg75
g1490
sg68
(lp1502
S':'
asbag61
(g82
g63
NtRp1503
(dp1504
g66
(dp1505
sg75
g1490
sg68
(lp1506
g61
(g62
g63
NtRp1507
(dp1508
g66
(dp1509
g74
I4
ssg75
g1503
sg68
(lp1510
g104
asbasbasbag61
(g77
g63
NtRp1511
(dp1512
g66
(dp1513
sg75
g654
sg68
(lp1514
g61
(g82
g63
NtRp1515
(dp1516
g66
(dp1517
g86
g87
ssg75
g1511
sg68
(lp1518
S'wsgi_multithread'
p1519
asbag61
(g82
g63
NtRp1520
(dp1521
g66
(dp1522
g93
g94
ssg75
g1511
sg68
(lp1523
S':'
asbag61
(g82
g63
NtRp1524
(dp1525
g66
(dp1526
sg75
g1511
sg68
(lp1527
g61
(g62
g63
NtRp1528
(dp1529
g66
(dp1530
g74
I4
ssg75
g1524
sg68
(lp1531
S'True'
p1532
asbasbasbag61
(g77
g63
NtRp1533
(dp1534
g66
(dp1535
sg75
g654
sg68
(lp1536
g61
(g82
g63
NtRp1537
(dp1538
g66
(dp1539
g86
g87
ssg75
g1533
sg68
(lp1540
S'wsgi_run_once'
p1541
asbag61
(g82
g63
NtRp1542
(dp1543
g66
(dp1544
g93
g94
ssg75
g1533
sg68
(lp1545
S':'
asbag61
(g82
g63
NtRp1546
(dp1547
g66
(dp1548
sg75
g1533
sg68
(lp1549
g61
(g62
g63
NtRp1550
(dp1551
g66
(dp1552
g74
I4
ssg75
g1546
sg68
(lp1553
g104
asbasbasbag61
(g77
g63
NtRp1554
(dp1555
g66
(dp1556
sg75
g654
sg68
(lp1557
g61
(g82
g63
NtRp1558
(dp1559
g66
(dp1560
g86
g87
ssg75
g1554
sg68
(lp1561
S'wsgi_url_scheme'
p1562
asbag61
(g82
g63
NtRp1563
(dp1564
g66
(dp1565
g93
g94
ssg75
g1554
sg68
(lp1566
S':'
asbag61
(g82
g63
NtRp1567
(dp1568
g66
(dp1569
sg75
g1554
sg68
(lp1570
g61
(g62
g63
NtRp1571
(dp1572
g66
(dp1573
g74
I4
ssg75
g1567
sg68
(lp1574
S'http'
p1575
asbasbasbag61
(g77
g63
NtRp1576
(dp1577
g66
(dp1578
sg75
g654
sg68
(lp1579
g61
(g82
g63
NtRp1580
(dp1581
g66
(dp1582
g86
g87
ssg75
g1576
sg68
(lp1583
S'wsgi_version'
p1584
asbag61
(g82
g63
NtRp1585
(dp1586
g66
(dp1587
g93
g94
ssg75
g1576
sg68
(lp1588
S':'
asbag61
(g82
g63
NtRp1589
(dp1590
g66
(dp1591
sg75
g1576
sg68
(lp1592
g61
(g62
g63
NtRp1593
(dp1594
g66
(dp1595
g74
I4
ssg75
g1589
sg68
(lp1596
g61
(g70
g63
NtRp1597
(dp1598
g66
(dp1599
g74
I3
ssg75
Nsg68
(lp1600
g61
(g77
g63
NtRp1601
(dp1602
g66
(dp1603
sg75
g1597
sg68
(lp1604
g61
(g82
g63
NtRp1605
(dp1606
g66
(dp1607
sg75
g1601
sg68
(lp1608
g61
(g62
g63
NtRp1609
(dp1610
g66
(dp1611
g74
I3
ssg75
g1605
sg68
(lp1612
S'1'
asbasbasbag61
(g77
g63
NtRp1613
(dp1614
g66
(dp1615
sg75
g1597
sg68
(lp1616
g61
(g82
g63
NtRp1617
(dp1618
g66
(dp1619
sg75
g1613
sg68
(lp1620
g61
(g62
g63
NtRp1621
(dp1622
g66
(dp1623
g74
I3
ssg75
g1617
sg68
(lp1624
S'0'
asbasbasbasbasbasbasbasbasbasbasbag61
(g77
g63
NtRp1625
(dp1626
g66
(dp1627
sg75
g71
sg68
(lp1628
g61
(g82
g63
NtRp1629
(dp1630
g66
(dp1631
g86
g87
ssg75
g1625
sg68
(lp1632
S'extension'
p1633
asbag61
(g82
g63
NtRp1634
(dp1635
g66
(dp1636
g93
g94
ssg75
g1625
sg68
(lp1637
S':'
asbag61
(g82
g63
NtRp1638
(dp1639
g66
(dp1640
sg75
g1625
sg68
(lp1641
g61
(g62
g63
NtRp1642
(dp1643
g66
(dp1644
g74
I5
ssg75
g1638
sg68
(lp1645
S'html'
p1646
asbasbasbag61
(g77
g63
NtRp1647
(dp1648
g66
(dp1649
sg75
g71
sg68
(lp1650
g61
(g82
g63
NtRp1651
(dp1652
g66
(dp1653
g86
g87
ssg75
g1647
sg68
(lp1654
S'folder'
p1655
asbag61
(g82
g63
NtRp1656
(dp1657
g66
(dp1658
g93
g94
ssg75
g1647
sg68
(lp1659
S':'
asbag61
(g82
g63
NtRp1660
(dp1661
g66
(dp1662
sg75
g1647
sg68
(lp1663
g61
(g62
g63
NtRp1664
(dp1665
g66
(dp1666
g74
I5
ssg75
g1660
sg68
(lp1667
S'C:\\Users\\mellinja\\Documents\\SC2Tracker\\SC2Tracker2\\web2py\\applications\\welcome\\'
p1668
asbasbasbag61
(g77
g63
NtRp1669
(dp1670
g66
(dp1671
sg75
g71
sg68
(lp1672
g61
(g82
g63
NtRp1673
(dp1674
g66
(dp1675
g86
g87
ssg75
g1669
sg68
(lp1676
S'function'
p1677
asbag61
(g82
g63
NtRp1678
(dp1679
g66
(dp1680
g93
g94
ssg75
g1669
sg68
(lp1681
S':'
asbag61
(g82
g63
NtRp1682
(dp1683
g66
(dp1684
sg75
g1669
sg68
(lp1685
g61
(g62
g63
NtRp1686
(dp1687
g66
(dp1688
g74
I5
ssg75
g1682
sg68
(lp1689
S'show'
p1690
asbasbasbag61
(g77
g63
NtRp1691
(dp1692
g66
(dp1693
sg75
g71
sg68
(lp1694
g61
(g82
g63
NtRp1695
(dp1696
g66
(dp1697
g86
g87
ssg75
g1691
sg68
(lp1698
S'get_vars'
p1699
asbag61
(g82
g63
NtRp1700
(dp1701
g66
(dp1702
g93
g94
ssg75
g1691
sg68
(lp1703
S':'
asbag61
(g82
g63
NtRp1704
(dp1705
g66
(dp1706
sg75
g1691
sg68
(lp1707
g61
(g62
g63
NtRp1708
(dp1709
g66
(dp1710
g74
I5
ssg75
g1704
sg68
(lp1711
g61
(g70
g63
NtRp1712
(dp1713
g66
(dp1714
g74
I4
ssg75
Nsg68
(lp1715
sbasbasbasbag61
(g77
g63
NtRp1716
(dp1717
g66
(dp1718
sg75
g71
sg68
(lp1719
g61
(g82
g63
NtRp1720
(dp1721
g66
(dp1722
g86
g87
ssg75
g1716
sg68
(lp1723
S'global_settings'
p1724
asbag61
(g82
g63
NtRp1725
(dp1726
g66
(dp1727
g93
g94
ssg75
g1716
sg68
(lp1728
S':'
asbag61
(g82
g63
NtRp1729
(dp1730
g66
(dp1731
sg75
g1716
sg68
(lp1732
g61
(g62
g63
NtRp1733
(dp1734
g66
(dp1735
g74
I5
ssg75
g1729
sg68
(lp1736
g61
(g70
g63
NtRp1737
(dp1738
g66
(dp1739
g74
I4
ssg75
Nsg68
(lp1740
g61
(g77
g63
NtRp1741
(dp1742
g66
(dp1743
sg75
g1737
sg68
(lp1744
g61
(g82
g63
NtRp1745
(dp1746
g66
(dp1747
g86
g87
ssg75
g1741
sg68
(lp1748
g666
asbag61
(g82
g63
NtRp1749
(dp1750
g66
(dp1751
g93
g94
ssg75
g1741
sg68
(lp1752
S':'
asbag61
(g82
g63
NtRp1753
(dp1754
g66
(dp1755
sg75
g1741
sg68
(lp1756
g61
(g62
g63
NtRp1757
(dp1758
g66
(dp1759
g74
I4
ssg75
g1753
sg68
(lp1760
S"set(['C:\\\\Users\\\\mellinja\\\\Documents\\\\SC2Tracker\\\\SC2Tracker2\\\\web2py\\\\applications\\\\welcome\\\\', 'C:\\\\Users\\\\mellinja\\\\Documents\\\\SC2Tracker\\\\SC2Tracker2\\\\web2py\\\\applications\\\\admin\\\\'])"
p1761
asbasbasbag61
(g77
g63
NtRp1762
(dp1763
g66
(dp1764
sg75
g1737
sg68
(lp1765
g61
(g82
g63
NtRp1766
(dp1767
g66
(dp1768
g86
g87
ssg75
g1762
sg68
(lp1769
g688
asbag61
(g82
g63
NtRp1770
(dp1771
g66
(dp1772
g93
g94
ssg75
g1762
sg68
(lp1773
S':'
asbag61
(g82
g63
NtRp1774
(dp1775
g66
(dp1776
sg75
g1762
sg68
(lp1777
g61
(g62
g63
NtRp1778
(dp1779
g66
(dp1780
g74
I4
ssg75
g1774
sg68
(lp1781
g701
asbasbasbag61
(g77
g63
NtRp1782
(dp1783
g66
(dp1784
sg75
g1737
sg68
(lp1785
g61
(g82
g63
NtRp1786
(dp1787
g66
(dp1788
g86
g87
ssg75
g1782
sg68
(lp1789
g710
asbag61
(g82
g63
NtRp1790
(dp1791
g66
(dp1792
g93
g94
ssg75
g1782
sg68
(lp1793
S':'
asbag61
(g82
g63
NtRp1794
(dp1795
g66
(dp1796
sg75
g1782
sg68
(lp1797
g61
(g62
g63
NtRp1798
(dp1799
g66
(dp1800
g74
I4
ssg75
g1794
sg68
(lp1801
g61
(g70
g63
NtRp1802
(dp1803
g66
(dp1804
g74
I3
ssg75
Nsg68
(lp1805
sbasbasbasbag61
(g77
g63
NtRp1806
(dp1807
g66
(dp1808
sg75
g1737
sg68
(lp1809
g61
(g82
g63
NtRp1810
(dp1811
g66
(dp1812
g86
g87
ssg75
g1806
sg68
(lp1813
g735
asbag61
(g82
g63
NtRp1814
(dp1815
g66
(dp1816
g93
g94
ssg75
g1806
sg68
(lp1817
S':'
asbag61
(g82
g63
NtRp1818
(dp1819
g66
(dp1820
sg75
g1806
sg68
(lp1821
g61
(g62
g63
NtRp1822
(dp1823
g66
(dp1824
g74
I4
ssg75
g1818
sg68
(lp1825
S"<Values at 0x37275c8: {'verbose': False, 'ip': '127.0.0.1', 'shutdown_timeout': 5, 'taskbar': False, 'nocron': False, 'pid_filename': 'httpserver.pid', 'maxthreads': None, 'softcron': False, 'server_name': 'mellinja-PC', 'bpython': False, 'nogui': False, 'port': 8000, 'extcron': False, 'debuglevel': 30, 'test': None, 'folder': 'C:\\\\Users\\\\mellinja\\\\Documents\\\\SC2Tracker\\\\SC2Tracker2\\\\web2py', 'config': '', 'import_models': False, 'winservice': '', 'shell': None, 'run': '', 'log_filename': 'httpserver.log', 'args': [''], 'socket_timeout': 1, 'ssl_ca_certificate': None, 'scheduler': None, 'profiler_filename': None, 'ssl_private_key': '', 'password': '<ask>', 'request_queue_size': 5, 'ssl_certificate': '', 'cronjob': False, 'numthreads': None, 'quiet': False, 'interfaces': None, 'minthreads': None, 'timeout': 10, 'plain': False, 'nobanner': False}>"
p1826
asbasbasbag61
(g77
g63
NtRp1827
(dp1828
g66
(dp1829
sg75
g1737
sg68
(lp1830
g61
(g82
g63
NtRp1831
(dp1832
g66
(dp1833
g86
g87
ssg75
g1827
sg68
(lp1834
g757
asbag61
(g82
g63
NtRp1835
(dp1836
g66
(dp1837
g93
g94
ssg75
g1827
sg68
(lp1838
S':'
asbag61
(g82
g63
NtRp1839
(dp1840
g66
(dp1841
sg75
g1827
sg68
(lp1842
g61
(g62
g63
NtRp1843
(dp1844
g66
(dp1845
g74
I4
ssg75
g1839
sg68
(lp1846
S'set([])'
p1847
asbasbasbag61
(g77
g63
NtRp1848
(dp1849
g66
(dp1850
sg75
g1737
sg68
(lp1851
g61
(g82
g63
NtRp1852
(dp1853
g66
(dp1854
g86
g87
ssg75
g1848
sg68
(lp1855
g779
asbag61
(g82
g63
NtRp1856
(dp1857
g66
(dp1858
g93
g94
ssg75
g1848
sg68
(lp1859
S':'
asbag61
(g82
g63
NtRp1860
(dp1861
g66
(dp1862
sg75
g1848
sg68
(lp1863
g61
(g62
g63
NtRp1864
(dp1865
g66
(dp1866
g74
I4
ssg75
g1860
sg68
(lp1867
g104
asbasbasbag61
(g77
g63
NtRp1868
(dp1869
g66
(dp1870
sg75
g1737
sg68
(lp1871
g61
(g82
g63
NtRp1872
(dp1873
g66
(dp1874
g86
g87
ssg75
g1868
sg68
(lp1875
g800
asbag61
(g82
g63
NtRp1876
(dp1877
g66
(dp1878
g93
g94
ssg75
g1868
sg68
(lp1879
S':'
asbag61
(g82
g63
NtRp1880
(dp1881
g66
(dp1882
sg75
g1868
sg68
(lp1883
g61
(g62
g63
NtRp1884
(dp1885
g66
(dp1886
g74
I4
ssg75
g1880
sg68
(lp1887
g813
asbasbasbag61
(g77
g63
NtRp1888
(dp1889
g66
(dp1890
sg75
g1737
sg68
(lp1891
g61
(g82
g63
NtRp1892
(dp1893
g66
(dp1894
g86
g87
ssg75
g1888
sg68
(lp1895
g1042
asbag61
(g82
g63
NtRp1896
(dp1897
g66
(dp1898
g93
g94
ssg75
g1888
sg68
(lp1899
S':'
asbag61
(g82
g63
NtRp1900
(dp1901
g66
(dp1902
sg75
g1888
sg68
(lp1903
g61
(g62
g63
NtRp1904
(dp1905
g66
(dp1906
g74
I4
ssg75
g1900
sg68
(lp1907
g104
asbasbasbag61
(g77
g63
NtRp1908
(dp1909
g66
(dp1910
sg75
g1737
sg68
(lp1911
g61
(g82
g63
NtRp1912
(dp1913
g66
(dp1914
g86
g87
ssg75
g1908
sg68
(lp1915
g1063
asbag61
(g82
g63
NtRp1916
(dp1917
g66
(dp1918
g93
g94
ssg75
g1908
sg68
(lp1919
S':'
asbag61
(g82
g63
NtRp1920
(dp1921
g66
(dp1922
sg75
g1908
sg68
(lp1923
g61
(g62
g63
NtRp1924
(dp1925
g66
(dp1926
g74
I4
ssg75
g1920
sg68
(lp1927
g104
asbasbasbag61
(g77
g63
NtRp1928
(dp1929
g66
(dp1930
sg75
g1737
sg68
(lp1931
g61
(g82
g63
NtRp1932
(dp1933
g66
(dp1934
g86
g87
ssg75
g1928
sg68
(lp1935
g1301
asbag61
(g82
g63
NtRp1936
(dp1937
g66
(dp1938
g93
g94
ssg75
g1928
sg68
(lp1939
S':'
asbag61
(g82
g63
NtRp1940
(dp1941
g66
(dp1942
sg75
g1928
sg68
(lp1943
g61
(g62
g63
NtRp1944
(dp1945
g66
(dp1946
g74
I4
ssg75
g1940
sg68
(lp1947
g1314
asbasbasbag61
(g77
g63
NtRp1948
(dp1949
g66
(dp1950
sg75
g1737
sg68
(lp1951
g61
(g82
g63
NtRp1952
(dp1953
g66
(dp1954
g86
g87
ssg75
g1948
sg68
(lp1955
g1344
asbag61
(g82
g63
NtRp1956
(dp1957
g66
(dp1958
g93
g94
ssg75
g1948
sg68
(lp1959
S':'
asbag61
(g82
g63
NtRp1960
(dp1961
g66
(dp1962
sg75
g1948
sg68
(lp1963
g61
(g62
g63
NtRp1964
(dp1965
g66
(dp1966
g74
I4
ssg75
g1960
sg68
(lp1967
g61
(g70
g63
NtRp1968
(dp1969
g66
(dp1970
g74
I3
ssg75
Nsg68
(lp1971
g61
(g77
g63
NtRp1972
(dp1973
g66
(dp1974
sg75
g1968
sg68
(lp1975
g61
(g82
g63
NtRp1976
(dp1977
g66
(dp1978
sg75
g1972
sg68
(lp1979
g61
(g62
g63
NtRp1980
(dp1981
g66
(dp1982
g74
I3
ssg75
g1976
sg68
(lp1983
S'1'
asbasbasbag61
(g77
g63
NtRp1984
(dp1985
g66
(dp1986
sg75
g1968
sg68
(lp1987
g61
(g82
g63
NtRp1988
(dp1989
g66
(dp1990
sg75
g1984
sg68
(lp1991
g61
(g62
g63
NtRp1992
(dp1993
g66
(dp1994
g74
I3
ssg75
g1988
sg68
(lp1995
S'99'
p1996
asbasbasbag61
(g77
g63
NtRp1997
(dp1998
g66
(dp1999
sg75
g1968
sg68
(lp2000
g61
(g82
g63
NtRp2001
(dp2002
g66
(dp2003
sg75
g1997
sg68
(lp2004
g61
(g62
g63
NtRp2005
(dp2006
g66
(dp2007
g74
I3
ssg75
g2001
sg68
(lp2008
S'4'
asbasbasbag61
(g77
g63
NtRp2009
(dp2010
g66
(dp2011
sg75
g1968
sg68
(lp2012
g61
(g82
g63
NtRp2013
(dp2014
g66
(dp2015
sg75
g2009
sg68
(lp2016
g61
(g62
g63
NtRp2017
(dp2018
g66
(dp2019
g74
I3
ssg75
g2013
sg68
(lp2020
S'datetime.datetime(2011, 12, 14, 14, 46, 14)'
p2021
asbasbasbag61
(g77
g63
NtRp2022
(dp2023
g66
(dp2024
sg75
g1968
sg68
(lp2025
g61
(g82
g63
NtRp2026
(dp2027
g66
(dp2028
sg75
g2022
sg68
(lp2029
g61
(g62
g63
NtRp2030
(dp2031
g66
(dp2032
g74
I3
ssg75
g2026
sg68
(lp2033
g1423
asbasbasbasbasbasbasbasbasbasbasbag61
(g77
g63
NtRp2034
(dp2035
g66
(dp2036
sg75
g71
sg68
(lp2037
g61
(g82
g63
NtRp2038
(dp2039
g66
(dp2040
g86
g87
ssg75
g2034
sg68
(lp2041
S'is_https'
p2042
asbag61
(g82
g63
NtRp2043
(dp2044
g66
(dp2045
g93
g94
ssg75
g2034
sg68
(lp2046
S':'
asbag61
(g82
g63
NtRp2047
(dp2048
g66
(dp2049
sg75
g2034
sg68
(lp2050
g61
(g62
g63
NtRp2051
(dp2052
g66
(dp2053
g74
I5
ssg75
g2047
sg68
(lp2054
g104
asbasbasbag61
(g77
g63
NtRp2055
(dp2056
g66
(dp2057
sg75
g71
sg68
(lp2058
g61
(g82
g63
NtRp2059
(dp2060
g66
(dp2061
g86
g87
ssg75
g2055
sg68
(lp2062
S'is_local'
p2063
asbag61
(g82
g63
NtRp2064
(dp2065
g66
(dp2066
g93
g94
ssg75
g2055
sg68
(lp2067
S':'
asbag61
(g82
g63
NtRp2068
(dp2069
g66
(dp2070
sg75
g2055
sg68
(lp2071
g61
(g62
g63
NtRp2072
(dp2073
g66
(dp2074
g74
I5
ssg75
g2068
sg68
(lp2075
g1532
asbasbasbag61
(g77
g63
NtRp2076
(dp2077
g66
(dp2078
sg75
g71
sg68
(lp2079
g61
(g82
g63
NtRp2080
(dp2081
g66
(dp2082
g86
g87
ssg75
g2076
sg68
(lp2083
S'is_restful'
p2084
asbag61
(g82
g63
NtRp2085
(dp2086
g66
(dp2087
g93
g94
ssg75
g2076
sg68
(lp2088
S':'
asbag61
(g82
g63
NtRp2089
(dp2090
g66
(dp2091
sg75
g2076
sg68
(lp2092
g61
(g62
g63
NtRp2093
(dp2094
g66
(dp2095
g74
I5
ssg75
g2089
sg68
(lp2096
g104
asbasbasbag61
(g77
g63
NtRp2097
(dp2098
g66
(dp2099
sg75
g71
sg68
(lp2100
g61
(g82
g63
NtRp2101
(dp2102
g66
(dp2103
g86
g87
ssg75
g2097
sg68
(lp2104
S'now'
p2105
asbag61
(g82
g63
NtRp2106
(dp2107
g66
(dp2108
g93
g94
ssg75
g2097
sg68
(lp2109
S':'
asbag61
(g82
g63
NtRp2110
(dp2111
g66
(dp2112
sg75
g2097
sg68
(lp2113
g61
(g62
g63
NtRp2114
(dp2115
g66
(dp2116
g74
I5
ssg75
g2110
sg68
(lp2117
S'datetime.datetime(2012, 2, 13, 15, 27, 18, 348000)'
p2118
asbasbasbag61
(g77
g63
NtRp2119
(dp2120
g66
(dp2121
sg75
g71
sg68
(lp2122
g61
(g82
g63
NtRp2123
(dp2124
g66
(dp2125
g86
g87
ssg75
g2119
sg68
(lp2126
S'post_vars'
p2127
asbag61
(g82
g63
NtRp2128
(dp2129
g66
(dp2130
g93
g94
ssg75
g2119
sg68
(lp2131
S':'
asbag61
(g82
g63
NtRp2132
(dp2133
g66
(dp2134
sg75
g2119
sg68
(lp2135
g61
(g62
g63
NtRp2136
(dp2137
g66
(dp2138
g74
I5
ssg75
g2132
sg68
(lp2139
g61
(g70
g63
NtRp2140
(dp2141
g66
(dp2142
g74
I4
ssg75
Nsg68
(lp2143
sbasbasbasbag61
(g77
g63
NtRp2144
(dp2145
g66
(dp2146
sg75
g71
sg68
(lp2147
g61
(g82
g63
NtRp2148
(dp2149
g66
(dp2150
g86
g87
ssg75
g2144
sg68
(lp2151
S'raw_args'
p2152
asbag61
(g82
g63
NtRp2153
(dp2154
g66
(dp2155
g93
g94
ssg75
g2144
sg68
(lp2156
S':'
asbag61
(g82
g63
NtRp2157
(dp2158
g66
(dp2159
sg75
g2144
sg68
(lp2160
g61
(g62
g63
NtRp2161
(dp2162
g66
(dp2163
g74
I5
ssg75
g2157
sg68
(lp2164
g163
asbasbasbag61
(g77
g63
NtRp2165
(dp2166
g66
(dp2167
sg75
g71
sg68
(lp2168
g61
(g82
g63
NtRp2169
(dp2170
g66
(dp2171
g86
g87
ssg75
g2165
sg68
(lp2172
S'url'
p2173
asbag61
(g82
g63
NtRp2174
(dp2175
g66
(dp2176
g93
g94
ssg75
g2165
sg68
(lp2177
S':'
asbag61
(g82
g63
NtRp2178
(dp2179
g66
(dp2180
sg75
g2165
sg68
(lp2181
g61
(g62
g63
NtRp2182
(dp2183
g66
(dp2184
g74
I5
ssg75
g2178
sg68
(lp2185
S'/welcome/tournament/show/google.com'
p2186
asbasbasbag61
(g77
g63
NtRp2187
(dp2188
g66
(dp2189
sg75
g71
sg68
(lp2190
g61
(g82
g63
NtRp2191
(dp2192
g66
(dp2193
g86
g87
ssg75
g2187
sg68
(lp2194
S'utcnow'
p2195
asbag61
(g82
g63
NtRp2196
(dp2197
g66
(dp2198
g93
g94
ssg75
g2187
sg68
(lp2199
S':'
asbag61
(g82
g63
NtRp2200
(dp2201
g66
(dp2202
sg75
g2187
sg68
(lp2203
g61
(g62
g63
NtRp2204
(dp2205
g66
(dp2206
g74
I5
ssg75
g2200
sg68
(lp2207
S'datetime.datetime(2012, 2, 13, 20, 27, 18, 348000)'
p2208
asbasbasbag61
(g77
g63
NtRp2209
(dp2210
g66
(dp2211
sg75
g71
sg68
(lp2212
g61
(g82
g63
NtRp2213
(dp2214
g66
(dp2215
g86
g87
ssg75
g2209
sg68
(lp2216
S'uuid'
p2217
asbag61
(g82
g63
NtRp2218
(dp2219
g66
(dp2220
g93
g94
ssg75
g2209
sg68
(lp2221
S':'
asbag61
(g82
g63
NtRp2222
(dp2223
g66
(dp2224
sg75
g2209
sg68
(lp2225
g61
(g62
g63
NtRp2226
(dp2227
g66
(dp2228
g74
I5
ssg75
g2222
sg68
(lp2229
S'welcome/127.0.0.1.2012-02-13.15-27-18.c39e1e70-1aff-4382-8919-cd838c225813'
p2230
asbasbasbag61
(g77
g63
NtRp2231
(dp2232
g66
(dp2233
sg75
g71
sg68
(lp2234
g61
(g82
g63
NtRp2235
(dp2236
g66
(dp2237
g86
g87
ssg75
g2231
sg68
(lp2238
S'vars'
p2239
asbag61
(g82
g63
NtRp2240
(dp2241
g66
(dp2242
g93
g94
ssg75
g2231
sg68
(lp2243
S':'
asbag61
(g82
g63
NtRp2244
(dp2245
g66
(dp2246
sg75
g2231
sg68
(lp2247
g61
(g62
g63
NtRp2248
(dp2249
g66
(dp2250
g74
I5
ssg75
g2244
sg68
(lp2251
g61
(g70
g63
NtRp2252
(dp2253
g66
(dp2254
g74
I4
ssg75
Nsg68
(lp2255
sbasbasbasbag61
(g77
g63
NtRp2256
(dp2257
g66
(dp2258
sg75
g71
sg68
(lp2259
g61
(g82
g63
NtRp2260
(dp2261
g66
(dp2262
g86
g87
ssg75
g2256
sg68
(lp2263
S'wsgi'
p2264
asbag61
(g82
g63
NtRp2265
(dp2266
g66
(dp2267
g93
g94
ssg75
g2256
sg68
(lp2268
S':'
asbag61
(g82
g63
NtRp2269
(dp2270
g66
(dp2271
sg75
g2256
sg68
(lp2272
g61
(g62
g63
NtRp2273
(dp2274
g66
(dp2275
g74
I5
ssg75
g2269
sg68
(lp2276
g61
(g70
g63
NtRp2277
(dp2278
g66
(dp2279
g74
I4
ssg75
Nsg68
(lp2280
g61
(g77
g63
NtRp2281
(dp2282
g66
(dp2283
sg75
g2277
sg68
(lp2284
g61
(g82
g63
NtRp2285
(dp2286
g66
(dp2287
g86
g87
ssg75
g2281
sg68
(lp2288
S'environ'
p2289
asbag61
(g82
g63
NtRp2290
(dp2291
g66
(dp2292
g93
g94
ssg75
g2281
sg68
(lp2293
S':'
asbag61
(g82
g63
NtRp2294
(dp2295
g66
(dp2296
sg75
g2281
sg68
(lp2297
g61
(g62
g63
NtRp2298
(dp2299
g66
(dp2300
g74
I4
ssg75
g2294
sg68
(lp2301
g61
(g70
g63
NtRp2302
(dp2303
g66
(dp2304
g74
I3
ssg75
Nsg68
(lp2305
g61
(g77
g63
NtRp2306
(dp2307
g66
(dp2308
sg75
g2302
sg68
(lp2309
g61
(g82
g63
NtRp2310
(dp2311
g66
(dp2312
g86
g87
ssg75
g2306
sg68
(lp2313
S'HTTP_ACCEPT'
p2314
asbag61
(g82
g63
NtRp2315
(dp2316
g66
(dp2317
g93
g94
ssg75
g2306
sg68
(lp2318
S':'
asbag61
(g82
g63
NtRp2319
(dp2320
g66
(dp2321
sg75
g2306
sg68
(lp2322
g61
(g62
g63
NtRp2323
(dp2324
g66
(dp2325
g74
I3
ssg75
g2319
sg68
(lp2326
g835
asbasbasbag61
(g77
g63
NtRp2327
(dp2328
g66
(dp2329
sg75
g2302
sg68
(lp2330
g61
(g82
g63
NtRp2331
(dp2332
g66
(dp2333
g86
g87
ssg75
g2327
sg68
(lp2334
S'HTTP_ACCEPT_CHARSET'
p2335
asbag61
(g82
g63
NtRp2336
(dp2337
g66
(dp2338
g93
g94
ssg75
g2327
sg68
(lp2339
S':'
asbag61
(g82
g63
NtRp2340
(dp2341
g66
(dp2342
sg75
g2327
sg68
(lp2343
g61
(g62
g63
NtRp2344
(dp2345
g66
(dp2346
g74
I3
ssg75
g2340
sg68
(lp2347
g857
asbasbasbag61
(g77
g63
NtRp2348
(dp2349
g66
(dp2350
sg75
g2302
sg68
(lp2351
g61
(g82
g63
NtRp2352
(dp2353
g66
(dp2354
g86
g87
ssg75
g2348
sg68
(lp2355
S'HTTP_ACCEPT_ENCODING'
p2356
asbag61
(g82
g63
NtRp2357
(dp2358
g66
(dp2359
g93
g94
ssg75
g2348
sg68
(lp2360
S':'
asbag61
(g82
g63
NtRp2361
(dp2362
g66
(dp2363
sg75
g2348
sg68
(lp2364
g61
(g62
g63
NtRp2365
(dp2366
g66
(dp2367
g74
I3
ssg75
g2361
sg68
(lp2368
g879
asbasbasbag61
(g77
g63
NtRp2369
(dp2370
g66
(dp2371
sg75
g2302
sg68
(lp2372
g61
(g82
g63
NtRp2373
(dp2374
g66
(dp2375
g86
g87
ssg75
g2369
sg68
(lp2376
S'HTTP_ACCEPT_LANGUAGE'
p2377
asbag61
(g82
g63
NtRp2378
(dp2379
g66
(dp2380
g93
g94
ssg75
g2369
sg68
(lp2381
S':'
asbag61
(g82
g63
NtRp2382
(dp2383
g66
(dp2384
sg75
g2369
sg68
(lp2385
g61
(g62
g63
NtRp2386
(dp2387
g66
(dp2388
g74
I3
ssg75
g2382
sg68
(lp2389
g901
asbasbasbag61
(g77
g63
NtRp2390
(dp2391
g66
(dp2392
sg75
g2302
sg68
(lp2393
g61
(g82
g63
NtRp2394
(dp2395
g66
(dp2396
g86
g87
ssg75
g2390
sg68
(lp2397
S'HTTP_CACHE_CONTROL'
p2398
asbag61
(g82
g63
NtRp2399
(dp2400
g66
(dp2401
g93
g94
ssg75
g2390
sg68
(lp2402
S':'
asbag61
(g82
g63
NtRp2403
(dp2404
g66
(dp2405
sg75
g2390
sg68
(lp2406
g61
(g62
g63
NtRp2407
(dp2408
g66
(dp2409
g74
I3
ssg75
g2403
sg68
(lp2410
g923
asbasbasbag61
(g77
g63
NtRp2411
(dp2412
g66
(dp2413
sg75
g2302
sg68
(lp2414
g61
(g82
g63
NtRp2415
(dp2416
g66
(dp2417
g86
g87
ssg75
g2411
sg68
(lp2418
S'HTTP_CONNECTION'
p2419
asbag61
(g82
g63
NtRp2420
(dp2421
g66
(dp2422
g93
g94
ssg75
g2411
sg68
(lp2423
S':'
asbag61
(g82
g63
NtRp2424
(dp2425
g66
(dp2426
sg75
g2411
sg68
(lp2427
g61
(g62
g63
NtRp2428
(dp2429
g66
(dp2430
g74
I3
ssg75
g2424
sg68
(lp2431
g945
asbasbasbag61
(g77
g63
NtRp2432
(dp2433
g66
(dp2434
sg75
g2302
sg68
(lp2435
g61
(g82
g63
NtRp2436
(dp2437
g66
(dp2438
g86
g87
ssg75
g2432
sg68
(lp2439
S'HTTP_COOKIE'
p2440
asbag61
(g82
g63
NtRp2441
(dp2442
g66
(dp2443
g93
g94
ssg75
g2432
sg68
(lp2444
S':'
asbag61
(g82
g63
NtRp2445
(dp2446
g66
(dp2447
sg75
g2432
sg68
(lp2448
g61
(g62
g63
NtRp2449
(dp2450
g66
(dp2451
g74
I3
ssg75
g2445
sg68
(lp2452
g967
asbasbasbag61
(g77
g63
NtRp2453
(dp2454
g66
(dp2455
sg75
g2302
sg68
(lp2456
g61
(g82
g63
NtRp2457
(dp2458
g66
(dp2459
g86
g87
ssg75
g2453
sg68
(lp2460
S'HTTP_HOST'
p2461
asbag61
(g82
g63
NtRp2462
(dp2463
g66
(dp2464
g93
g94
ssg75
g2453
sg68
(lp2465
S':'
asbag61
(g82
g63
NtRp2466
(dp2467
g66
(dp2468
sg75
g2453
sg68
(lp2469
g61
(g62
g63
NtRp2470
(dp2471
g66
(dp2472
g74
I3
ssg75
g2466
sg68
(lp2473
g989
asbasbasbag61
(g77
g63
NtRp2474
(dp2475
g66
(dp2476
sg75
g2302
sg68
(lp2477
g61
(g82
g63
NtRp2478
(dp2479
g66
(dp2480
g86
g87
ssg75
g2474
sg68
(lp2481
S'HTTP_REFERER'
p2482
asbag61
(g82
g63
NtRp2483
(dp2484
g66
(dp2485
g93
g94
ssg75
g2474
sg68
(lp2486
S':'
asbag61
(g82
g63
NtRp2487
(dp2488
g66
(dp2489
sg75
g2474
sg68
(lp2490
g61
(g62
g63
NtRp2491
(dp2492
g66
(dp2493
g74
I3
ssg75
g2487
sg68
(lp2494
g1011
asbasbasbag61
(g77
g63
NtRp2495
(dp2496
g66
(dp2497
sg75
g2302
sg68
(lp2498
g61
(g82
g63
NtRp2499
(dp2500
g66
(dp2501
g86
g87
ssg75
g2495
sg68
(lp2502
S'HTTP_USER_AGENT'
p2503
asbag61
(g82
g63
NtRp2504
(dp2505
g66
(dp2506
g93
g94
ssg75
g2495
sg68
(lp2507
S':'
asbag61
(g82
g63
NtRp2508
(dp2509
g66
(dp2510
sg75
g2495
sg68
(lp2511
g61
(g62
g63
NtRp2512
(dp2513
g66
(dp2514
g74
I3
ssg75
g2508
sg68
(lp2515
g1033
asbasbasbag61
(g77
g63
NtRp2516
(dp2517
g66
(dp2518
sg75
g2302
sg68
(lp2519
g61
(g82
g63
NtRp2520
(dp2521
g66
(dp2522
g86
g87
ssg75
g2516
sg68
(lp2523
S'PATH_INFO'
p2524
asbag61
(g82
g63
NtRp2525
(dp2526
g66
(dp2527
g93
g94
ssg75
g2516
sg68
(lp2528
S':'
asbag61
(g82
g63
NtRp2529
(dp2530
g66
(dp2531
sg75
g2516
sg68
(lp2532
g61
(g62
g63
NtRp2533
(dp2534
g66
(dp2535
g74
I3
ssg75
g2529
sg68
(lp2536
g1097
asbasbasbag61
(g77
g63
NtRp2537
(dp2538
g66
(dp2539
sg75
g2302
sg68
(lp2540
g61
(g82
g63
NtRp2541
(dp2542
g66
(dp2543
g86
g87
ssg75
g2537
sg68
(lp2544
S'QUERY_STRING'
p2545
asbag61
(g82
g63
NtRp2546
(dp2547
g66
(dp2548
g93
g94
ssg75
g2537
sg68
(lp2549
S':'
asbag61
(g82
g63
NtRp2550
(dp2551
g66
(dp2552
sg75
g2537
sg68
(lp2553
g61
(g62
g63
NtRp2554
(dp2555
g66
(dp2556
g74
I3
ssg75
g2550
sg68
(lp2557
S''
asbasbasbag61
(g77
g63
NtRp2558
(dp2559
g66
(dp2560
sg75
g2302
sg68
(lp2561
g61
(g82
g63
NtRp2562
(dp2563
g66
(dp2564
g86
g87
ssg75
g2558
sg68
(lp2565
S'REMOTE_ADDR'
p2566
asbag61
(g82
g63
NtRp2567
(dp2568
g66
(dp2569
g93
g94
ssg75
g2558
sg68
(lp2570
S':'
asbag61
(g82
g63
NtRp2571
(dp2572
g66
(dp2573
sg75
g2558
sg68
(lp2574
g61
(g62
g63
NtRp2575
(dp2576
g66
(dp2577
g74
I3
ssg75
g2571
sg68
(lp2578
g207
asbasbasbag61
(g77
g63
NtRp2579
(dp2580
g66
(dp2581
sg75
g2302
sg68
(lp2582
g61
(g82
g63
NtRp2583
(dp2584
g66
(dp2585
g86
g87
ssg75
g2579
sg68
(lp2586
S'REMOTE_PORT'
p2587
asbag61
(g82
g63
NtRp2588
(dp2589
g66
(dp2590
g93
g94
ssg75
g2579
sg68
(lp2591
S':'
asbag61
(g82
g63
NtRp2592
(dp2593
g66
(dp2594
sg75
g2579
sg68
(lp2595
g61
(g62
g63
NtRp2596
(dp2597
g66
(dp2598
g74
I3
ssg75
g2592
sg68
(lp2599
g1161
asbasbasbag61
(g77
g63
NtRp2600
(dp2601
g66
(dp2602
sg75
g2302
sg68
(lp2603
g61
(g82
g63
NtRp2604
(dp2605
g66
(dp2606
g86
g87
ssg75
g2600
sg68
(lp2607
S'REQUEST_METHOD'
p2608
asbag61
(g82
g63
NtRp2609
(dp2610
g66
(dp2611
g93
g94
ssg75
g2600
sg68
(lp2612
S':'
asbag61
(g82
g63
NtRp2613
(dp2614
g66
(dp2615
sg75
g2600
sg68
(lp2616
g61
(g62
g63
NtRp2617
(dp2618
g66
(dp2619
g74
I3
ssg75
g2613
sg68
(lp2620
g1183
asbasbasbag61
(g77
g63
NtRp2621
(dp2622
g66
(dp2623
sg75
g2302
sg68
(lp2624
g61
(g82
g63
NtRp2625
(dp2626
g66
(dp2627
g86
g87
ssg75
g2621
sg68
(lp2628
S'SCRIPT_NAME'
p2629
asbag61
(g82
g63
NtRp2630
(dp2631
g66
(dp2632
g93
g94
ssg75
g2621
sg68
(lp2633
S':'
asbag61
(g82
g63
NtRp2634
(dp2635
g66
(dp2636
sg75
g2621
sg68
(lp2637
g61
(g62
g63
NtRp2638
(dp2639
g66
(dp2640
g74
I3
ssg75
g2634
sg68
(lp2641
S''
asbasbasbag61
(g77
g63
NtRp2642
(dp2643
g66
(dp2644
sg75
g2302
sg68
(lp2645
g61
(g82
g63
NtRp2646
(dp2647
g66
(dp2648
g86
g87
ssg75
g2642
sg68
(lp2649
S'SERVER_NAME'
p2650
asbag61
(g82
g63
NtRp2651
(dp2652
g66
(dp2653
g93
g94
ssg75
g2642
sg68
(lp2654
S':'
asbag61
(g82
g63
NtRp2655
(dp2656
g66
(dp2657
sg75
g2642
sg68
(lp2658
g61
(g62
g63
NtRp2659
(dp2660
g66
(dp2661
g74
I3
ssg75
g2655
sg68
(lp2662
g1226
asbasbasbag61
(g77
g63
NtRp2663
(dp2664
g66
(dp2665
sg75
g2302
sg68
(lp2666
g61
(g82
g63
NtRp2667
(dp2668
g66
(dp2669
g86
g87
ssg75
g2663
sg68
(lp2670
S'SERVER_PORT'
p2671
asbag61
(g82
g63
NtRp2672
(dp2673
g66
(dp2674
g93
g94
ssg75
g2663
sg68
(lp2675
S':'
asbag61
(g82
g63
NtRp2676
(dp2677
g66
(dp2678
sg75
g2663
sg68
(lp2679
g61
(g62
g63
NtRp2680
(dp2681
g66
(dp2682
g74
I3
ssg75
g2676
sg68
(lp2683
g1248
asbasbasbag61
(g77
g63
NtRp2684
(dp2685
g66
(dp2686
sg75
g2302
sg68
(lp2687
g61
(g82
g63
NtRp2688
(dp2689
g66
(dp2690
g86
g87
ssg75
g2684
sg68
(lp2691
S'SERVER_PROTOCOL'
p2692
asbag61
(g82
g63
NtRp2693
(dp2694
g66
(dp2695
g93
g94
ssg75
g2684
sg68
(lp2696
S':'
asbag61
(g82
g63
NtRp2697
(dp2698
g66
(dp2699
sg75
g2684
sg68
(lp2700
g61
(g62
g63
NtRp2701
(dp2702
g66
(dp2703
g74
I3
ssg75
g2697
sg68
(lp2704
g1270
asbasbasbag61
(g77
g63
NtRp2705
(dp2706
g66
(dp2707
sg75
g2302
sg68
(lp2708
g61
(g82
g63
NtRp2709
(dp2710
g66
(dp2711
g86
g87
ssg75
g2705
sg68
(lp2712
S'SERVER_SOFTWARE'
p2713
asbag61
(g82
g63
NtRp2714
(dp2715
g66
(dp2716
g93
g94
ssg75
g2705
sg68
(lp2717
S':'
asbag61
(g82
g63
NtRp2718
(dp2719
g66
(dp2720
sg75
g2705
sg68
(lp2721
g61
(g62
g63
NtRp2722
(dp2723
g66
(dp2724
g74
I3
ssg75
g2718
sg68
(lp2725
g1292
asbasbasbag61
(g77
g63
NtRp2726
(dp2727
g66
(dp2728
sg75
g2302
sg68
(lp2729
g61
(g82
g63
NtRp2730
(dp2731
g66
(dp2732
g86
g87
ssg75
g2726
sg68
(lp2733
S'wsgi.errors'
p2734
asbag61
(g82
g63
NtRp2735
(dp2736
g66
(dp2737
g93
g94
ssg75
g2726
sg68
(lp2738
S':'
asbag61
(g82
g63
NtRp2739
(dp2740
g66
(dp2741
sg75
g2726
sg68
(lp2742
g61
(g62
g63
NtRp2743
(dp2744
g66
(dp2745
g74
I3
ssg75
g2739
sg68
(lp2746
S"<open file '<stderr>', mode 'w' at 0x0000000001EF61E0>"
p2747
asbasbasbag61
(g77
g63
NtRp2748
(dp2749
g66
(dp2750
sg75
g2302
sg68
(lp2751
g61
(g82
g63
NtRp2752
(dp2753
g66
(dp2754
g86
g87
ssg75
g2748
sg68
(lp2755
S'wsgi.file_wrapper'
p2756
asbag61
(g82
g63
NtRp2757
(dp2758
g66
(dp2759
g93
g94
ssg75
g2748
sg68
(lp2760
S':'
asbag61
(g82
g63
NtRp2761
(dp2762
g66
(dp2763
sg75
g2748
sg68
(lp2764
g61
(g62
g63
NtRp2765
(dp2766
g66
(dp2767
g74
I3
ssg75
g2761
sg68
(lp2768
S'<class wsgiref.util.FileWrapper at 0x000000000361C948>'
p2769
asbasbasbag61
(g77
g63
NtRp2770
(dp2771
g66
(dp2772
sg75
g2302
sg68
(lp2773
g61
(g82
g63
NtRp2774
(dp2775
g66
(dp2776
g86
g87
ssg75
g2770
sg68
(lp2777
S'wsgi.input'
p2778
asbag61
(g82
g63
NtRp2779
(dp2780
g66
(dp2781
g93
g94
ssg75
g2770
sg68
(lp2782
S':'
asbag61
(g82
g63
NtRp2783
(dp2784
g66
(dp2785
sg75
g2770
sg68
(lp2786
g61
(g62
g63
NtRp2787
(dp2788
g66
(dp2789
g74
I3
ssg75
g2783
sg68
(lp2790
S'<cStringIO.StringO object at 0x0000000008B7DC38>'
p2791
asbasbasbag61
(g77
g63
NtRp2792
(dp2793
g66
(dp2794
sg75
g2302
sg68
(lp2795
g61
(g82
g63
NtRp2796
(dp2797
g66
(dp2798
g86
g87
ssg75
g2792
sg68
(lp2799
S'wsgi.multiprocess'
p2800
asbag61
(g82
g63
NtRp2801
(dp2802
g66
(dp2803
g93
g94
ssg75
g2792
sg68
(lp2804
S':'
asbag61
(g82
g63
NtRp2805
(dp2806
g66
(dp2807
sg75
g2792
sg68
(lp2808
g61
(g62
g63
NtRp2809
(dp2810
g66
(dp2811
g74
I3
ssg75
g2805
sg68
(lp2812
g104
asbasbasbag61
(g77
g63
NtRp2813
(dp2814
g66
(dp2815
sg75
g2302
sg68
(lp2816
g61
(g82
g63
NtRp2817
(dp2818
g66
(dp2819
g86
g87
ssg75
g2813
sg68
(lp2820
S'wsgi.multithread'
p2821
asbag61
(g82
g63
NtRp2822
(dp2823
g66
(dp2824
g93
g94
ssg75
g2813
sg68
(lp2825
S':'
asbag61
(g82
g63
NtRp2826
(dp2827
g66
(dp2828
sg75
g2813
sg68
(lp2829
g61
(g62
g63
NtRp2830
(dp2831
g66
(dp2832
g74
I3
ssg75
g2826
sg68
(lp2833
g1532
asbasbasbag61
(g77
g63
NtRp2834
(dp2835
g66
(dp2836
sg75
g2302
sg68
(lp2837
g61
(g82
g63
NtRp2838
(dp2839
g66
(dp2840
g86
g87
ssg75
g2834
sg68
(lp2841
S'wsgi.run_once'
p2842
asbag61
(g82
g63
NtRp2843
(dp2844
g66
(dp2845
g93
g94
ssg75
g2834
sg68
(lp2846
S':'
asbag61
(g82
g63
NtRp2847
(dp2848
g66
(dp2849
sg75
g2834
sg68
(lp2850
g61
(g62
g63
NtRp2851
(dp2852
g66
(dp2853
g74
I3
ssg75
g2847
sg68
(lp2854
g104
asbasbasbag61
(g77
g63
NtRp2855
(dp2856
g66
(dp2857
sg75
g2302
sg68
(lp2858
g61
(g82
g63
NtRp2859
(dp2860
g66
(dp2861
g86
g87
ssg75
g2855
sg68
(lp2862
S'wsgi.url_scheme'
p2863
asbag61
(g82
g63
NtRp2864
(dp2865
g66
(dp2866
g93
g94
ssg75
g2855
sg68
(lp2867
S':'
asbag61
(g82
g63
NtRp2868
(dp2869
g66
(dp2870
sg75
g2855
sg68
(lp2871
g61
(g62
g63
NtRp2872
(dp2873
g66
(dp2874
g74
I3
ssg75
g2868
sg68
(lp2875
g1575
asbasbasbag61
(g77
g63
NtRp2876
(dp2877
g66
(dp2878
sg75
g2302
sg68
(lp2879
g61
(g82
g63
NtRp2880
(dp2881
g66
(dp2882
g86
g87
ssg75
g2876
sg68
(lp2883
S'wsgi.version'
p2884
asbag61
(g82
g63
NtRp2885
(dp2886
g66
(dp2887
g93
g94
ssg75
g2876
sg68
(lp2888
S':'
asbag61
(g82
g63
NtRp2889
(dp2890
g66
(dp2891
sg75
g2876
sg68
(lp2892
g61
(g62
g63
NtRp2893
(dp2894
g66
(dp2895
g74
I3
ssg75
g2889
sg68
(lp2896
S'1'
asbasbasbasbasbasbasbasbasbasbasbasbasbsS'frames'
p2897
(lp2898
(dp2899
S'file'
p2900
S'C:\\Users\\mellinja\\Documents\\SC2Tracker\\SC2Tracker2\\web2py\\gluon\\restricted.py'
p2901
sS'dump'
p2902
(dp2903
S'environment'
p2904
S"{'A': <class 'gluon.html.A'>, 'Auth': <class 'gluon.tools.Auth'>, 'B': <class 'gluon.html.B'>, 'BEAUTIFY': <class 'gluon.html.BEAUTIFY'>, 'BODY': <class 'gluon.html.BODY'>, 'BR': <class 'gluon.html.BR'>, 'BUTTON': <class 'gluon.html.BUTTON'>, 'CAT': <class 'gluon.html.CAT'>, 'CENTER': <class 'gluon.html.CENTER'>, 'CLEANUP': <class 'gluon.validators.CLEANUP'>, ...}"
p2905
sS'ccode'
p2906
S'<code object <module> at 00000000082024B0, file ...tions\\welcome\\controllers/tournament.py", line 3>'
p2907
ssS'lnum'
p2908
I204
sS'lines'
p2909
(dp2910
I199
S'    try:'
p2911
sI200
S'        if type(code) == types.CodeType:'
p2912
sI201
S'            ccode = code'
p2913
sI202
S'        else:'
p2914
sI203
S'            ccode = compile2(code,layer)'
p2915
sI204
S'        exec ccode in environment'
p2916
sI205
S'    except HTTP:'
p2917
sI206
S'        raise'
p2918
sI207
S'    except RestrictedError:'
p2919
sI208
S'        # do not encapsulate (obfuscate) the original RestrictedError'
p2920
ssS'call'
p2921
S'(code="# coding: utf8\\n#\\ndef index(): \\n    #db = DAL(\'ms...rnament\')\\n\\nresponse._vars=response._caller(show)\\n", environment={\'A\': <class \'gluon.html.A\'>, \'Auth\': <class \'gluon.tools.Auth\'>, \'B\': <class \'gluon.html.B\'>, \'BEAUTIFY\': <class \'gluon.html.BEAUTIFY\'>, \'BODY\': <class \'gluon.html.BODY\'>, \'BR\': <class \'gluon.html.BR\'>, \'BUTTON\': <class \'gluon.html.BUTTON\'>, \'CAT\': <class \'gluon.html.CAT\'>, \'CENTER\': <class \'gluon.html.CENTER\'>, \'CLEANUP\': <class \'gluon.validators.CLEANUP\'>, ...}, layer=r\'C:\\Users\\mellinja\\Documents\\SC2Tracker\\SC2Tracke...py\\applications\\welcome\\controllers/tournament.py\')'
p2922
sS'func'
p2923
S'restricted'
p2924
sa(dp2925
g2900
S'C:\\Users\\mellinja\\Documents\\SC2Tracker\\SC2Tracker2\\web2py\\applications\\welcome\\controllers\\tournament.py'
p2926
sg2902
(dp2927
sg2908
I35
sg2909
(dp2928
I32
S"    response.flash = 'Joined the tournament'"
p2929
sI33
S"    return dict(pid = request.args(0), message = 'Joined the tournament')"
p2930
sI24
S''
sI25
S'def join():'
p2931
sI26
S''
sI27
S'    playerID = auth.user.ID'
p2932
sI28
S'    tournyID = request.args(0)'
p2933
sI29
S'    #TODO: add tourny'
p2934
sI30
S''
sI31
S"    redirect(URL('show/'+request.args(0)))"
p2935
ssg2921
S'()'
p2936
sg2923
S'<module>'
p2937
sa(dp2938
g2900
S'C:\\Users\\mellinja\\Documents\\SC2Tracker\\SC2Tracker2\\web2py\\gluon\\globals.py'
p2939
sg2902
(dp2940
S'self'
p2941
S'undefined'
p2942
sS'f'
S'<function show>'
p2943
ssg2908
I172
sg2909
(dp2944
I167
S'        self.meta = Storage()      # used by web2py_ajax.html'
p2945
sI168
S'        self.menu = []             # used by the default view layout'
p2946
sI169
S'        self.files = []            # used by web2py_ajax.html'
p2947
sI170
S'        self.generic_patterns = [] # patterns to allow generic views'
p2948
sI171
S'        self._vars = None'
p2949
sI172
S'        self._caller = lambda f: f()'
p2950
sI173
S'        self._view_environment = None'
p2951
sI174
S'        self._custom_commit = None'
p2952
sI175
S'        self._custom_rollback = None'
p2953
sI176
S''
ssg2921
S'(f=<function show>)'
p2954
sg2923
S'<lambda>'
p2955
sa(dp2956
g2900
S'C:\\Users\\mellinja\\Documents\\SC2Tracker\\SC2Tracker2\\web2py\\applications\\welcome\\controllers\\tournament.py'
p2957
sg2902
(dp2958
S'builtinstr'
p2959
S"<type 'str'>"
p2960
sS'db.executesql'
p2961
S"<bound method DAL.executesql of <DAL {'auth_even...luon.dal.Field object at 0x00000000084B7A20>}>}>>"
p2962
sS'request.args'
p2963
S"['google.com']"
p2964
sS'global request'
p2965
S"<Storage {'body': <cStringIO.StringO object at 0..._vars': <Storage {}>, 'post_vars': <Storage {}>}>"
p2966
sS'global db'
p2967
S"<DAL {'auth_event': <Table {'origin': <gluon.dal...gluon.dal.Field object at 0x00000000084B7A20>}>}>"
p2968
sS'tourny'
p2969
g2942
ssg2908
I10
sg2909
(dp2970
I5
S"    tournies = db.executesql('SELECT Name, ID FROM Tournament')"
p2971
sI6
S'    return dict(tournament = tournies)'
p2972
sI7
S''
sI8
S'def show():'
p2973
sI9
S''
sI10
S"    tourny = db.executesql('SELECT * FROM Tournament WHERE ID = ' + str(request.args(0)))"
p2974
sI11
S'    pids = db(db.Player.Auth_User_ID == auth.user_id).select()'
p2975
sI12
S'    forms = []'
p2976
sI13
S'    for player in pids:'
p2977
sI14
S'        form = FORM(INPUT( _type = \'submit\',_value="Join as " + str(player[\'InGameName\'])))'
p2978
ssg2921
S'()'
p2979
sg2923
S'show'
p2980
sa(dp2981
g2900
S'C:\\Users\\mellinja\\Documents\\SC2Tracker\\SC2Tracker2\\web2py\\gluon\\dal.py'
p2982
sg2902
(dp2983
S'query'
p2984
S"'SELECT * FROM Tournament WHERE ID = google.com'"
p2985
sS'self'
p2986
S"<DAL {'auth_event': <Table {'origin': <gluon.dal...gluon.dal.Field object at 0x00000000084B7A20>}>}>"
p2987
sS'self._adapter'
p2988
S'<gluon.dal.MSSQLAdapter object>'
p2989
sS'self._adapter.execute'
p2990
S'<bound method MSSQLAdapter.execute of <gluon.dal.MSSQLAdapter object>>'
p2991
ssg2908
I5170
sg2909
(dp2992
I5165
S'        --bmeredyk'
p2993
sI5166
S'        """'
p2994
sI5167
S'        if placeholders:'
p2995
sI5168
S'            self._adapter.execute(query, placeholders)'
p2996
sI5169
S'        else:'
p2997
sI5170
S'            self._adapter.execute(query)'
p2998
sI5171
S'        if as_dict:'
p2999
sI5172
S"            if not hasattr(self._adapter.cursor,'description'):"
p3000
sI5173
S'                raise RuntimeError, "database does not support executesql(...,as_dict=True)"'
p3001
sI5174
S'            # Non-DAL legacy db query, converts cursor results to dict.'
p3002
ssg2921
S"(self=<DAL {'auth_event': <Table {'origin': <gluon.dal...gluon.dal.Field object at 0x00000000084B7A20>}>}>, query='SELECT * FROM Tournament WHERE ID = google.com', placeholders=None, as_dict=False)"
p3003
sg2923
S'executesql'
p3004
sa(dp3005
g2900
S'C:\\Users\\mellinja\\Documents\\SC2Tracker\\SC2Tracker2\\web2py\\gluon\\dal.py'
p3006
sg2902
(dp3007
S'a'
S"('SELECT * FROM Tournament WHERE ID = google.com',)"
p3008
sS'self'
p3009
S'<gluon.dal.MSSQLAdapter object>'
p3010
sS'b'
g21
sS'self.log_execute'
p3011
S'<bound method MSSQLAdapter.log_execute of <gluon.dal.MSSQLAdapter object>>'
p3012
ssg2908
I1359
sg2909
(dp3013
I1354
S'        self.db._timings.append((a[0],time.time()-t0))'
p3014
sI1355
S'        del self.db._timings[:-TIMINGSSIZE]'
p3015
sI1356
S'        return ret'
p3016
sI1357
S''
sI1358
S'    def execute(self, *a, **b):'
p3017
sI1359
S'        return self.log_execute(*a, **b)'
p3018
sI1360
S''
sI1361
S'    def represent(self, obj, fieldtype):'
p3019
sI1362
S'        if isinstance(obj, CALLABLETYPES):'
p3020
sI1363
S'            obj = obj()'
p3021
ssg2921
S"(self=<gluon.dal.MSSQLAdapter object>, *a=('SELECT * FROM Tournament WHERE ID = google.com',), **b={})"
p3022
sg2923
S'execute'
p3023
sa(dp3024
g2900
S'C:\\Users\\mellinja\\Documents\\SC2Tracker\\SC2Tracker2\\web2py\\gluon\\dal.py'
p3025
sg2902
(dp3026
S'a'
S"('SELECT * FROM Tournament WHERE ID = google.com',)"
p3027
sS'b'
g21
sS'self'
p3028
S'<gluon.dal.MSSQLAdapter object>'
p3029
sS'ret'
p3030
g2942
sS'self.cursor'
p3031
S'<pyodbc.Cursor object>'
p3032
sS'self.cursor.execute'
p3033
S'<built-in method execute of pyodbc.Cursor object>'
p3034
ssg2908
I1353
sg2909
(dp3035
I1348
S'        self.execute(query)'
p3036
sI1349
S''
sI1350
S'    def log_execute(self, *a, **b):'
p3037
sI1351
S'        self.db._lastsql = a[0]'
p3038
sI1352
S'        t0 = time.time()'
p3039
sI1353
S'        ret = self.cursor.execute(*a, **b)'
p3040
sI1354
S'        self.db._timings.append((a[0],time.time()-t0))'
p3041
sI1355
S'        del self.db._timings[:-TIMINGSSIZE]'
p3042
sI1356
S'        return ret'
p3043
sI1357
S''
ssg2921
S"(self=<gluon.dal.MSSQLAdapter object>, *a=('SELECT * FROM Tournament WHERE ID = google.com',), **b={})"
p3044
sg2923
S'log_execute'
p3045
sasS'pyver'
p3046
S'Python 2.7.2: C:\\Python27\\python.exe'
p3047
sS'session'
p3048
g61
(g62
g63
NtRp3049
(dp3050
g66
(dp3051
sg68
(lp3052
g61
(g70
g63
NtRp3053
(dp3054
g66
(dp3055
g74
I5
ssg75
Nsg68
(lp3056
g61
(g77
g63
NtRp3057
(dp3058
g66
(dp3059
sg75
g3053
sg68
(lp3060
g61
(g82
g63
NtRp3061
(dp3062
g66
(dp3063
g86
g87
ssg75
g3057
sg68
(lp3064
S'auth'
p3065
asbag61
(g82
g63
NtRp3066
(dp3067
g66
(dp3068
g93
g94
ssg75
g3057
sg68
(lp3069
S':'
asbag61
(g82
g63
NtRp3070
(dp3071
g66
(dp3072
sg75
g3057
sg68
(lp3073
g61
(g62
g63
NtRp3074
(dp3075
g66
(dp3076
g74
I5
ssg75
g3070
sg68
(lp3077
g61
(g70
g63
NtRp3078
(dp3079
g66
(dp3080
g74
I4
ssg75
Nsg68
(lp3081
g61
(g77
g63
NtRp3082
(dp3083
g66
(dp3084
sg75
g3078
sg68
(lp3085
g61
(g82
g63
NtRp3086
(dp3087
g66
(dp3088
g86
g87
ssg75
g3082
sg68
(lp3089
S'expiration'
p3090
asbag61
(g82
g63
NtRp3091
(dp3092
g66
(dp3093
g93
g94
ssg75
g3082
sg68
(lp3094
S':'
asbag61
(g82
g63
NtRp3095
(dp3096
g66
(dp3097
sg75
g3082
sg68
(lp3098
g61
(g62
g63
NtRp3099
(dp3100
g66
(dp3101
g74
I4
ssg75
g3095
sg68
(lp3102
S'2592000'
p3103
asbasbasbag61
(g77
g63
NtRp3104
(dp3105
g66
(dp3106
sg75
g3078
sg68
(lp3107
g61
(g82
g63
NtRp3108
(dp3109
g66
(dp3110
g86
g87
ssg75
g3104
sg68
(lp3111
S'hmac_key'
p3112
asbag61
(g82
g63
NtRp3113
(dp3114
g66
(dp3115
g93
g94
ssg75
g3104
sg68
(lp3116
S':'
asbag61
(g82
g63
NtRp3117
(dp3118
g66
(dp3119
sg75
g3104
sg68
(lp3120
g61
(g62
g63
NtRp3121
(dp3122
g66
(dp3123
g74
I4
ssg75
g3117
sg68
(lp3124
S'616f8e11-5d47-461b-8e3b-a55cdeab7c8b'
p3125
asbasbasbag61
(g77
g63
NtRp3126
(dp3127
g66
(dp3128
sg75
g3078
sg68
(lp3129
g61
(g82
g63
NtRp3130
(dp3131
g66
(dp3132
g86
g87
ssg75
g3126
sg68
(lp3133
S'last_visit'
p3134
asbag61
(g82
g63
NtRp3135
(dp3136
g66
(dp3137
g93
g94
ssg75
g3126
sg68
(lp3138
S':'
asbag61
(g82
g63
NtRp3139
(dp3140
g66
(dp3141
sg75
g3126
sg68
(lp3142
g61
(g62
g63
NtRp3143
(dp3144
g66
(dp3145
g74
I4
ssg75
g3139
sg68
(lp3146
S'datetime.datetime(2012, 2, 13, 14, 56, 57, 355000)'
p3147
asbasbasbag61
(g77
g63
NtRp3148
(dp3149
g66
(dp3150
sg75
g3078
sg68
(lp3151
g61
(g82
g63
NtRp3152
(dp3153
g66
(dp3154
g86
g87
ssg75
g3148
sg68
(lp3155
S'remember'
p3156
asbag61
(g82
g63
NtRp3157
(dp3158
g66
(dp3159
g93
g94
ssg75
g3148
sg68
(lp3160
S':'
asbag61
(g82
g63
NtRp3161
(dp3162
g66
(dp3163
sg75
g3148
sg68
(lp3164
g61
(g62
g63
NtRp3165
(dp3166
g66
(dp3167
g74
I4
ssg75
g3161
sg68
(lp3168
g104
asbasbasbag61
(g77
g63
NtRp3169
(dp3170
g66
(dp3171
sg75
g3078
sg68
(lp3172
g61
(g82
g63
NtRp3173
(dp3174
g66
(dp3175
g86
g87
ssg75
g3169
sg68
(lp3176
S'user'
p3177
asbag61
(g82
g63
NtRp3178
(dp3179
g66
(dp3180
g93
g94
ssg75
g3169
sg68
(lp3181
S':'
asbag61
(g82
g63
NtRp3182
(dp3183
g66
(dp3184
sg75
g3169
sg68
(lp3185
g61
(g62
g63
NtRp3186
(dp3187
g66
(dp3188
g74
I4
ssg75
g3182
sg68
(lp3189
g61
(g70
g63
NtRp3190
(dp3191
g66
(dp3192
g74
I3
ssg75
Nsg68
(lp3193
g61
(g77
g63
NtRp3194
(dp3195
g66
(dp3196
sg75
g3190
sg68
(lp3197
g61
(g82
g63
NtRp3198
(dp3199
g66
(dp3200
g86
g87
ssg75
g3194
sg68
(lp3201
S'email'
p3202
asbag61
(g82
g63
NtRp3203
(dp3204
g66
(dp3205
g93
g94
ssg75
g3194
sg68
(lp3206
S':'
asbag61
(g82
g63
NtRp3207
(dp3208
g66
(dp3209
sg75
g3194
sg68
(lp3210
g61
(g62
g63
NtRp3211
(dp3212
g66
(dp3213
g74
I3
ssg75
g3207
sg68
(lp3214
S'mellinja@gmail.com'
p3215
asbasbasbag61
(g77
g63
NtRp3216
(dp3217
g66
(dp3218
sg75
g3190
sg68
(lp3219
g61
(g82
g63
NtRp3220
(dp3221
g66
(dp3222
g86
g87
ssg75
g3216
sg68
(lp3223
S'first_name'
p3224
asbag61
(g82
g63
NtRp3225
(dp3226
g66
(dp3227
g93
g94
ssg75
g3216
sg68
(lp3228
S':'
asbag61
(g82
g63
NtRp3229
(dp3230
g66
(dp3231
sg75
g3216
sg68
(lp3232
g61
(g62
g63
NtRp3233
(dp3234
g66
(dp3235
g74
I3
ssg75
g3229
sg68
(lp3236
S'Jackson'
p3237
asbasbasbag61
(g77
g63
NtRp3238
(dp3239
g66
(dp3240
sg75
g3190
sg68
(lp3241
g61
(g82
g63
NtRp3242
(dp3243
g66
(dp3244
g86
g87
ssg75
g3238
sg68
(lp3245
S'id'
p3246
asbag61
(g82
g63
NtRp3247
(dp3248
g66
(dp3249
g93
g94
ssg75
g3238
sg68
(lp3250
S':'
asbag61
(g82
g63
NtRp3251
(dp3252
g66
(dp3253
sg75
g3238
sg68
(lp3254
g61
(g62
g63
NtRp3255
(dp3256
g66
(dp3257
g74
I3
ssg75
g3251
sg68
(lp3258
S'3'
asbasbasbag61
(g77
g63
NtRp3259
(dp3260
g66
(dp3261
sg75
g3190
sg68
(lp3262
g61
(g82
g63
NtRp3263
(dp3264
g66
(dp3265
g86
g87
ssg75
g3259
sg68
(lp3266
S'last_name'
p3267
asbag61
(g82
g63
NtRp3268
(dp3269
g66
(dp3270
g93
g94
ssg75
g3259
sg68
(lp3271
S':'
asbag61
(g82
g63
NtRp3272
(dp3273
g66
(dp3274
sg75
g3259
sg68
(lp3275
g61
(g62
g63
NtRp3276
(dp3277
g66
(dp3278
g74
I3
ssg75
g3272
sg68
(lp3279
S'Melling'
p3280
asbasbasbag61
(g77
g63
NtRp3281
(dp3282
g66
(dp3283
sg75
g3190
sg68
(lp3284
g61
(g82
g63
NtRp3285
(dp3286
g66
(dp3287
g86
g87
ssg75
g3281
sg68
(lp3288
S'password'
p3289
asbag61
(g82
g63
NtRp3290
(dp3291
g66
(dp3292
g93
g94
ssg75
g3281
sg68
(lp3293
S':'
asbag61
(g82
g63
NtRp3294
(dp3295
g66
(dp3296
sg75
g3281
sg68
(lp3297
g61
(g62
g63
NtRp3298
(dp3299
g66
(dp3300
g74
I3
ssg75
g3294
sg68
(lp3301
S'98beeff9538312abb10179bd86e0a5a2'
p3302
asbasbasbag61
(g77
g63
NtRp3303
(dp3304
g66
(dp3305
sg75
g3190
sg68
(lp3306
g61
(g82
g63
NtRp3307
(dp3308
g66
(dp3309
g86
g87
ssg75
g3303
sg68
(lp3310
S'registration_id'
p3311
asbag61
(g82
g63
NtRp3312
(dp3313
g66
(dp3314
g93
g94
ssg75
g3303
sg68
(lp3315
S':'
asbag61
(g82
g63
NtRp3316
(dp3317
g66
(dp3318
sg75
g3303
sg68
(lp3319
g61
(g62
g63
NtRp3320
(dp3321
g66
(dp3322
g74
I3
ssg75
g3316
sg68
(lp3323
S''
asbasbasbag61
(g77
g63
NtRp3324
(dp3325
g66
(dp3326
sg75
g3190
sg68
(lp3327
g61
(g82
g63
NtRp3328
(dp3329
g66
(dp3330
g86
g87
ssg75
g3324
sg68
(lp3331
S'registration_key'
p3332
asbag61
(g82
g63
NtRp3333
(dp3334
g66
(dp3335
g93
g94
ssg75
g3324
sg68
(lp3336
S':'
asbag61
(g82
g63
NtRp3337
(dp3338
g66
(dp3339
sg75
g3324
sg68
(lp3340
g61
(g62
g63
NtRp3341
(dp3342
g66
(dp3343
g74
I3
ssg75
g3337
sg68
(lp3344
S''
asbasbasbag61
(g77
g63
NtRp3345
(dp3346
g66
(dp3347
sg75
g3190
sg68
(lp3348
g61
(g82
g63
NtRp3349
(dp3350
g66
(dp3351
g86
g87
ssg75
g3345
sg68
(lp3352
S'reset_password_key'
p3353
asbag61
(g82
g63
NtRp3354
(dp3355
g66
(dp3356
g93
g94
ssg75
g3345
sg68
(lp3357
S':'
asbag61
(g82
g63
NtRp3358
(dp3359
g66
(dp3360
sg75
g3345
sg68
(lp3361
g61
(g62
g63
NtRp3362
(dp3363
g66
(dp3364
g74
I3
ssg75
g3358
sg68
(lp3365
S'1327597193-2590f763-191b-469c-bc47-fc293ee83460'
p3366
asbasbasbasbasbasbasbasbasbasbasbag61
(g77
g63
NtRp3367
(dp3368
g66
(dp3369
sg75
g3053
sg68
(lp3370
g61
(g82
g63
NtRp3371
(dp3372
g66
(dp3373
g86
g87
ssg75
g3367
sg68
(lp3374
S'last_query'
p3375
asbag61
(g82
g63
NtRp3376
(dp3377
g66
(dp3378
g93
g94
ssg75
g3367
sg68
(lp3379
S':'
asbag61
(g82
g63
NtRp3380
(dp3381
g66
(dp3382
sg75
g3367
sg68
(lp3383
g61
(g62
g63
NtRp3384
(dp3385
g66
(dp3386
g74
I5
ssg75
g3380
sg68
(lp3387
S'db.Players_in_Tournament.id>0'
p3388
asbasbasbasbasbsS'etype'
p3389
S"<class 'pyodbc.ProgrammingError'>"
p3390
sS'date'
p3391
S'Mon Feb 13 15:27:18 2012'
p3392
sS'response'
p3393
g61
(g62
g63
NtRp3394
(dp3395
g66
(dp3396
sg68
(lp3397
g61
(g70
g63
NtRp3398
(dp3399
g66
(dp3400
g74
I5
ssg75
Nsg68
(lp3401
g61
(g77
g63
NtRp3402
(dp3403
g66
(dp3404
sg75
g3398
sg68
(lp3405
g61
(g82
g63
NtRp3406
(dp3407
g66
(dp3408
g86
g87
ssg75
g3402
sg68
(lp3409
g172
asbag61
(g82
g63
NtRp3410
(dp3411
g66
(dp3412
g93
g94
ssg75
g3402
sg68
(lp3413
S':'
asbag61
(g82
g63
NtRp3414
(dp3415
g66
(dp3416
sg75
g3402
sg68
(lp3417
g61
(g62
g63
NtRp3418
(dp3419
g66
(dp3420
g74
I5
ssg75
g3414
sg68
(lp3421
S'<cStringIO.StringO object at 0x000000000891D4C8>'
p3422
asbasbasbag61
(g77
g63
NtRp3423
(dp3424
g66
(dp3425
sg75
g3398
sg68
(lp3426
g61
(g82
g63
NtRp3427
(dp3428
g66
(dp3429
g86
g87
ssg75
g3423
sg68
(lp3430
g238
asbag61
(g82
g63
NtRp3431
(dp3432
g66
(dp3433
g93
g94
ssg75
g3423
sg68
(lp3434
S':'
asbag61
(g82
g63
NtRp3435
(dp3436
g66
(dp3437
sg75
g3423
sg68
(lp3438
g61
(g62
g63
NtRp3439
(dp3440
g66
(dp3441
g74
I5
ssg75
g3435
sg68
(lp3442
g61
(g70
g63
NtRp3443
(dp3444
g66
(dp3445
g74
I4
ssg75
Nsg68
(lp3446
g61
(g77
g63
NtRp3447
(dp3448
g66
(dp3449
sg75
g3443
sg68
(lp3450
g61
(g82
g63
NtRp3451
(dp3452
g66
(dp3453
g86
g87
ssg75
g3447
sg68
(lp3454
S'session_id_welcome'
p3455
asbag61
(g82
g63
NtRp3456
(dp3457
g66
(dp3458
g93
g94
ssg75
g3447
sg68
(lp3459
S':'
asbag61
(g82
g63
NtRp3460
(dp3461
g66
(dp3462
sg75
g3447
sg68
(lp3463
g61
(g62
g63
NtRp3464
(dp3465
g66
(dp3466
g74
I4
ssg75
g3460
sg68
(lp3467
g61
(g70
g63
NtRp3468
(dp3469
g66
(dp3470
g74
I3
ssg75
Nsg68
(lp3471
g61
(g77
g63
NtRp3472
(dp3473
g66
(dp3474
sg75
g3468
sg68
(lp3475
g61
(g82
g63
NtRp3476
(dp3477
g66
(dp3478
g86
g87
ssg75
g3472
sg68
(lp3479
g288
asbag61
(g82
g63
NtRp3480
(dp3481
g66
(dp3482
g93
g94
ssg75
g3472
sg68
(lp3483
S':'
asbag61
(g82
g63
NtRp3484
(dp3485
g66
(dp3486
sg75
g3472
sg68
(lp3487
g61
(g62
g63
NtRp3488
(dp3489
g66
(dp3490
g74
I3
ssg75
g3484
sg68
(lp3491
S''
asbasbasbag61
(g77
g63
NtRp3492
(dp3493
g66
(dp3494
sg75
g3468
sg68
(lp3495
g61
(g82
g63
NtRp3496
(dp3497
g66
(dp3498
g86
g87
ssg75
g3492
sg68
(lp3499
g309
asbag61
(g82
g63
NtRp3500
(dp3501
g66
(dp3502
g93
g94
ssg75
g3492
sg68
(lp3503
S':'
asbag61
(g82
g63
NtRp3504
(dp3505
g66
(dp3506
sg75
g3492
sg68
(lp3507
g61
(g62
g63
NtRp3508
(dp3509
g66
(dp3510
g74
I3
ssg75
g3504
sg68
(lp3511
S''
asbasbasbag61
(g77
g63
NtRp3512
(dp3513
g66
(dp3514
sg75
g3468
sg68
(lp3515
g61
(g82
g63
NtRp3516
(dp3517
g66
(dp3518
g86
g87
ssg75
g3512
sg68
(lp3519
g330
asbag61
(g82
g63
NtRp3520
(dp3521
g66
(dp3522
g93
g94
ssg75
g3512
sg68
(lp3523
S':'
asbag61
(g82
g63
NtRp3524
(dp3525
g66
(dp3526
sg75
g3512
sg68
(lp3527
g61
(g62
g63
NtRp3528
(dp3529
g66
(dp3530
g74
I3
ssg75
g3524
sg68
(lp3531
S''
asbasbasbag61
(g77
g63
NtRp3532
(dp3533
g66
(dp3534
sg75
g3468
sg68
(lp3535
g61
(g82
g63
NtRp3536
(dp3537
g66
(dp3538
g86
g87
ssg75
g3532
sg68
(lp3539
g351
asbag61
(g82
g63
NtRp3540
(dp3541
g66
(dp3542
g93
g94
ssg75
g3532
sg68
(lp3543
S':'
asbag61
(g82
g63
NtRp3544
(dp3545
g66
(dp3546
sg75
g3532
sg68
(lp3547
g61
(g62
g63
NtRp3548
(dp3549
g66
(dp3550
g74
I3
ssg75
g3544
sg68
(lp3551
S''
asbasbasbag61
(g77
g63
NtRp3552
(dp3553
g66
(dp3554
sg75
g3468
sg68
(lp3555
g61
(g82
g63
NtRp3556
(dp3557
g66
(dp3558
g86
g87
ssg75
g3552
sg68
(lp3559
g372
asbag61
(g82
g63
NtRp3560
(dp3561
g66
(dp3562
g93
g94
ssg75
g3552
sg68
(lp3563
S':'
asbag61
(g82
g63
NtRp3564
(dp3565
g66
(dp3566
sg75
g3552
sg68
(lp3567
g61
(g62
g63
NtRp3568
(dp3569
g66
(dp3570
g74
I3
ssg75
g3564
sg68
(lp3571
S''
asbasbasbag61
(g77
g63
NtRp3572
(dp3573
g66
(dp3574
sg75
g3468
sg68
(lp3575
g61
(g82
g63
NtRp3576
(dp3577
g66
(dp3578
g86
g87
ssg75
g3572
sg68
(lp3579
g393
asbag61
(g82
g63
NtRp3580
(dp3581
g66
(dp3582
g93
g94
ssg75
g3572
sg68
(lp3583
S':'
asbag61
(g82
g63
NtRp3584
(dp3585
g66
(dp3586
sg75
g3572
sg68
(lp3587
g61
(g62
g63
NtRp3588
(dp3589
g66
(dp3590
g74
I3
ssg75
g3584
sg68
(lp3591
S'/'
asbasbasbag61
(g77
g63
NtRp3592
(dp3593
g66
(dp3594
sg75
g3468
sg68
(lp3595
g61
(g82
g63
NtRp3596
(dp3597
g66
(dp3598
g86
g87
ssg75
g3592
sg68
(lp3599
g414
asbag61
(g82
g63
NtRp3600
(dp3601
g66
(dp3602
g93
g94
ssg75
g3592
sg68
(lp3603
S':'
asbag61
(g82
g63
NtRp3604
(dp3605
g66
(dp3606
sg75
g3592
sg68
(lp3607
g61
(g62
g63
NtRp3608
(dp3609
g66
(dp3610
g74
I3
ssg75
g3604
sg68
(lp3611
S''
asbasbasbag61
(g77
g63
NtRp3612
(dp3613
g66
(dp3614
sg75
g3468
sg68
(lp3615
g61
(g82
g63
NtRp3616
(dp3617
g66
(dp3618
g86
g87
ssg75
g3612
sg68
(lp3619
g435
asbag61
(g82
g63
NtRp3620
(dp3621
g66
(dp3622
g93
g94
ssg75
g3612
sg68
(lp3623
S':'
asbag61
(g82
g63
NtRp3624
(dp3625
g66
(dp3626
sg75
g3612
sg68
(lp3627
g61
(g62
g63
NtRp3628
(dp3629
g66
(dp3630
g74
I3
ssg75
g3624
sg68
(lp3631
S''
asbasbasbasbasbasbasbasbasbasbasbag61
(g77
g63
NtRp3632
(dp3633
g66
(dp3634
sg75
g3398
sg68
(lp3635
g61
(g82
g63
NtRp3636
(dp3637
g66
(dp3638
g86
g87
ssg75
g3632
sg68
(lp3639
S'files'
p3640
asbag61
(g82
g63
NtRp3641
(dp3642
g66
(dp3643
g93
g94
ssg75
g3632
sg68
(lp3644
S':'
asbag61
(g82
g63
NtRp3645
(dp3646
g66
(dp3647
sg75
g3632
sg68
(lp3648
g61
(g62
g63
NtRp3649
(dp3650
g66
(dp3651
g74
I5
ssg75
g3645
sg68
(lp3652
g61
(g70
g63
NtRp3653
(dp3654
g66
(dp3655
g74
I4
ssg75
Nsg68
(lp3656
sbasbasbasbag61
(g77
g63
NtRp3657
(dp3658
g66
(dp3659
sg75
g3398
sg68
(lp3660
g61
(g82
g63
NtRp3661
(dp3662
g66
(dp3663
g86
g87
ssg75
g3657
sg68
(lp3664
S'flash'
p3665
asbag61
(g82
g63
NtRp3666
(dp3667
g66
(dp3668
g93
g94
ssg75
g3657
sg68
(lp3669
S':'
asbag61
(g82
g63
NtRp3670
(dp3671
g66
(dp3672
sg75
g3657
sg68
(lp3673
g61
(g62
g63
NtRp3674
(dp3675
g66
(dp3676
g74
I5
ssg75
g3670
sg68
(lp3677
S''
asbasbasbag61
(g77
g63
NtRp3678
(dp3679
g66
(dp3680
sg75
g3398
sg68
(lp3681
g61
(g82
g63
NtRp3682
(dp3683
g66
(dp3684
g86
g87
ssg75
g3678
sg68
(lp3685
S'generic_patterns'
p3686
asbag61
(g82
g63
NtRp3687
(dp3688
g66
(dp3689
g93
g94
ssg75
g3678
sg68
(lp3690
S':'
asbag61
(g82
g63
NtRp3691
(dp3692
g66
(dp3693
sg75
g3678
sg68
(lp3694
g61
(g62
g63
NtRp3695
(dp3696
g66
(dp3697
g74
I5
ssg75
g3691
sg68
(lp3698
g61
(g70
g63
NtRp3699
(dp3700
g66
(dp3701
g74
I4
ssg75
Nsg68
(lp3702
g61
(g77
g63
NtRp3703
(dp3704
g66
(dp3705
sg75
g3699
sg68
(lp3706
g61
(g82
g63
NtRp3707
(dp3708
g66
(dp3709
sg75
g3703
sg68
(lp3710
g61
(g62
g63
NtRp3711
(dp3712
g66
(dp3713
g74
I4
ssg75
g3707
sg68
(lp3714
S'*'
asbasbasbasbasbasbasbag61
(g77
g63
NtRp3715
(dp3716
g66
(dp3717
sg75
g3398
sg68
(lp3718
g61
(g82
g63
NtRp3719
(dp3720
g66
(dp3721
g86
g87
ssg75
g3715
sg68
(lp3722
S'headers'
p3723
asbag61
(g82
g63
NtRp3724
(dp3725
g66
(dp3726
g93
g94
ssg75
g3715
sg68
(lp3727
S':'
asbag61
(g82
g63
NtRp3728
(dp3729
g66
(dp3730
sg75
g3715
sg68
(lp3731
g61
(g62
g63
NtRp3732
(dp3733
g66
(dp3734
g74
I5
ssg75
g3728
sg68
(lp3735
g61
(g70
g63
NtRp3736
(dp3737
g66
(dp3738
g74
I4
ssg75
Nsg68
(lp3739
g61
(g77
g63
NtRp3740
(dp3741
g66
(dp3742
sg75
g3736
sg68
(lp3743
g61
(g82
g63
NtRp3744
(dp3745
g66
(dp3746
g86
g87
ssg75
g3740
sg68
(lp3747
S'Cache-Control'
p3748
asbag61
(g82
g63
NtRp3749
(dp3750
g66
(dp3751
g93
g94
ssg75
g3740
sg68
(lp3752
S':'
asbag61
(g82
g63
NtRp3753
(dp3754
g66
(dp3755
sg75
g3740
sg68
(lp3756
g61
(g62
g63
NtRp3757
(dp3758
g66
(dp3759
g74
I4
ssg75
g3753
sg68
(lp3760
S'no-store, no-cache, must-revalidate, post-check=0, pre-check=0'
p3761
asbasbasbag61
(g77
g63
NtRp3762
(dp3763
g66
(dp3764
sg75
g3736
sg68
(lp3765
g61
(g82
g63
NtRp3766
(dp3767
g66
(dp3768
g86
g87
ssg75
g3762
sg68
(lp3769
S'Content-Type'
p3770
asbag61
(g82
g63
NtRp3771
(dp3772
g66
(dp3773
g93
g94
ssg75
g3762
sg68
(lp3774
S':'
asbag61
(g82
g63
NtRp3775
(dp3776
g66
(dp3777
sg75
g3762
sg68
(lp3778
g61
(g62
g63
NtRp3779
(dp3780
g66
(dp3781
g74
I4
ssg75
g3775
sg68
(lp3782
S'text/html; charset=utf-8'
p3783
asbasbasbag61
(g77
g63
NtRp3784
(dp3785
g66
(dp3786
sg75
g3736
sg68
(lp3787
g61
(g82
g63
NtRp3788
(dp3789
g66
(dp3790
g86
g87
ssg75
g3784
sg68
(lp3791
S'Expires'
p3792
asbag61
(g82
g63
NtRp3793
(dp3794
g66
(dp3795
g93
g94
ssg75
g3784
sg68
(lp3796
S':'
asbag61
(g82
g63
NtRp3797
(dp3798
g66
(dp3799
sg75
g3784
sg68
(lp3800
g61
(g62
g63
NtRp3801
(dp3802
g66
(dp3803
g74
I4
ssg75
g3797
sg68
(lp3804
S'Mon, 13 Feb 2012 20:27:18 GMT'
p3805
asbasbasbag61
(g77
g63
NtRp3806
(dp3807
g66
(dp3808
sg75
g3736
sg68
(lp3809
g61
(g82
g63
NtRp3810
(dp3811
g66
(dp3812
g86
g87
ssg75
g3806
sg68
(lp3813
S'Pragma'
p3814
asbag61
(g82
g63
NtRp3815
(dp3816
g66
(dp3817
g93
g94
ssg75
g3806
sg68
(lp3818
S':'
asbag61
(g82
g63
NtRp3819
(dp3820
g66
(dp3821
sg75
g3806
sg68
(lp3822
g61
(g62
g63
NtRp3823
(dp3824
g66
(dp3825
g74
I4
ssg75
g3819
sg68
(lp3826
S'no-cache'
p3827
asbasbasbag61
(g77
g63
NtRp3828
(dp3829
g66
(dp3830
sg75
g3736
sg68
(lp3831
g61
(g82
g63
NtRp3832
(dp3833
g66
(dp3834
g86
g87
ssg75
g3828
sg68
(lp3835
S'X-Powered-By'
p3836
asbag61
(g82
g63
NtRp3837
(dp3838
g66
(dp3839
g93
g94
ssg75
g3828
sg68
(lp3840
S':'
asbag61
(g82
g63
NtRp3841
(dp3842
g66
(dp3843
sg75
g3828
sg68
(lp3844
g61
(g62
g63
NtRp3845
(dp3846
g66
(dp3847
g74
I4
ssg75
g3841
sg68
(lp3848
S'web2py'
p3849
asbasbasbasbasbasbasbag61
(g77
g63
NtRp3850
(dp3851
g66
(dp3852
sg75
g3398
sg68
(lp3853
g61
(g82
g63
NtRp3854
(dp3855
g66
(dp3856
g86
g87
ssg75
g3850
sg68
(lp3857
S'menu'
p3858
asbag61
(g82
g63
NtRp3859
(dp3860
g66
(dp3861
g93
g94
ssg75
g3850
sg68
(lp3862
S':'
asbag61
(g82
g63
NtRp3863
(dp3864
g66
(dp3865
sg75
g3850
sg68
(lp3866
g61
(g62
g63
NtRp3867
(dp3868
g66
(dp3869
g74
I5
ssg75
g3863
sg68
(lp3870
g61
(g70
g63
NtRp3871
(dp3872
g66
(dp3873
g74
I4
ssg75
Nsg68
(lp3874
g61
(g77
g63
NtRp3875
(dp3876
g66
(dp3877
sg75
g3871
sg68
(lp3878
g61
(g82
g63
NtRp3879
(dp3880
g66
(dp3881
sg75
g3875
sg68
(lp3882
g61
(g62
g63
NtRp3883
(dp3884
g66
(dp3885
g74
I4
ssg75
g3879
sg68
(lp3886
g61
(g70
g63
NtRp3887
(dp3888
g66
(dp3889
g74
I3
ssg75
Nsg68
(lp3890
g61
(g77
g63
NtRp3891
(dp3892
g66
(dp3893
sg75
g3887
sg68
(lp3894
g61
(g82
g63
NtRp3895
(dp3896
g66
(dp3897
sg75
g3891
sg68
(lp3898
g61
(g62
g63
NtRp3899
(dp3900
g66
(dp3901
g74
I3
ssg75
g3895
sg68
(lp3902
cgluon.languages
lazyT_unpickle
p3903
(S't\x04\x00\x00\x00Home'
tRp3904
asbasbasbag61
(g77
g63
NtRp3905
(dp3906
g66
(dp3907
sg75
g3887
sg68
(lp3908
g61
(g82
g63
NtRp3909
(dp3910
g66
(dp3911
sg75
g3905
sg68
(lp3912
g61
(g62
g63
NtRp3913
(dp3914
g66
(dp3915
g74
I3
ssg75
g3909
sg68
(lp3916
g104
asbasbasbag61
(g77
g63
NtRp3917
(dp3918
g66
(dp3919
sg75
g3887
sg68
(lp3920
g61
(g82
g63
NtRp3921
(dp3922
g66
(dp3923
sg75
g3917
sg68
(lp3924
g61
(g62
g63
NtRp3925
(dp3926
g66
(dp3927
g74
I3
ssg75
g3921
sg68
(lp3928
S'/welcome/default/index'
p3929
asbasbasbag61
(g77
g63
NtRp3930
(dp3931
g66
(dp3932
sg75
g3887
sg68
(lp3933
g61
(g82
g63
NtRp3934
(dp3935
g66
(dp3936
sg75
g3930
sg68
(lp3937
g61
(g62
g63
NtRp3938
(dp3939
g66
(dp3940
g74
I3
ssg75
g3934
sg68
(lp3941
g61
(g70
g63
NtRp3942
(dp3943
g66
(dp3944
g74
I2
ssg75
Nsg68
(lp3945
sbasbasbasbasbasbasbasbasbasbasbasbag61
(g77
g63
NtRp3946
(dp3947
g66
(dp3948
sg75
g3398
sg68
(lp3949
g61
(g82
g63
NtRp3950
(dp3951
g66
(dp3952
g86
g87
ssg75
g3946
sg68
(lp3953
S'meta'
p3954
asbag61
(g82
g63
NtRp3955
(dp3956
g66
(dp3957
g93
g94
ssg75
g3946
sg68
(lp3958
S':'
asbag61
(g82
g63
NtRp3959
(dp3960
g66
(dp3961
sg75
g3946
sg68
(lp3962
g61
(g62
g63
NtRp3963
(dp3964
g66
(dp3965
g74
I5
ssg75
g3959
sg68
(lp3966
g61
(g70
g63
NtRp3967
(dp3968
g66
(dp3969
g74
I4
ssg75
Nsg68
(lp3970
g61
(g77
g63
NtRp3971
(dp3972
g66
(dp3973
sg75
g3967
sg68
(lp3974
g61
(g82
g63
NtRp3975
(dp3976
g66
(dp3977
g86
g87
ssg75
g3971
sg68
(lp3978
S'author'
p3979
asbag61
(g82
g63
NtRp3980
(dp3981
g66
(dp3982
g93
g94
ssg75
g3971
sg68
(lp3983
S':'
asbag61
(g82
g63
NtRp3984
(dp3985
g66
(dp3986
sg75
g3971
sg68
(lp3987
g61
(g62
g63
NtRp3988
(dp3989
g66
(dp3990
g74
I4
ssg75
g3984
sg68
(lp3991
S'Your Name <you@example.com>'
p3992
asbasbasbag61
(g77
g63
NtRp3993
(dp3994
g66
(dp3995
sg75
g3967
sg68
(lp3996
g61
(g82
g63
NtRp3997
(dp3998
g66
(dp3999
g86
g87
ssg75
g3993
sg68
(lp4000
S'copyright'
p4001
asbag61
(g82
g63
NtRp4002
(dp4003
g66
(dp4004
g93
g94
ssg75
g3993
sg68
(lp4005
S':'
asbag61
(g82
g63
NtRp4006
(dp4007
g66
(dp4008
sg75
g3993
sg68
(lp4009
g61
(g62
g63
NtRp4010
(dp4011
g66
(dp4012
g74
I4
ssg75
g4006
sg68
(lp4013
S'Copyright 2011'
p4014
asbasbasbag61
(g77
g63
NtRp4015
(dp4016
g66
(dp4017
sg75
g3967
sg68
(lp4018
g61
(g82
g63
NtRp4019
(dp4020
g66
(dp4021
g86
g87
ssg75
g4015
sg68
(lp4022
S'description'
p4023
asbag61
(g82
g63
NtRp4024
(dp4025
g66
(dp4026
g93
g94
ssg75
g4015
sg68
(lp4027
S':'
asbag61
(g82
g63
NtRp4028
(dp4029
g66
(dp4030
sg75
g4015
sg68
(lp4031
g61
(g62
g63
NtRp4032
(dp4033
g66
(dp4034
g74
I4
ssg75
g4028
sg68
(lp4035
S'a cool new app'
p4036
asbasbasbag61
(g77
g63
NtRp4037
(dp4038
g66
(dp4039
sg75
g3967
sg68
(lp4040
g61
(g82
g63
NtRp4041
(dp4042
g66
(dp4043
g86
g87
ssg75
g4037
sg68
(lp4044
S'generator'
p4045
asbag61
(g82
g63
NtRp4046
(dp4047
g66
(dp4048
g93
g94
ssg75
g4037
sg68
(lp4049
S':'
asbag61
(g82
g63
NtRp4050
(dp4051
g66
(dp4052
sg75
g4037
sg68
(lp4053
g61
(g62
g63
NtRp4054
(dp4055
g66
(dp4056
g74
I4
ssg75
g4050
sg68
(lp4057
S'Web2py Web Framework'
p4058
asbasbasbag61
(g77
g63
NtRp4059
(dp4060
g66
(dp4061
sg75
g3967
sg68
(lp4062
g61
(g82
g63
NtRp4063
(dp4064
g66
(dp4065
g86
g87
ssg75
g4059
sg68
(lp4066
S'keywords'
p4067
asbag61
(g82
g63
NtRp4068
(dp4069
g66
(dp4070
g93
g94
ssg75
g4059
sg68
(lp4071
S':'
asbag61
(g82
g63
NtRp4072
(dp4073
g66
(dp4074
sg75
g4059
sg68
(lp4075
g61
(g62
g63
NtRp4076
(dp4077
g66
(dp4078
g74
I4
ssg75
g4072
sg68
(lp4079
S'web2py, python, framework'
p4080
asbasbasbasbasbasbasbag61
(g77
g63
NtRp4081
(dp4082
g66
(dp4083
sg75
g3398
sg68
(lp4084
g61
(g82
g63
NtRp4085
(dp4086
g66
(dp4087
g86
g87
ssg75
g4081
sg68
(lp4088
S'postprocessing'
p4089
asbag61
(g82
g63
NtRp4090
(dp4091
g66
(dp4092
g93
g94
ssg75
g4081
sg68
(lp4093
S':'
asbag61
(g82
g63
NtRp4094
(dp4095
g66
(dp4096
sg75
g4081
sg68
(lp4097
g61
(g62
g63
NtRp4098
(dp4099
g66
(dp4100
g74
I5
ssg75
g4094
sg68
(lp4101
g61
(g70
g63
NtRp4102
(dp4103
g66
(dp4104
g74
I4
ssg75
Nsg68
(lp4105
sbasbasbasbag61
(g77
g63
NtRp4106
(dp4107
g66
(dp4108
sg75
g3398
sg68
(lp4109
g61
(g82
g63
NtRp4110
(dp4111
g66
(dp4112
g86
g87
ssg75
g4106
sg68
(lp4113
S'session_file'
p4114
asbag61
(g82
g63
NtRp4115
(dp4116
g66
(dp4117
g93
g94
ssg75
g4106
sg68
(lp4118
S':'
asbag61
(g82
g63
NtRp4119
(dp4120
g66
(dp4121
sg75
g4106
sg68
(lp4122
g61
(g62
g63
NtRp4123
(dp4124
g66
(dp4125
g74
I5
ssg75
g4119
sg68
(lp4126
S"<open file 'C:\\Users\\mellinja\\Documents\\SC2Tracker\\SC2Tracker2\\web2py\\applications\\welcome\\sessions\\127.0.0.1-a90ce443-1437-4832-bce2-e811b9654eea', mode 'rb+' at 0x0000000008CE3270>"
p4127
asbasbasbag61
(g77
g63
NtRp4128
(dp4129
g66
(dp4130
sg75
g3398
sg68
(lp4131
g61
(g82
g63
NtRp4132
(dp4133
g66
(dp4134
g86
g87
ssg75
g4128
sg68
(lp4135
S'session_filename'
p4136
asbag61
(g82
g63
NtRp4137
(dp4138
g66
(dp4139
g93
g94
ssg75
g4128
sg68
(lp4140
S':'
asbag61
(g82
g63
NtRp4141
(dp4142
g66
(dp4143
sg75
g4128
sg68
(lp4144
g61
(g62
g63
NtRp4145
(dp4146
g66
(dp4147
g74
I5
ssg75
g4141
sg68
(lp4148
S'C:\\Users\\mellinja\\Documents\\SC2Tracker\\SC2Tracker2\\web2py\\applications\\welcome\\sessions\\127.0.0.1-a90ce443-1437-4832-bce2-e811b9654eea'
p4149
asbasbasbag61
(g77
g63
NtRp4150
(dp4151
g66
(dp4152
sg75
g3398
sg68
(lp4153
g61
(g82
g63
NtRp4154
(dp4155
g66
(dp4156
g86
g87
ssg75
g4150
sg68
(lp4157
S'session_id'
p4158
asbag61
(g82
g63
NtRp4159
(dp4160
g66
(dp4161
g93
g94
ssg75
g4150
sg68
(lp4162
S':'
asbag61
(g82
g63
NtRp4163
(dp4164
g66
(dp4165
sg75
g4150
sg68
(lp4166
g61
(g62
g63
NtRp4167
(dp4168
g66
(dp4169
g74
I5
ssg75
g4163
sg68
(lp4170
S'127.0.0.1-a90ce443-1437-4832-bce2-e811b9654eea'
p4171
asbasbasbag61
(g77
g63
NtRp4172
(dp4173
g66
(dp4174
sg75
g3398
sg68
(lp4175
g61
(g82
g63
NtRp4176
(dp4177
g66
(dp4178
g86
g87
ssg75
g4172
sg68
(lp4179
S'session_id_name'
p4180
asbag61
(g82
g63
NtRp4181
(dp4182
g66
(dp4183
g93
g94
ssg75
g4172
sg68
(lp4184
S':'
asbag61
(g82
g63
NtRp4185
(dp4186
g66
(dp4187
sg75
g4172
sg68
(lp4188
g61
(g62
g63
NtRp4189
(dp4190
g66
(dp4191
g74
I5
ssg75
g4185
sg68
(lp4192
g3455
asbasbasbag61
(g77
g63
NtRp4193
(dp4194
g66
(dp4195
sg75
g3398
sg68
(lp4196
g61
(g82
g63
NtRp4197
(dp4198
g66
(dp4199
g86
g87
ssg75
g4193
sg68
(lp4200
S'session_locked'
p4201
asbag61
(g82
g63
NtRp4202
(dp4203
g66
(dp4204
g93
g94
ssg75
g4193
sg68
(lp4205
S':'
asbag61
(g82
g63
NtRp4206
(dp4207
g66
(dp4208
sg75
g4193
sg68
(lp4209
g61
(g62
g63
NtRp4210
(dp4211
g66
(dp4212
g74
I5
ssg75
g4206
sg68
(lp4213
g1532
asbasbasbag61
(g77
g63
NtRp4214
(dp4215
g66
(dp4216
sg75
g3398
sg68
(lp4217
g61
(g82
g63
NtRp4218
(dp4219
g66
(dp4220
g86
g87
ssg75
g4214
sg68
(lp4221
S'session_new'
p4222
asbag61
(g82
g63
NtRp4223
(dp4224
g66
(dp4225
g93
g94
ssg75
g4214
sg68
(lp4226
S':'
asbag61
(g82
g63
NtRp4227
(dp4228
g66
(dp4229
sg75
g4214
sg68
(lp4230
g61
(g62
g63
NtRp4231
(dp4232
g66
(dp4233
g74
I5
ssg75
g4227
sg68
(lp4234
g104
asbasbasbag61
(g77
g63
NtRp4235
(dp4236
g66
(dp4237
sg75
g3398
sg68
(lp4238
g61
(g82
g63
NtRp4239
(dp4240
g66
(dp4241
g86
g87
ssg75
g4235
sg68
(lp4242
S'status'
p4243
asbag61
(g82
g63
NtRp4244
(dp4245
g66
(dp4246
g93
g94
ssg75
g4235
sg68
(lp4247
S':'
asbag61
(g82
g63
NtRp4248
(dp4249
g66
(dp4250
sg75
g4235
sg68
(lp4251
g61
(g62
g63
NtRp4252
(dp4253
g66
(dp4254
g74
I5
ssg75
g4248
sg68
(lp4255
S'200'
p4256
asbasbasbag61
(g77
g63
NtRp4257
(dp4258
g66
(dp4259
sg75
g3398
sg68
(lp4260
g61
(g82
g63
NtRp4261
(dp4262
g66
(dp4263
g86
g87
ssg75
g4257
sg68
(lp4264
S'subtitle'
p4265
asbag61
(g82
g63
NtRp4266
(dp4267
g66
(dp4268
g93
g94
ssg75
g4257
sg68
(lp4269
S':'
asbag61
(g82
g63
NtRp4270
(dp4271
g66
(dp4272
sg75
g4257
sg68
(lp4273
g61
(g62
g63
NtRp4274
(dp4275
g66
(dp4276
g74
I5
ssg75
g4270
sg68
(lp4277
g3903
(S's2\x00\x00\x00Starcraft II Custom Tournament Tracker Version 0.1'
tRp4278
asbasbasbag61
(g77
g63
NtRp4279
(dp4280
g66
(dp4281
sg75
g3398
sg68
(lp4282
g61
(g82
g63
NtRp4283
(dp4284
g66
(dp4285
g86
g87
ssg75
g4279
sg68
(lp4286
S'title'
p4287
asbag61
(g82
g63
NtRp4288
(dp4289
g66
(dp4290
g93
g94
ssg75
g4279
sg68
(lp4291
S':'
asbag61
(g82
g63
NtRp4292
(dp4293
g66
(dp4294
sg75
g4279
sg68
(lp4295
g61
(g62
g63
NtRp4296
(dp4297
g66
(dp4298
g74
I5
ssg75
g4292
sg68
(lp4299
S'SC2CTT v0.1'
p4300
asbasbasbag61
(g77
g63
NtRp4301
(dp4302
g66
(dp4303
sg75
g3398
sg68
(lp4304
g61
(g82
g63
NtRp4305
(dp4306
g66
(dp4307
g86
g87
ssg75
g4301
sg68
(lp4308
g2217
asbag61
(g82
g63
NtRp4309
(dp4310
g66
(dp4311
g93
g94
ssg75
g4301
sg68
(lp4312
S':'
asbag61
(g82
g63
NtRp4313
(dp4314
g66
(dp4315
sg75
g4301
sg68
(lp4316
g61
(g62
g63
NtRp4317
(dp4318
g66
(dp4319
g74
I5
ssg75
g4313
sg68
(lp4320
g2230
asbasbasbag61
(g77
g63
NtRp4321
(dp4322
g66
(dp4323
sg75
g3398
sg68
(lp4324
g61
(g82
g63
NtRp4325
(dp4326
g66
(dp4327
g86
g87
ssg75
g4321
sg68
(lp4328
S'view'
p4329
asbag61
(g82
g63
NtRp4330
(dp4331
g66
(dp4332
g93
g94
ssg75
g4321
sg68
(lp4333
S':'
asbag61
(g82
g63
NtRp4334
(dp4335
g66
(dp4336
sg75
g4321
sg68
(lp4337
g61
(g62
g63
NtRp4338
(dp4339
g66
(dp4340
g74
I5
ssg75
g4334
sg68
(lp4341
S'tournament/show.html'
p4342
asbasbasbasbasbsS'locals'
p4343
(dp4344
S'a'
S"('SELECT * FROM Tournament WHERE ID = google.com',)"
p4345
sS'self'
p4346
S'<gluon.dal.MSSQLAdapter object>'
p4347
sS'b'
g21
sS't0'
p4348
S'1329164838.37'
p4349
sssS'traceback'
p4350
S'Traceback (most recent call last):\n  File "C:\\Users\\mellinja\\Documents\\SC2Tracker\\SC2Tracker2\\web2py\\gluon\\restricted.py", line 204, in restricted\n    exec ccode in environment\n  File "C:\\Users\\mellinja\\Documents\\SC2Tracker\\SC2Tracker2\\web2py\\applications\\welcome\\controllers/tournament.py", line 35, in <module>\n  File "C:\\Users\\mellinja\\Documents\\SC2Tracker\\SC2Tracker2\\web2py\\gluon\\globals.py", line 172, in <lambda>\n    self._caller = lambda f: f()\n  File "C:\\Users\\mellinja\\Documents\\SC2Tracker\\SC2Tracker2\\web2py\\applications\\welcome\\controllers/tournament.py", line 10, in show\n    tourny = db.executesql(\'SELECT * FROM Tournament WHERE ID = \' + str(request.args(0)))\n  File "C:\\Users\\mellinja\\Documents\\SC2Tracker\\SC2Tracker2\\web2py\\gluon\\dal.py", line 5170, in executesql\n    self._adapter.execute(query)\n  File "C:\\Users\\mellinja\\Documents\\SC2Tracker\\SC2Tracker2\\web2py\\gluon\\dal.py", line 1359, in execute\n    return self.log_execute(*a, **b)\n  File "C:\\Users\\mellinja\\Documents\\SC2Tracker\\SC2Tracker2\\web2py\\gluon\\dal.py", line 1353, in log_execute\n    ret = self.cursor.execute(*a, **b)\nProgrammingError: (\'42000\', \'[42000] [Microsoft][ODBC SQL Server Driver][SQL Server]The multi-part identifier "google.com" could not be bound. (4104) (SQLExecDirectW)\')\n'
p4351
s.