(dp1
S'output'
p2
S"<type 'exceptions.SyntaxError'> invalid syntax (tournament/show.html, line 79)"
p3
sS'layer'
p4
S'C:\\Users\\mellinja\\Documents\\SC2Tracker\\SC2TourneyTracker\\web2py\\applications\\welcome\\views\\tournament/show.html'
p5
sS'code'
p6
S'response.write(\'<!DOCTYPE html>\\r\\n<!-- paulirish.com/2008/conditional-stylesheets-vs-css-hacks-answer-neither/ -->\\r\\n<!--[if lt IE 7]><html class="ie ie6 ie-lte9 ie-lte8 ie-lte7 no-js" lang="\', escape=False)\nresponse.write(T.accepted_language or \'en\')\nresponse.write(\'"> <![endif]-->\\r\\n<!--[if IE 7]><html class="ie ie7 ie-lte9 ie-lte8 ie-lte7 no-js" lang="\', escape=False)\nresponse.write(T.accepted_language or \'en\')\nresponse.write(\'"> <![endif]-->\\r\\n<!--[if IE 8]><html class="ie ie8 ie-lte9 ie-lte8 no-js" lang="\', escape=False)\nresponse.write(T.accepted_language or \'en\')\nresponse.write(\'"> <![endif]-->\\r\\n<!--[if IE 9]><html class="ie9 ie-lte9 no-js" lang="\', escape=False)\nresponse.write(T.accepted_language or \'en\')\nresponse.write(\'"> <![endif]-->\\r\\n<!--[if (gt IE 9)|!(IE)]><!--> <html class="no-js" lang="\', escape=False)\nresponse.write(T.accepted_language or \'en\')\nresponse.write(\'"> <!--<![endif]-->\\r\\n<head>\\r\\n  <meta charset="utf-8" />\\r\\n  <!-- www.phpied.com/conditional-comments-block-downloads/ -->\\r\\n  <!-- Always force latest IE rendering engine\\r\\n       (even in intranet) & Chrome Frame\\r\\n       Remove this if you use the .htaccess -->\\r\\n  <!--[if IE]>\\r\\n    <meta http-equiv="X-UA-Compatible" content="IE=edge\', escape=False)\nresponse.write(not request.is_local and \',chrome=1\' or \'\')\nresponse.write(\'">\\r\\n  <![endif]-->\\r\\n  \\r\\n  <title>\', escape=False)\nresponse.write(response.title or request.application)\nresponse.write(\'</title>\\r\\n  \\r\\n  <!-- http://dev.w3.org/html5/markup/meta.name.html -->\\r\\n  <meta name="application-name" content="\', escape=False)\nresponse.write(request.application)\nresponse.write(\'" />\\r\\n  \\r\\n  <!-- Speaking of Google, don\\\'t forget to set your site up:\\r\\n       http://google.com/webmasters -->\\r\\n  <meta name="google-site-verification" content="" />\\r\\n\\r\\n  <!--  Mobile Viewport Fix\\r\\n      j.mp/mobileviewport & davidbcalhoun.com/2010/viewport-metatag\\r\\n      device-width: Occupy full width of the screen in its current orientation\\r\\n      initial-scale = 1.0 retains dimensions instead of zooming out if page height > device height\\r\\n      user-scalable = yes allows the user to zoom in -->\\r\\n  <meta name="viewport" content="width=device-width, initial-scale=1.0, user-scalable=yes">\\r\\n  \\r\\n  <!-- Place favicon.ico and apple-touch-icon.png in the root of your domain and delete these references -->\\r\\n  <link rel="shortcut icon" href="\', escape=False)\nresponse.write(URL(\'static\',\'favicon.ico\'))\nresponse.write(\'" type="image/x-icon">\\r\\n  <link rel="apple-touch-icon" href="\', escape=False)\nresponse.write(URL(\'static\',\'favicon.png\'))\nresponse.write(\'">\\r\\n\\r\\n  <!-- All JavaScript at the bottom, except for Modernizr which enables \\r\\n       HTML5 elements & feature detects -->\\r\\n  <script src="\', escape=False)\nresponse.write(URL(\'static\',\'js/modernizr.custom.js\'))\nresponse.write(\'"></script>  \\r\\n\\r\\n  <!-- include stylesheets -->\\r\\n  \', escape=False)\nresponse.files.append(URL(\'static\',\'css/skeleton.css\'))\nresponse.files.append(URL(\'static\',\'css/web2py.css\'))\nresponse.files.append(URL(\'static\',\'css/superfish.css\'))\nresponse.files.append(URL(\'static\',\'js/superfish.js\'))\nresponse.write(\'\\r\\n\\r\\n  \', escape=False)\nresponse.write(\'<script type="text/javascript"><!--\\r\\n    // These variables are used by the web2py_ajax_init function in web2py_ajax.js (which is loaded below).\\r\\n    var w2p_ajax_confirm_message = "\', escape=False)\nresponse.write(T(\'Are you sure you want to delete this object?\'))\nresponse.write(\'";\\r\\n    var w2p_ajax_date_format = "\', escape=False)\nresponse.write(T(\'%Y-%m-%d\'))\nresponse.write(\'";\\r\\n    var w2p_ajax_datetime_format = "\', escape=False)\nresponse.write(T(\'%Y-%m-%d %H:%M:%S\'))\nresponse.write(\'";\\r\\n    //--></script>\\r\\n\', escape=False)\nresponse.files.insert(0,URL(\'static\',\'js/jquery.js\'))\nresponse.files.insert(1,URL(\'static\',\'css/calendar.css\'))\nresponse.files.insert(2,URL(\'static\',\'js/calendar.js\'))\nresponse.files.insert(3,URL(\'static\',\'js/web2py.js\'))\nresponse.include_meta()\nresponse.include_files()\nresponse.write(\'\\r\\n\', escape=False)\nresponse.write(\'\\r\\n\\r\\n  <script type="text/javascript">\\r\\n    jQuery(function(){ jQuery(\\\'ul.sf-menu\\\').supersubs({minWidth:12,maxWidth:30,extraWidth:3}).superfish(); });\\r\\n  </script>\\r\\n\\r\\n  \', escape=False)\n# using sidebars need to know what sidebar you want to use\nleft_sidebar_enabled = globals().get(\'left_sidebar_enabled\',False)\nright_sidebar_enabled = globals().get(\'right_sidebar_enabled\',False)\nmiddle_columns = {0:\'sixteen\',1:\'twelve\',2:\'eight\'}[\n(left_sidebar_enabled and 1 or 0)+(right_sidebar_enabled and 1 or 0)]\nresponse.write(\'\\r\\n\\r\\n  <!-- uncomment here to load jquery-ui\\r\\n  <link rel="stylesheet" href="http://ajax.googleapis.com/ajax/libs/jqueryui/1.8.16/themes/base/jquery-ui.css" type="text/css" media="all" />\\r\\n  <script src="http://ajax.googleapis.com/ajax/libs/jqueryui/1.8.16/jquery-ui.min.js" type="text/javascript"></script>\\r\\n  uncomment to load jquery-ui //-->\\r\\n</head>\\r\\n<body>\\r\\n  <div class="wrapper"><!-- for sticky footer -->\\r\\n  \\r\\n    <div class="topbar">\\r\\n      <div class="container">    \\r\\n        <div class="sixteen columns">\\r\\n          <div id="navbar">\', escape=False)\nresponse.write(\'auth\' in globals() and auth.navbar(separators=(\' \',\' | \',\'\')))\nresponse.write(\'</div>\\r\\n          \', escape=False)\nis_mobile=request.user_agent().is_mobile\nresponse.write(\'\\r\\n          <div id="menu">\', escape=False)\nresponse.write(MENU(response.menu, _class=\'mobile-menu\' if is_mobile else \'sf-menu\',mobile=is_mobile))\nresponse.write(\'\\r\\n          </div>\\r\\n        </div>\\r\\n      </div>\\r\\n    </div><!-- topbar -->\\r\\n    \\r\\n    <div class="flash">\', escape=False)\nresponse.write(response.flash or \'\')\nresponse.write(\'</div>\\r\\n    \\r\\n    <div class="header">\\r\\n      <div class="container">         \\r\\n        <div class="sixteen columns">\\r\\n          <h1 class="remove-bottom" style="margin-top: .5em;">\\r\\n          \', escape=False)\nresponse.write(response.title or request.application)\nresponse.write(\'\\r\\n          </h1>\\r\\n          <h5>\', escape=False)\nresponse.write(response.subtitle or \'\')\nresponse.write(\'</h5>\\r\\n        </div>\\r\\n        <div class="sixteen columns">\\r\\n          <div class="statusbar clearfix">\\r\\n            \', escape=False)\nresponse.write(\'\\r\\n            <div class="breadcrumbs">\', escape=False)\nresponse.write(request.function.replace(\'_\', \' \').title())\nresponse.write(\'</div>\\r\\n            \', escape=False)\nresponse.write(\'\\r\\n            <!-- AddToAny BEGIN -->\\r\\n            <!--<div style="float:right; padding-top: .25em;" class="a2a_kit a2a_default_style">\\r\\n            <a class="a2a_dd" href="http://www.addtoany.com/share_save">Share</a></div>\\r\\n            <script type="text/javascript" src="http://static.addtoany.com/menu/page.js"></script>-->\\r\\n            <!-- AddToAny END -->\\r\\n          </div>\\r\\n        </div>\\r\\n      </div>\\r\\n    </div>\\r\\n\\r\\n    <div class="main">\\r\\n      <div class="container">                 \\r\\n        \', escape=False)\nif left_sidebar_enabled:\n    response.write(\'\\r\\n        <div class="four columns left-sidebar">\\r\\n          \', escape=False)\n    response.write(\'\\r\\n          <h3>Left Sidebar</h3>\\r\\n          <p></p>\\r\\n          \', escape=False)\n    response.write(\'\\r\\n        </div>\\r\\n        \', escape=False)\n    pass\nresponse.write(\'\\r\\n        \\r\\n        <div class="\', escape=False)\nresponse.write(middle_columns)\nresponse.write(\' columns center">\\r\\n          \', escape=False)\nresponse.write(\'\\r\\n          \', escape=False)\nresponse.write(\'\\r\\n<h1>This is the tournament/show.html template</h1>\\r\\n\', escape=False)\nresponse.write(test)\nresponse.write(\'\\r\\n\', escape=False)\nA(T(\'Join this tournament\'), _href=URL(\'welcome\',\'tournament\',\'join/\'=str(1))\nresponse.write(\'\\r\\n\', escape=False)\nresponse.write(\'\\r\\n          \', escape=False)\nresponse.write(\'\\r\\n        </div>\\r\\n        \\r\\n        \', escape=False)\nif right_sidebar_enabled:\n    response.write(\'\\r\\n        <div class="four columns">\\r\\n          \', escape=False)\n    response.write(\'\\r\\n          <h3>Right Sidebar</h3>\\r\\n          <p></p>\\r\\n          \', escape=False)\n    response.write(\'\\r\\n        </div>    \\r\\n        \', escape=False)\n    pass\nresponse.write(\'\\r\\n        \\r\\n      </div><!-- container -->\\r\\n    </div><!-- main -->\\r\\n    \\r\\n    <div class="push"></div>\\r\\n  </div><!-- wrapper -->\\r\\n\\r\\n  <div class="footer">\\r\\n    <div class="container">    \\r\\n      <div class="sixteen columns">\\r\\n        \', escape=False)\nresponse.write(\' <!-- this is default footer -->\\r\\n        <div class="footer-content clearfix">\\r\\n          <div class="copyright">\\r\\n\\t\\t\\t  \', escape=False)\nresponse.write(T(\'Copyright\'))\nresponse.write(\' &#169; 2012 <br />\\r\\n\\t\\t\\t  Kyle Cheung, Simon Liang, Jackson Melling\\r\\n\\t\\t  </div>\\r\\n          <div style="float: right;">\\r\\n            <a href="http://www.web2py.com/">\\r\\n            <img style="padding-bottom: 0;" src="\', escape=False)\nresponse.write(URL(\'static\',\'images/poweredby.png\'))\nresponse.write(\'"/>\\r\\n            </a>\\r\\n          </div>\\r\\n        </div>\\r\\n        \', escape=False)\nresponse.write(\' \\r\\n      </div>\\r\\n    </div><!-- container -->\\r\\n  </div><!-- footer -->\\r\\n  \\r\\n  <!--[if lt IE 7 ]>\\r\\n    <script src="\', escape=False)\nresponse.write(URL(\'static\',\'js/dd_belatedpng.js\'))\nresponse.write(\'"></script>\\r\\n    <script> DD_belatedPNG.fix(\\\'img, .png_bg\\\'); //fix any <img> or .png_bg background-images </script>\\r\\n    <![endif]-->\\r\\n  \', escape=False)\nif response.google_analytics_id:\n    response.write(\'<script type="text/javascript"> var _gaq = _gaq || []; _gaq.push([\\\'_setAccount\\\', \\\'\', escape=False)\n    response.write(response.google_analytics_id)\n    response.write("\']); _gaq.push([\'_trackPageview\']); (function() { var ga = document.createElement(\'script\'); ga.type = \'text/javascript\'; ga.async = true; ga.src = (\'https:\' == document.location.protocol ? \'https://ssl\' : \'http://www\') + \'.google-analytics.com/ga.js\'; var s = document.getElementsByTagName(\'script\')[0]; s.parentNode.insertBefore(ga, s); })(); </script> ", escape=False)\n    pass\nresponse.write(\'\\r\\n</body>\\r\\n</html>\\r\\n\', escape=False)'
p7
sS'snapshot'
p8
(dp9
S'exception'
p10
(dp11
S'__getslice__'
p12
S"<method-wrapper '__getslice__' of exceptions.SyntaxError object>"
p13
sS'text'
p14
S'"response.write(\'\\\\r\\\\n\', escape=False)\\n"'
p15
sS'__str__'
p16
S"<method-wrapper '__str__' of exceptions.SyntaxError object>"
p17
sS'__reduce__'
p18
S'<built-in method __reduce__ of exceptions.SyntaxError object>'
p19
sS'__dict__'
p20
S'{}'
p21
sS'__sizeof__'
p22
S'<built-in method __sizeof__ of exceptions.SyntaxError object>'
p23
sS'__init__'
p24
S"<method-wrapper '__init__' of exceptions.SyntaxError object>"
p25
sS'__setattr__'
p26
S"<method-wrapper '__setattr__' of exceptions.SyntaxError object>"
p27
sS'__reduce_ex__'
p28
S'<built-in method __reduce_ex__ of exceptions.SyntaxError object>'
p29
sS'__new__'
p30
S'<built-in method __new__ of type object>'
p31
sS'__format__'
p32
S'<built-in method __format__ of exceptions.SyntaxError object>'
p33
sS'__class__'
p34
S"<type 'exceptions.SyntaxError'>"
p35
sS'filename'
p36
S"r'C:\\Users\\mellinja\\Documents\\SC2Tracker\\SC2Tourne...y\\applications\\welcome\\views\\tournament/show.html'"
p37
sS'lineno'
p38
S'79'
p39
sS'msg'
p40
S"'invalid syntax'"
p41
sS'__doc__'
p42
S"'Invalid syntax.'"
p43
sS'__getitem__'
p44
S"<method-wrapper '__getitem__' of exceptions.SyntaxError object>"
p45
sS'__setstate__'
p46
S'<built-in method __setstate__ of exceptions.SyntaxError object>'
p47
sS'__getattribute__'
p48
S"<method-wrapper '__getattribute__' of exceptions.SyntaxError object>"
p49
sS'print_file_and_line'
p50
S'None'
p51
sS'args'
p52
S'(\'invalid syntax\', (r\'C:\\Users\\mellinja\\Documents\\SC2Tracker\\SC2Tourne...y\\applications\\welcome\\views\\tournament/show.html\', 79, 8, "response.write(\'\\\\r\\\\n\', escape=False)\\n"))'
p53
sS'__subclasshook__'
p54
S'<built-in method __subclasshook__ of type object>'
p55
sS'offset'
p56
S'8'
sS'__unicode__'
p57
S'<built-in method __unicode__ of exceptions.SyntaxError object>'
p58
sS'__delattr__'
p59
S"<method-wrapper '__delattr__' of exceptions.SyntaxError object>"
p60
sS'__repr__'
p61
S"<method-wrapper '__repr__' of exceptions.SyntaxError object>"
p62
sS'__hash__'
p63
S"<method-wrapper '__hash__' of exceptions.SyntaxError object>"
p64
ssS'evalue'
p65
S'invalid syntax (tournament/show.html, line 79)'
p66
sS'request'
p67
ccopy_reg
_reconstructor
p68
(cgluon.html
BEAUTIFY
p69
c__builtin__
object
p70
NtRp71
(dp72
S'attributes'
p73
(dp74
sS'components'
p75
(lp76
g68
(cgluon.html
TABLE
p77
g70
NtRp78
(dp79
g73
(dp80
S'level'
p81
I5
ssS'parent'
p82
Nsg75
(lp83
g68
(cgluon.html
TR
p84
g70
NtRp85
(dp86
g73
(dp87
sg82
g78
sg75
(lp88
g68
(cgluon.html
TD
p89
g70
NtRp90
(dp91
g73
(dp92
S'_style'
p93
S'font-weight:bold;vertical-align:top'
p94
ssg82
g85
sg75
(lp95
S'ajax'
p96
asbag68
(g89
g70
NtRp97
(dp98
g73
(dp99
S'_valign'
p100
S'top'
p101
ssg82
g85
sg75
(lp102
S':'
asbag68
(g89
g70
NtRp103
(dp104
g73
(dp105
sg82
g85
sg75
(lp106
g68
(g69
g70
NtRp107
(dp108
g73
(dp109
g81
I5
ssg82
g103
sg75
(lp110
S'False'
p111
asbasbasbag68
(g84
g70
NtRp112
(dp113
g73
(dp114
sg82
g78
sg75
(lp115
g68
(g89
g70
NtRp116
(dp117
g73
(dp118
g93
g94
ssg82
g112
sg75
(lp119
S'application'
p120
asbag68
(g89
g70
NtRp121
(dp122
g73
(dp123
g100
g101
ssg82
g112
sg75
(lp124
S':'
asbag68
(g89
g70
NtRp125
(dp126
g73
(dp127
sg82
g112
sg75
(lp128
g68
(g69
g70
NtRp129
(dp130
g73
(dp131
g81
I5
ssg82
g125
sg75
(lp132
S'welcome'
p133
asbasbasbag68
(g84
g70
NtRp134
(dp135
g73
(dp136
sg82
g78
sg75
(lp137
g68
(g89
g70
NtRp138
(dp139
g73
(dp140
g93
g94
ssg82
g134
sg75
(lp141
g52
asbag68
(g89
g70
NtRp142
(dp143
g73
(dp144
g100
g101
ssg82
g134
sg75
(lp145
S':'
asbag68
(g89
g70
NtRp146
(dp147
g73
(dp148
sg82
g134
sg75
(lp149
g68
(g69
g70
NtRp150
(dp151
g73
(dp152
g81
I5
ssg82
g146
sg75
(lp153
g68
(g77
g70
NtRp154
(dp155
g73
(dp156
g81
I4
ssg82
Nsg75
(lp157
g68
(g84
g70
NtRp158
(dp159
g73
(dp160
sg82
g154
sg75
(lp161
g68
(g89
g70
NtRp162
(dp163
g73
(dp164
sg82
g158
sg75
(lp165
g68
(g69
g70
NtRp166
(dp167
g73
(dp168
g81
I4
ssg82
g162
sg75
(lp169
S'7'
asbasbasbasbasbasbasbag68
(g84
g70
NtRp170
(dp171
g73
(dp172
sg82
g78
sg75
(lp173
g68
(g89
g70
NtRp174
(dp175
g73
(dp176
g93
g94
ssg82
g170
sg75
(lp177
S'body'
p178
asbag68
(g89
g70
NtRp179
(dp180
g73
(dp181
g100
g101
ssg82
g170
sg75
(lp182
S':'
asbag68
(g89
g70
NtRp183
(dp184
g73
(dp185
sg82
g170
sg75
(lp186
g68
(g69
g70
NtRp187
(dp188
g73
(dp189
g81
I5
ssg82
g183
sg75
(lp190
S'<cStringIO.StringO object at 0x00000000096F50A0>'
p191
asbasbasbag68
(g84
g70
NtRp192
(dp193
g73
(dp194
sg82
g78
sg75
(lp195
g68
(g89
g70
NtRp196
(dp197
g73
(dp198
g93
g94
ssg82
g192
sg75
(lp199
S'client'
p200
asbag68
(g89
g70
NtRp201
(dp202
g73
(dp203
g100
g101
ssg82
g192
sg75
(lp204
S':'
asbag68
(g89
g70
NtRp205
(dp206
g73
(dp207
sg82
g192
sg75
(lp208
g68
(g69
g70
NtRp209
(dp210
g73
(dp211
g81
I5
ssg82
g205
sg75
(lp212
S'127.0.0.1'
p213
asbasbasbag68
(g84
g70
NtRp214
(dp215
g73
(dp216
sg82
g78
sg75
(lp217
g68
(g89
g70
NtRp218
(dp219
g73
(dp220
g93
g94
ssg82
g214
sg75
(lp221
S'controller'
p222
asbag68
(g89
g70
NtRp223
(dp224
g73
(dp225
g100
g101
ssg82
g214
sg75
(lp226
S':'
asbag68
(g89
g70
NtRp227
(dp228
g73
(dp229
sg82
g214
sg75
(lp230
g68
(g69
g70
NtRp231
(dp232
g73
(dp233
g81
I5
ssg82
g227
sg75
(lp234
S'tournament'
p235
asbasbasbag68
(g84
g70
NtRp236
(dp237
g73
(dp238
sg82
g78
sg75
(lp239
g68
(g89
g70
NtRp240
(dp241
g73
(dp242
g93
g94
ssg82
g236
sg75
(lp243
S'cookies'
p244
asbag68
(g89
g70
NtRp245
(dp246
g73
(dp247
g100
g101
ssg82
g236
sg75
(lp248
S':'
asbag68
(g89
g70
NtRp249
(dp250
g73
(dp251
sg82
g236
sg75
(lp252
g68
(g69
g70
NtRp253
(dp254
g73
(dp255
g81
I5
ssg82
g249
sg75
(lp256
g68
(g77
g70
NtRp257
(dp258
g73
(dp259
g81
I4
ssg82
Nsg75
(lp260
g68
(g84
g70
NtRp261
(dp262
g73
(dp263
sg82
g257
sg75
(lp264
g68
(g89
g70
NtRp265
(dp266
g73
(dp267
g93
g94
ssg82
g261
sg75
(lp268
S'session_id_admin'
p269
asbag68
(g89
g70
NtRp270
(dp271
g73
(dp272
g100
g101
ssg82
g261
sg75
(lp273
S':'
asbag68
(g89
g70
NtRp274
(dp275
g73
(dp276
sg82
g261
sg75
(lp277
g68
(g69
g70
NtRp278
(dp279
g73
(dp280
g81
I4
ssg82
g274
sg75
(lp281
g68
(g77
g70
NtRp282
(dp283
g73
(dp284
g81
I3
ssg82
Nsg75
(lp285
g68
(g84
g70
NtRp286
(dp287
g73
(dp288
sg82
g282
sg75
(lp289
g68
(g89
g70
NtRp290
(dp291
g73
(dp292
g93
g94
ssg82
g286
sg75
(lp293
S'comment'
p294
asbag68
(g89
g70
NtRp295
(dp296
g73
(dp297
g100
g101
ssg82
g286
sg75
(lp298
S':'
asbag68
(g89
g70
NtRp299
(dp300
g73
(dp301
sg82
g286
sg75
(lp302
g68
(g69
g70
NtRp303
(dp304
g73
(dp305
g81
I3
ssg82
g299
sg75
(lp306
S''
asbasbasbag68
(g84
g70
NtRp307
(dp308
g73
(dp309
sg82
g282
sg75
(lp310
g68
(g89
g70
NtRp311
(dp312
g73
(dp313
g93
g94
ssg82
g307
sg75
(lp314
S'domain'
p315
asbag68
(g89
g70
NtRp316
(dp317
g73
(dp318
g100
g101
ssg82
g307
sg75
(lp319
S':'
asbag68
(g89
g70
NtRp320
(dp321
g73
(dp322
sg82
g307
sg75
(lp323
g68
(g69
g70
NtRp324
(dp325
g73
(dp326
g81
I3
ssg82
g320
sg75
(lp327
S''
asbasbasbag68
(g84
g70
NtRp328
(dp329
g73
(dp330
sg82
g282
sg75
(lp331
g68
(g89
g70
NtRp332
(dp333
g73
(dp334
g93
g94
ssg82
g328
sg75
(lp335
S'expires'
p336
asbag68
(g89
g70
NtRp337
(dp338
g73
(dp339
g100
g101
ssg82
g328
sg75
(lp340
S':'
asbag68
(g89
g70
NtRp341
(dp342
g73
(dp343
sg82
g328
sg75
(lp344
g68
(g69
g70
NtRp345
(dp346
g73
(dp347
g81
I3
ssg82
g341
sg75
(lp348
S''
asbasbasbag68
(g84
g70
NtRp349
(dp350
g73
(dp351
sg82
g282
sg75
(lp352
g68
(g89
g70
NtRp353
(dp354
g73
(dp355
g93
g94
ssg82
g349
sg75
(lp356
S'httponly'
p357
asbag68
(g89
g70
NtRp358
(dp359
g73
(dp360
g100
g101
ssg82
g349
sg75
(lp361
S':'
asbag68
(g89
g70
NtRp362
(dp363
g73
(dp364
sg82
g349
sg75
(lp365
g68
(g69
g70
NtRp366
(dp367
g73
(dp368
g81
I3
ssg82
g362
sg75
(lp369
S''
asbasbasbag68
(g84
g70
NtRp370
(dp371
g73
(dp372
sg82
g282
sg75
(lp373
g68
(g89
g70
NtRp374
(dp375
g73
(dp376
g93
g94
ssg82
g370
sg75
(lp377
S'max-age'
p378
asbag68
(g89
g70
NtRp379
(dp380
g73
(dp381
g100
g101
ssg82
g370
sg75
(lp382
S':'
asbag68
(g89
g70
NtRp383
(dp384
g73
(dp385
sg82
g370
sg75
(lp386
g68
(g69
g70
NtRp387
(dp388
g73
(dp389
g81
I3
ssg82
g383
sg75
(lp390
S''
asbasbasbag68
(g84
g70
NtRp391
(dp392
g73
(dp393
sg82
g282
sg75
(lp394
g68
(g89
g70
NtRp395
(dp396
g73
(dp397
g93
g94
ssg82
g391
sg75
(lp398
S'path'
p399
asbag68
(g89
g70
NtRp400
(dp401
g73
(dp402
g100
g101
ssg82
g391
sg75
(lp403
S':'
asbag68
(g89
g70
NtRp404
(dp405
g73
(dp406
sg82
g391
sg75
(lp407
g68
(g69
g70
NtRp408
(dp409
g73
(dp410
g81
I3
ssg82
g404
sg75
(lp411
S''
asbasbasbag68
(g84
g70
NtRp412
(dp413
g73
(dp414
sg82
g282
sg75
(lp415
g68
(g89
g70
NtRp416
(dp417
g73
(dp418
g93
g94
ssg82
g412
sg75
(lp419
S'secure'
p420
asbag68
(g89
g70
NtRp421
(dp422
g73
(dp423
g100
g101
ssg82
g412
sg75
(lp424
S':'
asbag68
(g89
g70
NtRp425
(dp426
g73
(dp427
sg82
g412
sg75
(lp428
g68
(g69
g70
NtRp429
(dp430
g73
(dp431
g81
I3
ssg82
g425
sg75
(lp432
S''
asbasbasbag68
(g84
g70
NtRp433
(dp434
g73
(dp435
sg82
g282
sg75
(lp436
g68
(g89
g70
NtRp437
(dp438
g73
(dp439
g93
g94
ssg82
g433
sg75
(lp440
S'version'
p441
asbag68
(g89
g70
NtRp442
(dp443
g73
(dp444
g100
g101
ssg82
g433
sg75
(lp445
S':'
asbag68
(g89
g70
NtRp446
(dp447
g73
(dp448
sg82
g433
sg75
(lp449
g68
(g69
g70
NtRp450
(dp451
g73
(dp452
g81
I3
ssg82
g446
sg75
(lp453
S''
asbasbasbasbasbasbasbag68
(g84
g70
NtRp454
(dp455
g73
(dp456
sg82
g257
sg75
(lp457
g68
(g89
g70
NtRp458
(dp459
g73
(dp460
g93
g94
ssg82
g454
sg75
(lp461
S'session_id_welcome'
p462
asbag68
(g89
g70
NtRp463
(dp464
g73
(dp465
g100
g101
ssg82
g454
sg75
(lp466
S':'
asbag68
(g89
g70
NtRp467
(dp468
g73
(dp469
sg82
g454
sg75
(lp470
g68
(g69
g70
NtRp471
(dp472
g73
(dp473
g81
I4
ssg82
g467
sg75
(lp474
g68
(g77
g70
NtRp475
(dp476
g73
(dp477
g81
I3
ssg82
Nsg75
(lp478
g68
(g84
g70
NtRp479
(dp480
g73
(dp481
sg82
g475
sg75
(lp482
g68
(g89
g70
NtRp483
(dp484
g73
(dp485
g93
g94
ssg82
g479
sg75
(lp486
g294
asbag68
(g89
g70
NtRp487
(dp488
g73
(dp489
g100
g101
ssg82
g479
sg75
(lp490
S':'
asbag68
(g89
g70
NtRp491
(dp492
g73
(dp493
sg82
g479
sg75
(lp494
g68
(g69
g70
NtRp495
(dp496
g73
(dp497
g81
I3
ssg82
g491
sg75
(lp498
S''
asbasbasbag68
(g84
g70
NtRp499
(dp500
g73
(dp501
sg82
g475
sg75
(lp502
g68
(g89
g70
NtRp503
(dp504
g73
(dp505
g93
g94
ssg82
g499
sg75
(lp506
g315
asbag68
(g89
g70
NtRp507
(dp508
g73
(dp509
g100
g101
ssg82
g499
sg75
(lp510
S':'
asbag68
(g89
g70
NtRp511
(dp512
g73
(dp513
sg82
g499
sg75
(lp514
g68
(g69
g70
NtRp515
(dp516
g73
(dp517
g81
I3
ssg82
g511
sg75
(lp518
S''
asbasbasbag68
(g84
g70
NtRp519
(dp520
g73
(dp521
sg82
g475
sg75
(lp522
g68
(g89
g70
NtRp523
(dp524
g73
(dp525
g93
g94
ssg82
g519
sg75
(lp526
g336
asbag68
(g89
g70
NtRp527
(dp528
g73
(dp529
g100
g101
ssg82
g519
sg75
(lp530
S':'
asbag68
(g89
g70
NtRp531
(dp532
g73
(dp533
sg82
g519
sg75
(lp534
g68
(g69
g70
NtRp535
(dp536
g73
(dp537
g81
I3
ssg82
g531
sg75
(lp538
S''
asbasbasbag68
(g84
g70
NtRp539
(dp540
g73
(dp541
sg82
g475
sg75
(lp542
g68
(g89
g70
NtRp543
(dp544
g73
(dp545
g93
g94
ssg82
g539
sg75
(lp546
g357
asbag68
(g89
g70
NtRp547
(dp548
g73
(dp549
g100
g101
ssg82
g539
sg75
(lp550
S':'
asbag68
(g89
g70
NtRp551
(dp552
g73
(dp553
sg82
g539
sg75
(lp554
g68
(g69
g70
NtRp555
(dp556
g73
(dp557
g81
I3
ssg82
g551
sg75
(lp558
S''
asbasbasbag68
(g84
g70
NtRp559
(dp560
g73
(dp561
sg82
g475
sg75
(lp562
g68
(g89
g70
NtRp563
(dp564
g73
(dp565
g93
g94
ssg82
g559
sg75
(lp566
g378
asbag68
(g89
g70
NtRp567
(dp568
g73
(dp569
g100
g101
ssg82
g559
sg75
(lp570
S':'
asbag68
(g89
g70
NtRp571
(dp572
g73
(dp573
sg82
g559
sg75
(lp574
g68
(g69
g70
NtRp575
(dp576
g73
(dp577
g81
I3
ssg82
g571
sg75
(lp578
S''
asbasbasbag68
(g84
g70
NtRp579
(dp580
g73
(dp581
sg82
g475
sg75
(lp582
g68
(g89
g70
NtRp583
(dp584
g73
(dp585
g93
g94
ssg82
g579
sg75
(lp586
g399
asbag68
(g89
g70
NtRp587
(dp588
g73
(dp589
g100
g101
ssg82
g579
sg75
(lp590
S':'
asbag68
(g89
g70
NtRp591
(dp592
g73
(dp593
sg82
g579
sg75
(lp594
g68
(g69
g70
NtRp595
(dp596
g73
(dp597
g81
I3
ssg82
g591
sg75
(lp598
S''
asbasbasbag68
(g84
g70
NtRp599
(dp600
g73
(dp601
sg82
g475
sg75
(lp602
g68
(g89
g70
NtRp603
(dp604
g73
(dp605
g93
g94
ssg82
g599
sg75
(lp606
g420
asbag68
(g89
g70
NtRp607
(dp608
g73
(dp609
g100
g101
ssg82
g599
sg75
(lp610
S':'
asbag68
(g89
g70
NtRp611
(dp612
g73
(dp613
sg82
g599
sg75
(lp614
g68
(g69
g70
NtRp615
(dp616
g73
(dp617
g81
I3
ssg82
g611
sg75
(lp618
S''
asbasbasbag68
(g84
g70
NtRp619
(dp620
g73
(dp621
sg82
g475
sg75
(lp622
g68
(g89
g70
NtRp623
(dp624
g73
(dp625
g93
g94
ssg82
g619
sg75
(lp626
g441
asbag68
(g89
g70
NtRp627
(dp628
g73
(dp629
g100
g101
ssg82
g619
sg75
(lp630
S':'
asbag68
(g89
g70
NtRp631
(dp632
g73
(dp633
sg82
g619
sg75
(lp634
g68
(g69
g70
NtRp635
(dp636
g73
(dp637
g81
I3
ssg82
g631
sg75
(lp638
S''
asbasbasbasbasbasbasbasbasbasbasbag68
(g84
g70
NtRp639
(dp640
g73
(dp641
sg82
g78
sg75
(lp642
g68
(g89
g70
NtRp643
(dp644
g73
(dp645
g93
g94
ssg82
g639
sg75
(lp646
S'env'
p647
asbag68
(g89
g70
NtRp648
(dp649
g73
(dp650
g100
g101
ssg82
g639
sg75
(lp651
S':'
asbag68
(g89
g70
NtRp652
(dp653
g73
(dp654
sg82
g639
sg75
(lp655
g68
(g69
g70
NtRp656
(dp657
g73
(dp658
g81
I5
ssg82
g652
sg75
(lp659
g68
(g77
g70
NtRp660
(dp661
g73
(dp662
g81
I4
ssg82
Nsg75
(lp663
g68
(g84
g70
NtRp664
(dp665
g73
(dp666
sg82
g660
sg75
(lp667
g68
(g89
g70
NtRp668
(dp669
g73
(dp670
g93
g94
ssg82
g664
sg75
(lp671
S'app_folders'
p672
asbag68
(g89
g70
NtRp673
(dp674
g73
(dp675
g100
g101
ssg82
g664
sg75
(lp676
S':'
asbag68
(g89
g70
NtRp677
(dp678
g73
(dp679
sg82
g664
sg75
(lp680
g68
(g69
g70
NtRp681
(dp682
g73
(dp683
g81
I4
ssg82
g677
sg75
(lp684
S"set(['C:\\\\Users\\\\mellinja\\\\Documents\\\\SC2Tracker\\\\SC2TourneyTracker\\\\web2py\\\\applications\\\\welcome\\\\', 'C:\\\\Users\\\\mellinja\\\\Documents\\\\SC2Tracker\\\\SC2TourneyTracker\\\\web2py\\\\applications\\\\admin\\\\'])"
p685
asbasbasbag68
(g84
g70
NtRp686
(dp687
g73
(dp688
sg82
g660
sg75
(lp689
g68
(g89
g70
NtRp690
(dp691
g73
(dp692
g93
g94
ssg82
g686
sg75
(lp693
S'applications_parent'
p694
asbag68
(g89
g70
NtRp695
(dp696
g73
(dp697
g100
g101
ssg82
g686
sg75
(lp698
S':'
asbag68
(g89
g70
NtRp699
(dp700
g73
(dp701
sg82
g686
sg75
(lp702
g68
(g69
g70
NtRp703
(dp704
g73
(dp705
g81
I4
ssg82
g699
sg75
(lp706
S'C:\\Users\\mellinja\\Documents\\SC2Tracker\\SC2TourneyTracker\\web2py'
p707
asbasbasbag68
(g84
g70
NtRp708
(dp709
g73
(dp710
sg82
g660
sg75
(lp711
g68
(g89
g70
NtRp712
(dp713
g73
(dp714
g93
g94
ssg82
g708
sg75
(lp715
S'cmd_args'
p716
asbag68
(g89
g70
NtRp717
(dp718
g73
(dp719
g100
g101
ssg82
g708
sg75
(lp720
S':'
asbag68
(g89
g70
NtRp721
(dp722
g73
(dp723
sg82
g708
sg75
(lp724
g68
(g69
g70
NtRp725
(dp726
g73
(dp727
g81
I4
ssg82
g721
sg75
(lp728
g68
(g77
g70
NtRp729
(dp730
g73
(dp731
g81
I3
ssg82
Nsg75
(lp732
sbasbasbasbag68
(g84
g70
NtRp733
(dp734
g73
(dp735
sg82
g660
sg75
(lp736
g68
(g89
g70
NtRp737
(dp738
g73
(dp739
g93
g94
ssg82
g733
sg75
(lp740
S'cmd_options'
p741
asbag68
(g89
g70
NtRp742
(dp743
g73
(dp744
g100
g101
ssg82
g733
sg75
(lp745
S':'
asbag68
(g89
g70
NtRp746
(dp747
g73
(dp748
sg82
g733
sg75
(lp749
g68
(g69
g70
NtRp750
(dp751
g73
(dp752
g81
I4
ssg82
g746
sg75
(lp753
S"<Values at 0x38bd5c8: {'verbose': False, 'ip': '127.0.0.1', 'shutdown_timeout': 5, 'taskbar': False, 'nocron': False, 'pid_filename': 'httpserver.pid', 'maxthreads': None, 'softcron': False, 'server_name': 'mellinja-PC', 'bpython': False, 'nogui': False, 'port': 8000, 'extcron': False, 'debuglevel': 30, 'test': None, 'folder': 'C:\\\\Users\\\\mellinja\\\\Documents\\\\SC2Tracker\\\\SC2TourneyTracker\\\\web2py', 'config': '', 'import_models': False, 'winservice': '', 'shell': None, 'run': '', 'log_filename': 'httpserver.log', 'args': [''], 'socket_timeout': 1, 'ssl_ca_certificate': None, 'scheduler': None, 'profiler_filename': None, 'ssl_private_key': '', 'password': '<ask>', 'request_queue_size': 5, 'ssl_certificate': '', 'cronjob': False, 'numthreads': None, 'quiet': False, 'interfaces': None, 'minthreads': None, 'timeout': 10, 'plain': False, 'nobanner': False}>"
p754
asbasbasbag68
(g84
g70
NtRp755
(dp756
g73
(dp757
sg82
g660
sg75
(lp758
g68
(g89
g70
NtRp759
(dp760
g73
(dp761
g93
g94
ssg82
g755
sg75
(lp762
S'db_sessions'
p763
asbag68
(g89
g70
NtRp764
(dp765
g73
(dp766
g100
g101
ssg82
g755
sg75
(lp767
S':'
asbag68
(g89
g70
NtRp768
(dp769
g73
(dp770
sg82
g755
sg75
(lp771
g68
(g69
g70
NtRp772
(dp773
g73
(dp774
g81
I4
ssg82
g768
sg75
(lp775
S'set([])'
p776
asbasbasbag68
(g84
g70
NtRp777
(dp778
g73
(dp779
sg82
g660
sg75
(lp780
g68
(g89
g70
NtRp781
(dp782
g73
(dp783
g93
g94
ssg82
g777
sg75
(lp784
S'debugging'
p785
asbag68
(g89
g70
NtRp786
(dp787
g73
(dp788
g100
g101
ssg82
g777
sg75
(lp789
S':'
asbag68
(g89
g70
NtRp790
(dp791
g73
(dp792
sg82
g777
sg75
(lp793
g68
(g69
g70
NtRp794
(dp795
g73
(dp796
g81
I4
ssg82
g790
sg75
(lp797
g111
asbasbasbag68
(g84
g70
NtRp798
(dp799
g73
(dp800
sg82
g660
sg75
(lp801
g68
(g89
g70
NtRp802
(dp803
g73
(dp804
g93
g94
ssg82
g798
sg75
(lp805
S'gluon_parent'
p806
asbag68
(g89
g70
NtRp807
(dp808
g73
(dp809
g100
g101
ssg82
g798
sg75
(lp810
S':'
asbag68
(g89
g70
NtRp811
(dp812
g73
(dp813
sg82
g798
sg75
(lp814
g68
(g69
g70
NtRp815
(dp816
g73
(dp817
g81
I4
ssg82
g811
sg75
(lp818
S'C:\\Users\\mellinja\\Documents\\SC2Tracker\\SC2TourneyTracker\\web2py'
p819
asbasbasbag68
(g84
g70
NtRp820
(dp821
g73
(dp822
sg82
g660
sg75
(lp823
g68
(g89
g70
NtRp824
(dp825
g73
(dp826
g93
g94
ssg82
g820
sg75
(lp827
S'http_accept'
p828
asbag68
(g89
g70
NtRp829
(dp830
g73
(dp831
g100
g101
ssg82
g820
sg75
(lp832
S':'
asbag68
(g89
g70
NtRp833
(dp834
g73
(dp835
sg82
g820
sg75
(lp836
g68
(g69
g70
NtRp837
(dp838
g73
(dp839
g81
I4
ssg82
g833
sg75
(lp840
S'text/html,application/xhtml+xml,application/xml;q=0.9,*/*;q=0.8'
p841
asbasbasbag68
(g84
g70
NtRp842
(dp843
g73
(dp844
sg82
g660
sg75
(lp845
g68
(g89
g70
NtRp846
(dp847
g73
(dp848
g93
g94
ssg82
g842
sg75
(lp849
S'http_accept_charset'
p850
asbag68
(g89
g70
NtRp851
(dp852
g73
(dp853
g100
g101
ssg82
g842
sg75
(lp854
S':'
asbag68
(g89
g70
NtRp855
(dp856
g73
(dp857
sg82
g842
sg75
(lp858
g68
(g69
g70
NtRp859
(dp860
g73
(dp861
g81
I4
ssg82
g855
sg75
(lp862
S'ISO-8859-1,utf-8;q=0.7,*;q=0.3'
p863
asbasbasbag68
(g84
g70
NtRp864
(dp865
g73
(dp866
sg82
g660
sg75
(lp867
g68
(g89
g70
NtRp868
(dp869
g73
(dp870
g93
g94
ssg82
g864
sg75
(lp871
S'http_accept_encoding'
p872
asbag68
(g89
g70
NtRp873
(dp874
g73
(dp875
g100
g101
ssg82
g864
sg75
(lp876
S':'
asbag68
(g89
g70
NtRp877
(dp878
g73
(dp879
sg82
g864
sg75
(lp880
g68
(g69
g70
NtRp881
(dp882
g73
(dp883
g81
I4
ssg82
g877
sg75
(lp884
S'gzip,deflate,sdch'
p885
asbasbasbag68
(g84
g70
NtRp886
(dp887
g73
(dp888
sg82
g660
sg75
(lp889
g68
(g89
g70
NtRp890
(dp891
g73
(dp892
g93
g94
ssg82
g886
sg75
(lp893
S'http_accept_language'
p894
asbag68
(g89
g70
NtRp895
(dp896
g73
(dp897
g100
g101
ssg82
g886
sg75
(lp898
S':'
asbag68
(g89
g70
NtRp899
(dp900
g73
(dp901
sg82
g886
sg75
(lp902
g68
(g69
g70
NtRp903
(dp904
g73
(dp905
g81
I4
ssg82
g899
sg75
(lp906
S'en-US,en;q=0.8'
p907
asbasbasbag68
(g84
g70
NtRp908
(dp909
g73
(dp910
sg82
g660
sg75
(lp911
g68
(g89
g70
NtRp912
(dp913
g73
(dp914
g93
g94
ssg82
g908
sg75
(lp915
S'http_cache_control'
p916
asbag68
(g89
g70
NtRp917
(dp918
g73
(dp919
g100
g101
ssg82
g908
sg75
(lp920
S':'
asbag68
(g89
g70
NtRp921
(dp922
g73
(dp923
sg82
g908
sg75
(lp924
g68
(g69
g70
NtRp925
(dp926
g73
(dp927
g81
I4
ssg82
g921
sg75
(lp928
S'max-age=0'
p929
asbasbasbag68
(g84
g70
NtRp930
(dp931
g73
(dp932
sg82
g660
sg75
(lp933
g68
(g89
g70
NtRp934
(dp935
g73
(dp936
g93
g94
ssg82
g930
sg75
(lp937
S'http_connection'
p938
asbag68
(g89
g70
NtRp939
(dp940
g73
(dp941
g100
g101
ssg82
g930
sg75
(lp942
S':'
asbag68
(g89
g70
NtRp943
(dp944
g73
(dp945
sg82
g930
sg75
(lp946
g68
(g69
g70
NtRp947
(dp948
g73
(dp949
g81
I4
ssg82
g943
sg75
(lp950
S'keep-alive'
p951
asbasbasbag68
(g84
g70
NtRp952
(dp953
g73
(dp954
sg82
g660
sg75
(lp955
g68
(g89
g70
NtRp956
(dp957
g73
(dp958
g93
g94
ssg82
g952
sg75
(lp959
S'http_cookie'
p960
asbag68
(g89
g70
NtRp961
(dp962
g73
(dp963
g100
g101
ssg82
g952
sg75
(lp964
S':'
asbag68
(g89
g70
NtRp965
(dp966
g73
(dp967
sg82
g952
sg75
(lp968
g68
(g69
g70
NtRp969
(dp970
g73
(dp971
g81
I4
ssg82
g965
sg75
(lp972
S'session_id_welcome=127.0.0.1-7f6da3c1-c383-4eae-be0f-bad70281272e; session_id_admin=127.0.0.1-decbe570-fe55-44aa-bd09-fe3250db9c6f'
p973
asbasbasbag68
(g84
g70
NtRp974
(dp975
g73
(dp976
sg82
g660
sg75
(lp977
g68
(g89
g70
NtRp978
(dp979
g73
(dp980
g93
g94
ssg82
g974
sg75
(lp981
S'http_host'
p982
asbag68
(g89
g70
NtRp983
(dp984
g73
(dp985
g100
g101
ssg82
g974
sg75
(lp986
S':'
asbag68
(g89
g70
NtRp987
(dp988
g73
(dp989
sg82
g974
sg75
(lp990
g68
(g69
g70
NtRp991
(dp992
g73
(dp993
g81
I4
ssg82
g987
sg75
(lp994
S'127.0.0.1:8000'
p995
asbasbasbag68
(g84
g70
NtRp996
(dp997
g73
(dp998
sg82
g660
sg75
(lp999
g68
(g89
g70
NtRp1000
(dp1001
g73
(dp1002
g93
g94
ssg82
g996
sg75
(lp1003
S'http_referer'
p1004
asbag68
(g89
g70
NtRp1005
(dp1006
g73
(dp1007
g100
g101
ssg82
g996
sg75
(lp1008
S':'
asbag68
(g89
g70
NtRp1009
(dp1010
g73
(dp1011
sg82
g996
sg75
(lp1012
g68
(g69
g70
NtRp1013
(dp1014
g73
(dp1015
g81
I4
ssg82
g1009
sg75
(lp1016
S'http://127.0.0.1:8000/welcome/tournament/index'
p1017
asbasbasbag68
(g84
g70
NtRp1018
(dp1019
g73
(dp1020
sg82
g660
sg75
(lp1021
g68
(g89
g70
NtRp1022
(dp1023
g73
(dp1024
g93
g94
ssg82
g1018
sg75
(lp1025
S'http_user_agent'
p1026
asbag68
(g89
g70
NtRp1027
(dp1028
g73
(dp1029
g100
g101
ssg82
g1018
sg75
(lp1030
S':'
asbag68
(g89
g70
NtRp1031
(dp1032
g73
(dp1033
sg82
g1018
sg75
(lp1034
g68
(g69
g70
NtRp1035
(dp1036
g73
(dp1037
g81
I4
ssg82
g1031
sg75
(lp1038
S'Mozilla/5.0 (Windows NT 6.1; WOW64) AppleWebKit/535.7 (KHTML, like Gecko) Chrome/16.0.912.77 Safari/535.7'
p1039
asbasbasbag68
(g84
g70
NtRp1040
(dp1041
g73
(dp1042
sg82
g660
sg75
(lp1043
g68
(g89
g70
NtRp1044
(dp1045
g73
(dp1046
g93
g94
ssg82
g1040
sg75
(lp1047
S'is_jython'
p1048
asbag68
(g89
g70
NtRp1049
(dp1050
g73
(dp1051
g100
g101
ssg82
g1040
sg75
(lp1052
S':'
asbag68
(g89
g70
NtRp1053
(dp1054
g73
(dp1055
sg82
g1040
sg75
(lp1056
g68
(g69
g70
NtRp1057
(dp1058
g73
(dp1059
g81
I4
ssg82
g1053
sg75
(lp1060
g111
asbasbasbag68
(g84
g70
NtRp1061
(dp1062
g73
(dp1063
sg82
g660
sg75
(lp1064
g68
(g89
g70
NtRp1065
(dp1066
g73
(dp1067
g93
g94
ssg82
g1061
sg75
(lp1068
S'is_pypy'
p1069
asbag68
(g89
g70
NtRp1070
(dp1071
g73
(dp1072
g100
g101
ssg82
g1061
sg75
(lp1073
S':'
asbag68
(g89
g70
NtRp1074
(dp1075
g73
(dp1076
sg82
g1061
sg75
(lp1077
g68
(g69
g70
NtRp1078
(dp1079
g73
(dp1080
g81
I4
ssg82
g1074
sg75
(lp1081
g111
asbasbasbag68
(g84
g70
NtRp1082
(dp1083
g73
(dp1084
sg82
g660
sg75
(lp1085
g68
(g89
g70
NtRp1086
(dp1087
g73
(dp1088
g93
g94
ssg82
g1082
sg75
(lp1089
S'path_info'
p1090
asbag68
(g89
g70
NtRp1091
(dp1092
g73
(dp1093
g100
g101
ssg82
g1082
sg75
(lp1094
S':'
asbag68
(g89
g70
NtRp1095
(dp1096
g73
(dp1097
sg82
g1082
sg75
(lp1098
g68
(g69
g70
NtRp1099
(dp1100
g73
(dp1101
g81
I4
ssg82
g1095
sg75
(lp1102
S'/welcome/tournament/show/7'
p1103
asbasbasbag68
(g84
g70
NtRp1104
(dp1105
g73
(dp1106
sg82
g660
sg75
(lp1107
g68
(g89
g70
NtRp1108
(dp1109
g73
(dp1110
g93
g94
ssg82
g1104
sg75
(lp1111
S'query_string'
p1112
asbag68
(g89
g70
NtRp1113
(dp1114
g73
(dp1115
g100
g101
ssg82
g1104
sg75
(lp1116
S':'
asbag68
(g89
g70
NtRp1117
(dp1118
g73
(dp1119
sg82
g1104
sg75
(lp1120
g68
(g69
g70
NtRp1121
(dp1122
g73
(dp1123
g81
I4
ssg82
g1117
sg75
(lp1124
S''
asbasbasbag68
(g84
g70
NtRp1125
(dp1126
g73
(dp1127
sg82
g660
sg75
(lp1128
g68
(g89
g70
NtRp1129
(dp1130
g73
(dp1131
g93
g94
ssg82
g1125
sg75
(lp1132
S'remote_addr'
p1133
asbag68
(g89
g70
NtRp1134
(dp1135
g73
(dp1136
g100
g101
ssg82
g1125
sg75
(lp1137
S':'
asbag68
(g89
g70
NtRp1138
(dp1139
g73
(dp1140
sg82
g1125
sg75
(lp1141
g68
(g69
g70
NtRp1142
(dp1143
g73
(dp1144
g81
I4
ssg82
g1138
sg75
(lp1145
g213
asbasbasbag68
(g84
g70
NtRp1146
(dp1147
g73
(dp1148
sg82
g660
sg75
(lp1149
g68
(g89
g70
NtRp1150
(dp1151
g73
(dp1152
g93
g94
ssg82
g1146
sg75
(lp1153
S'remote_port'
p1154
asbag68
(g89
g70
NtRp1155
(dp1156
g73
(dp1157
g100
g101
ssg82
g1146
sg75
(lp1158
S':'
asbag68
(g89
g70
NtRp1159
(dp1160
g73
(dp1161
sg82
g1146
sg75
(lp1162
g68
(g69
g70
NtRp1163
(dp1164
g73
(dp1165
g81
I4
ssg82
g1159
sg75
(lp1166
S'61659'
p1167
asbasbasbag68
(g84
g70
NtRp1168
(dp1169
g73
(dp1170
sg82
g660
sg75
(lp1171
g68
(g89
g70
NtRp1172
(dp1173
g73
(dp1174
g93
g94
ssg82
g1168
sg75
(lp1175
S'request_method'
p1176
asbag68
(g89
g70
NtRp1177
(dp1178
g73
(dp1179
g100
g101
ssg82
g1168
sg75
(lp1180
S':'
asbag68
(g89
g70
NtRp1181
(dp1182
g73
(dp1183
sg82
g1168
sg75
(lp1184
g68
(g69
g70
NtRp1185
(dp1186
g73
(dp1187
g81
I4
ssg82
g1181
sg75
(lp1188
S'GET'
p1189
asbasbasbag68
(g84
g70
NtRp1190
(dp1191
g73
(dp1192
sg82
g660
sg75
(lp1193
g68
(g89
g70
NtRp1194
(dp1195
g73
(dp1196
g93
g94
ssg82
g1190
sg75
(lp1197
S'script_name'
p1198
asbag68
(g89
g70
NtRp1199
(dp1200
g73
(dp1201
g100
g101
ssg82
g1190
sg75
(lp1202
S':'
asbag68
(g89
g70
NtRp1203
(dp1204
g73
(dp1205
sg82
g1190
sg75
(lp1206
g68
(g69
g70
NtRp1207
(dp1208
g73
(dp1209
g81
I4
ssg82
g1203
sg75
(lp1210
S''
asbasbasbag68
(g84
g70
NtRp1211
(dp1212
g73
(dp1213
sg82
g660
sg75
(lp1214
g68
(g89
g70
NtRp1215
(dp1216
g73
(dp1217
g93
g94
ssg82
g1211
sg75
(lp1218
S'server_name'
p1219
asbag68
(g89
g70
NtRp1220
(dp1221
g73
(dp1222
g100
g101
ssg82
g1211
sg75
(lp1223
S':'
asbag68
(g89
g70
NtRp1224
(dp1225
g73
(dp1226
sg82
g1211
sg75
(lp1227
g68
(g69
g70
NtRp1228
(dp1229
g73
(dp1230
g81
I4
ssg82
g1224
sg75
(lp1231
S'mellinja-PC'
p1232
asbasbasbag68
(g84
g70
NtRp1233
(dp1234
g73
(dp1235
sg82
g660
sg75
(lp1236
g68
(g89
g70
NtRp1237
(dp1238
g73
(dp1239
g93
g94
ssg82
g1233
sg75
(lp1240
S'server_port'
p1241
asbag68
(g89
g70
NtRp1242
(dp1243
g73
(dp1244
g100
g101
ssg82
g1233
sg75
(lp1245
S':'
asbag68
(g89
g70
NtRp1246
(dp1247
g73
(dp1248
sg82
g1233
sg75
(lp1249
g68
(g69
g70
NtRp1250
(dp1251
g73
(dp1252
g81
I4
ssg82
g1246
sg75
(lp1253
S'8000'
p1254
asbasbasbag68
(g84
g70
NtRp1255
(dp1256
g73
(dp1257
sg82
g660
sg75
(lp1258
g68
(g89
g70
NtRp1259
(dp1260
g73
(dp1261
g93
g94
ssg82
g1255
sg75
(lp1262
S'server_protocol'
p1263
asbag68
(g89
g70
NtRp1264
(dp1265
g73
(dp1266
g100
g101
ssg82
g1255
sg75
(lp1267
S':'
asbag68
(g89
g70
NtRp1268
(dp1269
g73
(dp1270
sg82
g1255
sg75
(lp1271
g68
(g69
g70
NtRp1272
(dp1273
g73
(dp1274
g81
I4
ssg82
g1268
sg75
(lp1275
S'HTTP/1.1'
p1276
asbasbasbag68
(g84
g70
NtRp1277
(dp1278
g73
(dp1279
sg82
g660
sg75
(lp1280
g68
(g89
g70
NtRp1281
(dp1282
g73
(dp1283
g93
g94
ssg82
g1277
sg75
(lp1284
S'server_software'
p1285
asbag68
(g89
g70
NtRp1286
(dp1287
g73
(dp1288
g100
g101
ssg82
g1277
sg75
(lp1289
S':'
asbag68
(g89
g70
NtRp1290
(dp1291
g73
(dp1292
sg82
g1277
sg75
(lp1293
g68
(g69
g70
NtRp1294
(dp1295
g73
(dp1296
g81
I4
ssg82
g1290
sg75
(lp1297
S'Rocket 1.2.4'
p1298
asbasbasbag68
(g84
g70
NtRp1299
(dp1300
g73
(dp1301
sg82
g660
sg75
(lp1302
g68
(g89
g70
NtRp1303
(dp1304
g73
(dp1305
g93
g94
ssg82
g1299
sg75
(lp1306
S'web2py_crontype'
p1307
asbag68
(g89
g70
NtRp1308
(dp1309
g73
(dp1310
g100
g101
ssg82
g1299
sg75
(lp1311
S':'
asbag68
(g89
g70
NtRp1312
(dp1313
g73
(dp1314
sg82
g1299
sg75
(lp1315
g68
(g69
g70
NtRp1316
(dp1317
g73
(dp1318
g81
I4
ssg82
g1312
sg75
(lp1319
S'hard'
p1320
asbasbasbag68
(g84
g70
NtRp1321
(dp1322
g73
(dp1323
sg82
g660
sg75
(lp1324
g68
(g89
g70
NtRp1325
(dp1326
g73
(dp1327
g93
g94
ssg82
g1321
sg75
(lp1328
S'web2py_path'
p1329
asbag68
(g89
g70
NtRp1330
(dp1331
g73
(dp1332
g100
g101
ssg82
g1321
sg75
(lp1333
S':'
asbag68
(g89
g70
NtRp1334
(dp1335
g73
(dp1336
sg82
g1321
sg75
(lp1337
g68
(g69
g70
NtRp1338
(dp1339
g73
(dp1340
g81
I4
ssg82
g1334
sg75
(lp1341
g707
asbasbasbag68
(g84
g70
NtRp1342
(dp1343
g73
(dp1344
sg82
g660
sg75
(lp1345
g68
(g89
g70
NtRp1346
(dp1347
g73
(dp1348
g93
g94
ssg82
g1342
sg75
(lp1349
S'web2py_version'
p1350
asbag68
(g89
g70
NtRp1351
(dp1352
g73
(dp1353
g100
g101
ssg82
g1342
sg75
(lp1354
S':'
asbag68
(g89
g70
NtRp1355
(dp1356
g73
(dp1357
sg82
g1342
sg75
(lp1358
g68
(g69
g70
NtRp1359
(dp1360
g73
(dp1361
g81
I4
ssg82
g1355
sg75
(lp1362
g68
(g77
g70
NtRp1363
(dp1364
g73
(dp1365
g81
I3
ssg82
Nsg75
(lp1366
g68
(g84
g70
NtRp1367
(dp1368
g73
(dp1369
sg82
g1363
sg75
(lp1370
g68
(g89
g70
NtRp1371
(dp1372
g73
(dp1373
sg82
g1367
sg75
(lp1374
g68
(g69
g70
NtRp1375
(dp1376
g73
(dp1377
g81
I3
ssg82
g1371
sg75
(lp1378
S'1'
asbasbasbag68
(g84
g70
NtRp1379
(dp1380
g73
(dp1381
sg82
g1363
sg75
(lp1382
g68
(g89
g70
NtRp1383
(dp1384
g73
(dp1385
sg82
g1379
sg75
(lp1386
g68
(g69
g70
NtRp1387
(dp1388
g73
(dp1389
g81
I3
ssg82
g1383
sg75
(lp1390
S'99'
p1391
asbasbasbag68
(g84
g70
NtRp1392
(dp1393
g73
(dp1394
sg82
g1363
sg75
(lp1395
g68
(g89
g70
NtRp1396
(dp1397
g73
(dp1398
sg82
g1392
sg75
(lp1399
g68
(g69
g70
NtRp1400
(dp1401
g73
(dp1402
g81
I3
ssg82
g1396
sg75
(lp1403
S'4'
asbasbasbag68
(g84
g70
NtRp1404
(dp1405
g73
(dp1406
sg82
g1363
sg75
(lp1407
g68
(g89
g70
NtRp1408
(dp1409
g73
(dp1410
sg82
g1404
sg75
(lp1411
g68
(g69
g70
NtRp1412
(dp1413
g73
(dp1414
g81
I3
ssg82
g1408
sg75
(lp1415
S'datetime.datetime(2011, 12, 14, 14, 46, 14)'
p1416
asbasbasbag68
(g84
g70
NtRp1417
(dp1418
g73
(dp1419
sg82
g1363
sg75
(lp1420
g68
(g89
g70
NtRp1421
(dp1422
g73
(dp1423
sg82
g1417
sg75
(lp1424
g68
(g69
g70
NtRp1425
(dp1426
g73
(dp1427
g81
I3
ssg82
g1421
sg75
(lp1428
S'stable'
p1429
asbasbasbasbasbasbasbag68
(g84
g70
NtRp1430
(dp1431
g73
(dp1432
sg82
g660
sg75
(lp1433
g68
(g89
g70
NtRp1434
(dp1435
g73
(dp1436
g93
g94
ssg82
g1430
sg75
(lp1437
S'wsgi_errors'
p1438
asbag68
(g89
g70
NtRp1439
(dp1440
g73
(dp1441
g100
g101
ssg82
g1430
sg75
(lp1442
S':'
asbag68
(g89
g70
NtRp1443
(dp1444
g73
(dp1445
sg82
g1430
sg75
(lp1446
g68
(g69
g70
NtRp1447
(dp1448
g73
(dp1449
g81
I4
ssg82
g1443
sg75
(lp1450
S"<open file '<stderr>', mode 'w' at 0x0000000001E461E0>"
p1451
asbasbasbag68
(g84
g70
NtRp1452
(dp1453
g73
(dp1454
sg82
g660
sg75
(lp1455
g68
(g89
g70
NtRp1456
(dp1457
g73
(dp1458
g93
g94
ssg82
g1452
sg75
(lp1459
S'wsgi_file_wrapper'
p1460
asbag68
(g89
g70
NtRp1461
(dp1462
g73
(dp1463
g100
g101
ssg82
g1452
sg75
(lp1464
S':'
asbag68
(g89
g70
NtRp1465
(dp1466
g73
(dp1467
sg82
g1452
sg75
(lp1468
g68
(g69
g70
NtRp1469
(dp1470
g73
(dp1471
g81
I4
ssg82
g1465
sg75
(lp1472
S'<class wsgiref.util.FileWrapper at 0x00000000037AD828>'
p1473
asbasbasbag68
(g84
g70
NtRp1474
(dp1475
g73
(dp1476
sg82
g660
sg75
(lp1477
g68
(g89
g70
NtRp1478
(dp1479
g73
(dp1480
g93
g94
ssg82
g1474
sg75
(lp1481
S'wsgi_input'
p1482
asbag68
(g89
g70
NtRp1483
(dp1484
g73
(dp1485
g100
g101
ssg82
g1474
sg75
(lp1486
S':'
asbag68
(g89
g70
NtRp1487
(dp1488
g73
(dp1489
sg82
g1474
sg75
(lp1490
g68
(g69
g70
NtRp1491
(dp1492
g73
(dp1493
g81
I4
ssg82
g1487
sg75
(lp1494
S'<socket._fileobject object at 0x00000000038DA0C0>'
p1495
asbasbasbag68
(g84
g70
NtRp1496
(dp1497
g73
(dp1498
sg82
g660
sg75
(lp1499
g68
(g89
g70
NtRp1500
(dp1501
g73
(dp1502
g93
g94
ssg82
g1496
sg75
(lp1503
S'wsgi_multiprocess'
p1504
asbag68
(g89
g70
NtRp1505
(dp1506
g73
(dp1507
g100
g101
ssg82
g1496
sg75
(lp1508
S':'
asbag68
(g89
g70
NtRp1509
(dp1510
g73
(dp1511
sg82
g1496
sg75
(lp1512
g68
(g69
g70
NtRp1513
(dp1514
g73
(dp1515
g81
I4
ssg82
g1509
sg75
(lp1516
g111
asbasbasbag68
(g84
g70
NtRp1517
(dp1518
g73
(dp1519
sg82
g660
sg75
(lp1520
g68
(g89
g70
NtRp1521
(dp1522
g73
(dp1523
g93
g94
ssg82
g1517
sg75
(lp1524
S'wsgi_multithread'
p1525
asbag68
(g89
g70
NtRp1526
(dp1527
g73
(dp1528
g100
g101
ssg82
g1517
sg75
(lp1529
S':'
asbag68
(g89
g70
NtRp1530
(dp1531
g73
(dp1532
sg82
g1517
sg75
(lp1533
g68
(g69
g70
NtRp1534
(dp1535
g73
(dp1536
g81
I4
ssg82
g1530
sg75
(lp1537
S'True'
p1538
asbasbasbag68
(g84
g70
NtRp1539
(dp1540
g73
(dp1541
sg82
g660
sg75
(lp1542
g68
(g89
g70
NtRp1543
(dp1544
g73
(dp1545
g93
g94
ssg82
g1539
sg75
(lp1546
S'wsgi_run_once'
p1547
asbag68
(g89
g70
NtRp1548
(dp1549
g73
(dp1550
g100
g101
ssg82
g1539
sg75
(lp1551
S':'
asbag68
(g89
g70
NtRp1552
(dp1553
g73
(dp1554
sg82
g1539
sg75
(lp1555
g68
(g69
g70
NtRp1556
(dp1557
g73
(dp1558
g81
I4
ssg82
g1552
sg75
(lp1559
g111
asbasbasbag68
(g84
g70
NtRp1560
(dp1561
g73
(dp1562
sg82
g660
sg75
(lp1563
g68
(g89
g70
NtRp1564
(dp1565
g73
(dp1566
g93
g94
ssg82
g1560
sg75
(lp1567
S'wsgi_url_scheme'
p1568
asbag68
(g89
g70
NtRp1569
(dp1570
g73
(dp1571
g100
g101
ssg82
g1560
sg75
(lp1572
S':'
asbag68
(g89
g70
NtRp1573
(dp1574
g73
(dp1575
sg82
g1560
sg75
(lp1576
g68
(g69
g70
NtRp1577
(dp1578
g73
(dp1579
g81
I4
ssg82
g1573
sg75
(lp1580
S'http'
p1581
asbasbasbag68
(g84
g70
NtRp1582
(dp1583
g73
(dp1584
sg82
g660
sg75
(lp1585
g68
(g89
g70
NtRp1586
(dp1587
g73
(dp1588
g93
g94
ssg82
g1582
sg75
(lp1589
S'wsgi_version'
p1590
asbag68
(g89
g70
NtRp1591
(dp1592
g73
(dp1593
g100
g101
ssg82
g1582
sg75
(lp1594
S':'
asbag68
(g89
g70
NtRp1595
(dp1596
g73
(dp1597
sg82
g1582
sg75
(lp1598
g68
(g69
g70
NtRp1599
(dp1600
g73
(dp1601
g81
I4
ssg82
g1595
sg75
(lp1602
g68
(g77
g70
NtRp1603
(dp1604
g73
(dp1605
g81
I3
ssg82
Nsg75
(lp1606
g68
(g84
g70
NtRp1607
(dp1608
g73
(dp1609
sg82
g1603
sg75
(lp1610
g68
(g89
g70
NtRp1611
(dp1612
g73
(dp1613
sg82
g1607
sg75
(lp1614
g68
(g69
g70
NtRp1615
(dp1616
g73
(dp1617
g81
I3
ssg82
g1611
sg75
(lp1618
S'1'
asbasbasbag68
(g84
g70
NtRp1619
(dp1620
g73
(dp1621
sg82
g1603
sg75
(lp1622
g68
(g89
g70
NtRp1623
(dp1624
g73
(dp1625
sg82
g1619
sg75
(lp1626
g68
(g69
g70
NtRp1627
(dp1628
g73
(dp1629
g81
I3
ssg82
g1623
sg75
(lp1630
S'0'
asbasbasbasbasbasbasbasbasbasbasbag68
(g84
g70
NtRp1631
(dp1632
g73
(dp1633
sg82
g78
sg75
(lp1634
g68
(g89
g70
NtRp1635
(dp1636
g73
(dp1637
g93
g94
ssg82
g1631
sg75
(lp1638
S'extension'
p1639
asbag68
(g89
g70
NtRp1640
(dp1641
g73
(dp1642
g100
g101
ssg82
g1631
sg75
(lp1643
S':'
asbag68
(g89
g70
NtRp1644
(dp1645
g73
(dp1646
sg82
g1631
sg75
(lp1647
g68
(g69
g70
NtRp1648
(dp1649
g73
(dp1650
g81
I5
ssg82
g1644
sg75
(lp1651
S'html'
p1652
asbasbasbag68
(g84
g70
NtRp1653
(dp1654
g73
(dp1655
sg82
g78
sg75
(lp1656
g68
(g89
g70
NtRp1657
(dp1658
g73
(dp1659
g93
g94
ssg82
g1653
sg75
(lp1660
S'folder'
p1661
asbag68
(g89
g70
NtRp1662
(dp1663
g73
(dp1664
g100
g101
ssg82
g1653
sg75
(lp1665
S':'
asbag68
(g89
g70
NtRp1666
(dp1667
g73
(dp1668
sg82
g1653
sg75
(lp1669
g68
(g69
g70
NtRp1670
(dp1671
g73
(dp1672
g81
I5
ssg82
g1666
sg75
(lp1673
S'C:\\Users\\mellinja\\Documents\\SC2Tracker\\SC2TourneyTracker\\web2py\\applications\\welcome\\'
p1674
asbasbasbag68
(g84
g70
NtRp1675
(dp1676
g73
(dp1677
sg82
g78
sg75
(lp1678
g68
(g89
g70
NtRp1679
(dp1680
g73
(dp1681
g93
g94
ssg82
g1675
sg75
(lp1682
S'function'
p1683
asbag68
(g89
g70
NtRp1684
(dp1685
g73
(dp1686
g100
g101
ssg82
g1675
sg75
(lp1687
S':'
asbag68
(g89
g70
NtRp1688
(dp1689
g73
(dp1690
sg82
g1675
sg75
(lp1691
g68
(g69
g70
NtRp1692
(dp1693
g73
(dp1694
g81
I5
ssg82
g1688
sg75
(lp1695
S'show'
p1696
asbasbasbag68
(g84
g70
NtRp1697
(dp1698
g73
(dp1699
sg82
g78
sg75
(lp1700
g68
(g89
g70
NtRp1701
(dp1702
g73
(dp1703
g93
g94
ssg82
g1697
sg75
(lp1704
S'get_vars'
p1705
asbag68
(g89
g70
NtRp1706
(dp1707
g73
(dp1708
g100
g101
ssg82
g1697
sg75
(lp1709
S':'
asbag68
(g89
g70
NtRp1710
(dp1711
g73
(dp1712
sg82
g1697
sg75
(lp1713
g68
(g69
g70
NtRp1714
(dp1715
g73
(dp1716
g81
I5
ssg82
g1710
sg75
(lp1717
g68
(g77
g70
NtRp1718
(dp1719
g73
(dp1720
g81
I4
ssg82
Nsg75
(lp1721
sbasbasbasbag68
(g84
g70
NtRp1722
(dp1723
g73
(dp1724
sg82
g78
sg75
(lp1725
g68
(g89
g70
NtRp1726
(dp1727
g73
(dp1728
g93
g94
ssg82
g1722
sg75
(lp1729
S'global_settings'
p1730
asbag68
(g89
g70
NtRp1731
(dp1732
g73
(dp1733
g100
g101
ssg82
g1722
sg75
(lp1734
S':'
asbag68
(g89
g70
NtRp1735
(dp1736
g73
(dp1737
sg82
g1722
sg75
(lp1738
g68
(g69
g70
NtRp1739
(dp1740
g73
(dp1741
g81
I5
ssg82
g1735
sg75
(lp1742
g68
(g77
g70
NtRp1743
(dp1744
g73
(dp1745
g81
I4
ssg82
Nsg75
(lp1746
g68
(g84
g70
NtRp1747
(dp1748
g73
(dp1749
sg82
g1743
sg75
(lp1750
g68
(g89
g70
NtRp1751
(dp1752
g73
(dp1753
g93
g94
ssg82
g1747
sg75
(lp1754
g672
asbag68
(g89
g70
NtRp1755
(dp1756
g73
(dp1757
g100
g101
ssg82
g1747
sg75
(lp1758
S':'
asbag68
(g89
g70
NtRp1759
(dp1760
g73
(dp1761
sg82
g1747
sg75
(lp1762
g68
(g69
g70
NtRp1763
(dp1764
g73
(dp1765
g81
I4
ssg82
g1759
sg75
(lp1766
S"set(['C:\\\\Users\\\\mellinja\\\\Documents\\\\SC2Tracker\\\\SC2TourneyTracker\\\\web2py\\\\applications\\\\welcome\\\\', 'C:\\\\Users\\\\mellinja\\\\Documents\\\\SC2Tracker\\\\SC2TourneyTracker\\\\web2py\\\\applications\\\\admin\\\\'])"
p1767
asbasbasbag68
(g84
g70
NtRp1768
(dp1769
g73
(dp1770
sg82
g1743
sg75
(lp1771
g68
(g89
g70
NtRp1772
(dp1773
g73
(dp1774
g93
g94
ssg82
g1768
sg75
(lp1775
g694
asbag68
(g89
g70
NtRp1776
(dp1777
g73
(dp1778
g100
g101
ssg82
g1768
sg75
(lp1779
S':'
asbag68
(g89
g70
NtRp1780
(dp1781
g73
(dp1782
sg82
g1768
sg75
(lp1783
g68
(g69
g70
NtRp1784
(dp1785
g73
(dp1786
g81
I4
ssg82
g1780
sg75
(lp1787
g707
asbasbasbag68
(g84
g70
NtRp1788
(dp1789
g73
(dp1790
sg82
g1743
sg75
(lp1791
g68
(g89
g70
NtRp1792
(dp1793
g73
(dp1794
g93
g94
ssg82
g1788
sg75
(lp1795
g716
asbag68
(g89
g70
NtRp1796
(dp1797
g73
(dp1798
g100
g101
ssg82
g1788
sg75
(lp1799
S':'
asbag68
(g89
g70
NtRp1800
(dp1801
g73
(dp1802
sg82
g1788
sg75
(lp1803
g68
(g69
g70
NtRp1804
(dp1805
g73
(dp1806
g81
I4
ssg82
g1800
sg75
(lp1807
g68
(g77
g70
NtRp1808
(dp1809
g73
(dp1810
g81
I3
ssg82
Nsg75
(lp1811
sbasbasbasbag68
(g84
g70
NtRp1812
(dp1813
g73
(dp1814
sg82
g1743
sg75
(lp1815
g68
(g89
g70
NtRp1816
(dp1817
g73
(dp1818
g93
g94
ssg82
g1812
sg75
(lp1819
g741
asbag68
(g89
g70
NtRp1820
(dp1821
g73
(dp1822
g100
g101
ssg82
g1812
sg75
(lp1823
S':'
asbag68
(g89
g70
NtRp1824
(dp1825
g73
(dp1826
sg82
g1812
sg75
(lp1827
g68
(g69
g70
NtRp1828
(dp1829
g73
(dp1830
g81
I4
ssg82
g1824
sg75
(lp1831
S"<Values at 0x38bd5c8: {'verbose': False, 'ip': '127.0.0.1', 'shutdown_timeout': 5, 'taskbar': False, 'nocron': False, 'pid_filename': 'httpserver.pid', 'maxthreads': None, 'softcron': False, 'server_name': 'mellinja-PC', 'bpython': False, 'nogui': False, 'port': 8000, 'extcron': False, 'debuglevel': 30, 'test': None, 'folder': 'C:\\\\Users\\\\mellinja\\\\Documents\\\\SC2Tracker\\\\SC2TourneyTracker\\\\web2py', 'config': '', 'import_models': False, 'winservice': '', 'shell': None, 'run': '', 'log_filename': 'httpserver.log', 'args': [''], 'socket_timeout': 1, 'ssl_ca_certificate': None, 'scheduler': None, 'profiler_filename': None, 'ssl_private_key': '', 'password': '<ask>', 'request_queue_size': 5, 'ssl_certificate': '', 'cronjob': False, 'numthreads': None, 'quiet': False, 'interfaces': None, 'minthreads': None, 'timeout': 10, 'plain': False, 'nobanner': False}>"
p1832
asbasbasbag68
(g84
g70
NtRp1833
(dp1834
g73
(dp1835
sg82
g1743
sg75
(lp1836
g68
(g89
g70
NtRp1837
(dp1838
g73
(dp1839
g93
g94
ssg82
g1833
sg75
(lp1840
g763
asbag68
(g89
g70
NtRp1841
(dp1842
g73
(dp1843
g100
g101
ssg82
g1833
sg75
(lp1844
S':'
asbag68
(g89
g70
NtRp1845
(dp1846
g73
(dp1847
sg82
g1833
sg75
(lp1848
g68
(g69
g70
NtRp1849
(dp1850
g73
(dp1851
g81
I4
ssg82
g1845
sg75
(lp1852
S'set([])'
p1853
asbasbasbag68
(g84
g70
NtRp1854
(dp1855
g73
(dp1856
sg82
g1743
sg75
(lp1857
g68
(g89
g70
NtRp1858
(dp1859
g73
(dp1860
g93
g94
ssg82
g1854
sg75
(lp1861
g785
asbag68
(g89
g70
NtRp1862
(dp1863
g73
(dp1864
g100
g101
ssg82
g1854
sg75
(lp1865
S':'
asbag68
(g89
g70
NtRp1866
(dp1867
g73
(dp1868
sg82
g1854
sg75
(lp1869
g68
(g69
g70
NtRp1870
(dp1871
g73
(dp1872
g81
I4
ssg82
g1866
sg75
(lp1873
g111
asbasbasbag68
(g84
g70
NtRp1874
(dp1875
g73
(dp1876
sg82
g1743
sg75
(lp1877
g68
(g89
g70
NtRp1878
(dp1879
g73
(dp1880
g93
g94
ssg82
g1874
sg75
(lp1881
g806
asbag68
(g89
g70
NtRp1882
(dp1883
g73
(dp1884
g100
g101
ssg82
g1874
sg75
(lp1885
S':'
asbag68
(g89
g70
NtRp1886
(dp1887
g73
(dp1888
sg82
g1874
sg75
(lp1889
g68
(g69
g70
NtRp1890
(dp1891
g73
(dp1892
g81
I4
ssg82
g1886
sg75
(lp1893
g819
asbasbasbag68
(g84
g70
NtRp1894
(dp1895
g73
(dp1896
sg82
g1743
sg75
(lp1897
g68
(g89
g70
NtRp1898
(dp1899
g73
(dp1900
g93
g94
ssg82
g1894
sg75
(lp1901
g1048
asbag68
(g89
g70
NtRp1902
(dp1903
g73
(dp1904
g100
g101
ssg82
g1894
sg75
(lp1905
S':'
asbag68
(g89
g70
NtRp1906
(dp1907
g73
(dp1908
sg82
g1894
sg75
(lp1909
g68
(g69
g70
NtRp1910
(dp1911
g73
(dp1912
g81
I4
ssg82
g1906
sg75
(lp1913
g111
asbasbasbag68
(g84
g70
NtRp1914
(dp1915
g73
(dp1916
sg82
g1743
sg75
(lp1917
g68
(g89
g70
NtRp1918
(dp1919
g73
(dp1920
g93
g94
ssg82
g1914
sg75
(lp1921
g1069
asbag68
(g89
g70
NtRp1922
(dp1923
g73
(dp1924
g100
g101
ssg82
g1914
sg75
(lp1925
S':'
asbag68
(g89
g70
NtRp1926
(dp1927
g73
(dp1928
sg82
g1914
sg75
(lp1929
g68
(g69
g70
NtRp1930
(dp1931
g73
(dp1932
g81
I4
ssg82
g1926
sg75
(lp1933
g111
asbasbasbag68
(g84
g70
NtRp1934
(dp1935
g73
(dp1936
sg82
g1743
sg75
(lp1937
g68
(g89
g70
NtRp1938
(dp1939
g73
(dp1940
g93
g94
ssg82
g1934
sg75
(lp1941
g1307
asbag68
(g89
g70
NtRp1942
(dp1943
g73
(dp1944
g100
g101
ssg82
g1934
sg75
(lp1945
S':'
asbag68
(g89
g70
NtRp1946
(dp1947
g73
(dp1948
sg82
g1934
sg75
(lp1949
g68
(g69
g70
NtRp1950
(dp1951
g73
(dp1952
g81
I4
ssg82
g1946
sg75
(lp1953
g1320
asbasbasbag68
(g84
g70
NtRp1954
(dp1955
g73
(dp1956
sg82
g1743
sg75
(lp1957
g68
(g89
g70
NtRp1958
(dp1959
g73
(dp1960
g93
g94
ssg82
g1954
sg75
(lp1961
g1350
asbag68
(g89
g70
NtRp1962
(dp1963
g73
(dp1964
g100
g101
ssg82
g1954
sg75
(lp1965
S':'
asbag68
(g89
g70
NtRp1966
(dp1967
g73
(dp1968
sg82
g1954
sg75
(lp1969
g68
(g69
g70
NtRp1970
(dp1971
g73
(dp1972
g81
I4
ssg82
g1966
sg75
(lp1973
g68
(g77
g70
NtRp1974
(dp1975
g73
(dp1976
g81
I3
ssg82
Nsg75
(lp1977
g68
(g84
g70
NtRp1978
(dp1979
g73
(dp1980
sg82
g1974
sg75
(lp1981
g68
(g89
g70
NtRp1982
(dp1983
g73
(dp1984
sg82
g1978
sg75
(lp1985
g68
(g69
g70
NtRp1986
(dp1987
g73
(dp1988
g81
I3
ssg82
g1982
sg75
(lp1989
S'1'
asbasbasbag68
(g84
g70
NtRp1990
(dp1991
g73
(dp1992
sg82
g1974
sg75
(lp1993
g68
(g89
g70
NtRp1994
(dp1995
g73
(dp1996
sg82
g1990
sg75
(lp1997
g68
(g69
g70
NtRp1998
(dp1999
g73
(dp2000
g81
I3
ssg82
g1994
sg75
(lp2001
S'99'
p2002
asbasbasbag68
(g84
g70
NtRp2003
(dp2004
g73
(dp2005
sg82
g1974
sg75
(lp2006
g68
(g89
g70
NtRp2007
(dp2008
g73
(dp2009
sg82
g2003
sg75
(lp2010
g68
(g69
g70
NtRp2011
(dp2012
g73
(dp2013
g81
I3
ssg82
g2007
sg75
(lp2014
S'4'
asbasbasbag68
(g84
g70
NtRp2015
(dp2016
g73
(dp2017
sg82
g1974
sg75
(lp2018
g68
(g89
g70
NtRp2019
(dp2020
g73
(dp2021
sg82
g2015
sg75
(lp2022
g68
(g69
g70
NtRp2023
(dp2024
g73
(dp2025
g81
I3
ssg82
g2019
sg75
(lp2026
S'datetime.datetime(2011, 12, 14, 14, 46, 14)'
p2027
asbasbasbag68
(g84
g70
NtRp2028
(dp2029
g73
(dp2030
sg82
g1974
sg75
(lp2031
g68
(g89
g70
NtRp2032
(dp2033
g73
(dp2034
sg82
g2028
sg75
(lp2035
g68
(g69
g70
NtRp2036
(dp2037
g73
(dp2038
g81
I3
ssg82
g2032
sg75
(lp2039
g1429
asbasbasbasbasbasbasbasbasbasbasbag68
(g84
g70
NtRp2040
(dp2041
g73
(dp2042
sg82
g78
sg75
(lp2043
g68
(g89
g70
NtRp2044
(dp2045
g73
(dp2046
g93
g94
ssg82
g2040
sg75
(lp2047
S'is_https'
p2048
asbag68
(g89
g70
NtRp2049
(dp2050
g73
(dp2051
g100
g101
ssg82
g2040
sg75
(lp2052
S':'
asbag68
(g89
g70
NtRp2053
(dp2054
g73
(dp2055
sg82
g2040
sg75
(lp2056
g68
(g69
g70
NtRp2057
(dp2058
g73
(dp2059
g81
I5
ssg82
g2053
sg75
(lp2060
g111
asbasbasbag68
(g84
g70
NtRp2061
(dp2062
g73
(dp2063
sg82
g78
sg75
(lp2064
g68
(g89
g70
NtRp2065
(dp2066
g73
(dp2067
g93
g94
ssg82
g2061
sg75
(lp2068
S'is_local'
p2069
asbag68
(g89
g70
NtRp2070
(dp2071
g73
(dp2072
g100
g101
ssg82
g2061
sg75
(lp2073
S':'
asbag68
(g89
g70
NtRp2074
(dp2075
g73
(dp2076
sg82
g2061
sg75
(lp2077
g68
(g69
g70
NtRp2078
(dp2079
g73
(dp2080
g81
I5
ssg82
g2074
sg75
(lp2081
g1538
asbasbasbag68
(g84
g70
NtRp2082
(dp2083
g73
(dp2084
sg82
g78
sg75
(lp2085
g68
(g89
g70
NtRp2086
(dp2087
g73
(dp2088
g93
g94
ssg82
g2082
sg75
(lp2089
S'is_restful'
p2090
asbag68
(g89
g70
NtRp2091
(dp2092
g73
(dp2093
g100
g101
ssg82
g2082
sg75
(lp2094
S':'
asbag68
(g89
g70
NtRp2095
(dp2096
g73
(dp2097
sg82
g2082
sg75
(lp2098
g68
(g69
g70
NtRp2099
(dp2100
g73
(dp2101
g81
I5
ssg82
g2095
sg75
(lp2102
g111
asbasbasbag68
(g84
g70
NtRp2103
(dp2104
g73
(dp2105
sg82
g78
sg75
(lp2106
g68
(g89
g70
NtRp2107
(dp2108
g73
(dp2109
g93
g94
ssg82
g2103
sg75
(lp2110
S'now'
p2111
asbag68
(g89
g70
NtRp2112
(dp2113
g73
(dp2114
g100
g101
ssg82
g2103
sg75
(lp2115
S':'
asbag68
(g89
g70
NtRp2116
(dp2117
g73
(dp2118
sg82
g2103
sg75
(lp2119
g68
(g69
g70
NtRp2120
(dp2121
g73
(dp2122
g81
I5
ssg82
g2116
sg75
(lp2123
S'datetime.datetime(2012, 2, 7, 22, 45, 47, 398000)'
p2124
asbasbasbag68
(g84
g70
NtRp2125
(dp2126
g73
(dp2127
sg82
g78
sg75
(lp2128
g68
(g89
g70
NtRp2129
(dp2130
g73
(dp2131
g93
g94
ssg82
g2125
sg75
(lp2132
S'post_vars'
p2133
asbag68
(g89
g70
NtRp2134
(dp2135
g73
(dp2136
g100
g101
ssg82
g2125
sg75
(lp2137
S':'
asbag68
(g89
g70
NtRp2138
(dp2139
g73
(dp2140
sg82
g2125
sg75
(lp2141
g68
(g69
g70
NtRp2142
(dp2143
g73
(dp2144
g81
I5
ssg82
g2138
sg75
(lp2145
g68
(g77
g70
NtRp2146
(dp2147
g73
(dp2148
g81
I4
ssg82
Nsg75
(lp2149
sbasbasbasbag68
(g84
g70
NtRp2150
(dp2151
g73
(dp2152
sg82
g78
sg75
(lp2153
g68
(g89
g70
NtRp2154
(dp2155
g73
(dp2156
g93
g94
ssg82
g2150
sg75
(lp2157
S'raw_args'
p2158
asbag68
(g89
g70
NtRp2159
(dp2160
g73
(dp2161
g100
g101
ssg82
g2150
sg75
(lp2162
S':'
asbag68
(g89
g70
NtRp2163
(dp2164
g73
(dp2165
sg82
g2150
sg75
(lp2166
g68
(g69
g70
NtRp2167
(dp2168
g73
(dp2169
g81
I5
ssg82
g2163
sg75
(lp2170
S'7'
asbasbasbag68
(g84
g70
NtRp2171
(dp2172
g73
(dp2173
sg82
g78
sg75
(lp2174
g68
(g89
g70
NtRp2175
(dp2176
g73
(dp2177
g93
g94
ssg82
g2171
sg75
(lp2178
S'url'
p2179
asbag68
(g89
g70
NtRp2180
(dp2181
g73
(dp2182
g100
g101
ssg82
g2171
sg75
(lp2183
S':'
asbag68
(g89
g70
NtRp2184
(dp2185
g73
(dp2186
sg82
g2171
sg75
(lp2187
g68
(g69
g70
NtRp2188
(dp2189
g73
(dp2190
g81
I5
ssg82
g2184
sg75
(lp2191
S'/welcome/tournament/show/7'
p2192
asbasbasbag68
(g84
g70
NtRp2193
(dp2194
g73
(dp2195
sg82
g78
sg75
(lp2196
g68
(g89
g70
NtRp2197
(dp2198
g73
(dp2199
g93
g94
ssg82
g2193
sg75
(lp2200
S'utcnow'
p2201
asbag68
(g89
g70
NtRp2202
(dp2203
g73
(dp2204
g100
g101
ssg82
g2193
sg75
(lp2205
S':'
asbag68
(g89
g70
NtRp2206
(dp2207
g73
(dp2208
sg82
g2193
sg75
(lp2209
g68
(g69
g70
NtRp2210
(dp2211
g73
(dp2212
g81
I5
ssg82
g2206
sg75
(lp2213
S'datetime.datetime(2012, 2, 8, 3, 45, 47, 398000)'
p2214
asbasbasbag68
(g84
g70
NtRp2215
(dp2216
g73
(dp2217
sg82
g78
sg75
(lp2218
g68
(g89
g70
NtRp2219
(dp2220
g73
(dp2221
g93
g94
ssg82
g2215
sg75
(lp2222
S'uuid'
p2223
asbag68
(g89
g70
NtRp2224
(dp2225
g73
(dp2226
g100
g101
ssg82
g2215
sg75
(lp2227
S':'
asbag68
(g89
g70
NtRp2228
(dp2229
g73
(dp2230
sg82
g2215
sg75
(lp2231
g68
(g69
g70
NtRp2232
(dp2233
g73
(dp2234
g81
I5
ssg82
g2228
sg75
(lp2235
S'welcome/127.0.0.1.2012-02-07.22-45-47.a8523262-d404-4ae2-b8a7-80b34b89fdf2'
p2236
asbasbasbag68
(g84
g70
NtRp2237
(dp2238
g73
(dp2239
sg82
g78
sg75
(lp2240
g68
(g89
g70
NtRp2241
(dp2242
g73
(dp2243
g93
g94
ssg82
g2237
sg75
(lp2244
S'vars'
p2245
asbag68
(g89
g70
NtRp2246
(dp2247
g73
(dp2248
g100
g101
ssg82
g2237
sg75
(lp2249
S':'
asbag68
(g89
g70
NtRp2250
(dp2251
g73
(dp2252
sg82
g2237
sg75
(lp2253
g68
(g69
g70
NtRp2254
(dp2255
g73
(dp2256
g81
I5
ssg82
g2250
sg75
(lp2257
g68
(g77
g70
NtRp2258
(dp2259
g73
(dp2260
g81
I4
ssg82
Nsg75
(lp2261
sbasbasbasbag68
(g84
g70
NtRp2262
(dp2263
g73
(dp2264
sg82
g78
sg75
(lp2265
g68
(g89
g70
NtRp2266
(dp2267
g73
(dp2268
g93
g94
ssg82
g2262
sg75
(lp2269
S'wsgi'
p2270
asbag68
(g89
g70
NtRp2271
(dp2272
g73
(dp2273
g100
g101
ssg82
g2262
sg75
(lp2274
S':'
asbag68
(g89
g70
NtRp2275
(dp2276
g73
(dp2277
sg82
g2262
sg75
(lp2278
g68
(g69
g70
NtRp2279
(dp2280
g73
(dp2281
g81
I5
ssg82
g2275
sg75
(lp2282
g68
(g77
g70
NtRp2283
(dp2284
g73
(dp2285
g81
I4
ssg82
Nsg75
(lp2286
g68
(g84
g70
NtRp2287
(dp2288
g73
(dp2289
sg82
g2283
sg75
(lp2290
g68
(g89
g70
NtRp2291
(dp2292
g73
(dp2293
g93
g94
ssg82
g2287
sg75
(lp2294
S'environ'
p2295
asbag68
(g89
g70
NtRp2296
(dp2297
g73
(dp2298
g100
g101
ssg82
g2287
sg75
(lp2299
S':'
asbag68
(g89
g70
NtRp2300
(dp2301
g73
(dp2302
sg82
g2287
sg75
(lp2303
g68
(g69
g70
NtRp2304
(dp2305
g73
(dp2306
g81
I4
ssg82
g2300
sg75
(lp2307
g68
(g77
g70
NtRp2308
(dp2309
g73
(dp2310
g81
I3
ssg82
Nsg75
(lp2311
g68
(g84
g70
NtRp2312
(dp2313
g73
(dp2314
sg82
g2308
sg75
(lp2315
g68
(g89
g70
NtRp2316
(dp2317
g73
(dp2318
g93
g94
ssg82
g2312
sg75
(lp2319
S'HTTP_ACCEPT'
p2320
asbag68
(g89
g70
NtRp2321
(dp2322
g73
(dp2323
g100
g101
ssg82
g2312
sg75
(lp2324
S':'
asbag68
(g89
g70
NtRp2325
(dp2326
g73
(dp2327
sg82
g2312
sg75
(lp2328
g68
(g69
g70
NtRp2329
(dp2330
g73
(dp2331
g81
I3
ssg82
g2325
sg75
(lp2332
g841
asbasbasbag68
(g84
g70
NtRp2333
(dp2334
g73
(dp2335
sg82
g2308
sg75
(lp2336
g68
(g89
g70
NtRp2337
(dp2338
g73
(dp2339
g93
g94
ssg82
g2333
sg75
(lp2340
S'HTTP_ACCEPT_CHARSET'
p2341
asbag68
(g89
g70
NtRp2342
(dp2343
g73
(dp2344
g100
g101
ssg82
g2333
sg75
(lp2345
S':'
asbag68
(g89
g70
NtRp2346
(dp2347
g73
(dp2348
sg82
g2333
sg75
(lp2349
g68
(g69
g70
NtRp2350
(dp2351
g73
(dp2352
g81
I3
ssg82
g2346
sg75
(lp2353
g863
asbasbasbag68
(g84
g70
NtRp2354
(dp2355
g73
(dp2356
sg82
g2308
sg75
(lp2357
g68
(g89
g70
NtRp2358
(dp2359
g73
(dp2360
g93
g94
ssg82
g2354
sg75
(lp2361
S'HTTP_ACCEPT_ENCODING'
p2362
asbag68
(g89
g70
NtRp2363
(dp2364
g73
(dp2365
g100
g101
ssg82
g2354
sg75
(lp2366
S':'
asbag68
(g89
g70
NtRp2367
(dp2368
g73
(dp2369
sg82
g2354
sg75
(lp2370
g68
(g69
g70
NtRp2371
(dp2372
g73
(dp2373
g81
I3
ssg82
g2367
sg75
(lp2374
g885
asbasbasbag68
(g84
g70
NtRp2375
(dp2376
g73
(dp2377
sg82
g2308
sg75
(lp2378
g68
(g89
g70
NtRp2379
(dp2380
g73
(dp2381
g93
g94
ssg82
g2375
sg75
(lp2382
S'HTTP_ACCEPT_LANGUAGE'
p2383
asbag68
(g89
g70
NtRp2384
(dp2385
g73
(dp2386
g100
g101
ssg82
g2375
sg75
(lp2387
S':'
asbag68
(g89
g70
NtRp2388
(dp2389
g73
(dp2390
sg82
g2375
sg75
(lp2391
g68
(g69
g70
NtRp2392
(dp2393
g73
(dp2394
g81
I3
ssg82
g2388
sg75
(lp2395
g907
asbasbasbag68
(g84
g70
NtRp2396
(dp2397
g73
(dp2398
sg82
g2308
sg75
(lp2399
g68
(g89
g70
NtRp2400
(dp2401
g73
(dp2402
g93
g94
ssg82
g2396
sg75
(lp2403
S'HTTP_CACHE_CONTROL'
p2404
asbag68
(g89
g70
NtRp2405
(dp2406
g73
(dp2407
g100
g101
ssg82
g2396
sg75
(lp2408
S':'
asbag68
(g89
g70
NtRp2409
(dp2410
g73
(dp2411
sg82
g2396
sg75
(lp2412
g68
(g69
g70
NtRp2413
(dp2414
g73
(dp2415
g81
I3
ssg82
g2409
sg75
(lp2416
g929
asbasbasbag68
(g84
g70
NtRp2417
(dp2418
g73
(dp2419
sg82
g2308
sg75
(lp2420
g68
(g89
g70
NtRp2421
(dp2422
g73
(dp2423
g93
g94
ssg82
g2417
sg75
(lp2424
S'HTTP_CONNECTION'
p2425
asbag68
(g89
g70
NtRp2426
(dp2427
g73
(dp2428
g100
g101
ssg82
g2417
sg75
(lp2429
S':'
asbag68
(g89
g70
NtRp2430
(dp2431
g73
(dp2432
sg82
g2417
sg75
(lp2433
g68
(g69
g70
NtRp2434
(dp2435
g73
(dp2436
g81
I3
ssg82
g2430
sg75
(lp2437
g951
asbasbasbag68
(g84
g70
NtRp2438
(dp2439
g73
(dp2440
sg82
g2308
sg75
(lp2441
g68
(g89
g70
NtRp2442
(dp2443
g73
(dp2444
g93
g94
ssg82
g2438
sg75
(lp2445
S'HTTP_COOKIE'
p2446
asbag68
(g89
g70
NtRp2447
(dp2448
g73
(dp2449
g100
g101
ssg82
g2438
sg75
(lp2450
S':'
asbag68
(g89
g70
NtRp2451
(dp2452
g73
(dp2453
sg82
g2438
sg75
(lp2454
g68
(g69
g70
NtRp2455
(dp2456
g73
(dp2457
g81
I3
ssg82
g2451
sg75
(lp2458
g973
asbasbasbag68
(g84
g70
NtRp2459
(dp2460
g73
(dp2461
sg82
g2308
sg75
(lp2462
g68
(g89
g70
NtRp2463
(dp2464
g73
(dp2465
g93
g94
ssg82
g2459
sg75
(lp2466
S'HTTP_HOST'
p2467
asbag68
(g89
g70
NtRp2468
(dp2469
g73
(dp2470
g100
g101
ssg82
g2459
sg75
(lp2471
S':'
asbag68
(g89
g70
NtRp2472
(dp2473
g73
(dp2474
sg82
g2459
sg75
(lp2475
g68
(g69
g70
NtRp2476
(dp2477
g73
(dp2478
g81
I3
ssg82
g2472
sg75
(lp2479
g995
asbasbasbag68
(g84
g70
NtRp2480
(dp2481
g73
(dp2482
sg82
g2308
sg75
(lp2483
g68
(g89
g70
NtRp2484
(dp2485
g73
(dp2486
g93
g94
ssg82
g2480
sg75
(lp2487
S'HTTP_REFERER'
p2488
asbag68
(g89
g70
NtRp2489
(dp2490
g73
(dp2491
g100
g101
ssg82
g2480
sg75
(lp2492
S':'
asbag68
(g89
g70
NtRp2493
(dp2494
g73
(dp2495
sg82
g2480
sg75
(lp2496
g68
(g69
g70
NtRp2497
(dp2498
g73
(dp2499
g81
I3
ssg82
g2493
sg75
(lp2500
g1017
asbasbasbag68
(g84
g70
NtRp2501
(dp2502
g73
(dp2503
sg82
g2308
sg75
(lp2504
g68
(g89
g70
NtRp2505
(dp2506
g73
(dp2507
g93
g94
ssg82
g2501
sg75
(lp2508
S'HTTP_USER_AGENT'
p2509
asbag68
(g89
g70
NtRp2510
(dp2511
g73
(dp2512
g100
g101
ssg82
g2501
sg75
(lp2513
S':'
asbag68
(g89
g70
NtRp2514
(dp2515
g73
(dp2516
sg82
g2501
sg75
(lp2517
g68
(g69
g70
NtRp2518
(dp2519
g73
(dp2520
g81
I3
ssg82
g2514
sg75
(lp2521
g1039
asbasbasbag68
(g84
g70
NtRp2522
(dp2523
g73
(dp2524
sg82
g2308
sg75
(lp2525
g68
(g89
g70
NtRp2526
(dp2527
g73
(dp2528
g93
g94
ssg82
g2522
sg75
(lp2529
S'PATH_INFO'
p2530
asbag68
(g89
g70
NtRp2531
(dp2532
g73
(dp2533
g100
g101
ssg82
g2522
sg75
(lp2534
S':'
asbag68
(g89
g70
NtRp2535
(dp2536
g73
(dp2537
sg82
g2522
sg75
(lp2538
g68
(g69
g70
NtRp2539
(dp2540
g73
(dp2541
g81
I3
ssg82
g2535
sg75
(lp2542
g1103
asbasbasbag68
(g84
g70
NtRp2543
(dp2544
g73
(dp2545
sg82
g2308
sg75
(lp2546
g68
(g89
g70
NtRp2547
(dp2548
g73
(dp2549
g93
g94
ssg82
g2543
sg75
(lp2550
S'QUERY_STRING'
p2551
asbag68
(g89
g70
NtRp2552
(dp2553
g73
(dp2554
g100
g101
ssg82
g2543
sg75
(lp2555
S':'
asbag68
(g89
g70
NtRp2556
(dp2557
g73
(dp2558
sg82
g2543
sg75
(lp2559
g68
(g69
g70
NtRp2560
(dp2561
g73
(dp2562
g81
I3
ssg82
g2556
sg75
(lp2563
S''
asbasbasbag68
(g84
g70
NtRp2564
(dp2565
g73
(dp2566
sg82
g2308
sg75
(lp2567
g68
(g89
g70
NtRp2568
(dp2569
g73
(dp2570
g93
g94
ssg82
g2564
sg75
(lp2571
S'REMOTE_ADDR'
p2572
asbag68
(g89
g70
NtRp2573
(dp2574
g73
(dp2575
g100
g101
ssg82
g2564
sg75
(lp2576
S':'
asbag68
(g89
g70
NtRp2577
(dp2578
g73
(dp2579
sg82
g2564
sg75
(lp2580
g68
(g69
g70
NtRp2581
(dp2582
g73
(dp2583
g81
I3
ssg82
g2577
sg75
(lp2584
g213
asbasbasbag68
(g84
g70
NtRp2585
(dp2586
g73
(dp2587
sg82
g2308
sg75
(lp2588
g68
(g89
g70
NtRp2589
(dp2590
g73
(dp2591
g93
g94
ssg82
g2585
sg75
(lp2592
S'REMOTE_PORT'
p2593
asbag68
(g89
g70
NtRp2594
(dp2595
g73
(dp2596
g100
g101
ssg82
g2585
sg75
(lp2597
S':'
asbag68
(g89
g70
NtRp2598
(dp2599
g73
(dp2600
sg82
g2585
sg75
(lp2601
g68
(g69
g70
NtRp2602
(dp2603
g73
(dp2604
g81
I3
ssg82
g2598
sg75
(lp2605
g1167
asbasbasbag68
(g84
g70
NtRp2606
(dp2607
g73
(dp2608
sg82
g2308
sg75
(lp2609
g68
(g89
g70
NtRp2610
(dp2611
g73
(dp2612
g93
g94
ssg82
g2606
sg75
(lp2613
S'REQUEST_METHOD'
p2614
asbag68
(g89
g70
NtRp2615
(dp2616
g73
(dp2617
g100
g101
ssg82
g2606
sg75
(lp2618
S':'
asbag68
(g89
g70
NtRp2619
(dp2620
g73
(dp2621
sg82
g2606
sg75
(lp2622
g68
(g69
g70
NtRp2623
(dp2624
g73
(dp2625
g81
I3
ssg82
g2619
sg75
(lp2626
g1189
asbasbasbag68
(g84
g70
NtRp2627
(dp2628
g73
(dp2629
sg82
g2308
sg75
(lp2630
g68
(g89
g70
NtRp2631
(dp2632
g73
(dp2633
g93
g94
ssg82
g2627
sg75
(lp2634
S'SCRIPT_NAME'
p2635
asbag68
(g89
g70
NtRp2636
(dp2637
g73
(dp2638
g100
g101
ssg82
g2627
sg75
(lp2639
S':'
asbag68
(g89
g70
NtRp2640
(dp2641
g73
(dp2642
sg82
g2627
sg75
(lp2643
g68
(g69
g70
NtRp2644
(dp2645
g73
(dp2646
g81
I3
ssg82
g2640
sg75
(lp2647
S''
asbasbasbag68
(g84
g70
NtRp2648
(dp2649
g73
(dp2650
sg82
g2308
sg75
(lp2651
g68
(g89
g70
NtRp2652
(dp2653
g73
(dp2654
g93
g94
ssg82
g2648
sg75
(lp2655
S'SERVER_NAME'
p2656
asbag68
(g89
g70
NtRp2657
(dp2658
g73
(dp2659
g100
g101
ssg82
g2648
sg75
(lp2660
S':'
asbag68
(g89
g70
NtRp2661
(dp2662
g73
(dp2663
sg82
g2648
sg75
(lp2664
g68
(g69
g70
NtRp2665
(dp2666
g73
(dp2667
g81
I3
ssg82
g2661
sg75
(lp2668
g1232
asbasbasbag68
(g84
g70
NtRp2669
(dp2670
g73
(dp2671
sg82
g2308
sg75
(lp2672
g68
(g89
g70
NtRp2673
(dp2674
g73
(dp2675
g93
g94
ssg82
g2669
sg75
(lp2676
S'SERVER_PORT'
p2677
asbag68
(g89
g70
NtRp2678
(dp2679
g73
(dp2680
g100
g101
ssg82
g2669
sg75
(lp2681
S':'
asbag68
(g89
g70
NtRp2682
(dp2683
g73
(dp2684
sg82
g2669
sg75
(lp2685
g68
(g69
g70
NtRp2686
(dp2687
g73
(dp2688
g81
I3
ssg82
g2682
sg75
(lp2689
g1254
asbasbasbag68
(g84
g70
NtRp2690
(dp2691
g73
(dp2692
sg82
g2308
sg75
(lp2693
g68
(g89
g70
NtRp2694
(dp2695
g73
(dp2696
g93
g94
ssg82
g2690
sg75
(lp2697
S'SERVER_PROTOCOL'
p2698
asbag68
(g89
g70
NtRp2699
(dp2700
g73
(dp2701
g100
g101
ssg82
g2690
sg75
(lp2702
S':'
asbag68
(g89
g70
NtRp2703
(dp2704
g73
(dp2705
sg82
g2690
sg75
(lp2706
g68
(g69
g70
NtRp2707
(dp2708
g73
(dp2709
g81
I3
ssg82
g2703
sg75
(lp2710
g1276
asbasbasbag68
(g84
g70
NtRp2711
(dp2712
g73
(dp2713
sg82
g2308
sg75
(lp2714
g68
(g89
g70
NtRp2715
(dp2716
g73
(dp2717
g93
g94
ssg82
g2711
sg75
(lp2718
S'SERVER_SOFTWARE'
p2719
asbag68
(g89
g70
NtRp2720
(dp2721
g73
(dp2722
g100
g101
ssg82
g2711
sg75
(lp2723
S':'
asbag68
(g89
g70
NtRp2724
(dp2725
g73
(dp2726
sg82
g2711
sg75
(lp2727
g68
(g69
g70
NtRp2728
(dp2729
g73
(dp2730
g81
I3
ssg82
g2724
sg75
(lp2731
g1298
asbasbasbag68
(g84
g70
NtRp2732
(dp2733
g73
(dp2734
sg82
g2308
sg75
(lp2735
g68
(g89
g70
NtRp2736
(dp2737
g73
(dp2738
g93
g94
ssg82
g2732
sg75
(lp2739
S'wsgi.errors'
p2740
asbag68
(g89
g70
NtRp2741
(dp2742
g73
(dp2743
g100
g101
ssg82
g2732
sg75
(lp2744
S':'
asbag68
(g89
g70
NtRp2745
(dp2746
g73
(dp2747
sg82
g2732
sg75
(lp2748
g68
(g69
g70
NtRp2749
(dp2750
g73
(dp2751
g81
I3
ssg82
g2745
sg75
(lp2752
S"<open file '<stderr>', mode 'w' at 0x0000000001E461E0>"
p2753
asbasbasbag68
(g84
g70
NtRp2754
(dp2755
g73
(dp2756
sg82
g2308
sg75
(lp2757
g68
(g89
g70
NtRp2758
(dp2759
g73
(dp2760
g93
g94
ssg82
g2754
sg75
(lp2761
S'wsgi.file_wrapper'
p2762
asbag68
(g89
g70
NtRp2763
(dp2764
g73
(dp2765
g100
g101
ssg82
g2754
sg75
(lp2766
S':'
asbag68
(g89
g70
NtRp2767
(dp2768
g73
(dp2769
sg82
g2754
sg75
(lp2770
g68
(g69
g70
NtRp2771
(dp2772
g73
(dp2773
g81
I3
ssg82
g2767
sg75
(lp2774
S'<class wsgiref.util.FileWrapper at 0x00000000037AD828>'
p2775
asbasbasbag68
(g84
g70
NtRp2776
(dp2777
g73
(dp2778
sg82
g2308
sg75
(lp2779
g68
(g89
g70
NtRp2780
(dp2781
g73
(dp2782
g93
g94
ssg82
g2776
sg75
(lp2783
S'wsgi.input'
p2784
asbag68
(g89
g70
NtRp2785
(dp2786
g73
(dp2787
g100
g101
ssg82
g2776
sg75
(lp2788
S':'
asbag68
(g89
g70
NtRp2789
(dp2790
g73
(dp2791
sg82
g2776
sg75
(lp2792
g68
(g69
g70
NtRp2793
(dp2794
g73
(dp2795
g81
I3
ssg82
g2789
sg75
(lp2796
S'<cStringIO.StringO object at 0x00000000096F50A0>'
p2797
asbasbasbag68
(g84
g70
NtRp2798
(dp2799
g73
(dp2800
sg82
g2308
sg75
(lp2801
g68
(g89
g70
NtRp2802
(dp2803
g73
(dp2804
g93
g94
ssg82
g2798
sg75
(lp2805
S'wsgi.multiprocess'
p2806
asbag68
(g89
g70
NtRp2807
(dp2808
g73
(dp2809
g100
g101
ssg82
g2798
sg75
(lp2810
S':'
asbag68
(g89
g70
NtRp2811
(dp2812
g73
(dp2813
sg82
g2798
sg75
(lp2814
g68
(g69
g70
NtRp2815
(dp2816
g73
(dp2817
g81
I3
ssg82
g2811
sg75
(lp2818
g111
asbasbasbag68
(g84
g70
NtRp2819
(dp2820
g73
(dp2821
sg82
g2308
sg75
(lp2822
g68
(g89
g70
NtRp2823
(dp2824
g73
(dp2825
g93
g94
ssg82
g2819
sg75
(lp2826
S'wsgi.multithread'
p2827
asbag68
(g89
g70
NtRp2828
(dp2829
g73
(dp2830
g100
g101
ssg82
g2819
sg75
(lp2831
S':'
asbag68
(g89
g70
NtRp2832
(dp2833
g73
(dp2834
sg82
g2819
sg75
(lp2835
g68
(g69
g70
NtRp2836
(dp2837
g73
(dp2838
g81
I3
ssg82
g2832
sg75
(lp2839
g1538
asbasbasbag68
(g84
g70
NtRp2840
(dp2841
g73
(dp2842
sg82
g2308
sg75
(lp2843
g68
(g89
g70
NtRp2844
(dp2845
g73
(dp2846
g93
g94
ssg82
g2840
sg75
(lp2847
S'wsgi.run_once'
p2848
asbag68
(g89
g70
NtRp2849
(dp2850
g73
(dp2851
g100
g101
ssg82
g2840
sg75
(lp2852
S':'
asbag68
(g89
g70
NtRp2853
(dp2854
g73
(dp2855
sg82
g2840
sg75
(lp2856
g68
(g69
g70
NtRp2857
(dp2858
g73
(dp2859
g81
I3
ssg82
g2853
sg75
(lp2860
g111
asbasbasbag68
(g84
g70
NtRp2861
(dp2862
g73
(dp2863
sg82
g2308
sg75
(lp2864
g68
(g89
g70
NtRp2865
(dp2866
g73
(dp2867
g93
g94
ssg82
g2861
sg75
(lp2868
S'wsgi.url_scheme'
p2869
asbag68
(g89
g70
NtRp2870
(dp2871
g73
(dp2872
g100
g101
ssg82
g2861
sg75
(lp2873
S':'
asbag68
(g89
g70
NtRp2874
(dp2875
g73
(dp2876
sg82
g2861
sg75
(lp2877
g68
(g69
g70
NtRp2878
(dp2879
g73
(dp2880
g81
I3
ssg82
g2874
sg75
(lp2881
g1581
asbasbasbag68
(g84
g70
NtRp2882
(dp2883
g73
(dp2884
sg82
g2308
sg75
(lp2885
g68
(g89
g70
NtRp2886
(dp2887
g73
(dp2888
g93
g94
ssg82
g2882
sg75
(lp2889
S'wsgi.version'
p2890
asbag68
(g89
g70
NtRp2891
(dp2892
g73
(dp2893
g100
g101
ssg82
g2882
sg75
(lp2894
S':'
asbag68
(g89
g70
NtRp2895
(dp2896
g73
(dp2897
sg82
g2882
sg75
(lp2898
g68
(g69
g70
NtRp2899
(dp2900
g73
(dp2901
g81
I3
ssg82
g2895
sg75
(lp2902
S'1'
asbasbasbasbasbasbasbasbasbasbasbasbasbsS'frames'
p2903
(lp2904
(dp2905
S'file'
p2906
S'C:\\Users\\mellinja\\Documents\\SC2Tracker\\SC2TourneyTracker\\web2py\\gluon\\restricted.py'
p2907
sS'dump'
p2908
(dp2909
S'code'
p2910
S'r"response.write(\'<!DOCTYPE html>\\r\\n<!-- pauliris...write(\'\\r\\n</body>\\r\\n</html>\\r\\n\', escape=False)"'
p2911
sS'layer'
p2912
S"r'C:\\Users\\mellinja\\Documents\\SC2Tracker\\SC2Tourne...y\\applications\\welcome\\views\\tournament/show.html'"
p2913
sS'global compile2'
p2914
S'<function compile2>'
p2915
sS'ccode'
p2916
S'undefined'
p2917
ssS'lnum'
p2918
I203
sS'lines'
p2919
(dp2920
I198
S"    environment['__file__'] = layer"
p2921
sI199
S'    try:'
p2922
sI200
S'        if type(code) == types.CodeType:'
p2923
sI201
S'            ccode = code'
p2924
sI202
S'        else:'
p2925
sI203
S'            ccode = compile2(code,layer)'
p2926
sI204
S'        exec ccode in environment'
p2927
sI205
S'    except HTTP:'
p2928
sI206
S'        raise'
p2929
sI207
S'    except RestrictedError:'
p2930
ssS'call'
p2931
S'(code=r"response.write(\'<!DOCTYPE html>\\r\\n<!-- pauliris...write(\'\\r\\n</body>\\r\\n</html>\\r\\n\', escape=False)", environment={\'A\': <class \'gluon.html.A\'>, \'Auth\': <class \'gluon.tools.Auth\'>, \'B\': <class \'gluon.html.B\'>, \'BEAUTIFY\': <class \'gluon.html.BEAUTIFY\'>, \'BODY\': <class \'gluon.html.BODY\'>, \'BR\': <class \'gluon.html.BR\'>, \'BUTTON\': <class \'gluon.html.BUTTON\'>, \'CAT\': <class \'gluon.html.CAT\'>, \'CENTER\': <class \'gluon.html.CENTER\'>, \'CLEANUP\': <class \'gluon.validators.CLEANUP\'>, ...}, layer=r\'C:\\Users\\mellinja\\Documents\\SC2Tracker\\SC2Tourne...y\\applications\\welcome\\views\\tournament/show.html\')'
p2932
sS'func'
p2933
S'restricted'
p2934
sa(dp2935
g2906
S'C:\\Users\\mellinja\\Documents\\SC2Tracker\\SC2TourneyTracker\\web2py\\gluon\\restricted.py'
p2936
sg2908
(dp2937
S'builtincompile'
p2938
S'<built-in function compile>'
p2939
sS'code'
p2940
S'r"response.write(\'<!DOCTYPE html>\\r\\n<!-- pauliris...write(\'\\r\\n</body>\\r\\n</html>\\r\\n\', escape=False)"'
p2941
sS'code.rstrip'
p2942
S'<built-in method rstrip of str object>'
p2943
sS').replace'
p2944
g2917
sS'layer'
p2945
S"r'C:\\Users\\mellinja\\Documents\\SC2Tracker\\SC2Tourne...y\\applications\\welcome\\views\\tournament/show.html'"
p2946
ssg2918
I189
sg2919
(dp2947
I192
S'    """'
p2948
sI193
S'    runs code in environment and returns the output. if an exception occurs'
p2949
sI184
S''
sI185
S'def compile2(code,layer):'
p2950
sI186
S'    """'
p2951
sI187
S"    The +'\\n' is necessary else compile fails when code ends in a comment."
p2952
sI188
S'    """'
p2953
sI189
S"    return compile(code.rstrip().replace('\\r\\n','\\n')+'\\n', layer, 'exec')"
p2954
sI190
S''
sI191
S"def restricted(code, environment=None, layer='Unknown'):"
p2955
ssg2931
S'(code=r"response.write(\'<!DOCTYPE html>\\r\\n<!-- pauliris...write(\'\\r\\n</body>\\r\\n</html>\\r\\n\', escape=False)", layer=r\'C:\\Users\\mellinja\\Documents\\SC2Tracker\\SC2Tourne...y\\applications\\welcome\\views\\tournament/show.html\')'
p2956
sg2933
S'compile2'
p2957
sasS'pyver'
p2958
S'Python 2.7.2: C:\\Python27\\python.exe'
p2959
sS'session'
p2960
g68
(g69
g70
NtRp2961
(dp2962
g73
(dp2963
sg75
(lp2964
g68
(g77
g70
NtRp2965
(dp2966
g73
(dp2967
g81
I5
ssg82
Nsg75
(lp2968
g68
(g84
g70
NtRp2969
(dp2970
g73
(dp2971
sg82
g2965
sg75
(lp2972
g68
(g89
g70
NtRp2973
(dp2974
g73
(dp2975
g93
g94
ssg82
g2969
sg75
(lp2976
S'auth'
p2977
asbag68
(g89
g70
NtRp2978
(dp2979
g73
(dp2980
g100
g101
ssg82
g2969
sg75
(lp2981
S':'
asbag68
(g89
g70
NtRp2982
(dp2983
g73
(dp2984
sg82
g2969
sg75
(lp2985
g68
(g69
g70
NtRp2986
(dp2987
g73
(dp2988
g81
I5
ssg82
g2982
sg75
(lp2989
g68
(g77
g70
NtRp2990
(dp2991
g73
(dp2992
g81
I4
ssg82
Nsg75
(lp2993
g68
(g84
g70
NtRp2994
(dp2995
g73
(dp2996
sg82
g2990
sg75
(lp2997
g68
(g89
g70
NtRp2998
(dp2999
g73
(dp3000
g93
g94
ssg82
g2994
sg75
(lp3001
S'expiration'
p3002
asbag68
(g89
g70
NtRp3003
(dp3004
g73
(dp3005
g100
g101
ssg82
g2994
sg75
(lp3006
S':'
asbag68
(g89
g70
NtRp3007
(dp3008
g73
(dp3009
sg82
g2994
sg75
(lp3010
g68
(g69
g70
NtRp3011
(dp3012
g73
(dp3013
g81
I4
ssg82
g3007
sg75
(lp3014
S'2592000'
p3015
asbasbasbag68
(g84
g70
NtRp3016
(dp3017
g73
(dp3018
sg82
g2990
sg75
(lp3019
g68
(g89
g70
NtRp3020
(dp3021
g73
(dp3022
g93
g94
ssg82
g3016
sg75
(lp3023
S'hmac_key'
p3024
asbag68
(g89
g70
NtRp3025
(dp3026
g73
(dp3027
g100
g101
ssg82
g3016
sg75
(lp3028
S':'
asbag68
(g89
g70
NtRp3029
(dp3030
g73
(dp3031
sg82
g3016
sg75
(lp3032
g68
(g69
g70
NtRp3033
(dp3034
g73
(dp3035
g81
I4
ssg82
g3029
sg75
(lp3036
S'662eea21-485f-40d9-9f5e-033e82feb6d6'
p3037
asbasbasbag68
(g84
g70
NtRp3038
(dp3039
g73
(dp3040
sg82
g2990
sg75
(lp3041
g68
(g89
g70
NtRp3042
(dp3043
g73
(dp3044
g93
g94
ssg82
g3038
sg75
(lp3045
S'last_visit'
p3046
asbag68
(g89
g70
NtRp3047
(dp3048
g73
(dp3049
g100
g101
ssg82
g3038
sg75
(lp3050
S':'
asbag68
(g89
g70
NtRp3051
(dp3052
g73
(dp3053
sg82
g3038
sg75
(lp3054
g68
(g69
g70
NtRp3055
(dp3056
g73
(dp3057
g81
I4
ssg82
g3051
sg75
(lp3058
S'datetime.datetime(2012, 2, 7, 22, 17, 43, 381000)'
p3059
asbasbasbag68
(g84
g70
NtRp3060
(dp3061
g73
(dp3062
sg82
g2990
sg75
(lp3063
g68
(g89
g70
NtRp3064
(dp3065
g73
(dp3066
g93
g94
ssg82
g3060
sg75
(lp3067
S'remember'
p3068
asbag68
(g89
g70
NtRp3069
(dp3070
g73
(dp3071
g100
g101
ssg82
g3060
sg75
(lp3072
S':'
asbag68
(g89
g70
NtRp3073
(dp3074
g73
(dp3075
sg82
g3060
sg75
(lp3076
g68
(g69
g70
NtRp3077
(dp3078
g73
(dp3079
g81
I4
ssg82
g3073
sg75
(lp3080
g111
asbasbasbag68
(g84
g70
NtRp3081
(dp3082
g73
(dp3083
sg82
g2990
sg75
(lp3084
g68
(g89
g70
NtRp3085
(dp3086
g73
(dp3087
g93
g94
ssg82
g3081
sg75
(lp3088
S'user'
p3089
asbag68
(g89
g70
NtRp3090
(dp3091
g73
(dp3092
g100
g101
ssg82
g3081
sg75
(lp3093
S':'
asbag68
(g89
g70
NtRp3094
(dp3095
g73
(dp3096
sg82
g3081
sg75
(lp3097
g68
(g69
g70
NtRp3098
(dp3099
g73
(dp3100
g81
I4
ssg82
g3094
sg75
(lp3101
g68
(g77
g70
NtRp3102
(dp3103
g73
(dp3104
g81
I3
ssg82
Nsg75
(lp3105
g68
(g84
g70
NtRp3106
(dp3107
g73
(dp3108
sg82
g3102
sg75
(lp3109
g68
(g89
g70
NtRp3110
(dp3111
g73
(dp3112
g93
g94
ssg82
g3106
sg75
(lp3113
S'email'
p3114
asbag68
(g89
g70
NtRp3115
(dp3116
g73
(dp3117
g100
g101
ssg82
g3106
sg75
(lp3118
S':'
asbag68
(g89
g70
NtRp3119
(dp3120
g73
(dp3121
sg82
g3106
sg75
(lp3122
g68
(g69
g70
NtRp3123
(dp3124
g73
(dp3125
g81
I3
ssg82
g3119
sg75
(lp3126
S'mellinja@gmail.com'
p3127
asbasbasbag68
(g84
g70
NtRp3128
(dp3129
g73
(dp3130
sg82
g3102
sg75
(lp3131
g68
(g89
g70
NtRp3132
(dp3133
g73
(dp3134
g93
g94
ssg82
g3128
sg75
(lp3135
S'first_name'
p3136
asbag68
(g89
g70
NtRp3137
(dp3138
g73
(dp3139
g100
g101
ssg82
g3128
sg75
(lp3140
S':'
asbag68
(g89
g70
NtRp3141
(dp3142
g73
(dp3143
sg82
g3128
sg75
(lp3144
g68
(g69
g70
NtRp3145
(dp3146
g73
(dp3147
g81
I3
ssg82
g3141
sg75
(lp3148
S'Jackson'
p3149
asbasbasbag68
(g84
g70
NtRp3150
(dp3151
g73
(dp3152
sg82
g3102
sg75
(lp3153
g68
(g89
g70
NtRp3154
(dp3155
g73
(dp3156
g93
g94
ssg82
g3150
sg75
(lp3157
S'id'
p3158
asbag68
(g89
g70
NtRp3159
(dp3160
g73
(dp3161
g100
g101
ssg82
g3150
sg75
(lp3162
S':'
asbag68
(g89
g70
NtRp3163
(dp3164
g73
(dp3165
sg82
g3150
sg75
(lp3166
g68
(g69
g70
NtRp3167
(dp3168
g73
(dp3169
g81
I3
ssg82
g3163
sg75
(lp3170
S'3'
asbasbasbag68
(g84
g70
NtRp3171
(dp3172
g73
(dp3173
sg82
g3102
sg75
(lp3174
g68
(g89
g70
NtRp3175
(dp3176
g73
(dp3177
g93
g94
ssg82
g3171
sg75
(lp3178
S'last_name'
p3179
asbag68
(g89
g70
NtRp3180
(dp3181
g73
(dp3182
g100
g101
ssg82
g3171
sg75
(lp3183
S':'
asbag68
(g89
g70
NtRp3184
(dp3185
g73
(dp3186
sg82
g3171
sg75
(lp3187
g68
(g69
g70
NtRp3188
(dp3189
g73
(dp3190
g81
I3
ssg82
g3184
sg75
(lp3191
S'Melling'
p3192
asbasbasbag68
(g84
g70
NtRp3193
(dp3194
g73
(dp3195
sg82
g3102
sg75
(lp3196
g68
(g89
g70
NtRp3197
(dp3198
g73
(dp3199
g93
g94
ssg82
g3193
sg75
(lp3200
S'password'
p3201
asbag68
(g89
g70
NtRp3202
(dp3203
g73
(dp3204
g100
g101
ssg82
g3193
sg75
(lp3205
S':'
asbag68
(g89
g70
NtRp3206
(dp3207
g73
(dp3208
sg82
g3193
sg75
(lp3209
g68
(g69
g70
NtRp3210
(dp3211
g73
(dp3212
g81
I3
ssg82
g3206
sg75
(lp3213
S'98beeff9538312abb10179bd86e0a5a2'
p3214
asbasbasbag68
(g84
g70
NtRp3215
(dp3216
g73
(dp3217
sg82
g3102
sg75
(lp3218
g68
(g89
g70
NtRp3219
(dp3220
g73
(dp3221
g93
g94
ssg82
g3215
sg75
(lp3222
S'registration_id'
p3223
asbag68
(g89
g70
NtRp3224
(dp3225
g73
(dp3226
g100
g101
ssg82
g3215
sg75
(lp3227
S':'
asbag68
(g89
g70
NtRp3228
(dp3229
g73
(dp3230
sg82
g3215
sg75
(lp3231
g68
(g69
g70
NtRp3232
(dp3233
g73
(dp3234
g81
I3
ssg82
g3228
sg75
(lp3235
S''
asbasbasbag68
(g84
g70
NtRp3236
(dp3237
g73
(dp3238
sg82
g3102
sg75
(lp3239
g68
(g89
g70
NtRp3240
(dp3241
g73
(dp3242
g93
g94
ssg82
g3236
sg75
(lp3243
S'registration_key'
p3244
asbag68
(g89
g70
NtRp3245
(dp3246
g73
(dp3247
g100
g101
ssg82
g3236
sg75
(lp3248
S':'
asbag68
(g89
g70
NtRp3249
(dp3250
g73
(dp3251
sg82
g3236
sg75
(lp3252
g68
(g69
g70
NtRp3253
(dp3254
g73
(dp3255
g81
I3
ssg82
g3249
sg75
(lp3256
S''
asbasbasbag68
(g84
g70
NtRp3257
(dp3258
g73
(dp3259
sg82
g3102
sg75
(lp3260
g68
(g89
g70
NtRp3261
(dp3262
g73
(dp3263
g93
g94
ssg82
g3257
sg75
(lp3264
S'reset_password_key'
p3265
asbag68
(g89
g70
NtRp3266
(dp3267
g73
(dp3268
g100
g101
ssg82
g3257
sg75
(lp3269
S':'
asbag68
(g89
g70
NtRp3270
(dp3271
g73
(dp3272
sg82
g3257
sg75
(lp3273
g68
(g69
g70
NtRp3274
(dp3275
g73
(dp3276
g81
I3
ssg82
g3270
sg75
(lp3277
S'1327597193-2590f763-191b-469c-bc47-fc293ee83460'
p3278
asbasbasbasbasbasbasbasbasbasbasbasbasbsS'etype'
p3279
S"<type 'exceptions.SyntaxError'>"
p3280
sS'date'
p3281
S'Tue Feb 07 22:45:47 2012'
p3282
sS'response'
p3283
g68
(g69
g70
NtRp3284
(dp3285
g73
(dp3286
sg75
(lp3287
g68
(g77
g70
NtRp3288
(dp3289
g73
(dp3290
g81
I5
ssg82
Nsg75
(lp3291
g68
(g84
g70
NtRp3292
(dp3293
g73
(dp3294
sg82
g3288
sg75
(lp3295
g68
(g89
g70
NtRp3296
(dp3297
g73
(dp3298
g93
g94
ssg82
g3292
sg75
(lp3299
g178
asbag68
(g89
g70
NtRp3300
(dp3301
g73
(dp3302
g100
g101
ssg82
g3292
sg75
(lp3303
S':'
asbag68
(g89
g70
NtRp3304
(dp3305
g73
(dp3306
sg82
g3292
sg75
(lp3307
g68
(g69
g70
NtRp3308
(dp3309
g73
(dp3310
g81
I5
ssg82
g3304
sg75
(lp3311
S'<cStringIO.StringO object at 0x0000000007E040D8>'
p3312
asbasbasbag68
(g84
g70
NtRp3313
(dp3314
g73
(dp3315
sg82
g3288
sg75
(lp3316
g68
(g89
g70
NtRp3317
(dp3318
g73
(dp3319
g93
g94
ssg82
g3313
sg75
(lp3320
g244
asbag68
(g89
g70
NtRp3321
(dp3322
g73
(dp3323
g100
g101
ssg82
g3313
sg75
(lp3324
S':'
asbag68
(g89
g70
NtRp3325
(dp3326
g73
(dp3327
sg82
g3313
sg75
(lp3328
g68
(g69
g70
NtRp3329
(dp3330
g73
(dp3331
g81
I5
ssg82
g3325
sg75
(lp3332
g68
(g77
g70
NtRp3333
(dp3334
g73
(dp3335
g81
I4
ssg82
Nsg75
(lp3336
g68
(g84
g70
NtRp3337
(dp3338
g73
(dp3339
sg82
g3333
sg75
(lp3340
g68
(g89
g70
NtRp3341
(dp3342
g73
(dp3343
g93
g94
ssg82
g3337
sg75
(lp3344
S'session_id_welcome'
p3345
asbag68
(g89
g70
NtRp3346
(dp3347
g73
(dp3348
g100
g101
ssg82
g3337
sg75
(lp3349
S':'
asbag68
(g89
g70
NtRp3350
(dp3351
g73
(dp3352
sg82
g3337
sg75
(lp3353
g68
(g69
g70
NtRp3354
(dp3355
g73
(dp3356
g81
I4
ssg82
g3350
sg75
(lp3357
g68
(g77
g70
NtRp3358
(dp3359
g73
(dp3360
g81
I3
ssg82
Nsg75
(lp3361
g68
(g84
g70
NtRp3362
(dp3363
g73
(dp3364
sg82
g3358
sg75
(lp3365
g68
(g89
g70
NtRp3366
(dp3367
g73
(dp3368
g93
g94
ssg82
g3362
sg75
(lp3369
g294
asbag68
(g89
g70
NtRp3370
(dp3371
g73
(dp3372
g100
g101
ssg82
g3362
sg75
(lp3373
S':'
asbag68
(g89
g70
NtRp3374
(dp3375
g73
(dp3376
sg82
g3362
sg75
(lp3377
g68
(g69
g70
NtRp3378
(dp3379
g73
(dp3380
g81
I3
ssg82
g3374
sg75
(lp3381
S''
asbasbasbag68
(g84
g70
NtRp3382
(dp3383
g73
(dp3384
sg82
g3358
sg75
(lp3385
g68
(g89
g70
NtRp3386
(dp3387
g73
(dp3388
g93
g94
ssg82
g3382
sg75
(lp3389
g315
asbag68
(g89
g70
NtRp3390
(dp3391
g73
(dp3392
g100
g101
ssg82
g3382
sg75
(lp3393
S':'
asbag68
(g89
g70
NtRp3394
(dp3395
g73
(dp3396
sg82
g3382
sg75
(lp3397
g68
(g69
g70
NtRp3398
(dp3399
g73
(dp3400
g81
I3
ssg82
g3394
sg75
(lp3401
S''
asbasbasbag68
(g84
g70
NtRp3402
(dp3403
g73
(dp3404
sg82
g3358
sg75
(lp3405
g68
(g89
g70
NtRp3406
(dp3407
g73
(dp3408
g93
g94
ssg82
g3402
sg75
(lp3409
g336
asbag68
(g89
g70
NtRp3410
(dp3411
g73
(dp3412
g100
g101
ssg82
g3402
sg75
(lp3413
S':'
asbag68
(g89
g70
NtRp3414
(dp3415
g73
(dp3416
sg82
g3402
sg75
(lp3417
g68
(g69
g70
NtRp3418
(dp3419
g73
(dp3420
g81
I3
ssg82
g3414
sg75
(lp3421
S''
asbasbasbag68
(g84
g70
NtRp3422
(dp3423
g73
(dp3424
sg82
g3358
sg75
(lp3425
g68
(g89
g70
NtRp3426
(dp3427
g73
(dp3428
g93
g94
ssg82
g3422
sg75
(lp3429
g357
asbag68
(g89
g70
NtRp3430
(dp3431
g73
(dp3432
g100
g101
ssg82
g3422
sg75
(lp3433
S':'
asbag68
(g89
g70
NtRp3434
(dp3435
g73
(dp3436
sg82
g3422
sg75
(lp3437
g68
(g69
g70
NtRp3438
(dp3439
g73
(dp3440
g81
I3
ssg82
g3434
sg75
(lp3441
S''
asbasbasbag68
(g84
g70
NtRp3442
(dp3443
g73
(dp3444
sg82
g3358
sg75
(lp3445
g68
(g89
g70
NtRp3446
(dp3447
g73
(dp3448
g93
g94
ssg82
g3442
sg75
(lp3449
g378
asbag68
(g89
g70
NtRp3450
(dp3451
g73
(dp3452
g100
g101
ssg82
g3442
sg75
(lp3453
S':'
asbag68
(g89
g70
NtRp3454
(dp3455
g73
(dp3456
sg82
g3442
sg75
(lp3457
g68
(g69
g70
NtRp3458
(dp3459
g73
(dp3460
g81
I3
ssg82
g3454
sg75
(lp3461
S''
asbasbasbag68
(g84
g70
NtRp3462
(dp3463
g73
(dp3464
sg82
g3358
sg75
(lp3465
g68
(g89
g70
NtRp3466
(dp3467
g73
(dp3468
g93
g94
ssg82
g3462
sg75
(lp3469
g399
asbag68
(g89
g70
NtRp3470
(dp3471
g73
(dp3472
g100
g101
ssg82
g3462
sg75
(lp3473
S':'
asbag68
(g89
g70
NtRp3474
(dp3475
g73
(dp3476
sg82
g3462
sg75
(lp3477
g68
(g69
g70
NtRp3478
(dp3479
g73
(dp3480
g81
I3
ssg82
g3474
sg75
(lp3481
S'/'
asbasbasbag68
(g84
g70
NtRp3482
(dp3483
g73
(dp3484
sg82
g3358
sg75
(lp3485
g68
(g89
g70
NtRp3486
(dp3487
g73
(dp3488
g93
g94
ssg82
g3482
sg75
(lp3489
g420
asbag68
(g89
g70
NtRp3490
(dp3491
g73
(dp3492
g100
g101
ssg82
g3482
sg75
(lp3493
S':'
asbag68
(g89
g70
NtRp3494
(dp3495
g73
(dp3496
sg82
g3482
sg75
(lp3497
g68
(g69
g70
NtRp3498
(dp3499
g73
(dp3500
g81
I3
ssg82
g3494
sg75
(lp3501
S''
asbasbasbag68
(g84
g70
NtRp3502
(dp3503
g73
(dp3504
sg82
g3358
sg75
(lp3505
g68
(g89
g70
NtRp3506
(dp3507
g73
(dp3508
g93
g94
ssg82
g3502
sg75
(lp3509
g441
asbag68
(g89
g70
NtRp3510
(dp3511
g73
(dp3512
g100
g101
ssg82
g3502
sg75
(lp3513
S':'
asbag68
(g89
g70
NtRp3514
(dp3515
g73
(dp3516
sg82
g3502
sg75
(lp3517
g68
(g69
g70
NtRp3518
(dp3519
g73
(dp3520
g81
I3
ssg82
g3514
sg75
(lp3521
S''
asbasbasbasbasbasbasbasbasbasbasbag68
(g84
g70
NtRp3522
(dp3523
g73
(dp3524
sg82
g3288
sg75
(lp3525
g68
(g89
g70
NtRp3526
(dp3527
g73
(dp3528
g93
g94
ssg82
g3522
sg75
(lp3529
S'files'
p3530
asbag68
(g89
g70
NtRp3531
(dp3532
g73
(dp3533
g100
g101
ssg82
g3522
sg75
(lp3534
S':'
asbag68
(g89
g70
NtRp3535
(dp3536
g73
(dp3537
sg82
g3522
sg75
(lp3538
g68
(g69
g70
NtRp3539
(dp3540
g73
(dp3541
g81
I5
ssg82
g3535
sg75
(lp3542
g68
(g77
g70
NtRp3543
(dp3544
g73
(dp3545
g81
I4
ssg82
Nsg75
(lp3546
sbasbasbasbag68
(g84
g70
NtRp3547
(dp3548
g73
(dp3549
sg82
g3288
sg75
(lp3550
g68
(g89
g70
NtRp3551
(dp3552
g73
(dp3553
g93
g94
ssg82
g3547
sg75
(lp3554
S'flash'
p3555
asbag68
(g89
g70
NtRp3556
(dp3557
g73
(dp3558
g100
g101
ssg82
g3547
sg75
(lp3559
S':'
asbag68
(g89
g70
NtRp3560
(dp3561
g73
(dp3562
sg82
g3547
sg75
(lp3563
g68
(g69
g70
NtRp3564
(dp3565
g73
(dp3566
g81
I5
ssg82
g3560
sg75
(lp3567
S''
asbasbasbag68
(g84
g70
NtRp3568
(dp3569
g73
(dp3570
sg82
g3288
sg75
(lp3571
g68
(g89
g70
NtRp3572
(dp3573
g73
(dp3574
g93
g94
ssg82
g3568
sg75
(lp3575
S'generic_patterns'
p3576
asbag68
(g89
g70
NtRp3577
(dp3578
g73
(dp3579
g100
g101
ssg82
g3568
sg75
(lp3580
S':'
asbag68
(g89
g70
NtRp3581
(dp3582
g73
(dp3583
sg82
g3568
sg75
(lp3584
g68
(g69
g70
NtRp3585
(dp3586
g73
(dp3587
g81
I5
ssg82
g3581
sg75
(lp3588
g68
(g77
g70
NtRp3589
(dp3590
g73
(dp3591
g81
I4
ssg82
Nsg75
(lp3592
g68
(g84
g70
NtRp3593
(dp3594
g73
(dp3595
sg82
g3589
sg75
(lp3596
g68
(g89
g70
NtRp3597
(dp3598
g73
(dp3599
sg82
g3593
sg75
(lp3600
g68
(g69
g70
NtRp3601
(dp3602
g73
(dp3603
g81
I4
ssg82
g3597
sg75
(lp3604
S'*'
asbasbasbasbasbasbasbag68
(g84
g70
NtRp3605
(dp3606
g73
(dp3607
sg82
g3288
sg75
(lp3608
g68
(g89
g70
NtRp3609
(dp3610
g73
(dp3611
g93
g94
ssg82
g3605
sg75
(lp3612
S'headers'
p3613
asbag68
(g89
g70
NtRp3614
(dp3615
g73
(dp3616
g100
g101
ssg82
g3605
sg75
(lp3617
S':'
asbag68
(g89
g70
NtRp3618
(dp3619
g73
(dp3620
sg82
g3605
sg75
(lp3621
g68
(g69
g70
NtRp3622
(dp3623
g73
(dp3624
g81
I5
ssg82
g3618
sg75
(lp3625
g68
(g77
g70
NtRp3626
(dp3627
g73
(dp3628
g81
I4
ssg82
Nsg75
(lp3629
g68
(g84
g70
NtRp3630
(dp3631
g73
(dp3632
sg82
g3626
sg75
(lp3633
g68
(g89
g70
NtRp3634
(dp3635
g73
(dp3636
g93
g94
ssg82
g3630
sg75
(lp3637
S'Cache-Control'
p3638
asbag68
(g89
g70
NtRp3639
(dp3640
g73
(dp3641
g100
g101
ssg82
g3630
sg75
(lp3642
S':'
asbag68
(g89
g70
NtRp3643
(dp3644
g73
(dp3645
sg82
g3630
sg75
(lp3646
g68
(g69
g70
NtRp3647
(dp3648
g73
(dp3649
g81
I4
ssg82
g3643
sg75
(lp3650
S'no-store, no-cache, must-revalidate, post-check=0, pre-check=0'
p3651
asbasbasbag68
(g84
g70
NtRp3652
(dp3653
g73
(dp3654
sg82
g3626
sg75
(lp3655
g68
(g89
g70
NtRp3656
(dp3657
g73
(dp3658
g93
g94
ssg82
g3652
sg75
(lp3659
S'Content-Type'
p3660
asbag68
(g89
g70
NtRp3661
(dp3662
g73
(dp3663
g100
g101
ssg82
g3652
sg75
(lp3664
S':'
asbag68
(g89
g70
NtRp3665
(dp3666
g73
(dp3667
sg82
g3652
sg75
(lp3668
g68
(g69
g70
NtRp3669
(dp3670
g73
(dp3671
g81
I4
ssg82
g3665
sg75
(lp3672
S'text/html; charset=utf-8'
p3673
asbasbasbag68
(g84
g70
NtRp3674
(dp3675
g73
(dp3676
sg82
g3626
sg75
(lp3677
g68
(g89
g70
NtRp3678
(dp3679
g73
(dp3680
g93
g94
ssg82
g3674
sg75
(lp3681
S'Expires'
p3682
asbag68
(g89
g70
NtRp3683
(dp3684
g73
(dp3685
g100
g101
ssg82
g3674
sg75
(lp3686
S':'
asbag68
(g89
g70
NtRp3687
(dp3688
g73
(dp3689
sg82
g3674
sg75
(lp3690
g68
(g69
g70
NtRp3691
(dp3692
g73
(dp3693
g81
I4
ssg82
g3687
sg75
(lp3694
S'Wed, 08 Feb 2012 03:45:47 GMT'
p3695
asbasbasbag68
(g84
g70
NtRp3696
(dp3697
g73
(dp3698
sg82
g3626
sg75
(lp3699
g68
(g89
g70
NtRp3700
(dp3701
g73
(dp3702
g93
g94
ssg82
g3696
sg75
(lp3703
S'Pragma'
p3704
asbag68
(g89
g70
NtRp3705
(dp3706
g73
(dp3707
g100
g101
ssg82
g3696
sg75
(lp3708
S':'
asbag68
(g89
g70
NtRp3709
(dp3710
g73
(dp3711
sg82
g3696
sg75
(lp3712
g68
(g69
g70
NtRp3713
(dp3714
g73
(dp3715
g81
I4
ssg82
g3709
sg75
(lp3716
S'no-cache'
p3717
asbasbasbag68
(g84
g70
NtRp3718
(dp3719
g73
(dp3720
sg82
g3626
sg75
(lp3721
g68
(g89
g70
NtRp3722
(dp3723
g73
(dp3724
g93
g94
ssg82
g3718
sg75
(lp3725
S'X-Powered-By'
p3726
asbag68
(g89
g70
NtRp3727
(dp3728
g73
(dp3729
g100
g101
ssg82
g3718
sg75
(lp3730
S':'
asbag68
(g89
g70
NtRp3731
(dp3732
g73
(dp3733
sg82
g3718
sg75
(lp3734
g68
(g69
g70
NtRp3735
(dp3736
g73
(dp3737
g81
I4
ssg82
g3731
sg75
(lp3738
S'web2py'
p3739
asbasbasbasbasbasbasbag68
(g84
g70
NtRp3740
(dp3741
g73
(dp3742
sg82
g3288
sg75
(lp3743
g68
(g89
g70
NtRp3744
(dp3745
g73
(dp3746
g93
g94
ssg82
g3740
sg75
(lp3747
S'menu'
p3748
asbag68
(g89
g70
NtRp3749
(dp3750
g73
(dp3751
g100
g101
ssg82
g3740
sg75
(lp3752
S':'
asbag68
(g89
g70
NtRp3753
(dp3754
g73
(dp3755
sg82
g3740
sg75
(lp3756
g68
(g69
g70
NtRp3757
(dp3758
g73
(dp3759
g81
I5
ssg82
g3753
sg75
(lp3760
g68
(g77
g70
NtRp3761
(dp3762
g73
(dp3763
g81
I4
ssg82
Nsg75
(lp3764
g68
(g84
g70
NtRp3765
(dp3766
g73
(dp3767
sg82
g3761
sg75
(lp3768
g68
(g89
g70
NtRp3769
(dp3770
g73
(dp3771
sg82
g3765
sg75
(lp3772
g68
(g69
g70
NtRp3773
(dp3774
g73
(dp3775
g81
I4
ssg82
g3769
sg75
(lp3776
g68
(g77
g70
NtRp3777
(dp3778
g73
(dp3779
g81
I3
ssg82
Nsg75
(lp3780
g68
(g84
g70
NtRp3781
(dp3782
g73
(dp3783
sg82
g3777
sg75
(lp3784
g68
(g89
g70
NtRp3785
(dp3786
g73
(dp3787
sg82
g3781
sg75
(lp3788
g68
(g69
g70
NtRp3789
(dp3790
g73
(dp3791
g81
I3
ssg82
g3785
sg75
(lp3792
cgluon.languages
lazyT_unpickle
p3793
(S't\x04\x00\x00\x00Home'
tRp3794
asbasbasbag68
(g84
g70
NtRp3795
(dp3796
g73
(dp3797
sg82
g3777
sg75
(lp3798
g68
(g89
g70
NtRp3799
(dp3800
g73
(dp3801
sg82
g3795
sg75
(lp3802
g68
(g69
g70
NtRp3803
(dp3804
g73
(dp3805
g81
I3
ssg82
g3799
sg75
(lp3806
g111
asbasbasbag68
(g84
g70
NtRp3807
(dp3808
g73
(dp3809
sg82
g3777
sg75
(lp3810
g68
(g89
g70
NtRp3811
(dp3812
g73
(dp3813
sg82
g3807
sg75
(lp3814
g68
(g69
g70
NtRp3815
(dp3816
g73
(dp3817
g81
I3
ssg82
g3811
sg75
(lp3818
S'/welcome/default/index'
p3819
asbasbasbag68
(g84
g70
NtRp3820
(dp3821
g73
(dp3822
sg82
g3777
sg75
(lp3823
g68
(g89
g70
NtRp3824
(dp3825
g73
(dp3826
sg82
g3820
sg75
(lp3827
g68
(g69
g70
NtRp3828
(dp3829
g73
(dp3830
g81
I3
ssg82
g3824
sg75
(lp3831
g68
(g77
g70
NtRp3832
(dp3833
g73
(dp3834
g81
I2
ssg82
Nsg75
(lp3835
sbasbasbasbasbasbasbasbasbasbasbasbag68
(g84
g70
NtRp3836
(dp3837
g73
(dp3838
sg82
g3288
sg75
(lp3839
g68
(g89
g70
NtRp3840
(dp3841
g73
(dp3842
g93
g94
ssg82
g3836
sg75
(lp3843
S'meta'
p3844
asbag68
(g89
g70
NtRp3845
(dp3846
g73
(dp3847
g100
g101
ssg82
g3836
sg75
(lp3848
S':'
asbag68
(g89
g70
NtRp3849
(dp3850
g73
(dp3851
sg82
g3836
sg75
(lp3852
g68
(g69
g70
NtRp3853
(dp3854
g73
(dp3855
g81
I5
ssg82
g3849
sg75
(lp3856
g68
(g77
g70
NtRp3857
(dp3858
g73
(dp3859
g81
I4
ssg82
Nsg75
(lp3860
g68
(g84
g70
NtRp3861
(dp3862
g73
(dp3863
sg82
g3857
sg75
(lp3864
g68
(g89
g70
NtRp3865
(dp3866
g73
(dp3867
g93
g94
ssg82
g3861
sg75
(lp3868
S'author'
p3869
asbag68
(g89
g70
NtRp3870
(dp3871
g73
(dp3872
g100
g101
ssg82
g3861
sg75
(lp3873
S':'
asbag68
(g89
g70
NtRp3874
(dp3875
g73
(dp3876
sg82
g3861
sg75
(lp3877
g68
(g69
g70
NtRp3878
(dp3879
g73
(dp3880
g81
I4
ssg82
g3874
sg75
(lp3881
S'Your Name <you@example.com>'
p3882
asbasbasbag68
(g84
g70
NtRp3883
(dp3884
g73
(dp3885
sg82
g3857
sg75
(lp3886
g68
(g89
g70
NtRp3887
(dp3888
g73
(dp3889
g93
g94
ssg82
g3883
sg75
(lp3890
S'copyright'
p3891
asbag68
(g89
g70
NtRp3892
(dp3893
g73
(dp3894
g100
g101
ssg82
g3883
sg75
(lp3895
S':'
asbag68
(g89
g70
NtRp3896
(dp3897
g73
(dp3898
sg82
g3883
sg75
(lp3899
g68
(g69
g70
NtRp3900
(dp3901
g73
(dp3902
g81
I4
ssg82
g3896
sg75
(lp3903
S'Copyright 2011'
p3904
asbasbasbag68
(g84
g70
NtRp3905
(dp3906
g73
(dp3907
sg82
g3857
sg75
(lp3908
g68
(g89
g70
NtRp3909
(dp3910
g73
(dp3911
g93
g94
ssg82
g3905
sg75
(lp3912
S'description'
p3913
asbag68
(g89
g70
NtRp3914
(dp3915
g73
(dp3916
g100
g101
ssg82
g3905
sg75
(lp3917
S':'
asbag68
(g89
g70
NtRp3918
(dp3919
g73
(dp3920
sg82
g3905
sg75
(lp3921
g68
(g69
g70
NtRp3922
(dp3923
g73
(dp3924
g81
I4
ssg82
g3918
sg75
(lp3925
S'a cool new app'
p3926
asbasbasbag68
(g84
g70
NtRp3927
(dp3928
g73
(dp3929
sg82
g3857
sg75
(lp3930
g68
(g89
g70
NtRp3931
(dp3932
g73
(dp3933
g93
g94
ssg82
g3927
sg75
(lp3934
S'generator'
p3935
asbag68
(g89
g70
NtRp3936
(dp3937
g73
(dp3938
g100
g101
ssg82
g3927
sg75
(lp3939
S':'
asbag68
(g89
g70
NtRp3940
(dp3941
g73
(dp3942
sg82
g3927
sg75
(lp3943
g68
(g69
g70
NtRp3944
(dp3945
g73
(dp3946
g81
I4
ssg82
g3940
sg75
(lp3947
S'Web2py Web Framework'
p3948
asbasbasbag68
(g84
g70
NtRp3949
(dp3950
g73
(dp3951
sg82
g3857
sg75
(lp3952
g68
(g89
g70
NtRp3953
(dp3954
g73
(dp3955
g93
g94
ssg82
g3949
sg75
(lp3956
S'keywords'
p3957
asbag68
(g89
g70
NtRp3958
(dp3959
g73
(dp3960
g100
g101
ssg82
g3949
sg75
(lp3961
S':'
asbag68
(g89
g70
NtRp3962
(dp3963
g73
(dp3964
sg82
g3949
sg75
(lp3965
g68
(g69
g70
NtRp3966
(dp3967
g73
(dp3968
g81
I4
ssg82
g3962
sg75
(lp3969
S'web2py, python, framework'
p3970
asbasbasbasbasbasbasbag68
(g84
g70
NtRp3971
(dp3972
g73
(dp3973
sg82
g3288
sg75
(lp3974
g68
(g89
g70
NtRp3975
(dp3976
g73
(dp3977
g93
g94
ssg82
g3971
sg75
(lp3978
S'postprocessing'
p3979
asbag68
(g89
g70
NtRp3980
(dp3981
g73
(dp3982
g100
g101
ssg82
g3971
sg75
(lp3983
S':'
asbag68
(g89
g70
NtRp3984
(dp3985
g73
(dp3986
sg82
g3971
sg75
(lp3987
g68
(g69
g70
NtRp3988
(dp3989
g73
(dp3990
g81
I5
ssg82
g3984
sg75
(lp3991
g68
(g77
g70
NtRp3992
(dp3993
g73
(dp3994
g81
I4
ssg82
Nsg75
(lp3995
sbasbasbasbag68
(g84
g70
NtRp3996
(dp3997
g73
(dp3998
sg82
g3288
sg75
(lp3999
g68
(g89
g70
NtRp4000
(dp4001
g73
(dp4002
g93
g94
ssg82
g3996
sg75
(lp4003
S'session_file'
p4004
asbag68
(g89
g70
NtRp4005
(dp4006
g73
(dp4007
g100
g101
ssg82
g3996
sg75
(lp4008
S':'
asbag68
(g89
g70
NtRp4009
(dp4010
g73
(dp4011
sg82
g3996
sg75
(lp4012
g68
(g69
g70
NtRp4013
(dp4014
g73
(dp4015
g81
I5
ssg82
g4009
sg75
(lp4016
S"<open file 'C:\\Users\\mellinja\\Documents\\SC2Tracker\\SC2TourneyTracker\\web2py\\applications\\welcome\\sessions\\127.0.0.1-7f6da3c1-c383-4eae-be0f-bad70281272e', mode 'rb+' at 0x000000000719A930>"
p4017
asbasbasbag68
(g84
g70
NtRp4018
(dp4019
g73
(dp4020
sg82
g3288
sg75
(lp4021
g68
(g89
g70
NtRp4022
(dp4023
g73
(dp4024
g93
g94
ssg82
g4018
sg75
(lp4025
S'session_filename'
p4026
asbag68
(g89
g70
NtRp4027
(dp4028
g73
(dp4029
g100
g101
ssg82
g4018
sg75
(lp4030
S':'
asbag68
(g89
g70
NtRp4031
(dp4032
g73
(dp4033
sg82
g4018
sg75
(lp4034
g68
(g69
g70
NtRp4035
(dp4036
g73
(dp4037
g81
I5
ssg82
g4031
sg75
(lp4038
S'C:\\Users\\mellinja\\Documents\\SC2Tracker\\SC2TourneyTracker\\web2py\\applications\\welcome\\sessions\\127.0.0.1-7f6da3c1-c383-4eae-be0f-bad70281272e'
p4039
asbasbasbag68
(g84
g70
NtRp4040
(dp4041
g73
(dp4042
sg82
g3288
sg75
(lp4043
g68
(g89
g70
NtRp4044
(dp4045
g73
(dp4046
g93
g94
ssg82
g4040
sg75
(lp4047
S'session_id'
p4048
asbag68
(g89
g70
NtRp4049
(dp4050
g73
(dp4051
g100
g101
ssg82
g4040
sg75
(lp4052
S':'
asbag68
(g89
g70
NtRp4053
(dp4054
g73
(dp4055
sg82
g4040
sg75
(lp4056
g68
(g69
g70
NtRp4057
(dp4058
g73
(dp4059
g81
I5
ssg82
g4053
sg75
(lp4060
S'127.0.0.1-7f6da3c1-c383-4eae-be0f-bad70281272e'
p4061
asbasbasbag68
(g84
g70
NtRp4062
(dp4063
g73
(dp4064
sg82
g3288
sg75
(lp4065
g68
(g89
g70
NtRp4066
(dp4067
g73
(dp4068
g93
g94
ssg82
g4062
sg75
(lp4069
S'session_id_name'
p4070
asbag68
(g89
g70
NtRp4071
(dp4072
g73
(dp4073
g100
g101
ssg82
g4062
sg75
(lp4074
S':'
asbag68
(g89
g70
NtRp4075
(dp4076
g73
(dp4077
sg82
g4062
sg75
(lp4078
g68
(g69
g70
NtRp4079
(dp4080
g73
(dp4081
g81
I5
ssg82
g4075
sg75
(lp4082
g3345
asbasbasbag68
(g84
g70
NtRp4083
(dp4084
g73
(dp4085
sg82
g3288
sg75
(lp4086
g68
(g89
g70
NtRp4087
(dp4088
g73
(dp4089
g93
g94
ssg82
g4083
sg75
(lp4090
S'session_locked'
p4091
asbag68
(g89
g70
NtRp4092
(dp4093
g73
(dp4094
g100
g101
ssg82
g4083
sg75
(lp4095
S':'
asbag68
(g89
g70
NtRp4096
(dp4097
g73
(dp4098
sg82
g4083
sg75
(lp4099
g68
(g69
g70
NtRp4100
(dp4101
g73
(dp4102
g81
I5
ssg82
g4096
sg75
(lp4103
g1538
asbasbasbag68
(g84
g70
NtRp4104
(dp4105
g73
(dp4106
sg82
g3288
sg75
(lp4107
g68
(g89
g70
NtRp4108
(dp4109
g73
(dp4110
g93
g94
ssg82
g4104
sg75
(lp4111
S'session_new'
p4112
asbag68
(g89
g70
NtRp4113
(dp4114
g73
(dp4115
g100
g101
ssg82
g4104
sg75
(lp4116
S':'
asbag68
(g89
g70
NtRp4117
(dp4118
g73
(dp4119
sg82
g4104
sg75
(lp4120
g68
(g69
g70
NtRp4121
(dp4122
g73
(dp4123
g81
I5
ssg82
g4117
sg75
(lp4124
g111
asbasbasbag68
(g84
g70
NtRp4125
(dp4126
g73
(dp4127
sg82
g3288
sg75
(lp4128
g68
(g89
g70
NtRp4129
(dp4130
g73
(dp4131
g93
g94
ssg82
g4125
sg75
(lp4132
S'status'
p4133
asbag68
(g89
g70
NtRp4134
(dp4135
g73
(dp4136
g100
g101
ssg82
g4125
sg75
(lp4137
S':'
asbag68
(g89
g70
NtRp4138
(dp4139
g73
(dp4140
sg82
g4125
sg75
(lp4141
g68
(g69
g70
NtRp4142
(dp4143
g73
(dp4144
g81
I5
ssg82
g4138
sg75
(lp4145
S'200'
p4146
asbasbasbag68
(g84
g70
NtRp4147
(dp4148
g73
(dp4149
sg82
g3288
sg75
(lp4150
g68
(g89
g70
NtRp4151
(dp4152
g73
(dp4153
g93
g94
ssg82
g4147
sg75
(lp4154
S'subtitle'
p4155
asbag68
(g89
g70
NtRp4156
(dp4157
g73
(dp4158
g100
g101
ssg82
g4147
sg75
(lp4159
S':'
asbag68
(g89
g70
NtRp4160
(dp4161
g73
(dp4162
sg82
g4147
sg75
(lp4163
g68
(g69
g70
NtRp4164
(dp4165
g73
(dp4166
g81
I5
ssg82
g4160
sg75
(lp4167
g3793
(S's2\x00\x00\x00Starcraft II Custom Tournament Tracker Version 0.1'
tRp4168
asbasbasbag68
(g84
g70
NtRp4169
(dp4170
g73
(dp4171
sg82
g3288
sg75
(lp4172
g68
(g89
g70
NtRp4173
(dp4174
g73
(dp4175
g93
g94
ssg82
g4169
sg75
(lp4176
S'title'
p4177
asbag68
(g89
g70
NtRp4178
(dp4179
g73
(dp4180
g100
g101
ssg82
g4169
sg75
(lp4181
S':'
asbag68
(g89
g70
NtRp4182
(dp4183
g73
(dp4184
sg82
g4169
sg75
(lp4185
g68
(g69
g70
NtRp4186
(dp4187
g73
(dp4188
g81
I5
ssg82
g4182
sg75
(lp4189
S'SC2CTT v0.1'
p4190
asbasbasbag68
(g84
g70
NtRp4191
(dp4192
g73
(dp4193
sg82
g3288
sg75
(lp4194
g68
(g89
g70
NtRp4195
(dp4196
g73
(dp4197
g93
g94
ssg82
g4191
sg75
(lp4198
g2223
asbag68
(g89
g70
NtRp4199
(dp4200
g73
(dp4201
g100
g101
ssg82
g4191
sg75
(lp4202
S':'
asbag68
(g89
g70
NtRp4203
(dp4204
g73
(dp4205
sg82
g4191
sg75
(lp4206
g68
(g69
g70
NtRp4207
(dp4208
g73
(dp4209
g81
I5
ssg82
g4203
sg75
(lp4210
g2236
asbasbasbag68
(g84
g70
NtRp4211
(dp4212
g73
(dp4213
sg82
g3288
sg75
(lp4214
g68
(g89
g70
NtRp4215
(dp4216
g73
(dp4217
g93
g94
ssg82
g4211
sg75
(lp4218
S'view'
p4219
asbag68
(g89
g70
NtRp4220
(dp4221
g73
(dp4222
g100
g101
ssg82
g4211
sg75
(lp4223
S':'
asbag68
(g89
g70
NtRp4224
(dp4225
g73
(dp4226
sg82
g4211
sg75
(lp4227
g68
(g69
g70
NtRp4228
(dp4229
g73
(dp4230
g81
I5
ssg82
g4224
sg75
(lp4231
S'tournament/show.html'
p4232
asbasbasbasbasbsS'locals'
p4233
(dp4234
g4
S"r'C:\\Users\\mellinja\\Documents\\SC2Tracker\\SC2Tourne...y\\applications\\welcome\\views\\tournament/show.html'"
p4235
sg6
S'r"response.write(\'<!DOCTYPE html>\\r\\n<!-- pauliris...write(\'\\r\\n</body>\\r\\n</html>\\r\\n\', escape=False)"'
p4236
sssS'traceback'
p4237
S'Traceback (most recent call last):\n  File "C:\\Users\\mellinja\\Documents\\SC2Tracker\\SC2TourneyTracker\\web2py\\gluon\\restricted.py", line 203, in restricted\n    ccode = compile2(code,layer)\n  File "C:\\Users\\mellinja\\Documents\\SC2Tracker\\SC2TourneyTracker\\web2py\\gluon\\restricted.py", line 189, in compile2\n    return compile(code.rstrip().replace(\'\\r\\n\',\'\\n\')+\'\\n\', layer, \'exec\')\n  File "C:\\Users\\mellinja\\Documents\\SC2Tracker\\SC2TourneyTracker\\web2py\\applications\\welcome\\views\\tournament/show.html", line 79\n    response.write(\'\\r\\n\', escape=False)\n           ^\nSyntaxError: invalid syntax\n'
p4238
s.