(dp1
S'output'
p2
S'<class \'pyodbc.ProgrammingError\'> (\'42S22\', "[42S22] [Microsoft][ODBC SQL Server Driver][SQL Server]Invalid column name \'None\'. (207) (SQLExecDirectW)")'
p3
sS'layer'
p4
S'C:\\Users\\mellinja\\Documents\\SC2Tracker\\SC2TourneyTracker\\web2py\\applications\\welcome\\controllers/tournament.py'
p5
sS'code'
p6
S"# coding: utf8\n#\ndef index(): \n    #db = DAL('mssql://cheungkt:mechanes5@whale.cs.rose-hulman.edu/SC2tracker')\n    tournies = db.executesql('SELECT Name, ID FROM Tournament')\n    return dict(tournament = tournies)\n    \ndef show():\n    \n    tourny = db.executesql('SELECT * FROM Tournament WHERE ID = ' + str(request.args(0)))\n    \n    return dict(test = tourny)\n\n\n#def join():\n #   playerID = auth.user.ID\n  #  tournyID = request.args(0)\n   # #TODO: add tourny\n    #response.flash = 'Joined the tournament'\n    #return dict()\n\nresponse._vars=response._caller(show)\n"
p7
sS'snapshot'
p8
(dp9
S'exception'
p10
(dp11
S'__module__'
p12
S"'pyodbc'"
p13
sS'__getslice__'
p14
S"<method-wrapper '__getslice__' of ProgrammingError object>"
p15
sS'__str__'
p16
S"<method-wrapper '__str__' of ProgrammingError object>"
p17
sS'__reduce__'
p18
S'<built-in method __reduce__ of ProgrammingError object>'
p19
sS'__dict__'
p20
S'{}'
p21
sS'__sizeof__'
p22
S'<built-in method __sizeof__ of ProgrammingError object>'
p23
sS'__weakref__'
p24
S'None'
p25
sS'__init__'
p26
S"<method-wrapper '__init__' of ProgrammingError object>"
p27
sS'__setattr__'
p28
S"<method-wrapper '__setattr__' of ProgrammingError object>"
p29
sS'__reduce_ex__'
p30
S'<built-in method __reduce_ex__ of ProgrammingError object>'
p31
sS'__new__'
p32
S'<built-in method __new__ of type object>'
p33
sS'__format__'
p34
S'<built-in method __format__ of ProgrammingError object>'
p35
sS'__class__'
p36
S"<class 'pyodbc.ProgrammingError'>"
p37
sS'__doc__'
p38
S"'Exception raised for programming errors, e.g. ta...ement, wrong number of parameters\\nspecified, etc.'"
p39
sS'__getitem__'
p40
S"<method-wrapper '__getitem__' of ProgrammingError object>"
p41
sS'__setstate__'
p42
S'<built-in method __setstate__ of ProgrammingError object>'
p43
sS'__getattribute__'
p44
S"<method-wrapper '__getattribute__' of ProgrammingError object>"
p45
sS'args'
p46
S'(\'42S22\', "[42S22] [Microsoft][ODBC SQL Server Driver][SQL ...nvalid column name \'None\'. (207) (SQLExecDirectW)")'
p47
sS'__subclasshook__'
p48
S'<built-in method __subclasshook__ of type object>'
p49
sS'__unicode__'
p50
S'<built-in method __unicode__ of ProgrammingError object>'
p51
sS'__delattr__'
p52
S"<method-wrapper '__delattr__' of ProgrammingError object>"
p53
sS'__repr__'
p54
S"<method-wrapper '__repr__' of ProgrammingError object>"
p55
sS'__hash__'
p56
S"<method-wrapper '__hash__' of ProgrammingError object>"
p57
ssS'evalue'
p58
S'(\'42S22\', "[42S22] [Microsoft][ODBC SQL Server Driver][SQL Server]Invalid column name \'None\'. (207) (SQLExecDirectW)")'
p59
sS'request'
p60
ccopy_reg
_reconstructor
p61
(cgluon.html
BEAUTIFY
p62
c__builtin__
object
p63
NtRp64
(dp65
S'attributes'
p66
(dp67
sS'components'
p68
(lp69
g61
(cgluon.html
TABLE
p70
g63
NtRp71
(dp72
g66
(dp73
S'level'
p74
I5
ssS'parent'
p75
Nsg68
(lp76
g61
(cgluon.html
TR
p77
g63
NtRp78
(dp79
g66
(dp80
sg75
g71
sg68
(lp81
g61
(cgluon.html
TD
p82
g63
NtRp83
(dp84
g66
(dp85
S'_style'
p86
S'font-weight:bold;vertical-align:top'
p87
ssg75
g78
sg68
(lp88
S'ajax'
p89
asbag61
(g82
g63
NtRp90
(dp91
g66
(dp92
S'_valign'
p93
S'top'
p94
ssg75
g78
sg68
(lp95
S':'
asbag61
(g82
g63
NtRp96
(dp97
g66
(dp98
sg75
g78
sg68
(lp99
g61
(g62
g63
NtRp100
(dp101
g66
(dp102
g74
I5
ssg75
g96
sg68
(lp103
S'False'
p104
asbasbasbag61
(g77
g63
NtRp105
(dp106
g66
(dp107
sg75
g71
sg68
(lp108
g61
(g82
g63
NtRp109
(dp110
g66
(dp111
g86
g87
ssg75
g105
sg68
(lp112
S'application'
p113
asbag61
(g82
g63
NtRp114
(dp115
g66
(dp116
g93
g94
ssg75
g105
sg68
(lp117
S':'
asbag61
(g82
g63
NtRp118
(dp119
g66
(dp120
sg75
g105
sg68
(lp121
g61
(g62
g63
NtRp122
(dp123
g66
(dp124
g74
I5
ssg75
g118
sg68
(lp125
S'welcome'
p126
asbasbasbag61
(g77
g63
NtRp127
(dp128
g66
(dp129
sg75
g71
sg68
(lp130
g61
(g82
g63
NtRp131
(dp132
g66
(dp133
g86
g87
ssg75
g127
sg68
(lp134
g46
asbag61
(g82
g63
NtRp135
(dp136
g66
(dp137
g93
g94
ssg75
g127
sg68
(lp138
S':'
asbag61
(g82
g63
NtRp139
(dp140
g66
(dp141
sg75
g127
sg68
(lp142
g61
(g62
g63
NtRp143
(dp144
g66
(dp145
g74
I5
ssg75
g139
sg68
(lp146
g61
(g70
g63
NtRp147
(dp148
g66
(dp149
g74
I4
ssg75
Nsg68
(lp150
sbasbasbasbag61
(g77
g63
NtRp151
(dp152
g66
(dp153
sg75
g71
sg68
(lp154
g61
(g82
g63
NtRp155
(dp156
g66
(dp157
g86
g87
ssg75
g151
sg68
(lp158
S'body'
p159
asbag61
(g82
g63
NtRp160
(dp161
g66
(dp162
g93
g94
ssg75
g151
sg68
(lp163
S':'
asbag61
(g82
g63
NtRp164
(dp165
g66
(dp166
sg75
g151
sg68
(lp167
g61
(g62
g63
NtRp168
(dp169
g66
(dp170
g74
I5
ssg75
g164
sg68
(lp171
S'<cStringIO.StringO object at 0x000000000844B768>'
p172
asbasbasbag61
(g77
g63
NtRp173
(dp174
g66
(dp175
sg75
g71
sg68
(lp176
g61
(g82
g63
NtRp177
(dp178
g66
(dp179
g86
g87
ssg75
g173
sg68
(lp180
S'client'
p181
asbag61
(g82
g63
NtRp182
(dp183
g66
(dp184
g93
g94
ssg75
g173
sg68
(lp185
S':'
asbag61
(g82
g63
NtRp186
(dp187
g66
(dp188
sg75
g173
sg68
(lp189
g61
(g62
g63
NtRp190
(dp191
g66
(dp192
g74
I5
ssg75
g186
sg68
(lp193
S'127.0.0.1'
p194
asbasbasbag61
(g77
g63
NtRp195
(dp196
g66
(dp197
sg75
g71
sg68
(lp198
g61
(g82
g63
NtRp199
(dp200
g66
(dp201
g86
g87
ssg75
g195
sg68
(lp202
S'controller'
p203
asbag61
(g82
g63
NtRp204
(dp205
g66
(dp206
g93
g94
ssg75
g195
sg68
(lp207
S':'
asbag61
(g82
g63
NtRp208
(dp209
g66
(dp210
sg75
g195
sg68
(lp211
g61
(g62
g63
NtRp212
(dp213
g66
(dp214
g74
I5
ssg75
g208
sg68
(lp215
S'tournament'
p216
asbasbasbag61
(g77
g63
NtRp217
(dp218
g66
(dp219
sg75
g71
sg68
(lp220
g61
(g82
g63
NtRp221
(dp222
g66
(dp223
g86
g87
ssg75
g217
sg68
(lp224
S'cookies'
p225
asbag61
(g82
g63
NtRp226
(dp227
g66
(dp228
g93
g94
ssg75
g217
sg68
(lp229
S':'
asbag61
(g82
g63
NtRp230
(dp231
g66
(dp232
sg75
g217
sg68
(lp233
g61
(g62
g63
NtRp234
(dp235
g66
(dp236
g74
I5
ssg75
g230
sg68
(lp237
g61
(g70
g63
NtRp238
(dp239
g66
(dp240
g74
I4
ssg75
Nsg68
(lp241
g61
(g77
g63
NtRp242
(dp243
g66
(dp244
sg75
g238
sg68
(lp245
g61
(g82
g63
NtRp246
(dp247
g66
(dp248
g86
g87
ssg75
g242
sg68
(lp249
S'session_id_admin'
p250
asbag61
(g82
g63
NtRp251
(dp252
g66
(dp253
g93
g94
ssg75
g242
sg68
(lp254
S':'
asbag61
(g82
g63
NtRp255
(dp256
g66
(dp257
sg75
g242
sg68
(lp258
g61
(g62
g63
NtRp259
(dp260
g66
(dp261
g74
I4
ssg75
g255
sg68
(lp262
g61
(g70
g63
NtRp263
(dp264
g66
(dp265
g74
I3
ssg75
Nsg68
(lp266
g61
(g77
g63
NtRp267
(dp268
g66
(dp269
sg75
g263
sg68
(lp270
g61
(g82
g63
NtRp271
(dp272
g66
(dp273
g86
g87
ssg75
g267
sg68
(lp274
S'comment'
p275
asbag61
(g82
g63
NtRp276
(dp277
g66
(dp278
g93
g94
ssg75
g267
sg68
(lp279
S':'
asbag61
(g82
g63
NtRp280
(dp281
g66
(dp282
sg75
g267
sg68
(lp283
g61
(g62
g63
NtRp284
(dp285
g66
(dp286
g74
I3
ssg75
g280
sg68
(lp287
S''
asbasbasbag61
(g77
g63
NtRp288
(dp289
g66
(dp290
sg75
g263
sg68
(lp291
g61
(g82
g63
NtRp292
(dp293
g66
(dp294
g86
g87
ssg75
g288
sg68
(lp295
S'domain'
p296
asbag61
(g82
g63
NtRp297
(dp298
g66
(dp299
g93
g94
ssg75
g288
sg68
(lp300
S':'
asbag61
(g82
g63
NtRp301
(dp302
g66
(dp303
sg75
g288
sg68
(lp304
g61
(g62
g63
NtRp305
(dp306
g66
(dp307
g74
I3
ssg75
g301
sg68
(lp308
S''
asbasbasbag61
(g77
g63
NtRp309
(dp310
g66
(dp311
sg75
g263
sg68
(lp312
g61
(g82
g63
NtRp313
(dp314
g66
(dp315
g86
g87
ssg75
g309
sg68
(lp316
S'expires'
p317
asbag61
(g82
g63
NtRp318
(dp319
g66
(dp320
g93
g94
ssg75
g309
sg68
(lp321
S':'
asbag61
(g82
g63
NtRp322
(dp323
g66
(dp324
sg75
g309
sg68
(lp325
g61
(g62
g63
NtRp326
(dp327
g66
(dp328
g74
I3
ssg75
g322
sg68
(lp329
S''
asbasbasbag61
(g77
g63
NtRp330
(dp331
g66
(dp332
sg75
g263
sg68
(lp333
g61
(g82
g63
NtRp334
(dp335
g66
(dp336
g86
g87
ssg75
g330
sg68
(lp337
S'httponly'
p338
asbag61
(g82
g63
NtRp339
(dp340
g66
(dp341
g93
g94
ssg75
g330
sg68
(lp342
S':'
asbag61
(g82
g63
NtRp343
(dp344
g66
(dp345
sg75
g330
sg68
(lp346
g61
(g62
g63
NtRp347
(dp348
g66
(dp349
g74
I3
ssg75
g343
sg68
(lp350
S''
asbasbasbag61
(g77
g63
NtRp351
(dp352
g66
(dp353
sg75
g263
sg68
(lp354
g61
(g82
g63
NtRp355
(dp356
g66
(dp357
g86
g87
ssg75
g351
sg68
(lp358
S'max-age'
p359
asbag61
(g82
g63
NtRp360
(dp361
g66
(dp362
g93
g94
ssg75
g351
sg68
(lp363
S':'
asbag61
(g82
g63
NtRp364
(dp365
g66
(dp366
sg75
g351
sg68
(lp367
g61
(g62
g63
NtRp368
(dp369
g66
(dp370
g74
I3
ssg75
g364
sg68
(lp371
S''
asbasbasbag61
(g77
g63
NtRp372
(dp373
g66
(dp374
sg75
g263
sg68
(lp375
g61
(g82
g63
NtRp376
(dp377
g66
(dp378
g86
g87
ssg75
g372
sg68
(lp379
S'path'
p380
asbag61
(g82
g63
NtRp381
(dp382
g66
(dp383
g93
g94
ssg75
g372
sg68
(lp384
S':'
asbag61
(g82
g63
NtRp385
(dp386
g66
(dp387
sg75
g372
sg68
(lp388
g61
(g62
g63
NtRp389
(dp390
g66
(dp391
g74
I3
ssg75
g385
sg68
(lp392
S''
asbasbasbag61
(g77
g63
NtRp393
(dp394
g66
(dp395
sg75
g263
sg68
(lp396
g61
(g82
g63
NtRp397
(dp398
g66
(dp399
g86
g87
ssg75
g393
sg68
(lp400
S'secure'
p401
asbag61
(g82
g63
NtRp402
(dp403
g66
(dp404
g93
g94
ssg75
g393
sg68
(lp405
S':'
asbag61
(g82
g63
NtRp406
(dp407
g66
(dp408
sg75
g393
sg68
(lp409
g61
(g62
g63
NtRp410
(dp411
g66
(dp412
g74
I3
ssg75
g406
sg68
(lp413
S''
asbasbasbag61
(g77
g63
NtRp414
(dp415
g66
(dp416
sg75
g263
sg68
(lp417
g61
(g82
g63
NtRp418
(dp419
g66
(dp420
g86
g87
ssg75
g414
sg68
(lp421
S'version'
p422
asbag61
(g82
g63
NtRp423
(dp424
g66
(dp425
g93
g94
ssg75
g414
sg68
(lp426
S':'
asbag61
(g82
g63
NtRp427
(dp428
g66
(dp429
sg75
g414
sg68
(lp430
g61
(g62
g63
NtRp431
(dp432
g66
(dp433
g74
I3
ssg75
g427
sg68
(lp434
S''
asbasbasbasbasbasbasbag61
(g77
g63
NtRp435
(dp436
g66
(dp437
sg75
g238
sg68
(lp438
g61
(g82
g63
NtRp439
(dp440
g66
(dp441
g86
g87
ssg75
g435
sg68
(lp442
S'session_id_welcome'
p443
asbag61
(g82
g63
NtRp444
(dp445
g66
(dp446
g93
g94
ssg75
g435
sg68
(lp447
S':'
asbag61
(g82
g63
NtRp448
(dp449
g66
(dp450
sg75
g435
sg68
(lp451
g61
(g62
g63
NtRp452
(dp453
g66
(dp454
g74
I4
ssg75
g448
sg68
(lp455
g61
(g70
g63
NtRp456
(dp457
g66
(dp458
g74
I3
ssg75
Nsg68
(lp459
g61
(g77
g63
NtRp460
(dp461
g66
(dp462
sg75
g456
sg68
(lp463
g61
(g82
g63
NtRp464
(dp465
g66
(dp466
g86
g87
ssg75
g460
sg68
(lp467
g275
asbag61
(g82
g63
NtRp468
(dp469
g66
(dp470
g93
g94
ssg75
g460
sg68
(lp471
S':'
asbag61
(g82
g63
NtRp472
(dp473
g66
(dp474
sg75
g460
sg68
(lp475
g61
(g62
g63
NtRp476
(dp477
g66
(dp478
g74
I3
ssg75
g472
sg68
(lp479
S''
asbasbasbag61
(g77
g63
NtRp480
(dp481
g66
(dp482
sg75
g456
sg68
(lp483
g61
(g82
g63
NtRp484
(dp485
g66
(dp486
g86
g87
ssg75
g480
sg68
(lp487
g296
asbag61
(g82
g63
NtRp488
(dp489
g66
(dp490
g93
g94
ssg75
g480
sg68
(lp491
S':'
asbag61
(g82
g63
NtRp492
(dp493
g66
(dp494
sg75
g480
sg68
(lp495
g61
(g62
g63
NtRp496
(dp497
g66
(dp498
g74
I3
ssg75
g492
sg68
(lp499
S''
asbasbasbag61
(g77
g63
NtRp500
(dp501
g66
(dp502
sg75
g456
sg68
(lp503
g61
(g82
g63
NtRp504
(dp505
g66
(dp506
g86
g87
ssg75
g500
sg68
(lp507
g317
asbag61
(g82
g63
NtRp508
(dp509
g66
(dp510
g93
g94
ssg75
g500
sg68
(lp511
S':'
asbag61
(g82
g63
NtRp512
(dp513
g66
(dp514
sg75
g500
sg68
(lp515
g61
(g62
g63
NtRp516
(dp517
g66
(dp518
g74
I3
ssg75
g512
sg68
(lp519
S''
asbasbasbag61
(g77
g63
NtRp520
(dp521
g66
(dp522
sg75
g456
sg68
(lp523
g61
(g82
g63
NtRp524
(dp525
g66
(dp526
g86
g87
ssg75
g520
sg68
(lp527
g338
asbag61
(g82
g63
NtRp528
(dp529
g66
(dp530
g93
g94
ssg75
g520
sg68
(lp531
S':'
asbag61
(g82
g63
NtRp532
(dp533
g66
(dp534
sg75
g520
sg68
(lp535
g61
(g62
g63
NtRp536
(dp537
g66
(dp538
g74
I3
ssg75
g532
sg68
(lp539
S''
asbasbasbag61
(g77
g63
NtRp540
(dp541
g66
(dp542
sg75
g456
sg68
(lp543
g61
(g82
g63
NtRp544
(dp545
g66
(dp546
g86
g87
ssg75
g540
sg68
(lp547
g359
asbag61
(g82
g63
NtRp548
(dp549
g66
(dp550
g93
g94
ssg75
g540
sg68
(lp551
S':'
asbag61
(g82
g63
NtRp552
(dp553
g66
(dp554
sg75
g540
sg68
(lp555
g61
(g62
g63
NtRp556
(dp557
g66
(dp558
g74
I3
ssg75
g552
sg68
(lp559
S''
asbasbasbag61
(g77
g63
NtRp560
(dp561
g66
(dp562
sg75
g456
sg68
(lp563
g61
(g82
g63
NtRp564
(dp565
g66
(dp566
g86
g87
ssg75
g560
sg68
(lp567
g380
asbag61
(g82
g63
NtRp568
(dp569
g66
(dp570
g93
g94
ssg75
g560
sg68
(lp571
S':'
asbag61
(g82
g63
NtRp572
(dp573
g66
(dp574
sg75
g560
sg68
(lp575
g61
(g62
g63
NtRp576
(dp577
g66
(dp578
g74
I3
ssg75
g572
sg68
(lp579
S''
asbasbasbag61
(g77
g63
NtRp580
(dp581
g66
(dp582
sg75
g456
sg68
(lp583
g61
(g82
g63
NtRp584
(dp585
g66
(dp586
g86
g87
ssg75
g580
sg68
(lp587
g401
asbag61
(g82
g63
NtRp588
(dp589
g66
(dp590
g93
g94
ssg75
g580
sg68
(lp591
S':'
asbag61
(g82
g63
NtRp592
(dp593
g66
(dp594
sg75
g580
sg68
(lp595
g61
(g62
g63
NtRp596
(dp597
g66
(dp598
g74
I3
ssg75
g592
sg68
(lp599
S''
asbasbasbag61
(g77
g63
NtRp600
(dp601
g66
(dp602
sg75
g456
sg68
(lp603
g61
(g82
g63
NtRp604
(dp605
g66
(dp606
g86
g87
ssg75
g600
sg68
(lp607
g422
asbag61
(g82
g63
NtRp608
(dp609
g66
(dp610
g93
g94
ssg75
g600
sg68
(lp611
S':'
asbag61
(g82
g63
NtRp612
(dp613
g66
(dp614
sg75
g600
sg68
(lp615
g61
(g62
g63
NtRp616
(dp617
g66
(dp618
g74
I3
ssg75
g612
sg68
(lp619
S''
asbasbasbasbasbasbasbasbasbasbasbag61
(g77
g63
NtRp620
(dp621
g66
(dp622
sg75
g71
sg68
(lp623
g61
(g82
g63
NtRp624
(dp625
g66
(dp626
g86
g87
ssg75
g620
sg68
(lp627
S'env'
p628
asbag61
(g82
g63
NtRp629
(dp630
g66
(dp631
g93
g94
ssg75
g620
sg68
(lp632
S':'
asbag61
(g82
g63
NtRp633
(dp634
g66
(dp635
sg75
g620
sg68
(lp636
g61
(g62
g63
NtRp637
(dp638
g66
(dp639
g74
I5
ssg75
g633
sg68
(lp640
g61
(g70
g63
NtRp641
(dp642
g66
(dp643
g74
I4
ssg75
Nsg68
(lp644
g61
(g77
g63
NtRp645
(dp646
g66
(dp647
sg75
g641
sg68
(lp648
g61
(g82
g63
NtRp649
(dp650
g66
(dp651
g86
g87
ssg75
g645
sg68
(lp652
S'app_folders'
p653
asbag61
(g82
g63
NtRp654
(dp655
g66
(dp656
g93
g94
ssg75
g645
sg68
(lp657
S':'
asbag61
(g82
g63
NtRp658
(dp659
g66
(dp660
sg75
g645
sg68
(lp661
g61
(g62
g63
NtRp662
(dp663
g66
(dp664
g74
I4
ssg75
g658
sg68
(lp665
S"set(['C:\\\\Users\\\\mellinja\\\\Documents\\\\SC2Tracker\\\\SC2TourneyTracker\\\\web2py\\\\applications\\\\welcome\\\\', 'C:\\\\Users\\\\mellinja\\\\Documents\\\\SC2Tracker\\\\SC2TourneyTracker\\\\web2py\\\\applications\\\\admin\\\\'])"
p666
asbasbasbag61
(g77
g63
NtRp667
(dp668
g66
(dp669
sg75
g641
sg68
(lp670
g61
(g82
g63
NtRp671
(dp672
g66
(dp673
g86
g87
ssg75
g667
sg68
(lp674
S'applications_parent'
p675
asbag61
(g82
g63
NtRp676
(dp677
g66
(dp678
g93
g94
ssg75
g667
sg68
(lp679
S':'
asbag61
(g82
g63
NtRp680
(dp681
g66
(dp682
sg75
g667
sg68
(lp683
g61
(g62
g63
NtRp684
(dp685
g66
(dp686
g74
I4
ssg75
g680
sg68
(lp687
S'C:\\Users\\mellinja\\Documents\\SC2Tracker\\SC2TourneyTracker\\web2py'
p688
asbasbasbag61
(g77
g63
NtRp689
(dp690
g66
(dp691
sg75
g641
sg68
(lp692
g61
(g82
g63
NtRp693
(dp694
g66
(dp695
g86
g87
ssg75
g689
sg68
(lp696
S'cmd_args'
p697
asbag61
(g82
g63
NtRp698
(dp699
g66
(dp700
g93
g94
ssg75
g689
sg68
(lp701
S':'
asbag61
(g82
g63
NtRp702
(dp703
g66
(dp704
sg75
g689
sg68
(lp705
g61
(g62
g63
NtRp706
(dp707
g66
(dp708
g74
I4
ssg75
g702
sg68
(lp709
g61
(g70
g63
NtRp710
(dp711
g66
(dp712
g74
I3
ssg75
Nsg68
(lp713
sbasbasbasbag61
(g77
g63
NtRp714
(dp715
g66
(dp716
sg75
g641
sg68
(lp717
g61
(g82
g63
NtRp718
(dp719
g66
(dp720
g86
g87
ssg75
g714
sg68
(lp721
S'cmd_options'
p722
asbag61
(g82
g63
NtRp723
(dp724
g66
(dp725
g93
g94
ssg75
g714
sg68
(lp726
S':'
asbag61
(g82
g63
NtRp727
(dp728
g66
(dp729
sg75
g714
sg68
(lp730
g61
(g62
g63
NtRp731
(dp732
g66
(dp733
g74
I4
ssg75
g727
sg68
(lp734
S"<Values at 0x391d5c8: {'verbose': False, 'ip': '127.0.0.1', 'shutdown_timeout': 5, 'taskbar': False, 'nocron': False, 'pid_filename': 'httpserver.pid', 'maxthreads': None, 'softcron': False, 'server_name': 'mellinja-PC', 'bpython': False, 'nogui': False, 'port': 8000, 'extcron': False, 'debuglevel': 30, 'test': None, 'folder': 'C:\\\\Users\\\\mellinja\\\\Documents\\\\SC2Tracker\\\\SC2TourneyTracker\\\\web2py', 'config': '', 'import_models': False, 'winservice': '', 'shell': None, 'run': '', 'log_filename': 'httpserver.log', 'args': [''], 'socket_timeout': 1, 'ssl_ca_certificate': None, 'scheduler': None, 'profiler_filename': None, 'ssl_private_key': '', 'password': '<ask>', 'request_queue_size': 5, 'ssl_certificate': '', 'cronjob': False, 'numthreads': None, 'quiet': False, 'interfaces': None, 'minthreads': None, 'timeout': 10, 'plain': False, 'nobanner': False}>"
p735
asbasbasbag61
(g77
g63
NtRp736
(dp737
g66
(dp738
sg75
g641
sg68
(lp739
g61
(g82
g63
NtRp740
(dp741
g66
(dp742
g86
g87
ssg75
g736
sg68
(lp743
S'db_sessions'
p744
asbag61
(g82
g63
NtRp745
(dp746
g66
(dp747
g93
g94
ssg75
g736
sg68
(lp748
S':'
asbag61
(g82
g63
NtRp749
(dp750
g66
(dp751
sg75
g736
sg68
(lp752
g61
(g62
g63
NtRp753
(dp754
g66
(dp755
g74
I4
ssg75
g749
sg68
(lp756
S'set([])'
p757
asbasbasbag61
(g77
g63
NtRp758
(dp759
g66
(dp760
sg75
g641
sg68
(lp761
g61
(g82
g63
NtRp762
(dp763
g66
(dp764
g86
g87
ssg75
g758
sg68
(lp765
S'debugging'
p766
asbag61
(g82
g63
NtRp767
(dp768
g66
(dp769
g93
g94
ssg75
g758
sg68
(lp770
S':'
asbag61
(g82
g63
NtRp771
(dp772
g66
(dp773
sg75
g758
sg68
(lp774
g61
(g62
g63
NtRp775
(dp776
g66
(dp777
g74
I4
ssg75
g771
sg68
(lp778
g104
asbasbasbag61
(g77
g63
NtRp779
(dp780
g66
(dp781
sg75
g641
sg68
(lp782
g61
(g82
g63
NtRp783
(dp784
g66
(dp785
g86
g87
ssg75
g779
sg68
(lp786
S'gluon_parent'
p787
asbag61
(g82
g63
NtRp788
(dp789
g66
(dp790
g93
g94
ssg75
g779
sg68
(lp791
S':'
asbag61
(g82
g63
NtRp792
(dp793
g66
(dp794
sg75
g779
sg68
(lp795
g61
(g62
g63
NtRp796
(dp797
g66
(dp798
g74
I4
ssg75
g792
sg68
(lp799
S'C:\\Users\\mellinja\\Documents\\SC2Tracker\\SC2TourneyTracker\\web2py'
p800
asbasbasbag61
(g77
g63
NtRp801
(dp802
g66
(dp803
sg75
g641
sg68
(lp804
g61
(g82
g63
NtRp805
(dp806
g66
(dp807
g86
g87
ssg75
g801
sg68
(lp808
S'http_accept'
p809
asbag61
(g82
g63
NtRp810
(dp811
g66
(dp812
g93
g94
ssg75
g801
sg68
(lp813
S':'
asbag61
(g82
g63
NtRp814
(dp815
g66
(dp816
sg75
g801
sg68
(lp817
g61
(g62
g63
NtRp818
(dp819
g66
(dp820
g74
I4
ssg75
g814
sg68
(lp821
S'text/html,application/xhtml+xml,application/xml;q=0.9,*/*;q=0.8'
p822
asbasbasbag61
(g77
g63
NtRp823
(dp824
g66
(dp825
sg75
g641
sg68
(lp826
g61
(g82
g63
NtRp827
(dp828
g66
(dp829
g86
g87
ssg75
g823
sg68
(lp830
S'http_accept_charset'
p831
asbag61
(g82
g63
NtRp832
(dp833
g66
(dp834
g93
g94
ssg75
g823
sg68
(lp835
S':'
asbag61
(g82
g63
NtRp836
(dp837
g66
(dp838
sg75
g823
sg68
(lp839
g61
(g62
g63
NtRp840
(dp841
g66
(dp842
g74
I4
ssg75
g836
sg68
(lp843
S'ISO-8859-1,utf-8;q=0.7,*;q=0.3'
p844
asbasbasbag61
(g77
g63
NtRp845
(dp846
g66
(dp847
sg75
g641
sg68
(lp848
g61
(g82
g63
NtRp849
(dp850
g66
(dp851
g86
g87
ssg75
g845
sg68
(lp852
S'http_accept_encoding'
p853
asbag61
(g82
g63
NtRp854
(dp855
g66
(dp856
g93
g94
ssg75
g845
sg68
(lp857
S':'
asbag61
(g82
g63
NtRp858
(dp859
g66
(dp860
sg75
g845
sg68
(lp861
g61
(g62
g63
NtRp862
(dp863
g66
(dp864
g74
I4
ssg75
g858
sg68
(lp865
S'gzip,deflate,sdch'
p866
asbasbasbag61
(g77
g63
NtRp867
(dp868
g66
(dp869
sg75
g641
sg68
(lp870
g61
(g82
g63
NtRp871
(dp872
g66
(dp873
g86
g87
ssg75
g867
sg68
(lp874
S'http_accept_language'
p875
asbag61
(g82
g63
NtRp876
(dp877
g66
(dp878
g93
g94
ssg75
g867
sg68
(lp879
S':'
asbag61
(g82
g63
NtRp880
(dp881
g66
(dp882
sg75
g867
sg68
(lp883
g61
(g62
g63
NtRp884
(dp885
g66
(dp886
g74
I4
ssg75
g880
sg68
(lp887
S'en-US,en;q=0.8'
p888
asbasbasbag61
(g77
g63
NtRp889
(dp890
g66
(dp891
sg75
g641
sg68
(lp892
g61
(g82
g63
NtRp893
(dp894
g66
(dp895
g86
g87
ssg75
g889
sg68
(lp896
S'http_connection'
p897
asbag61
(g82
g63
NtRp898
(dp899
g66
(dp900
g93
g94
ssg75
g889
sg68
(lp901
S':'
asbag61
(g82
g63
NtRp902
(dp903
g66
(dp904
sg75
g889
sg68
(lp905
g61
(g62
g63
NtRp906
(dp907
g66
(dp908
g74
I4
ssg75
g902
sg68
(lp909
S'keep-alive'
p910
asbasbasbag61
(g77
g63
NtRp911
(dp912
g66
(dp913
sg75
g641
sg68
(lp914
g61
(g82
g63
NtRp915
(dp916
g66
(dp917
g86
g87
ssg75
g911
sg68
(lp918
S'http_cookie'
p919
asbag61
(g82
g63
NtRp920
(dp921
g66
(dp922
g93
g94
ssg75
g911
sg68
(lp923
S':'
asbag61
(g82
g63
NtRp924
(dp925
g66
(dp926
sg75
g911
sg68
(lp927
g61
(g62
g63
NtRp928
(dp929
g66
(dp930
g74
I4
ssg75
g924
sg68
(lp931
S'session_id_admin=127.0.0.1-b47b53ba-13cb-4e89-884f-d4f0a6a5c149; session_id_welcome=127.0.0.1-3577bb45-b3be-4c0f-be7b-edc2ad5f937c'
p932
asbasbasbag61
(g77
g63
NtRp933
(dp934
g66
(dp935
sg75
g641
sg68
(lp936
g61
(g82
g63
NtRp937
(dp938
g66
(dp939
g86
g87
ssg75
g933
sg68
(lp940
S'http_host'
p941
asbag61
(g82
g63
NtRp942
(dp943
g66
(dp944
g93
g94
ssg75
g933
sg68
(lp945
S':'
asbag61
(g82
g63
NtRp946
(dp947
g66
(dp948
sg75
g933
sg68
(lp949
g61
(g62
g63
NtRp950
(dp951
g66
(dp952
g74
I4
ssg75
g946
sg68
(lp953
S'127.0.0.1:8000'
p954
asbasbasbag61
(g77
g63
NtRp955
(dp956
g66
(dp957
sg75
g641
sg68
(lp958
g61
(g82
g63
NtRp959
(dp960
g66
(dp961
g86
g87
ssg75
g955
sg68
(lp962
S'http_referer'
p963
asbag61
(g82
g63
NtRp964
(dp965
g66
(dp966
g93
g94
ssg75
g955
sg68
(lp967
S':'
asbag61
(g82
g63
NtRp968
(dp969
g66
(dp970
sg75
g955
sg68
(lp971
g61
(g62
g63
NtRp972
(dp973
g66
(dp974
g74
I4
ssg75
g968
sg68
(lp975
S'http://127.0.0.1:8000/welcome/tournament/show/7'
p976
asbasbasbag61
(g77
g63
NtRp977
(dp978
g66
(dp979
sg75
g641
sg68
(lp980
g61
(g82
g63
NtRp981
(dp982
g66
(dp983
g86
g87
ssg75
g977
sg68
(lp984
S'http_user_agent'
p985
asbag61
(g82
g63
NtRp986
(dp987
g66
(dp988
g93
g94
ssg75
g977
sg68
(lp989
S':'
asbag61
(g82
g63
NtRp990
(dp991
g66
(dp992
sg75
g977
sg68
(lp993
g61
(g62
g63
NtRp994
(dp995
g66
(dp996
g74
I4
ssg75
g990
sg68
(lp997
S'Mozilla/5.0 (Windows NT 6.1; WOW64) AppleWebKit/535.7 (KHTML, like Gecko) Chrome/16.0.912.77 Safari/535.7'
p998
asbasbasbag61
(g77
g63
NtRp999
(dp1000
g66
(dp1001
sg75
g641
sg68
(lp1002
g61
(g82
g63
NtRp1003
(dp1004
g66
(dp1005
g86
g87
ssg75
g999
sg68
(lp1006
S'is_jython'
p1007
asbag61
(g82
g63
NtRp1008
(dp1009
g66
(dp1010
g93
g94
ssg75
g999
sg68
(lp1011
S':'
asbag61
(g82
g63
NtRp1012
(dp1013
g66
(dp1014
sg75
g999
sg68
(lp1015
g61
(g62
g63
NtRp1016
(dp1017
g66
(dp1018
g74
I4
ssg75
g1012
sg68
(lp1019
g104
asbasbasbag61
(g77
g63
NtRp1020
(dp1021
g66
(dp1022
sg75
g641
sg68
(lp1023
g61
(g82
g63
NtRp1024
(dp1025
g66
(dp1026
g86
g87
ssg75
g1020
sg68
(lp1027
S'is_pypy'
p1028
asbag61
(g82
g63
NtRp1029
(dp1030
g66
(dp1031
g93
g94
ssg75
g1020
sg68
(lp1032
S':'
asbag61
(g82
g63
NtRp1033
(dp1034
g66
(dp1035
sg75
g1020
sg68
(lp1036
g61
(g62
g63
NtRp1037
(dp1038
g66
(dp1039
g74
I4
ssg75
g1033
sg68
(lp1040
g104
asbasbasbag61
(g77
g63
NtRp1041
(dp1042
g66
(dp1043
sg75
g641
sg68
(lp1044
g61
(g82
g63
NtRp1045
(dp1046
g66
(dp1047
g86
g87
ssg75
g1041
sg68
(lp1048
S'path_info'
p1049
asbag61
(g82
g63
NtRp1050
(dp1051
g66
(dp1052
g93
g94
ssg75
g1041
sg68
(lp1053
S':'
asbag61
(g82
g63
NtRp1054
(dp1055
g66
(dp1056
sg75
g1041
sg68
(lp1057
g61
(g62
g63
NtRp1058
(dp1059
g66
(dp1060
g74
I4
ssg75
g1054
sg68
(lp1061
S'/welcome/tournament/show'
p1062
asbasbasbag61
(g77
g63
NtRp1063
(dp1064
g66
(dp1065
sg75
g641
sg68
(lp1066
g61
(g82
g63
NtRp1067
(dp1068
g66
(dp1069
g86
g87
ssg75
g1063
sg68
(lp1070
S'query_string'
p1071
asbag61
(g82
g63
NtRp1072
(dp1073
g66
(dp1074
g93
g94
ssg75
g1063
sg68
(lp1075
S':'
asbag61
(g82
g63
NtRp1076
(dp1077
g66
(dp1078
sg75
g1063
sg68
(lp1079
g61
(g62
g63
NtRp1080
(dp1081
g66
(dp1082
g74
I4
ssg75
g1076
sg68
(lp1083
S''
asbasbasbag61
(g77
g63
NtRp1084
(dp1085
g66
(dp1086
sg75
g641
sg68
(lp1087
g61
(g82
g63
NtRp1088
(dp1089
g66
(dp1090
g86
g87
ssg75
g1084
sg68
(lp1091
S'remote_addr'
p1092
asbag61
(g82
g63
NtRp1093
(dp1094
g66
(dp1095
g93
g94
ssg75
g1084
sg68
(lp1096
S':'
asbag61
(g82
g63
NtRp1097
(dp1098
g66
(dp1099
sg75
g1084
sg68
(lp1100
g61
(g62
g63
NtRp1101
(dp1102
g66
(dp1103
g74
I4
ssg75
g1097
sg68
(lp1104
g194
asbasbasbag61
(g77
g63
NtRp1105
(dp1106
g66
(dp1107
sg75
g641
sg68
(lp1108
g61
(g82
g63
NtRp1109
(dp1110
g66
(dp1111
g86
g87
ssg75
g1105
sg68
(lp1112
S'remote_port'
p1113
asbag61
(g82
g63
NtRp1114
(dp1115
g66
(dp1116
g93
g94
ssg75
g1105
sg68
(lp1117
S':'
asbag61
(g82
g63
NtRp1118
(dp1119
g66
(dp1120
sg75
g1105
sg68
(lp1121
g61
(g62
g63
NtRp1122
(dp1123
g66
(dp1124
g74
I4
ssg75
g1118
sg68
(lp1125
S'49413'
p1126
asbasbasbag61
(g77
g63
NtRp1127
(dp1128
g66
(dp1129
sg75
g641
sg68
(lp1130
g61
(g82
g63
NtRp1131
(dp1132
g66
(dp1133
g86
g87
ssg75
g1127
sg68
(lp1134
S'request_method'
p1135
asbag61
(g82
g63
NtRp1136
(dp1137
g66
(dp1138
g93
g94
ssg75
g1127
sg68
(lp1139
S':'
asbag61
(g82
g63
NtRp1140
(dp1141
g66
(dp1142
sg75
g1127
sg68
(lp1143
g61
(g62
g63
NtRp1144
(dp1145
g66
(dp1146
g74
I4
ssg75
g1140
sg68
(lp1147
S'GET'
p1148
asbasbasbag61
(g77
g63
NtRp1149
(dp1150
g66
(dp1151
sg75
g641
sg68
(lp1152
g61
(g82
g63
NtRp1153
(dp1154
g66
(dp1155
g86
g87
ssg75
g1149
sg68
(lp1156
S'script_name'
p1157
asbag61
(g82
g63
NtRp1158
(dp1159
g66
(dp1160
g93
g94
ssg75
g1149
sg68
(lp1161
S':'
asbag61
(g82
g63
NtRp1162
(dp1163
g66
(dp1164
sg75
g1149
sg68
(lp1165
g61
(g62
g63
NtRp1166
(dp1167
g66
(dp1168
g74
I4
ssg75
g1162
sg68
(lp1169
S''
asbasbasbag61
(g77
g63
NtRp1170
(dp1171
g66
(dp1172
sg75
g641
sg68
(lp1173
g61
(g82
g63
NtRp1174
(dp1175
g66
(dp1176
g86
g87
ssg75
g1170
sg68
(lp1177
S'server_name'
p1178
asbag61
(g82
g63
NtRp1179
(dp1180
g66
(dp1181
g93
g94
ssg75
g1170
sg68
(lp1182
S':'
asbag61
(g82
g63
NtRp1183
(dp1184
g66
(dp1185
sg75
g1170
sg68
(lp1186
g61
(g62
g63
NtRp1187
(dp1188
g66
(dp1189
g74
I4
ssg75
g1183
sg68
(lp1190
S'mellinja-PC'
p1191
asbasbasbag61
(g77
g63
NtRp1192
(dp1193
g66
(dp1194
sg75
g641
sg68
(lp1195
g61
(g82
g63
NtRp1196
(dp1197
g66
(dp1198
g86
g87
ssg75
g1192
sg68
(lp1199
S'server_port'
p1200
asbag61
(g82
g63
NtRp1201
(dp1202
g66
(dp1203
g93
g94
ssg75
g1192
sg68
(lp1204
S':'
asbag61
(g82
g63
NtRp1205
(dp1206
g66
(dp1207
sg75
g1192
sg68
(lp1208
g61
(g62
g63
NtRp1209
(dp1210
g66
(dp1211
g74
I4
ssg75
g1205
sg68
(lp1212
S'8000'
p1213
asbasbasbag61
(g77
g63
NtRp1214
(dp1215
g66
(dp1216
sg75
g641
sg68
(lp1217
g61
(g82
g63
NtRp1218
(dp1219
g66
(dp1220
g86
g87
ssg75
g1214
sg68
(lp1221
S'server_protocol'
p1222
asbag61
(g82
g63
NtRp1223
(dp1224
g66
(dp1225
g93
g94
ssg75
g1214
sg68
(lp1226
S':'
asbag61
(g82
g63
NtRp1227
(dp1228
g66
(dp1229
sg75
g1214
sg68
(lp1230
g61
(g62
g63
NtRp1231
(dp1232
g66
(dp1233
g74
I4
ssg75
g1227
sg68
(lp1234
S'HTTP/1.1'
p1235
asbasbasbag61
(g77
g63
NtRp1236
(dp1237
g66
(dp1238
sg75
g641
sg68
(lp1239
g61
(g82
g63
NtRp1240
(dp1241
g66
(dp1242
g86
g87
ssg75
g1236
sg68
(lp1243
S'server_software'
p1244
asbag61
(g82
g63
NtRp1245
(dp1246
g66
(dp1247
g93
g94
ssg75
g1236
sg68
(lp1248
S':'
asbag61
(g82
g63
NtRp1249
(dp1250
g66
(dp1251
sg75
g1236
sg68
(lp1252
g61
(g62
g63
NtRp1253
(dp1254
g66
(dp1255
g74
I4
ssg75
g1249
sg68
(lp1256
S'Rocket 1.2.4'
p1257
asbasbasbag61
(g77
g63
NtRp1258
(dp1259
g66
(dp1260
sg75
g641
sg68
(lp1261
g61
(g82
g63
NtRp1262
(dp1263
g66
(dp1264
g86
g87
ssg75
g1258
sg68
(lp1265
S'web2py_crontype'
p1266
asbag61
(g82
g63
NtRp1267
(dp1268
g66
(dp1269
g93
g94
ssg75
g1258
sg68
(lp1270
S':'
asbag61
(g82
g63
NtRp1271
(dp1272
g66
(dp1273
sg75
g1258
sg68
(lp1274
g61
(g62
g63
NtRp1275
(dp1276
g66
(dp1277
g74
I4
ssg75
g1271
sg68
(lp1278
S'hard'
p1279
asbasbasbag61
(g77
g63
NtRp1280
(dp1281
g66
(dp1282
sg75
g641
sg68
(lp1283
g61
(g82
g63
NtRp1284
(dp1285
g66
(dp1286
g86
g87
ssg75
g1280
sg68
(lp1287
S'web2py_path'
p1288
asbag61
(g82
g63
NtRp1289
(dp1290
g66
(dp1291
g93
g94
ssg75
g1280
sg68
(lp1292
S':'
asbag61
(g82
g63
NtRp1293
(dp1294
g66
(dp1295
sg75
g1280
sg68
(lp1296
g61
(g62
g63
NtRp1297
(dp1298
g66
(dp1299
g74
I4
ssg75
g1293
sg68
(lp1300
g688
asbasbasbag61
(g77
g63
NtRp1301
(dp1302
g66
(dp1303
sg75
g641
sg68
(lp1304
g61
(g82
g63
NtRp1305
(dp1306
g66
(dp1307
g86
g87
ssg75
g1301
sg68
(lp1308
S'web2py_version'
p1309
asbag61
(g82
g63
NtRp1310
(dp1311
g66
(dp1312
g93
g94
ssg75
g1301
sg68
(lp1313
S':'
asbag61
(g82
g63
NtRp1314
(dp1315
g66
(dp1316
sg75
g1301
sg68
(lp1317
g61
(g62
g63
NtRp1318
(dp1319
g66
(dp1320
g74
I4
ssg75
g1314
sg68
(lp1321
g61
(g70
g63
NtRp1322
(dp1323
g66
(dp1324
g74
I3
ssg75
Nsg68
(lp1325
g61
(g77
g63
NtRp1326
(dp1327
g66
(dp1328
sg75
g1322
sg68
(lp1329
g61
(g82
g63
NtRp1330
(dp1331
g66
(dp1332
sg75
g1326
sg68
(lp1333
g61
(g62
g63
NtRp1334
(dp1335
g66
(dp1336
g74
I3
ssg75
g1330
sg68
(lp1337
S'1'
asbasbasbag61
(g77
g63
NtRp1338
(dp1339
g66
(dp1340
sg75
g1322
sg68
(lp1341
g61
(g82
g63
NtRp1342
(dp1343
g66
(dp1344
sg75
g1338
sg68
(lp1345
g61
(g62
g63
NtRp1346
(dp1347
g66
(dp1348
g74
I3
ssg75
g1342
sg68
(lp1349
S'99'
p1350
asbasbasbag61
(g77
g63
NtRp1351
(dp1352
g66
(dp1353
sg75
g1322
sg68
(lp1354
g61
(g82
g63
NtRp1355
(dp1356
g66
(dp1357
sg75
g1351
sg68
(lp1358
g61
(g62
g63
NtRp1359
(dp1360
g66
(dp1361
g74
I3
ssg75
g1355
sg68
(lp1362
S'4'
asbasbasbag61
(g77
g63
NtRp1363
(dp1364
g66
(dp1365
sg75
g1322
sg68
(lp1366
g61
(g82
g63
NtRp1367
(dp1368
g66
(dp1369
sg75
g1363
sg68
(lp1370
g61
(g62
g63
NtRp1371
(dp1372
g66
(dp1373
g74
I3
ssg75
g1367
sg68
(lp1374
S'datetime.datetime(2011, 12, 14, 14, 46, 14)'
p1375
asbasbasbag61
(g77
g63
NtRp1376
(dp1377
g66
(dp1378
sg75
g1322
sg68
(lp1379
g61
(g82
g63
NtRp1380
(dp1381
g66
(dp1382
sg75
g1376
sg68
(lp1383
g61
(g62
g63
NtRp1384
(dp1385
g66
(dp1386
g74
I3
ssg75
g1380
sg68
(lp1387
S'stable'
p1388
asbasbasbasbasbasbasbag61
(g77
g63
NtRp1389
(dp1390
g66
(dp1391
sg75
g641
sg68
(lp1392
g61
(g82
g63
NtRp1393
(dp1394
g66
(dp1395
g86
g87
ssg75
g1389
sg68
(lp1396
S'wsgi_errors'
p1397
asbag61
(g82
g63
NtRp1398
(dp1399
g66
(dp1400
g93
g94
ssg75
g1389
sg68
(lp1401
S':'
asbag61
(g82
g63
NtRp1402
(dp1403
g66
(dp1404
sg75
g1389
sg68
(lp1405
g61
(g62
g63
NtRp1406
(dp1407
g66
(dp1408
g74
I4
ssg75
g1402
sg68
(lp1409
S"<open file '<stderr>', mode 'w' at 0x00000000020161E0>"
p1410
asbasbasbag61
(g77
g63
NtRp1411
(dp1412
g66
(dp1413
sg75
g641
sg68
(lp1414
g61
(g82
g63
NtRp1415
(dp1416
g66
(dp1417
g86
g87
ssg75
g1411
sg68
(lp1418
S'wsgi_file_wrapper'
p1419
asbag61
(g82
g63
NtRp1420
(dp1421
g66
(dp1422
g93
g94
ssg75
g1411
sg68
(lp1423
S':'
asbag61
(g82
g63
NtRp1424
(dp1425
g66
(dp1426
sg75
g1411
sg68
(lp1427
g61
(g62
g63
NtRp1428
(dp1429
g66
(dp1430
g74
I4
ssg75
g1424
sg68
(lp1431
S'<class wsgiref.util.FileWrapper at 0x000000000380D828>'
p1432
asbasbasbag61
(g77
g63
NtRp1433
(dp1434
g66
(dp1435
sg75
g641
sg68
(lp1436
g61
(g82
g63
NtRp1437
(dp1438
g66
(dp1439
g86
g87
ssg75
g1433
sg68
(lp1440
S'wsgi_input'
p1441
asbag61
(g82
g63
NtRp1442
(dp1443
g66
(dp1444
g93
g94
ssg75
g1433
sg68
(lp1445
S':'
asbag61
(g82
g63
NtRp1446
(dp1447
g66
(dp1448
sg75
g1433
sg68
(lp1449
g61
(g62
g63
NtRp1450
(dp1451
g66
(dp1452
g74
I4
ssg75
g1446
sg68
(lp1453
S'<socket._fileobject object at 0x00000000081650C0>'
p1454
asbasbasbag61
(g77
g63
NtRp1455
(dp1456
g66
(dp1457
sg75
g641
sg68
(lp1458
g61
(g82
g63
NtRp1459
(dp1460
g66
(dp1461
g86
g87
ssg75
g1455
sg68
(lp1462
S'wsgi_multiprocess'
p1463
asbag61
(g82
g63
NtRp1464
(dp1465
g66
(dp1466
g93
g94
ssg75
g1455
sg68
(lp1467
S':'
asbag61
(g82
g63
NtRp1468
(dp1469
g66
(dp1470
sg75
g1455
sg68
(lp1471
g61
(g62
g63
NtRp1472
(dp1473
g66
(dp1474
g74
I4
ssg75
g1468
sg68
(lp1475
g104
asbasbasbag61
(g77
g63
NtRp1476
(dp1477
g66
(dp1478
sg75
g641
sg68
(lp1479
g61
(g82
g63
NtRp1480
(dp1481
g66
(dp1482
g86
g87
ssg75
g1476
sg68
(lp1483
S'wsgi_multithread'
p1484
asbag61
(g82
g63
NtRp1485
(dp1486
g66
(dp1487
g93
g94
ssg75
g1476
sg68
(lp1488
S':'
asbag61
(g82
g63
NtRp1489
(dp1490
g66
(dp1491
sg75
g1476
sg68
(lp1492
g61
(g62
g63
NtRp1493
(dp1494
g66
(dp1495
g74
I4
ssg75
g1489
sg68
(lp1496
S'True'
p1497
asbasbasbag61
(g77
g63
NtRp1498
(dp1499
g66
(dp1500
sg75
g641
sg68
(lp1501
g61
(g82
g63
NtRp1502
(dp1503
g66
(dp1504
g86
g87
ssg75
g1498
sg68
(lp1505
S'wsgi_run_once'
p1506
asbag61
(g82
g63
NtRp1507
(dp1508
g66
(dp1509
g93
g94
ssg75
g1498
sg68
(lp1510
S':'
asbag61
(g82
g63
NtRp1511
(dp1512
g66
(dp1513
sg75
g1498
sg68
(lp1514
g61
(g62
g63
NtRp1515
(dp1516
g66
(dp1517
g74
I4
ssg75
g1511
sg68
(lp1518
g104
asbasbasbag61
(g77
g63
NtRp1519
(dp1520
g66
(dp1521
sg75
g641
sg68
(lp1522
g61
(g82
g63
NtRp1523
(dp1524
g66
(dp1525
g86
g87
ssg75
g1519
sg68
(lp1526
S'wsgi_url_scheme'
p1527
asbag61
(g82
g63
NtRp1528
(dp1529
g66
(dp1530
g93
g94
ssg75
g1519
sg68
(lp1531
S':'
asbag61
(g82
g63
NtRp1532
(dp1533
g66
(dp1534
sg75
g1519
sg68
(lp1535
g61
(g62
g63
NtRp1536
(dp1537
g66
(dp1538
g74
I4
ssg75
g1532
sg68
(lp1539
S'http'
p1540
asbasbasbag61
(g77
g63
NtRp1541
(dp1542
g66
(dp1543
sg75
g641
sg68
(lp1544
g61
(g82
g63
NtRp1545
(dp1546
g66
(dp1547
g86
g87
ssg75
g1541
sg68
(lp1548
S'wsgi_version'
p1549
asbag61
(g82
g63
NtRp1550
(dp1551
g66
(dp1552
g93
g94
ssg75
g1541
sg68
(lp1553
S':'
asbag61
(g82
g63
NtRp1554
(dp1555
g66
(dp1556
sg75
g1541
sg68
(lp1557
g61
(g62
g63
NtRp1558
(dp1559
g66
(dp1560
g74
I4
ssg75
g1554
sg68
(lp1561
g61
(g70
g63
NtRp1562
(dp1563
g66
(dp1564
g74
I3
ssg75
Nsg68
(lp1565
g61
(g77
g63
NtRp1566
(dp1567
g66
(dp1568
sg75
g1562
sg68
(lp1569
g61
(g82
g63
NtRp1570
(dp1571
g66
(dp1572
sg75
g1566
sg68
(lp1573
g61
(g62
g63
NtRp1574
(dp1575
g66
(dp1576
g74
I3
ssg75
g1570
sg68
(lp1577
S'1'
asbasbasbag61
(g77
g63
NtRp1578
(dp1579
g66
(dp1580
sg75
g1562
sg68
(lp1581
g61
(g82
g63
NtRp1582
(dp1583
g66
(dp1584
sg75
g1578
sg68
(lp1585
g61
(g62
g63
NtRp1586
(dp1587
g66
(dp1588
g74
I3
ssg75
g1582
sg68
(lp1589
S'0'
asbasbasbasbasbasbasbasbasbasbasbag61
(g77
g63
NtRp1590
(dp1591
g66
(dp1592
sg75
g71
sg68
(lp1593
g61
(g82
g63
NtRp1594
(dp1595
g66
(dp1596
g86
g87
ssg75
g1590
sg68
(lp1597
S'extension'
p1598
asbag61
(g82
g63
NtRp1599
(dp1600
g66
(dp1601
g93
g94
ssg75
g1590
sg68
(lp1602
S':'
asbag61
(g82
g63
NtRp1603
(dp1604
g66
(dp1605
sg75
g1590
sg68
(lp1606
g61
(g62
g63
NtRp1607
(dp1608
g66
(dp1609
g74
I5
ssg75
g1603
sg68
(lp1610
S'html'
p1611
asbasbasbag61
(g77
g63
NtRp1612
(dp1613
g66
(dp1614
sg75
g71
sg68
(lp1615
g61
(g82
g63
NtRp1616
(dp1617
g66
(dp1618
g86
g87
ssg75
g1612
sg68
(lp1619
S'folder'
p1620
asbag61
(g82
g63
NtRp1621
(dp1622
g66
(dp1623
g93
g94
ssg75
g1612
sg68
(lp1624
S':'
asbag61
(g82
g63
NtRp1625
(dp1626
g66
(dp1627
sg75
g1612
sg68
(lp1628
g61
(g62
g63
NtRp1629
(dp1630
g66
(dp1631
g74
I5
ssg75
g1625
sg68
(lp1632
S'C:\\Users\\mellinja\\Documents\\SC2Tracker\\SC2TourneyTracker\\web2py\\applications\\welcome\\'
p1633
asbasbasbag61
(g77
g63
NtRp1634
(dp1635
g66
(dp1636
sg75
g71
sg68
(lp1637
g61
(g82
g63
NtRp1638
(dp1639
g66
(dp1640
g86
g87
ssg75
g1634
sg68
(lp1641
S'function'
p1642
asbag61
(g82
g63
NtRp1643
(dp1644
g66
(dp1645
g93
g94
ssg75
g1634
sg68
(lp1646
S':'
asbag61
(g82
g63
NtRp1647
(dp1648
g66
(dp1649
sg75
g1634
sg68
(lp1650
g61
(g62
g63
NtRp1651
(dp1652
g66
(dp1653
g74
I5
ssg75
g1647
sg68
(lp1654
S'show'
p1655
asbasbasbag61
(g77
g63
NtRp1656
(dp1657
g66
(dp1658
sg75
g71
sg68
(lp1659
g61
(g82
g63
NtRp1660
(dp1661
g66
(dp1662
g86
g87
ssg75
g1656
sg68
(lp1663
S'get_vars'
p1664
asbag61
(g82
g63
NtRp1665
(dp1666
g66
(dp1667
g93
g94
ssg75
g1656
sg68
(lp1668
S':'
asbag61
(g82
g63
NtRp1669
(dp1670
g66
(dp1671
sg75
g1656
sg68
(lp1672
g61
(g62
g63
NtRp1673
(dp1674
g66
(dp1675
g74
I5
ssg75
g1669
sg68
(lp1676
g61
(g70
g63
NtRp1677
(dp1678
g66
(dp1679
g74
I4
ssg75
Nsg68
(lp1680
sbasbasbasbag61
(g77
g63
NtRp1681
(dp1682
g66
(dp1683
sg75
g71
sg68
(lp1684
g61
(g82
g63
NtRp1685
(dp1686
g66
(dp1687
g86
g87
ssg75
g1681
sg68
(lp1688
S'global_settings'
p1689
asbag61
(g82
g63
NtRp1690
(dp1691
g66
(dp1692
g93
g94
ssg75
g1681
sg68
(lp1693
S':'
asbag61
(g82
g63
NtRp1694
(dp1695
g66
(dp1696
sg75
g1681
sg68
(lp1697
g61
(g62
g63
NtRp1698
(dp1699
g66
(dp1700
g74
I5
ssg75
g1694
sg68
(lp1701
g61
(g70
g63
NtRp1702
(dp1703
g66
(dp1704
g74
I4
ssg75
Nsg68
(lp1705
g61
(g77
g63
NtRp1706
(dp1707
g66
(dp1708
sg75
g1702
sg68
(lp1709
g61
(g82
g63
NtRp1710
(dp1711
g66
(dp1712
g86
g87
ssg75
g1706
sg68
(lp1713
g653
asbag61
(g82
g63
NtRp1714
(dp1715
g66
(dp1716
g93
g94
ssg75
g1706
sg68
(lp1717
S':'
asbag61
(g82
g63
NtRp1718
(dp1719
g66
(dp1720
sg75
g1706
sg68
(lp1721
g61
(g62
g63
NtRp1722
(dp1723
g66
(dp1724
g74
I4
ssg75
g1718
sg68
(lp1725
S"set(['C:\\\\Users\\\\mellinja\\\\Documents\\\\SC2Tracker\\\\SC2TourneyTracker\\\\web2py\\\\applications\\\\welcome\\\\', 'C:\\\\Users\\\\mellinja\\\\Documents\\\\SC2Tracker\\\\SC2TourneyTracker\\\\web2py\\\\applications\\\\admin\\\\'])"
p1726
asbasbasbag61
(g77
g63
NtRp1727
(dp1728
g66
(dp1729
sg75
g1702
sg68
(lp1730
g61
(g82
g63
NtRp1731
(dp1732
g66
(dp1733
g86
g87
ssg75
g1727
sg68
(lp1734
g675
asbag61
(g82
g63
NtRp1735
(dp1736
g66
(dp1737
g93
g94
ssg75
g1727
sg68
(lp1738
S':'
asbag61
(g82
g63
NtRp1739
(dp1740
g66
(dp1741
sg75
g1727
sg68
(lp1742
g61
(g62
g63
NtRp1743
(dp1744
g66
(dp1745
g74
I4
ssg75
g1739
sg68
(lp1746
g688
asbasbasbag61
(g77
g63
NtRp1747
(dp1748
g66
(dp1749
sg75
g1702
sg68
(lp1750
g61
(g82
g63
NtRp1751
(dp1752
g66
(dp1753
g86
g87
ssg75
g1747
sg68
(lp1754
g697
asbag61
(g82
g63
NtRp1755
(dp1756
g66
(dp1757
g93
g94
ssg75
g1747
sg68
(lp1758
S':'
asbag61
(g82
g63
NtRp1759
(dp1760
g66
(dp1761
sg75
g1747
sg68
(lp1762
g61
(g62
g63
NtRp1763
(dp1764
g66
(dp1765
g74
I4
ssg75
g1759
sg68
(lp1766
g61
(g70
g63
NtRp1767
(dp1768
g66
(dp1769
g74
I3
ssg75
Nsg68
(lp1770
sbasbasbasbag61
(g77
g63
NtRp1771
(dp1772
g66
(dp1773
sg75
g1702
sg68
(lp1774
g61
(g82
g63
NtRp1775
(dp1776
g66
(dp1777
g86
g87
ssg75
g1771
sg68
(lp1778
g722
asbag61
(g82
g63
NtRp1779
(dp1780
g66
(dp1781
g93
g94
ssg75
g1771
sg68
(lp1782
S':'
asbag61
(g82
g63
NtRp1783
(dp1784
g66
(dp1785
sg75
g1771
sg68
(lp1786
g61
(g62
g63
NtRp1787
(dp1788
g66
(dp1789
g74
I4
ssg75
g1783
sg68
(lp1790
S"<Values at 0x391d5c8: {'verbose': False, 'ip': '127.0.0.1', 'shutdown_timeout': 5, 'taskbar': False, 'nocron': False, 'pid_filename': 'httpserver.pid', 'maxthreads': None, 'softcron': False, 'server_name': 'mellinja-PC', 'bpython': False, 'nogui': False, 'port': 8000, 'extcron': False, 'debuglevel': 30, 'test': None, 'folder': 'C:\\\\Users\\\\mellinja\\\\Documents\\\\SC2Tracker\\\\SC2TourneyTracker\\\\web2py', 'config': '', 'import_models': False, 'winservice': '', 'shell': None, 'run': '', 'log_filename': 'httpserver.log', 'args': [''], 'socket_timeout': 1, 'ssl_ca_certificate': None, 'scheduler': None, 'profiler_filename': None, 'ssl_private_key': '', 'password': '<ask>', 'request_queue_size': 5, 'ssl_certificate': '', 'cronjob': False, 'numthreads': None, 'quiet': False, 'interfaces': None, 'minthreads': None, 'timeout': 10, 'plain': False, 'nobanner': False}>"
p1791
asbasbasbag61
(g77
g63
NtRp1792
(dp1793
g66
(dp1794
sg75
g1702
sg68
(lp1795
g61
(g82
g63
NtRp1796
(dp1797
g66
(dp1798
g86
g87
ssg75
g1792
sg68
(lp1799
g744
asbag61
(g82
g63
NtRp1800
(dp1801
g66
(dp1802
g93
g94
ssg75
g1792
sg68
(lp1803
S':'
asbag61
(g82
g63
NtRp1804
(dp1805
g66
(dp1806
sg75
g1792
sg68
(lp1807
g61
(g62
g63
NtRp1808
(dp1809
g66
(dp1810
g74
I4
ssg75
g1804
sg68
(lp1811
S'set([])'
p1812
asbasbasbag61
(g77
g63
NtRp1813
(dp1814
g66
(dp1815
sg75
g1702
sg68
(lp1816
g61
(g82
g63
NtRp1817
(dp1818
g66
(dp1819
g86
g87
ssg75
g1813
sg68
(lp1820
g766
asbag61
(g82
g63
NtRp1821
(dp1822
g66
(dp1823
g93
g94
ssg75
g1813
sg68
(lp1824
S':'
asbag61
(g82
g63
NtRp1825
(dp1826
g66
(dp1827
sg75
g1813
sg68
(lp1828
g61
(g62
g63
NtRp1829
(dp1830
g66
(dp1831
g74
I4
ssg75
g1825
sg68
(lp1832
g104
asbasbasbag61
(g77
g63
NtRp1833
(dp1834
g66
(dp1835
sg75
g1702
sg68
(lp1836
g61
(g82
g63
NtRp1837
(dp1838
g66
(dp1839
g86
g87
ssg75
g1833
sg68
(lp1840
g787
asbag61
(g82
g63
NtRp1841
(dp1842
g66
(dp1843
g93
g94
ssg75
g1833
sg68
(lp1844
S':'
asbag61
(g82
g63
NtRp1845
(dp1846
g66
(dp1847
sg75
g1833
sg68
(lp1848
g61
(g62
g63
NtRp1849
(dp1850
g66
(dp1851
g74
I4
ssg75
g1845
sg68
(lp1852
g800
asbasbasbag61
(g77
g63
NtRp1853
(dp1854
g66
(dp1855
sg75
g1702
sg68
(lp1856
g61
(g82
g63
NtRp1857
(dp1858
g66
(dp1859
g86
g87
ssg75
g1853
sg68
(lp1860
g1007
asbag61
(g82
g63
NtRp1861
(dp1862
g66
(dp1863
g93
g94
ssg75
g1853
sg68
(lp1864
S':'
asbag61
(g82
g63
NtRp1865
(dp1866
g66
(dp1867
sg75
g1853
sg68
(lp1868
g61
(g62
g63
NtRp1869
(dp1870
g66
(dp1871
g74
I4
ssg75
g1865
sg68
(lp1872
g104
asbasbasbag61
(g77
g63
NtRp1873
(dp1874
g66
(dp1875
sg75
g1702
sg68
(lp1876
g61
(g82
g63
NtRp1877
(dp1878
g66
(dp1879
g86
g87
ssg75
g1873
sg68
(lp1880
g1028
asbag61
(g82
g63
NtRp1881
(dp1882
g66
(dp1883
g93
g94
ssg75
g1873
sg68
(lp1884
S':'
asbag61
(g82
g63
NtRp1885
(dp1886
g66
(dp1887
sg75
g1873
sg68
(lp1888
g61
(g62
g63
NtRp1889
(dp1890
g66
(dp1891
g74
I4
ssg75
g1885
sg68
(lp1892
g104
asbasbasbag61
(g77
g63
NtRp1893
(dp1894
g66
(dp1895
sg75
g1702
sg68
(lp1896
g61
(g82
g63
NtRp1897
(dp1898
g66
(dp1899
g86
g87
ssg75
g1893
sg68
(lp1900
g1266
asbag61
(g82
g63
NtRp1901
(dp1902
g66
(dp1903
g93
g94
ssg75
g1893
sg68
(lp1904
S':'
asbag61
(g82
g63
NtRp1905
(dp1906
g66
(dp1907
sg75
g1893
sg68
(lp1908
g61
(g62
g63
NtRp1909
(dp1910
g66
(dp1911
g74
I4
ssg75
g1905
sg68
(lp1912
g1279
asbasbasbag61
(g77
g63
NtRp1913
(dp1914
g66
(dp1915
sg75
g1702
sg68
(lp1916
g61
(g82
g63
NtRp1917
(dp1918
g66
(dp1919
g86
g87
ssg75
g1913
sg68
(lp1920
g1309
asbag61
(g82
g63
NtRp1921
(dp1922
g66
(dp1923
g93
g94
ssg75
g1913
sg68
(lp1924
S':'
asbag61
(g82
g63
NtRp1925
(dp1926
g66
(dp1927
sg75
g1913
sg68
(lp1928
g61
(g62
g63
NtRp1929
(dp1930
g66
(dp1931
g74
I4
ssg75
g1925
sg68
(lp1932
g61
(g70
g63
NtRp1933
(dp1934
g66
(dp1935
g74
I3
ssg75
Nsg68
(lp1936
g61
(g77
g63
NtRp1937
(dp1938
g66
(dp1939
sg75
g1933
sg68
(lp1940
g61
(g82
g63
NtRp1941
(dp1942
g66
(dp1943
sg75
g1937
sg68
(lp1944
g61
(g62
g63
NtRp1945
(dp1946
g66
(dp1947
g74
I3
ssg75
g1941
sg68
(lp1948
S'1'
asbasbasbag61
(g77
g63
NtRp1949
(dp1950
g66
(dp1951
sg75
g1933
sg68
(lp1952
g61
(g82
g63
NtRp1953
(dp1954
g66
(dp1955
sg75
g1949
sg68
(lp1956
g61
(g62
g63
NtRp1957
(dp1958
g66
(dp1959
g74
I3
ssg75
g1953
sg68
(lp1960
S'99'
p1961
asbasbasbag61
(g77
g63
NtRp1962
(dp1963
g66
(dp1964
sg75
g1933
sg68
(lp1965
g61
(g82
g63
NtRp1966
(dp1967
g66
(dp1968
sg75
g1962
sg68
(lp1969
g61
(g62
g63
NtRp1970
(dp1971
g66
(dp1972
g74
I3
ssg75
g1966
sg68
(lp1973
S'4'
asbasbasbag61
(g77
g63
NtRp1974
(dp1975
g66
(dp1976
sg75
g1933
sg68
(lp1977
g61
(g82
g63
NtRp1978
(dp1979
g66
(dp1980
sg75
g1974
sg68
(lp1981
g61
(g62
g63
NtRp1982
(dp1983
g66
(dp1984
g74
I3
ssg75
g1978
sg68
(lp1985
S'datetime.datetime(2011, 12, 14, 14, 46, 14)'
p1986
asbasbasbag61
(g77
g63
NtRp1987
(dp1988
g66
(dp1989
sg75
g1933
sg68
(lp1990
g61
(g82
g63
NtRp1991
(dp1992
g66
(dp1993
sg75
g1987
sg68
(lp1994
g61
(g62
g63
NtRp1995
(dp1996
g66
(dp1997
g74
I3
ssg75
g1991
sg68
(lp1998
g1388
asbasbasbasbasbasbasbasbasbasbasbag61
(g77
g63
NtRp1999
(dp2000
g66
(dp2001
sg75
g71
sg68
(lp2002
g61
(g82
g63
NtRp2003
(dp2004
g66
(dp2005
g86
g87
ssg75
g1999
sg68
(lp2006
S'is_https'
p2007
asbag61
(g82
g63
NtRp2008
(dp2009
g66
(dp2010
g93
g94
ssg75
g1999
sg68
(lp2011
S':'
asbag61
(g82
g63
NtRp2012
(dp2013
g66
(dp2014
sg75
g1999
sg68
(lp2015
g61
(g62
g63
NtRp2016
(dp2017
g66
(dp2018
g74
I5
ssg75
g2012
sg68
(lp2019
g104
asbasbasbag61
(g77
g63
NtRp2020
(dp2021
g66
(dp2022
sg75
g71
sg68
(lp2023
g61
(g82
g63
NtRp2024
(dp2025
g66
(dp2026
g86
g87
ssg75
g2020
sg68
(lp2027
S'is_local'
p2028
asbag61
(g82
g63
NtRp2029
(dp2030
g66
(dp2031
g93
g94
ssg75
g2020
sg68
(lp2032
S':'
asbag61
(g82
g63
NtRp2033
(dp2034
g66
(dp2035
sg75
g2020
sg68
(lp2036
g61
(g62
g63
NtRp2037
(dp2038
g66
(dp2039
g74
I5
ssg75
g2033
sg68
(lp2040
g1497
asbasbasbag61
(g77
g63
NtRp2041
(dp2042
g66
(dp2043
sg75
g71
sg68
(lp2044
g61
(g82
g63
NtRp2045
(dp2046
g66
(dp2047
g86
g87
ssg75
g2041
sg68
(lp2048
S'is_restful'
p2049
asbag61
(g82
g63
NtRp2050
(dp2051
g66
(dp2052
g93
g94
ssg75
g2041
sg68
(lp2053
S':'
asbag61
(g82
g63
NtRp2054
(dp2055
g66
(dp2056
sg75
g2041
sg68
(lp2057
g61
(g62
g63
NtRp2058
(dp2059
g66
(dp2060
g74
I5
ssg75
g2054
sg68
(lp2061
g104
asbasbasbag61
(g77
g63
NtRp2062
(dp2063
g66
(dp2064
sg75
g71
sg68
(lp2065
g61
(g82
g63
NtRp2066
(dp2067
g66
(dp2068
g86
g87
ssg75
g2062
sg68
(lp2069
S'now'
p2070
asbag61
(g82
g63
NtRp2071
(dp2072
g66
(dp2073
g93
g94
ssg75
g2062
sg68
(lp2074
S':'
asbag61
(g82
g63
NtRp2075
(dp2076
g66
(dp2077
sg75
g2062
sg68
(lp2078
g61
(g62
g63
NtRp2079
(dp2080
g66
(dp2081
g74
I5
ssg75
g2075
sg68
(lp2082
S'datetime.datetime(2012, 2, 9, 12, 1, 8, 589000)'
p2083
asbasbasbag61
(g77
g63
NtRp2084
(dp2085
g66
(dp2086
sg75
g71
sg68
(lp2087
g61
(g82
g63
NtRp2088
(dp2089
g66
(dp2090
g86
g87
ssg75
g2084
sg68
(lp2091
S'post_vars'
p2092
asbag61
(g82
g63
NtRp2093
(dp2094
g66
(dp2095
g93
g94
ssg75
g2084
sg68
(lp2096
S':'
asbag61
(g82
g63
NtRp2097
(dp2098
g66
(dp2099
sg75
g2084
sg68
(lp2100
g61
(g62
g63
NtRp2101
(dp2102
g66
(dp2103
g74
I5
ssg75
g2097
sg68
(lp2104
g61
(g70
g63
NtRp2105
(dp2106
g66
(dp2107
g74
I4
ssg75
Nsg68
(lp2108
sbasbasbasbag61
(g77
g63
NtRp2109
(dp2110
g66
(dp2111
sg75
g71
sg68
(lp2112
g61
(g82
g63
NtRp2113
(dp2114
g66
(dp2115
g86
g87
ssg75
g2109
sg68
(lp2116
S'url'
p2117
asbag61
(g82
g63
NtRp2118
(dp2119
g66
(dp2120
g93
g94
ssg75
g2109
sg68
(lp2121
S':'
asbag61
(g82
g63
NtRp2122
(dp2123
g66
(dp2124
sg75
g2109
sg68
(lp2125
g61
(g62
g63
NtRp2126
(dp2127
g66
(dp2128
g74
I5
ssg75
g2122
sg68
(lp2129
S'/welcome/tournament/show'
p2130
asbasbasbag61
(g77
g63
NtRp2131
(dp2132
g66
(dp2133
sg75
g71
sg68
(lp2134
g61
(g82
g63
NtRp2135
(dp2136
g66
(dp2137
g86
g87
ssg75
g2131
sg68
(lp2138
S'utcnow'
p2139
asbag61
(g82
g63
NtRp2140
(dp2141
g66
(dp2142
g93
g94
ssg75
g2131
sg68
(lp2143
S':'
asbag61
(g82
g63
NtRp2144
(dp2145
g66
(dp2146
sg75
g2131
sg68
(lp2147
g61
(g62
g63
NtRp2148
(dp2149
g66
(dp2150
g74
I5
ssg75
g2144
sg68
(lp2151
S'datetime.datetime(2012, 2, 9, 17, 1, 8, 589000)'
p2152
asbasbasbag61
(g77
g63
NtRp2153
(dp2154
g66
(dp2155
sg75
g71
sg68
(lp2156
g61
(g82
g63
NtRp2157
(dp2158
g66
(dp2159
g86
g87
ssg75
g2153
sg68
(lp2160
S'uuid'
p2161
asbag61
(g82
g63
NtRp2162
(dp2163
g66
(dp2164
g93
g94
ssg75
g2153
sg68
(lp2165
S':'
asbag61
(g82
g63
NtRp2166
(dp2167
g66
(dp2168
sg75
g2153
sg68
(lp2169
g61
(g62
g63
NtRp2170
(dp2171
g66
(dp2172
g74
I5
ssg75
g2166
sg68
(lp2173
S'welcome/127.0.0.1.2012-02-09.12-01-08.9b3ffbf5-333c-4e80-a1af-61eb5cf4d7f6'
p2174
asbasbasbag61
(g77
g63
NtRp2175
(dp2176
g66
(dp2177
sg75
g71
sg68
(lp2178
g61
(g82
g63
NtRp2179
(dp2180
g66
(dp2181
g86
g87
ssg75
g2175
sg68
(lp2182
S'vars'
p2183
asbag61
(g82
g63
NtRp2184
(dp2185
g66
(dp2186
g93
g94
ssg75
g2175
sg68
(lp2187
S':'
asbag61
(g82
g63
NtRp2188
(dp2189
g66
(dp2190
sg75
g2175
sg68
(lp2191
g61
(g62
g63
NtRp2192
(dp2193
g66
(dp2194
g74
I5
ssg75
g2188
sg68
(lp2195
g61
(g70
g63
NtRp2196
(dp2197
g66
(dp2198
g74
I4
ssg75
Nsg68
(lp2199
sbasbasbasbag61
(g77
g63
NtRp2200
(dp2201
g66
(dp2202
sg75
g71
sg68
(lp2203
g61
(g82
g63
NtRp2204
(dp2205
g66
(dp2206
g86
g87
ssg75
g2200
sg68
(lp2207
S'wsgi'
p2208
asbag61
(g82
g63
NtRp2209
(dp2210
g66
(dp2211
g93
g94
ssg75
g2200
sg68
(lp2212
S':'
asbag61
(g82
g63
NtRp2213
(dp2214
g66
(dp2215
sg75
g2200
sg68
(lp2216
g61
(g62
g63
NtRp2217
(dp2218
g66
(dp2219
g74
I5
ssg75
g2213
sg68
(lp2220
g61
(g70
g63
NtRp2221
(dp2222
g66
(dp2223
g74
I4
ssg75
Nsg68
(lp2224
g61
(g77
g63
NtRp2225
(dp2226
g66
(dp2227
sg75
g2221
sg68
(lp2228
g61
(g82
g63
NtRp2229
(dp2230
g66
(dp2231
g86
g87
ssg75
g2225
sg68
(lp2232
S'environ'
p2233
asbag61
(g82
g63
NtRp2234
(dp2235
g66
(dp2236
g93
g94
ssg75
g2225
sg68
(lp2237
S':'
asbag61
(g82
g63
NtRp2238
(dp2239
g66
(dp2240
sg75
g2225
sg68
(lp2241
g61
(g62
g63
NtRp2242
(dp2243
g66
(dp2244
g74
I4
ssg75
g2238
sg68
(lp2245
g61
(g70
g63
NtRp2246
(dp2247
g66
(dp2248
g74
I3
ssg75
Nsg68
(lp2249
g61
(g77
g63
NtRp2250
(dp2251
g66
(dp2252
sg75
g2246
sg68
(lp2253
g61
(g82
g63
NtRp2254
(dp2255
g66
(dp2256
g86
g87
ssg75
g2250
sg68
(lp2257
S'HTTP_ACCEPT'
p2258
asbag61
(g82
g63
NtRp2259
(dp2260
g66
(dp2261
g93
g94
ssg75
g2250
sg68
(lp2262
S':'
asbag61
(g82
g63
NtRp2263
(dp2264
g66
(dp2265
sg75
g2250
sg68
(lp2266
g61
(g62
g63
NtRp2267
(dp2268
g66
(dp2269
g74
I3
ssg75
g2263
sg68
(lp2270
g822
asbasbasbag61
(g77
g63
NtRp2271
(dp2272
g66
(dp2273
sg75
g2246
sg68
(lp2274
g61
(g82
g63
NtRp2275
(dp2276
g66
(dp2277
g86
g87
ssg75
g2271
sg68
(lp2278
S'HTTP_ACCEPT_CHARSET'
p2279
asbag61
(g82
g63
NtRp2280
(dp2281
g66
(dp2282
g93
g94
ssg75
g2271
sg68
(lp2283
S':'
asbag61
(g82
g63
NtRp2284
(dp2285
g66
(dp2286
sg75
g2271
sg68
(lp2287
g61
(g62
g63
NtRp2288
(dp2289
g66
(dp2290
g74
I3
ssg75
g2284
sg68
(lp2291
g844
asbasbasbag61
(g77
g63
NtRp2292
(dp2293
g66
(dp2294
sg75
g2246
sg68
(lp2295
g61
(g82
g63
NtRp2296
(dp2297
g66
(dp2298
g86
g87
ssg75
g2292
sg68
(lp2299
S'HTTP_ACCEPT_ENCODING'
p2300
asbag61
(g82
g63
NtRp2301
(dp2302
g66
(dp2303
g93
g94
ssg75
g2292
sg68
(lp2304
S':'
asbag61
(g82
g63
NtRp2305
(dp2306
g66
(dp2307
sg75
g2292
sg68
(lp2308
g61
(g62
g63
NtRp2309
(dp2310
g66
(dp2311
g74
I3
ssg75
g2305
sg68
(lp2312
g866
asbasbasbag61
(g77
g63
NtRp2313
(dp2314
g66
(dp2315
sg75
g2246
sg68
(lp2316
g61
(g82
g63
NtRp2317
(dp2318
g66
(dp2319
g86
g87
ssg75
g2313
sg68
(lp2320
S'HTTP_ACCEPT_LANGUAGE'
p2321
asbag61
(g82
g63
NtRp2322
(dp2323
g66
(dp2324
g93
g94
ssg75
g2313
sg68
(lp2325
S':'
asbag61
(g82
g63
NtRp2326
(dp2327
g66
(dp2328
sg75
g2313
sg68
(lp2329
g61
(g62
g63
NtRp2330
(dp2331
g66
(dp2332
g74
I3
ssg75
g2326
sg68
(lp2333
g888
asbasbasbag61
(g77
g63
NtRp2334
(dp2335
g66
(dp2336
sg75
g2246
sg68
(lp2337
g61
(g82
g63
NtRp2338
(dp2339
g66
(dp2340
g86
g87
ssg75
g2334
sg68
(lp2341
S'HTTP_CONNECTION'
p2342
asbag61
(g82
g63
NtRp2343
(dp2344
g66
(dp2345
g93
g94
ssg75
g2334
sg68
(lp2346
S':'
asbag61
(g82
g63
NtRp2347
(dp2348
g66
(dp2349
sg75
g2334
sg68
(lp2350
g61
(g62
g63
NtRp2351
(dp2352
g66
(dp2353
g74
I3
ssg75
g2347
sg68
(lp2354
g910
asbasbasbag61
(g77
g63
NtRp2355
(dp2356
g66
(dp2357
sg75
g2246
sg68
(lp2358
g61
(g82
g63
NtRp2359
(dp2360
g66
(dp2361
g86
g87
ssg75
g2355
sg68
(lp2362
S'HTTP_COOKIE'
p2363
asbag61
(g82
g63
NtRp2364
(dp2365
g66
(dp2366
g93
g94
ssg75
g2355
sg68
(lp2367
S':'
asbag61
(g82
g63
NtRp2368
(dp2369
g66
(dp2370
sg75
g2355
sg68
(lp2371
g61
(g62
g63
NtRp2372
(dp2373
g66
(dp2374
g74
I3
ssg75
g2368
sg68
(lp2375
g932
asbasbasbag61
(g77
g63
NtRp2376
(dp2377
g66
(dp2378
sg75
g2246
sg68
(lp2379
g61
(g82
g63
NtRp2380
(dp2381
g66
(dp2382
g86
g87
ssg75
g2376
sg68
(lp2383
S'HTTP_HOST'
p2384
asbag61
(g82
g63
NtRp2385
(dp2386
g66
(dp2387
g93
g94
ssg75
g2376
sg68
(lp2388
S':'
asbag61
(g82
g63
NtRp2389
(dp2390
g66
(dp2391
sg75
g2376
sg68
(lp2392
g61
(g62
g63
NtRp2393
(dp2394
g66
(dp2395
g74
I3
ssg75
g2389
sg68
(lp2396
g954
asbasbasbag61
(g77
g63
NtRp2397
(dp2398
g66
(dp2399
sg75
g2246
sg68
(lp2400
g61
(g82
g63
NtRp2401
(dp2402
g66
(dp2403
g86
g87
ssg75
g2397
sg68
(lp2404
S'HTTP_REFERER'
p2405
asbag61
(g82
g63
NtRp2406
(dp2407
g66
(dp2408
g93
g94
ssg75
g2397
sg68
(lp2409
S':'
asbag61
(g82
g63
NtRp2410
(dp2411
g66
(dp2412
sg75
g2397
sg68
(lp2413
g61
(g62
g63
NtRp2414
(dp2415
g66
(dp2416
g74
I3
ssg75
g2410
sg68
(lp2417
g976
asbasbasbag61
(g77
g63
NtRp2418
(dp2419
g66
(dp2420
sg75
g2246
sg68
(lp2421
g61
(g82
g63
NtRp2422
(dp2423
g66
(dp2424
g86
g87
ssg75
g2418
sg68
(lp2425
S'HTTP_USER_AGENT'
p2426
asbag61
(g82
g63
NtRp2427
(dp2428
g66
(dp2429
g93
g94
ssg75
g2418
sg68
(lp2430
S':'
asbag61
(g82
g63
NtRp2431
(dp2432
g66
(dp2433
sg75
g2418
sg68
(lp2434
g61
(g62
g63
NtRp2435
(dp2436
g66
(dp2437
g74
I3
ssg75
g2431
sg68
(lp2438
g998
asbasbasbag61
(g77
g63
NtRp2439
(dp2440
g66
(dp2441
sg75
g2246
sg68
(lp2442
g61
(g82
g63
NtRp2443
(dp2444
g66
(dp2445
g86
g87
ssg75
g2439
sg68
(lp2446
S'PATH_INFO'
p2447
asbag61
(g82
g63
NtRp2448
(dp2449
g66
(dp2450
g93
g94
ssg75
g2439
sg68
(lp2451
S':'
asbag61
(g82
g63
NtRp2452
(dp2453
g66
(dp2454
sg75
g2439
sg68
(lp2455
g61
(g62
g63
NtRp2456
(dp2457
g66
(dp2458
g74
I3
ssg75
g2452
sg68
(lp2459
g1062
asbasbasbag61
(g77
g63
NtRp2460
(dp2461
g66
(dp2462
sg75
g2246
sg68
(lp2463
g61
(g82
g63
NtRp2464
(dp2465
g66
(dp2466
g86
g87
ssg75
g2460
sg68
(lp2467
S'QUERY_STRING'
p2468
asbag61
(g82
g63
NtRp2469
(dp2470
g66
(dp2471
g93
g94
ssg75
g2460
sg68
(lp2472
S':'
asbag61
(g82
g63
NtRp2473
(dp2474
g66
(dp2475
sg75
g2460
sg68
(lp2476
g61
(g62
g63
NtRp2477
(dp2478
g66
(dp2479
g74
I3
ssg75
g2473
sg68
(lp2480
S''
asbasbasbag61
(g77
g63
NtRp2481
(dp2482
g66
(dp2483
sg75
g2246
sg68
(lp2484
g61
(g82
g63
NtRp2485
(dp2486
g66
(dp2487
g86
g87
ssg75
g2481
sg68
(lp2488
S'REMOTE_ADDR'
p2489
asbag61
(g82
g63
NtRp2490
(dp2491
g66
(dp2492
g93
g94
ssg75
g2481
sg68
(lp2493
S':'
asbag61
(g82
g63
NtRp2494
(dp2495
g66
(dp2496
sg75
g2481
sg68
(lp2497
g61
(g62
g63
NtRp2498
(dp2499
g66
(dp2500
g74
I3
ssg75
g2494
sg68
(lp2501
g194
asbasbasbag61
(g77
g63
NtRp2502
(dp2503
g66
(dp2504
sg75
g2246
sg68
(lp2505
g61
(g82
g63
NtRp2506
(dp2507
g66
(dp2508
g86
g87
ssg75
g2502
sg68
(lp2509
S'REMOTE_PORT'
p2510
asbag61
(g82
g63
NtRp2511
(dp2512
g66
(dp2513
g93
g94
ssg75
g2502
sg68
(lp2514
S':'
asbag61
(g82
g63
NtRp2515
(dp2516
g66
(dp2517
sg75
g2502
sg68
(lp2518
g61
(g62
g63
NtRp2519
(dp2520
g66
(dp2521
g74
I3
ssg75
g2515
sg68
(lp2522
g1126
asbasbasbag61
(g77
g63
NtRp2523
(dp2524
g66
(dp2525
sg75
g2246
sg68
(lp2526
g61
(g82
g63
NtRp2527
(dp2528
g66
(dp2529
g86
g87
ssg75
g2523
sg68
(lp2530
S'REQUEST_METHOD'
p2531
asbag61
(g82
g63
NtRp2532
(dp2533
g66
(dp2534
g93
g94
ssg75
g2523
sg68
(lp2535
S':'
asbag61
(g82
g63
NtRp2536
(dp2537
g66
(dp2538
sg75
g2523
sg68
(lp2539
g61
(g62
g63
NtRp2540
(dp2541
g66
(dp2542
g74
I3
ssg75
g2536
sg68
(lp2543
g1148
asbasbasbag61
(g77
g63
NtRp2544
(dp2545
g66
(dp2546
sg75
g2246
sg68
(lp2547
g61
(g82
g63
NtRp2548
(dp2549
g66
(dp2550
g86
g87
ssg75
g2544
sg68
(lp2551
S'SCRIPT_NAME'
p2552
asbag61
(g82
g63
NtRp2553
(dp2554
g66
(dp2555
g93
g94
ssg75
g2544
sg68
(lp2556
S':'
asbag61
(g82
g63
NtRp2557
(dp2558
g66
(dp2559
sg75
g2544
sg68
(lp2560
g61
(g62
g63
NtRp2561
(dp2562
g66
(dp2563
g74
I3
ssg75
g2557
sg68
(lp2564
S''
asbasbasbag61
(g77
g63
NtRp2565
(dp2566
g66
(dp2567
sg75
g2246
sg68
(lp2568
g61
(g82
g63
NtRp2569
(dp2570
g66
(dp2571
g86
g87
ssg75
g2565
sg68
(lp2572
S'SERVER_NAME'
p2573
asbag61
(g82
g63
NtRp2574
(dp2575
g66
(dp2576
g93
g94
ssg75
g2565
sg68
(lp2577
S':'
asbag61
(g82
g63
NtRp2578
(dp2579
g66
(dp2580
sg75
g2565
sg68
(lp2581
g61
(g62
g63
NtRp2582
(dp2583
g66
(dp2584
g74
I3
ssg75
g2578
sg68
(lp2585
g1191
asbasbasbag61
(g77
g63
NtRp2586
(dp2587
g66
(dp2588
sg75
g2246
sg68
(lp2589
g61
(g82
g63
NtRp2590
(dp2591
g66
(dp2592
g86
g87
ssg75
g2586
sg68
(lp2593
S'SERVER_PORT'
p2594
asbag61
(g82
g63
NtRp2595
(dp2596
g66
(dp2597
g93
g94
ssg75
g2586
sg68
(lp2598
S':'
asbag61
(g82
g63
NtRp2599
(dp2600
g66
(dp2601
sg75
g2586
sg68
(lp2602
g61
(g62
g63
NtRp2603
(dp2604
g66
(dp2605
g74
I3
ssg75
g2599
sg68
(lp2606
g1213
asbasbasbag61
(g77
g63
NtRp2607
(dp2608
g66
(dp2609
sg75
g2246
sg68
(lp2610
g61
(g82
g63
NtRp2611
(dp2612
g66
(dp2613
g86
g87
ssg75
g2607
sg68
(lp2614
S'SERVER_PROTOCOL'
p2615
asbag61
(g82
g63
NtRp2616
(dp2617
g66
(dp2618
g93
g94
ssg75
g2607
sg68
(lp2619
S':'
asbag61
(g82
g63
NtRp2620
(dp2621
g66
(dp2622
sg75
g2607
sg68
(lp2623
g61
(g62
g63
NtRp2624
(dp2625
g66
(dp2626
g74
I3
ssg75
g2620
sg68
(lp2627
g1235
asbasbasbag61
(g77
g63
NtRp2628
(dp2629
g66
(dp2630
sg75
g2246
sg68
(lp2631
g61
(g82
g63
NtRp2632
(dp2633
g66
(dp2634
g86
g87
ssg75
g2628
sg68
(lp2635
S'SERVER_SOFTWARE'
p2636
asbag61
(g82
g63
NtRp2637
(dp2638
g66
(dp2639
g93
g94
ssg75
g2628
sg68
(lp2640
S':'
asbag61
(g82
g63
NtRp2641
(dp2642
g66
(dp2643
sg75
g2628
sg68
(lp2644
g61
(g62
g63
NtRp2645
(dp2646
g66
(dp2647
g74
I3
ssg75
g2641
sg68
(lp2648
g1257
asbasbasbag61
(g77
g63
NtRp2649
(dp2650
g66
(dp2651
sg75
g2246
sg68
(lp2652
g61
(g82
g63
NtRp2653
(dp2654
g66
(dp2655
g86
g87
ssg75
g2649
sg68
(lp2656
S'wsgi.errors'
p2657
asbag61
(g82
g63
NtRp2658
(dp2659
g66
(dp2660
g93
g94
ssg75
g2649
sg68
(lp2661
S':'
asbag61
(g82
g63
NtRp2662
(dp2663
g66
(dp2664
sg75
g2649
sg68
(lp2665
g61
(g62
g63
NtRp2666
(dp2667
g66
(dp2668
g74
I3
ssg75
g2662
sg68
(lp2669
S"<open file '<stderr>', mode 'w' at 0x00000000020161E0>"
p2670
asbasbasbag61
(g77
g63
NtRp2671
(dp2672
g66
(dp2673
sg75
g2246
sg68
(lp2674
g61
(g82
g63
NtRp2675
(dp2676
g66
(dp2677
g86
g87
ssg75
g2671
sg68
(lp2678
S'wsgi.file_wrapper'
p2679
asbag61
(g82
g63
NtRp2680
(dp2681
g66
(dp2682
g93
g94
ssg75
g2671
sg68
(lp2683
S':'
asbag61
(g82
g63
NtRp2684
(dp2685
g66
(dp2686
sg75
g2671
sg68
(lp2687
g61
(g62
g63
NtRp2688
(dp2689
g66
(dp2690
g74
I3
ssg75
g2684
sg68
(lp2691
S'<class wsgiref.util.FileWrapper at 0x000000000380D828>'
p2692
asbasbasbag61
(g77
g63
NtRp2693
(dp2694
g66
(dp2695
sg75
g2246
sg68
(lp2696
g61
(g82
g63
NtRp2697
(dp2698
g66
(dp2699
g86
g87
ssg75
g2693
sg68
(lp2700
S'wsgi.input'
p2701
asbag61
(g82
g63
NtRp2702
(dp2703
g66
(dp2704
g93
g94
ssg75
g2693
sg68
(lp2705
S':'
asbag61
(g82
g63
NtRp2706
(dp2707
g66
(dp2708
sg75
g2693
sg68
(lp2709
g61
(g62
g63
NtRp2710
(dp2711
g66
(dp2712
g74
I3
ssg75
g2706
sg68
(lp2713
S'<cStringIO.StringO object at 0x000000000844B768>'
p2714
asbasbasbag61
(g77
g63
NtRp2715
(dp2716
g66
(dp2717
sg75
g2246
sg68
(lp2718
g61
(g82
g63
NtRp2719
(dp2720
g66
(dp2721
g86
g87
ssg75
g2715
sg68
(lp2722
S'wsgi.multiprocess'
p2723
asbag61
(g82
g63
NtRp2724
(dp2725
g66
(dp2726
g93
g94
ssg75
g2715
sg68
(lp2727
S':'
asbag61
(g82
g63
NtRp2728
(dp2729
g66
(dp2730
sg75
g2715
sg68
(lp2731
g61
(g62
g63
NtRp2732
(dp2733
g66
(dp2734
g74
I3
ssg75
g2728
sg68
(lp2735
g104
asbasbasbag61
(g77
g63
NtRp2736
(dp2737
g66
(dp2738
sg75
g2246
sg68
(lp2739
g61
(g82
g63
NtRp2740
(dp2741
g66
(dp2742
g86
g87
ssg75
g2736
sg68
(lp2743
S'wsgi.multithread'
p2744
asbag61
(g82
g63
NtRp2745
(dp2746
g66
(dp2747
g93
g94
ssg75
g2736
sg68
(lp2748
S':'
asbag61
(g82
g63
NtRp2749
(dp2750
g66
(dp2751
sg75
g2736
sg68
(lp2752
g61
(g62
g63
NtRp2753
(dp2754
g66
(dp2755
g74
I3
ssg75
g2749
sg68
(lp2756
g1497
asbasbasbag61
(g77
g63
NtRp2757
(dp2758
g66
(dp2759
sg75
g2246
sg68
(lp2760
g61
(g82
g63
NtRp2761
(dp2762
g66
(dp2763
g86
g87
ssg75
g2757
sg68
(lp2764
S'wsgi.run_once'
p2765
asbag61
(g82
g63
NtRp2766
(dp2767
g66
(dp2768
g93
g94
ssg75
g2757
sg68
(lp2769
S':'
asbag61
(g82
g63
NtRp2770
(dp2771
g66
(dp2772
sg75
g2757
sg68
(lp2773
g61
(g62
g63
NtRp2774
(dp2775
g66
(dp2776
g74
I3
ssg75
g2770
sg68
(lp2777
g104
asbasbasbag61
(g77
g63
NtRp2778
(dp2779
g66
(dp2780
sg75
g2246
sg68
(lp2781
g61
(g82
g63
NtRp2782
(dp2783
g66
(dp2784
g86
g87
ssg75
g2778
sg68
(lp2785
S'wsgi.url_scheme'
p2786
asbag61
(g82
g63
NtRp2787
(dp2788
g66
(dp2789
g93
g94
ssg75
g2778
sg68
(lp2790
S':'
asbag61
(g82
g63
NtRp2791
(dp2792
g66
(dp2793
sg75
g2778
sg68
(lp2794
g61
(g62
g63
NtRp2795
(dp2796
g66
(dp2797
g74
I3
ssg75
g2791
sg68
(lp2798
g1540
asbasbasbag61
(g77
g63
NtRp2799
(dp2800
g66
(dp2801
sg75
g2246
sg68
(lp2802
g61
(g82
g63
NtRp2803
(dp2804
g66
(dp2805
g86
g87
ssg75
g2799
sg68
(lp2806
S'wsgi.version'
p2807
asbag61
(g82
g63
NtRp2808
(dp2809
g66
(dp2810
g93
g94
ssg75
g2799
sg68
(lp2811
S':'
asbag61
(g82
g63
NtRp2812
(dp2813
g66
(dp2814
sg75
g2799
sg68
(lp2815
g61
(g62
g63
NtRp2816
(dp2817
g66
(dp2818
g74
I3
ssg75
g2812
sg68
(lp2819
S'1'
asbasbasbasbasbasbasbasbasbasbasbasbasbsS'frames'
p2820
(lp2821
(dp2822
S'file'
p2823
S'C:\\Users\\mellinja\\Documents\\SC2Tracker\\SC2TourneyTracker\\web2py\\gluon\\restricted.py'
p2824
sS'dump'
p2825
(dp2826
S'environment'
p2827
S"{'A': <class 'gluon.html.A'>, 'Auth': <class 'gluon.tools.Auth'>, 'B': <class 'gluon.html.B'>, 'BEAUTIFY': <class 'gluon.html.BEAUTIFY'>, 'BODY': <class 'gluon.html.BODY'>, 'BR': <class 'gluon.html.BR'>, 'BUTTON': <class 'gluon.html.BUTTON'>, 'CAT': <class 'gluon.html.CAT'>, 'CENTER': <class 'gluon.html.CENTER'>, 'CLEANUP': <class 'gluon.validators.CLEANUP'>, ...}"
p2828
sS'ccode'
p2829
S'<code object <module> at 00000000083F35B0, file ...tions\\welcome\\controllers/tournament.py", line 3>'
p2830
ssS'lnum'
p2831
I204
sS'lines'
p2832
(dp2833
I199
S'    try:'
p2834
sI200
S'        if type(code) == types.CodeType:'
p2835
sI201
S'            ccode = code'
p2836
sI202
S'        else:'
p2837
sI203
S'            ccode = compile2(code,layer)'
p2838
sI204
S'        exec ccode in environment'
p2839
sI205
S'    except HTTP:'
p2840
sI206
S'        raise'
p2841
sI207
S'    except RestrictedError:'
p2842
sI208
S'        # do not encapsulate (obfuscate) the original RestrictedError'
p2843
ssS'call'
p2844
S'(code="# coding: utf8\\n#\\ndef index(): \\n    #db = DAL(\'ms...rn dict()\\n\\nresponse._vars=response._caller(show)\\n", environment={\'A\': <class \'gluon.html.A\'>, \'Auth\': <class \'gluon.tools.Auth\'>, \'B\': <class \'gluon.html.B\'>, \'BEAUTIFY\': <class \'gluon.html.BEAUTIFY\'>, \'BODY\': <class \'gluon.html.BODY\'>, \'BR\': <class \'gluon.html.BR\'>, \'BUTTON\': <class \'gluon.html.BUTTON\'>, \'CAT\': <class \'gluon.html.CAT\'>, \'CENTER\': <class \'gluon.html.CENTER\'>, \'CLEANUP\': <class \'gluon.validators.CLEANUP\'>, ...}, layer=r\'C:\\Users\\mellinja\\Documents\\SC2Tracker\\SC2Tourne...py\\applications\\welcome\\controllers/tournament.py\')'
p2845
sS'func'
p2846
S'restricted'
p2847
sa(dp2848
g2823
S'C:\\Users\\mellinja\\Documents\\SC2Tracker\\SC2TourneyTracker\\web2py\\applications\\welcome\\controllers\\tournament.py'
p2849
sg2825
(dp2850
sg2831
I22
sg2832
(dp2851
I11
S''
sI12
S'    return dict(test = tourny)'
p2852
sI13
S''
sI14
S''
sI15
S'#def join():'
p2853
sI16
S' #   playerID = auth.user.ID'
p2854
sI17
S'  #  tournyID = request.args(0)'
p2855
sI18
S'   # #TODO: add tourny'
p2856
sI19
S"    #response.flash = 'Joined the tournament'"
p2857
sI20
S'    #return dict()'
p2858
ssg2844
S'()'
p2859
sg2846
S'<module>'
p2860
sa(dp2861
g2823
S'C:\\Users\\mellinja\\Documents\\SC2Tracker\\SC2TourneyTracker\\web2py\\gluon\\globals.py'
p2862
sg2825
(dp2863
S'self'
p2864
S'undefined'
p2865
sS'f'
S'<function show>'
p2866
ssg2831
I172
sg2832
(dp2867
I167
S'        self.meta = Storage()      # used by web2py_ajax.html'
p2868
sI168
S'        self.menu = []             # used by the default view layout'
p2869
sI169
S'        self.files = []            # used by web2py_ajax.html'
p2870
sI170
S'        self.generic_patterns = [] # patterns to allow generic views'
p2871
sI171
S'        self._vars = None'
p2872
sI172
S'        self._caller = lambda f: f()'
p2873
sI173
S'        self._view_environment = None'
p2874
sI174
S'        self._custom_commit = None'
p2875
sI175
S'        self._custom_rollback = None'
p2876
sI176
S''
ssg2844
S'(f=<function show>)'
p2877
sg2846
S'<lambda>'
p2878
sa(dp2879
g2823
S'C:\\Users\\mellinja\\Documents\\SC2Tracker\\SC2TourneyTracker\\web2py\\applications\\welcome\\controllers\\tournament.py'
p2880
sg2825
(dp2881
S'builtinstr'
p2882
S"<type 'str'>"
p2883
sS'db.executesql'
p2884
S"<bound method DAL.executesql of <DAL {'auth_even...luon.dal.Field object at 0x00000000080B9080>}>}>>"
p2885
sS'request.args'
p2886
S'[]'
p2887
sS'global request'
p2888
S"<Storage {'body': <cStringIO.StringO object at 0..._vars': <Storage {}>, 'post_vars': <Storage {}>}>"
p2889
sS'global db'
p2890
S"<DAL {'auth_event': <Table {'origin': <gluon.dal...gluon.dal.Field object at 0x00000000080B9080>}>}>"
p2891
sS'tourny'
p2892
g2865
ssg2831
I10
sg2832
(dp2893
I5
S"    tournies = db.executesql('SELECT Name, ID FROM Tournament')"
p2894
sI6
S'    return dict(tournament = tournies)'
p2895
sI7
S''
sI8
S'def show():'
p2896
sI9
S''
sI10
S"    tourny = db.executesql('SELECT * FROM Tournament WHERE ID = ' + str(request.args(0)))"
p2897
sI11
S''
sI12
S'    return dict(test = tourny)'
p2898
sI13
S''
sI14
S''
ssg2844
S'()'
p2899
sg2846
S'show'
p2900
sa(dp2901
g2823
S'C:\\Users\\mellinja\\Documents\\SC2Tracker\\SC2TourneyTracker\\web2py\\gluon\\dal.py'
p2902
sg2825
(dp2903
S'query'
p2904
S"'SELECT * FROM Tournament WHERE ID = None'"
p2905
sS'self'
p2906
S"<DAL {'auth_event': <Table {'origin': <gluon.dal...gluon.dal.Field object at 0x00000000080B9080>}>}>"
p2907
sS'self._adapter'
p2908
S'<gluon.dal.MSSQLAdapter object>'
p2909
sS'self._adapter.execute'
p2910
S'<bound method MSSQLAdapter.execute of <gluon.dal.MSSQLAdapter object>>'
p2911
ssg2831
I5170
sg2832
(dp2912
I5165
S'        --bmeredyk'
p2913
sI5166
S'        """'
p2914
sI5167
S'        if placeholders:'
p2915
sI5168
S'            self._adapter.execute(query, placeholders)'
p2916
sI5169
S'        else:'
p2917
sI5170
S'            self._adapter.execute(query)'
p2918
sI5171
S'        if as_dict:'
p2919
sI5172
S"            if not hasattr(self._adapter.cursor,'description'):"
p2920
sI5173
S'                raise RuntimeError, "database does not support executesql(...,as_dict=True)"'
p2921
sI5174
S'            # Non-DAL legacy db query, converts cursor results to dict.'
p2922
ssg2844
S"(self=<DAL {'auth_event': <Table {'origin': <gluon.dal...gluon.dal.Field object at 0x00000000080B9080>}>}>, query='SELECT * FROM Tournament WHERE ID = None', placeholders=None, as_dict=False)"
p2923
sg2846
S'executesql'
p2924
sa(dp2925
g2823
S'C:\\Users\\mellinja\\Documents\\SC2Tracker\\SC2TourneyTracker\\web2py\\gluon\\dal.py'
p2926
sg2825
(dp2927
S'a'
S"('SELECT * FROM Tournament WHERE ID = None',)"
p2928
sS'self'
p2929
S'<gluon.dal.MSSQLAdapter object>'
p2930
sS'b'
g21
sS'self.log_execute'
p2931
S'<bound method MSSQLAdapter.log_execute of <gluon.dal.MSSQLAdapter object>>'
p2932
ssg2831
I1359
sg2832
(dp2933
I1354
S'        self.db._timings.append((a[0],time.time()-t0))'
p2934
sI1355
S'        del self.db._timings[:-TIMINGSSIZE]'
p2935
sI1356
S'        return ret'
p2936
sI1357
S''
sI1358
S'    def execute(self, *a, **b):'
p2937
sI1359
S'        return self.log_execute(*a, **b)'
p2938
sI1360
S''
sI1361
S'    def represent(self, obj, fieldtype):'
p2939
sI1362
S'        if isinstance(obj, CALLABLETYPES):'
p2940
sI1363
S'            obj = obj()'
p2941
ssg2844
S"(self=<gluon.dal.MSSQLAdapter object>, *a=('SELECT * FROM Tournament WHERE ID = None',), **b={})"
p2942
sg2846
S'execute'
p2943
sa(dp2944
g2823
S'C:\\Users\\mellinja\\Documents\\SC2Tracker\\SC2TourneyTracker\\web2py\\gluon\\dal.py'
p2945
sg2825
(dp2946
S'a'
S"('SELECT * FROM Tournament WHERE ID = None',)"
p2947
sS'b'
g21
sS'self'
p2948
S'<gluon.dal.MSSQLAdapter object>'
p2949
sS'ret'
p2950
g2865
sS'self.cursor'
p2951
S'<pyodbc.Cursor object>'
p2952
sS'self.cursor.execute'
p2953
S'<built-in method execute of pyodbc.Cursor object>'
p2954
ssg2831
I1353
sg2832
(dp2955
I1348
S'        self.execute(query)'
p2956
sI1349
S''
sI1350
S'    def log_execute(self, *a, **b):'
p2957
sI1351
S'        self.db._lastsql = a[0]'
p2958
sI1352
S'        t0 = time.time()'
p2959
sI1353
S'        ret = self.cursor.execute(*a, **b)'
p2960
sI1354
S'        self.db._timings.append((a[0],time.time()-t0))'
p2961
sI1355
S'        del self.db._timings[:-TIMINGSSIZE]'
p2962
sI1356
S'        return ret'
p2963
sI1357
S''
ssg2844
S"(self=<gluon.dal.MSSQLAdapter object>, *a=('SELECT * FROM Tournament WHERE ID = None',), **b={})"
p2964
sg2846
S'log_execute'
p2965
sasS'pyver'
p2966
S'Python 2.7.2: C:\\Python27\\python.exe'
p2967
sS'session'
p2968
g61
(g62
g63
NtRp2969
(dp2970
g66
(dp2971
sg68
(lp2972
g61
(g70
g63
NtRp2973
(dp2974
g66
(dp2975
g74
I5
ssg75
Nsg68
(lp2976
sbasbsS'etype'
p2977
S"<class 'pyodbc.ProgrammingError'>"
p2978
sS'date'
p2979
S'Thu Feb 09 12:01:08 2012'
p2980
sS'response'
p2981
g61
(g62
g63
NtRp2982
(dp2983
g66
(dp2984
sg68
(lp2985
g61
(g70
g63
NtRp2986
(dp2987
g66
(dp2988
g74
I5
ssg75
Nsg68
(lp2989
g61
(g77
g63
NtRp2990
(dp2991
g66
(dp2992
sg75
g2986
sg68
(lp2993
g61
(g82
g63
NtRp2994
(dp2995
g66
(dp2996
g86
g87
ssg75
g2990
sg68
(lp2997
g159
asbag61
(g82
g63
NtRp2998
(dp2999
g66
(dp3000
g93
g94
ssg75
g2990
sg68
(lp3001
S':'
asbag61
(g82
g63
NtRp3002
(dp3003
g66
(dp3004
sg75
g2990
sg68
(lp3005
g61
(g62
g63
NtRp3006
(dp3007
g66
(dp3008
g74
I5
ssg75
g3002
sg68
(lp3009
S'<cStringIO.StringO object at 0x0000000007CF23E8>'
p3010
asbasbasbag61
(g77
g63
NtRp3011
(dp3012
g66
(dp3013
sg75
g2986
sg68
(lp3014
g61
(g82
g63
NtRp3015
(dp3016
g66
(dp3017
g86
g87
ssg75
g3011
sg68
(lp3018
g225
asbag61
(g82
g63
NtRp3019
(dp3020
g66
(dp3021
g93
g94
ssg75
g3011
sg68
(lp3022
S':'
asbag61
(g82
g63
NtRp3023
(dp3024
g66
(dp3025
sg75
g3011
sg68
(lp3026
g61
(g62
g63
NtRp3027
(dp3028
g66
(dp3029
g74
I5
ssg75
g3023
sg68
(lp3030
g61
(g70
g63
NtRp3031
(dp3032
g66
(dp3033
g74
I4
ssg75
Nsg68
(lp3034
g61
(g77
g63
NtRp3035
(dp3036
g66
(dp3037
sg75
g3031
sg68
(lp3038
g61
(g82
g63
NtRp3039
(dp3040
g66
(dp3041
g86
g87
ssg75
g3035
sg68
(lp3042
S'session_id_welcome'
p3043
asbag61
(g82
g63
NtRp3044
(dp3045
g66
(dp3046
g93
g94
ssg75
g3035
sg68
(lp3047
S':'
asbag61
(g82
g63
NtRp3048
(dp3049
g66
(dp3050
sg75
g3035
sg68
(lp3051
g61
(g62
g63
NtRp3052
(dp3053
g66
(dp3054
g74
I4
ssg75
g3048
sg68
(lp3055
g61
(g70
g63
NtRp3056
(dp3057
g66
(dp3058
g74
I3
ssg75
Nsg68
(lp3059
g61
(g77
g63
NtRp3060
(dp3061
g66
(dp3062
sg75
g3056
sg68
(lp3063
g61
(g82
g63
NtRp3064
(dp3065
g66
(dp3066
g86
g87
ssg75
g3060
sg68
(lp3067
g275
asbag61
(g82
g63
NtRp3068
(dp3069
g66
(dp3070
g93
g94
ssg75
g3060
sg68
(lp3071
S':'
asbag61
(g82
g63
NtRp3072
(dp3073
g66
(dp3074
sg75
g3060
sg68
(lp3075
g61
(g62
g63
NtRp3076
(dp3077
g66
(dp3078
g74
I3
ssg75
g3072
sg68
(lp3079
S''
asbasbasbag61
(g77
g63
NtRp3080
(dp3081
g66
(dp3082
sg75
g3056
sg68
(lp3083
g61
(g82
g63
NtRp3084
(dp3085
g66
(dp3086
g86
g87
ssg75
g3080
sg68
(lp3087
g296
asbag61
(g82
g63
NtRp3088
(dp3089
g66
(dp3090
g93
g94
ssg75
g3080
sg68
(lp3091
S':'
asbag61
(g82
g63
NtRp3092
(dp3093
g66
(dp3094
sg75
g3080
sg68
(lp3095
g61
(g62
g63
NtRp3096
(dp3097
g66
(dp3098
g74
I3
ssg75
g3092
sg68
(lp3099
S''
asbasbasbag61
(g77
g63
NtRp3100
(dp3101
g66
(dp3102
sg75
g3056
sg68
(lp3103
g61
(g82
g63
NtRp3104
(dp3105
g66
(dp3106
g86
g87
ssg75
g3100
sg68
(lp3107
g317
asbag61
(g82
g63
NtRp3108
(dp3109
g66
(dp3110
g93
g94
ssg75
g3100
sg68
(lp3111
S':'
asbag61
(g82
g63
NtRp3112
(dp3113
g66
(dp3114
sg75
g3100
sg68
(lp3115
g61
(g62
g63
NtRp3116
(dp3117
g66
(dp3118
g74
I3
ssg75
g3112
sg68
(lp3119
S''
asbasbasbag61
(g77
g63
NtRp3120
(dp3121
g66
(dp3122
sg75
g3056
sg68
(lp3123
g61
(g82
g63
NtRp3124
(dp3125
g66
(dp3126
g86
g87
ssg75
g3120
sg68
(lp3127
g338
asbag61
(g82
g63
NtRp3128
(dp3129
g66
(dp3130
g93
g94
ssg75
g3120
sg68
(lp3131
S':'
asbag61
(g82
g63
NtRp3132
(dp3133
g66
(dp3134
sg75
g3120
sg68
(lp3135
g61
(g62
g63
NtRp3136
(dp3137
g66
(dp3138
g74
I3
ssg75
g3132
sg68
(lp3139
S''
asbasbasbag61
(g77
g63
NtRp3140
(dp3141
g66
(dp3142
sg75
g3056
sg68
(lp3143
g61
(g82
g63
NtRp3144
(dp3145
g66
(dp3146
g86
g87
ssg75
g3140
sg68
(lp3147
g359
asbag61
(g82
g63
NtRp3148
(dp3149
g66
(dp3150
g93
g94
ssg75
g3140
sg68
(lp3151
S':'
asbag61
(g82
g63
NtRp3152
(dp3153
g66
(dp3154
sg75
g3140
sg68
(lp3155
g61
(g62
g63
NtRp3156
(dp3157
g66
(dp3158
g74
I3
ssg75
g3152
sg68
(lp3159
S''
asbasbasbag61
(g77
g63
NtRp3160
(dp3161
g66
(dp3162
sg75
g3056
sg68
(lp3163
g61
(g82
g63
NtRp3164
(dp3165
g66
(dp3166
g86
g87
ssg75
g3160
sg68
(lp3167
g380
asbag61
(g82
g63
NtRp3168
(dp3169
g66
(dp3170
g93
g94
ssg75
g3160
sg68
(lp3171
S':'
asbag61
(g82
g63
NtRp3172
(dp3173
g66
(dp3174
sg75
g3160
sg68
(lp3175
g61
(g62
g63
NtRp3176
(dp3177
g66
(dp3178
g74
I3
ssg75
g3172
sg68
(lp3179
S'/'
asbasbasbag61
(g77
g63
NtRp3180
(dp3181
g66
(dp3182
sg75
g3056
sg68
(lp3183
g61
(g82
g63
NtRp3184
(dp3185
g66
(dp3186
g86
g87
ssg75
g3180
sg68
(lp3187
g401
asbag61
(g82
g63
NtRp3188
(dp3189
g66
(dp3190
g93
g94
ssg75
g3180
sg68
(lp3191
S':'
asbag61
(g82
g63
NtRp3192
(dp3193
g66
(dp3194
sg75
g3180
sg68
(lp3195
g61
(g62
g63
NtRp3196
(dp3197
g66
(dp3198
g74
I3
ssg75
g3192
sg68
(lp3199
S''
asbasbasbag61
(g77
g63
NtRp3200
(dp3201
g66
(dp3202
sg75
g3056
sg68
(lp3203
g61
(g82
g63
NtRp3204
(dp3205
g66
(dp3206
g86
g87
ssg75
g3200
sg68
(lp3207
g422
asbag61
(g82
g63
NtRp3208
(dp3209
g66
(dp3210
g93
g94
ssg75
g3200
sg68
(lp3211
S':'
asbag61
(g82
g63
NtRp3212
(dp3213
g66
(dp3214
sg75
g3200
sg68
(lp3215
g61
(g62
g63
NtRp3216
(dp3217
g66
(dp3218
g74
I3
ssg75
g3212
sg68
(lp3219
S''
asbasbasbasbasbasbasbasbasbasbasbag61
(g77
g63
NtRp3220
(dp3221
g66
(dp3222
sg75
g2986
sg68
(lp3223
g61
(g82
g63
NtRp3224
(dp3225
g66
(dp3226
g86
g87
ssg75
g3220
sg68
(lp3227
S'files'
p3228
asbag61
(g82
g63
NtRp3229
(dp3230
g66
(dp3231
g93
g94
ssg75
g3220
sg68
(lp3232
S':'
asbag61
(g82
g63
NtRp3233
(dp3234
g66
(dp3235
sg75
g3220
sg68
(lp3236
g61
(g62
g63
NtRp3237
(dp3238
g66
(dp3239
g74
I5
ssg75
g3233
sg68
(lp3240
g61
(g70
g63
NtRp3241
(dp3242
g66
(dp3243
g74
I4
ssg75
Nsg68
(lp3244
sbasbasbasbag61
(g77
g63
NtRp3245
(dp3246
g66
(dp3247
sg75
g2986
sg68
(lp3248
g61
(g82
g63
NtRp3249
(dp3250
g66
(dp3251
g86
g87
ssg75
g3245
sg68
(lp3252
S'flash'
p3253
asbag61
(g82
g63
NtRp3254
(dp3255
g66
(dp3256
g93
g94
ssg75
g3245
sg68
(lp3257
S':'
asbag61
(g82
g63
NtRp3258
(dp3259
g66
(dp3260
sg75
g3245
sg68
(lp3261
g61
(g62
g63
NtRp3262
(dp3263
g66
(dp3264
g74
I5
ssg75
g3258
sg68
(lp3265
S''
asbasbasbag61
(g77
g63
NtRp3266
(dp3267
g66
(dp3268
sg75
g2986
sg68
(lp3269
g61
(g82
g63
NtRp3270
(dp3271
g66
(dp3272
g86
g87
ssg75
g3266
sg68
(lp3273
S'generic_patterns'
p3274
asbag61
(g82
g63
NtRp3275
(dp3276
g66
(dp3277
g93
g94
ssg75
g3266
sg68
(lp3278
S':'
asbag61
(g82
g63
NtRp3279
(dp3280
g66
(dp3281
sg75
g3266
sg68
(lp3282
g61
(g62
g63
NtRp3283
(dp3284
g66
(dp3285
g74
I5
ssg75
g3279
sg68
(lp3286
g61
(g70
g63
NtRp3287
(dp3288
g66
(dp3289
g74
I4
ssg75
Nsg68
(lp3290
g61
(g77
g63
NtRp3291
(dp3292
g66
(dp3293
sg75
g3287
sg68
(lp3294
g61
(g82
g63
NtRp3295
(dp3296
g66
(dp3297
sg75
g3291
sg68
(lp3298
g61
(g62
g63
NtRp3299
(dp3300
g66
(dp3301
g74
I4
ssg75
g3295
sg68
(lp3302
S'*'
asbasbasbasbasbasbasbag61
(g77
g63
NtRp3303
(dp3304
g66
(dp3305
sg75
g2986
sg68
(lp3306
g61
(g82
g63
NtRp3307
(dp3308
g66
(dp3309
g86
g87
ssg75
g3303
sg68
(lp3310
S'headers'
p3311
asbag61
(g82
g63
NtRp3312
(dp3313
g66
(dp3314
g93
g94
ssg75
g3303
sg68
(lp3315
S':'
asbag61
(g82
g63
NtRp3316
(dp3317
g66
(dp3318
sg75
g3303
sg68
(lp3319
g61
(g62
g63
NtRp3320
(dp3321
g66
(dp3322
g74
I5
ssg75
g3316
sg68
(lp3323
g61
(g70
g63
NtRp3324
(dp3325
g66
(dp3326
g74
I4
ssg75
Nsg68
(lp3327
g61
(g77
g63
NtRp3328
(dp3329
g66
(dp3330
sg75
g3324
sg68
(lp3331
g61
(g82
g63
NtRp3332
(dp3333
g66
(dp3334
g86
g87
ssg75
g3328
sg68
(lp3335
S'Cache-Control'
p3336
asbag61
(g82
g63
NtRp3337
(dp3338
g66
(dp3339
g93
g94
ssg75
g3328
sg68
(lp3340
S':'
asbag61
(g82
g63
NtRp3341
(dp3342
g66
(dp3343
sg75
g3328
sg68
(lp3344
g61
(g62
g63
NtRp3345
(dp3346
g66
(dp3347
g74
I4
ssg75
g3341
sg68
(lp3348
S'no-store, no-cache, must-revalidate, post-check=0, pre-check=0'
p3349
asbasbasbag61
(g77
g63
NtRp3350
(dp3351
g66
(dp3352
sg75
g3324
sg68
(lp3353
g61
(g82
g63
NtRp3354
(dp3355
g66
(dp3356
g86
g87
ssg75
g3350
sg68
(lp3357
S'Content-Type'
p3358
asbag61
(g82
g63
NtRp3359
(dp3360
g66
(dp3361
g93
g94
ssg75
g3350
sg68
(lp3362
S':'
asbag61
(g82
g63
NtRp3363
(dp3364
g66
(dp3365
sg75
g3350
sg68
(lp3366
g61
(g62
g63
NtRp3367
(dp3368
g66
(dp3369
g74
I4
ssg75
g3363
sg68
(lp3370
S'text/html; charset=utf-8'
p3371
asbasbasbag61
(g77
g63
NtRp3372
(dp3373
g66
(dp3374
sg75
g3324
sg68
(lp3375
g61
(g82
g63
NtRp3376
(dp3377
g66
(dp3378
g86
g87
ssg75
g3372
sg68
(lp3379
S'Expires'
p3380
asbag61
(g82
g63
NtRp3381
(dp3382
g66
(dp3383
g93
g94
ssg75
g3372
sg68
(lp3384
S':'
asbag61
(g82
g63
NtRp3385
(dp3386
g66
(dp3387
sg75
g3372
sg68
(lp3388
g61
(g62
g63
NtRp3389
(dp3390
g66
(dp3391
g74
I4
ssg75
g3385
sg68
(lp3392
S'Thu, 09 Feb 2012 17:01:08 GMT'
p3393
asbasbasbag61
(g77
g63
NtRp3394
(dp3395
g66
(dp3396
sg75
g3324
sg68
(lp3397
g61
(g82
g63
NtRp3398
(dp3399
g66
(dp3400
g86
g87
ssg75
g3394
sg68
(lp3401
S'Pragma'
p3402
asbag61
(g82
g63
NtRp3403
(dp3404
g66
(dp3405
g93
g94
ssg75
g3394
sg68
(lp3406
S':'
asbag61
(g82
g63
NtRp3407
(dp3408
g66
(dp3409
sg75
g3394
sg68
(lp3410
g61
(g62
g63
NtRp3411
(dp3412
g66
(dp3413
g74
I4
ssg75
g3407
sg68
(lp3414
S'no-cache'
p3415
asbasbasbag61
(g77
g63
NtRp3416
(dp3417
g66
(dp3418
sg75
g3324
sg68
(lp3419
g61
(g82
g63
NtRp3420
(dp3421
g66
(dp3422
g86
g87
ssg75
g3416
sg68
(lp3423
S'X-Powered-By'
p3424
asbag61
(g82
g63
NtRp3425
(dp3426
g66
(dp3427
g93
g94
ssg75
g3416
sg68
(lp3428
S':'
asbag61
(g82
g63
NtRp3429
(dp3430
g66
(dp3431
sg75
g3416
sg68
(lp3432
g61
(g62
g63
NtRp3433
(dp3434
g66
(dp3435
g74
I4
ssg75
g3429
sg68
(lp3436
S'web2py'
p3437
asbasbasbasbasbasbasbag61
(g77
g63
NtRp3438
(dp3439
g66
(dp3440
sg75
g2986
sg68
(lp3441
g61
(g82
g63
NtRp3442
(dp3443
g66
(dp3444
g86
g87
ssg75
g3438
sg68
(lp3445
S'menu'
p3446
asbag61
(g82
g63
NtRp3447
(dp3448
g66
(dp3449
g93
g94
ssg75
g3438
sg68
(lp3450
S':'
asbag61
(g82
g63
NtRp3451
(dp3452
g66
(dp3453
sg75
g3438
sg68
(lp3454
g61
(g62
g63
NtRp3455
(dp3456
g66
(dp3457
g74
I5
ssg75
g3451
sg68
(lp3458
g61
(g70
g63
NtRp3459
(dp3460
g66
(dp3461
g74
I4
ssg75
Nsg68
(lp3462
g61
(g77
g63
NtRp3463
(dp3464
g66
(dp3465
sg75
g3459
sg68
(lp3466
g61
(g82
g63
NtRp3467
(dp3468
g66
(dp3469
sg75
g3463
sg68
(lp3470
g61
(g62
g63
NtRp3471
(dp3472
g66
(dp3473
g74
I4
ssg75
g3467
sg68
(lp3474
g61
(g70
g63
NtRp3475
(dp3476
g66
(dp3477
g74
I3
ssg75
Nsg68
(lp3478
g61
(g77
g63
NtRp3479
(dp3480
g66
(dp3481
sg75
g3475
sg68
(lp3482
g61
(g82
g63
NtRp3483
(dp3484
g66
(dp3485
sg75
g3479
sg68
(lp3486
g61
(g62
g63
NtRp3487
(dp3488
g66
(dp3489
g74
I3
ssg75
g3483
sg68
(lp3490
cgluon.languages
lazyT_unpickle
p3491
(S't\x04\x00\x00\x00Home'
tRp3492
asbasbasbag61
(g77
g63
NtRp3493
(dp3494
g66
(dp3495
sg75
g3475
sg68
(lp3496
g61
(g82
g63
NtRp3497
(dp3498
g66
(dp3499
sg75
g3493
sg68
(lp3500
g61
(g62
g63
NtRp3501
(dp3502
g66
(dp3503
g74
I3
ssg75
g3497
sg68
(lp3504
g104
asbasbasbag61
(g77
g63
NtRp3505
(dp3506
g66
(dp3507
sg75
g3475
sg68
(lp3508
g61
(g82
g63
NtRp3509
(dp3510
g66
(dp3511
sg75
g3505
sg68
(lp3512
g61
(g62
g63
NtRp3513
(dp3514
g66
(dp3515
g74
I3
ssg75
g3509
sg68
(lp3516
S'/welcome/default/index'
p3517
asbasbasbag61
(g77
g63
NtRp3518
(dp3519
g66
(dp3520
sg75
g3475
sg68
(lp3521
g61
(g82
g63
NtRp3522
(dp3523
g66
(dp3524
sg75
g3518
sg68
(lp3525
g61
(g62
g63
NtRp3526
(dp3527
g66
(dp3528
g74
I3
ssg75
g3522
sg68
(lp3529
g61
(g70
g63
NtRp3530
(dp3531
g66
(dp3532
g74
I2
ssg75
Nsg68
(lp3533
sbasbasbasbasbasbasbasbasbasbasbasbag61
(g77
g63
NtRp3534
(dp3535
g66
(dp3536
sg75
g2986
sg68
(lp3537
g61
(g82
g63
NtRp3538
(dp3539
g66
(dp3540
g86
g87
ssg75
g3534
sg68
(lp3541
S'meta'
p3542
asbag61
(g82
g63
NtRp3543
(dp3544
g66
(dp3545
g93
g94
ssg75
g3534
sg68
(lp3546
S':'
asbag61
(g82
g63
NtRp3547
(dp3548
g66
(dp3549
sg75
g3534
sg68
(lp3550
g61
(g62
g63
NtRp3551
(dp3552
g66
(dp3553
g74
I5
ssg75
g3547
sg68
(lp3554
g61
(g70
g63
NtRp3555
(dp3556
g66
(dp3557
g74
I4
ssg75
Nsg68
(lp3558
g61
(g77
g63
NtRp3559
(dp3560
g66
(dp3561
sg75
g3555
sg68
(lp3562
g61
(g82
g63
NtRp3563
(dp3564
g66
(dp3565
g86
g87
ssg75
g3559
sg68
(lp3566
S'author'
p3567
asbag61
(g82
g63
NtRp3568
(dp3569
g66
(dp3570
g93
g94
ssg75
g3559
sg68
(lp3571
S':'
asbag61
(g82
g63
NtRp3572
(dp3573
g66
(dp3574
sg75
g3559
sg68
(lp3575
g61
(g62
g63
NtRp3576
(dp3577
g66
(dp3578
g74
I4
ssg75
g3572
sg68
(lp3579
S'Your Name <you@example.com>'
p3580
asbasbasbag61
(g77
g63
NtRp3581
(dp3582
g66
(dp3583
sg75
g3555
sg68
(lp3584
g61
(g82
g63
NtRp3585
(dp3586
g66
(dp3587
g86
g87
ssg75
g3581
sg68
(lp3588
S'copyright'
p3589
asbag61
(g82
g63
NtRp3590
(dp3591
g66
(dp3592
g93
g94
ssg75
g3581
sg68
(lp3593
S':'
asbag61
(g82
g63
NtRp3594
(dp3595
g66
(dp3596
sg75
g3581
sg68
(lp3597
g61
(g62
g63
NtRp3598
(dp3599
g66
(dp3600
g74
I4
ssg75
g3594
sg68
(lp3601
S'Copyright 2011'
p3602
asbasbasbag61
(g77
g63
NtRp3603
(dp3604
g66
(dp3605
sg75
g3555
sg68
(lp3606
g61
(g82
g63
NtRp3607
(dp3608
g66
(dp3609
g86
g87
ssg75
g3603
sg68
(lp3610
S'description'
p3611
asbag61
(g82
g63
NtRp3612
(dp3613
g66
(dp3614
g93
g94
ssg75
g3603
sg68
(lp3615
S':'
asbag61
(g82
g63
NtRp3616
(dp3617
g66
(dp3618
sg75
g3603
sg68
(lp3619
g61
(g62
g63
NtRp3620
(dp3621
g66
(dp3622
g74
I4
ssg75
g3616
sg68
(lp3623
S'a cool new app'
p3624
asbasbasbag61
(g77
g63
NtRp3625
(dp3626
g66
(dp3627
sg75
g3555
sg68
(lp3628
g61
(g82
g63
NtRp3629
(dp3630
g66
(dp3631
g86
g87
ssg75
g3625
sg68
(lp3632
S'generator'
p3633
asbag61
(g82
g63
NtRp3634
(dp3635
g66
(dp3636
g93
g94
ssg75
g3625
sg68
(lp3637
S':'
asbag61
(g82
g63
NtRp3638
(dp3639
g66
(dp3640
sg75
g3625
sg68
(lp3641
g61
(g62
g63
NtRp3642
(dp3643
g66
(dp3644
g74
I4
ssg75
g3638
sg68
(lp3645
S'Web2py Web Framework'
p3646
asbasbasbag61
(g77
g63
NtRp3647
(dp3648
g66
(dp3649
sg75
g3555
sg68
(lp3650
g61
(g82
g63
NtRp3651
(dp3652
g66
(dp3653
g86
g87
ssg75
g3647
sg68
(lp3654
S'keywords'
p3655
asbag61
(g82
g63
NtRp3656
(dp3657
g66
(dp3658
g93
g94
ssg75
g3647
sg68
(lp3659
S':'
asbag61
(g82
g63
NtRp3660
(dp3661
g66
(dp3662
sg75
g3647
sg68
(lp3663
g61
(g62
g63
NtRp3664
(dp3665
g66
(dp3666
g74
I4
ssg75
g3660
sg68
(lp3667
S'web2py, python, framework'
p3668
asbasbasbasbasbasbasbag61
(g77
g63
NtRp3669
(dp3670
g66
(dp3671
sg75
g2986
sg68
(lp3672
g61
(g82
g63
NtRp3673
(dp3674
g66
(dp3675
g86
g87
ssg75
g3669
sg68
(lp3676
S'postprocessing'
p3677
asbag61
(g82
g63
NtRp3678
(dp3679
g66
(dp3680
g93
g94
ssg75
g3669
sg68
(lp3681
S':'
asbag61
(g82
g63
NtRp3682
(dp3683
g66
(dp3684
sg75
g3669
sg68
(lp3685
g61
(g62
g63
NtRp3686
(dp3687
g66
(dp3688
g74
I5
ssg75
g3682
sg68
(lp3689
g61
(g70
g63
NtRp3690
(dp3691
g66
(dp3692
g74
I4
ssg75
Nsg68
(lp3693
sbasbasbasbag61
(g77
g63
NtRp3694
(dp3695
g66
(dp3696
sg75
g2986
sg68
(lp3697
g61
(g82
g63
NtRp3698
(dp3699
g66
(dp3700
g86
g87
ssg75
g3694
sg68
(lp3701
S'session_file'
p3702
asbag61
(g82
g63
NtRp3703
(dp3704
g66
(dp3705
g93
g94
ssg75
g3694
sg68
(lp3706
S':'
asbag61
(g82
g63
NtRp3707
(dp3708
g66
(dp3709
sg75
g3694
sg68
(lp3710
g61
(g62
g63
NtRp3711
(dp3712
g66
(dp3713
g74
I5
ssg75
g3707
sg68
(lp3714
S"<open file 'C:\\Users\\mellinja\\Documents\\SC2Tracker\\SC2TourneyTracker\\web2py\\applications\\welcome\\sessions\\127.0.0.1-3577bb45-b3be-4c0f-be7b-edc2ad5f937c', mode 'rb+' at 0x00000000083EA030>"
p3715
asbasbasbag61
(g77
g63
NtRp3716
(dp3717
g66
(dp3718
sg75
g2986
sg68
(lp3719
g61
(g82
g63
NtRp3720
(dp3721
g66
(dp3722
g86
g87
ssg75
g3716
sg68
(lp3723
S'session_filename'
p3724
asbag61
(g82
g63
NtRp3725
(dp3726
g66
(dp3727
g93
g94
ssg75
g3716
sg68
(lp3728
S':'
asbag61
(g82
g63
NtRp3729
(dp3730
g66
(dp3731
sg75
g3716
sg68
(lp3732
g61
(g62
g63
NtRp3733
(dp3734
g66
(dp3735
g74
I5
ssg75
g3729
sg68
(lp3736
S'C:\\Users\\mellinja\\Documents\\SC2Tracker\\SC2TourneyTracker\\web2py\\applications\\welcome\\sessions\\127.0.0.1-3577bb45-b3be-4c0f-be7b-edc2ad5f937c'
p3737
asbasbasbag61
(g77
g63
NtRp3738
(dp3739
g66
(dp3740
sg75
g2986
sg68
(lp3741
g61
(g82
g63
NtRp3742
(dp3743
g66
(dp3744
g86
g87
ssg75
g3738
sg68
(lp3745
S'session_id'
p3746
asbag61
(g82
g63
NtRp3747
(dp3748
g66
(dp3749
g93
g94
ssg75
g3738
sg68
(lp3750
S':'
asbag61
(g82
g63
NtRp3751
(dp3752
g66
(dp3753
sg75
g3738
sg68
(lp3754
g61
(g62
g63
NtRp3755
(dp3756
g66
(dp3757
g74
I5
ssg75
g3751
sg68
(lp3758
S'127.0.0.1-3577bb45-b3be-4c0f-be7b-edc2ad5f937c'
p3759
asbasbasbag61
(g77
g63
NtRp3760
(dp3761
g66
(dp3762
sg75
g2986
sg68
(lp3763
g61
(g82
g63
NtRp3764
(dp3765
g66
(dp3766
g86
g87
ssg75
g3760
sg68
(lp3767
S'session_id_name'
p3768
asbag61
(g82
g63
NtRp3769
(dp3770
g66
(dp3771
g93
g94
ssg75
g3760
sg68
(lp3772
S':'
asbag61
(g82
g63
NtRp3773
(dp3774
g66
(dp3775
sg75
g3760
sg68
(lp3776
g61
(g62
g63
NtRp3777
(dp3778
g66
(dp3779
g74
I5
ssg75
g3773
sg68
(lp3780
g3043
asbasbasbag61
(g77
g63
NtRp3781
(dp3782
g66
(dp3783
sg75
g2986
sg68
(lp3784
g61
(g82
g63
NtRp3785
(dp3786
g66
(dp3787
g86
g87
ssg75
g3781
sg68
(lp3788
S'session_locked'
p3789
asbag61
(g82
g63
NtRp3790
(dp3791
g66
(dp3792
g93
g94
ssg75
g3781
sg68
(lp3793
S':'
asbag61
(g82
g63
NtRp3794
(dp3795
g66
(dp3796
sg75
g3781
sg68
(lp3797
g61
(g62
g63
NtRp3798
(dp3799
g66
(dp3800
g74
I5
ssg75
g3794
sg68
(lp3801
g1497
asbasbasbag61
(g77
g63
NtRp3802
(dp3803
g66
(dp3804
sg75
g2986
sg68
(lp3805
g61
(g82
g63
NtRp3806
(dp3807
g66
(dp3808
g86
g87
ssg75
g3802
sg68
(lp3809
S'session_new'
p3810
asbag61
(g82
g63
NtRp3811
(dp3812
g66
(dp3813
g93
g94
ssg75
g3802
sg68
(lp3814
S':'
asbag61
(g82
g63
NtRp3815
(dp3816
g66
(dp3817
sg75
g3802
sg68
(lp3818
g61
(g62
g63
NtRp3819
(dp3820
g66
(dp3821
g74
I5
ssg75
g3815
sg68
(lp3822
g104
asbasbasbag61
(g77
g63
NtRp3823
(dp3824
g66
(dp3825
sg75
g2986
sg68
(lp3826
g61
(g82
g63
NtRp3827
(dp3828
g66
(dp3829
g86
g87
ssg75
g3823
sg68
(lp3830
S'status'
p3831
asbag61
(g82
g63
NtRp3832
(dp3833
g66
(dp3834
g93
g94
ssg75
g3823
sg68
(lp3835
S':'
asbag61
(g82
g63
NtRp3836
(dp3837
g66
(dp3838
sg75
g3823
sg68
(lp3839
g61
(g62
g63
NtRp3840
(dp3841
g66
(dp3842
g74
I5
ssg75
g3836
sg68
(lp3843
S'200'
p3844
asbasbasbag61
(g77
g63
NtRp3845
(dp3846
g66
(dp3847
sg75
g2986
sg68
(lp3848
g61
(g82
g63
NtRp3849
(dp3850
g66
(dp3851
g86
g87
ssg75
g3845
sg68
(lp3852
S'subtitle'
p3853
asbag61
(g82
g63
NtRp3854
(dp3855
g66
(dp3856
g93
g94
ssg75
g3845
sg68
(lp3857
S':'
asbag61
(g82
g63
NtRp3858
(dp3859
g66
(dp3860
sg75
g3845
sg68
(lp3861
g61
(g62
g63
NtRp3862
(dp3863
g66
(dp3864
g74
I5
ssg75
g3858
sg68
(lp3865
g3491
(S's2\x00\x00\x00Starcraft II Custom Tournament Tracker Version 0.1'
tRp3866
asbasbasbag61
(g77
g63
NtRp3867
(dp3868
g66
(dp3869
sg75
g2986
sg68
(lp3870
g61
(g82
g63
NtRp3871
(dp3872
g66
(dp3873
g86
g87
ssg75
g3867
sg68
(lp3874
S'title'
p3875
asbag61
(g82
g63
NtRp3876
(dp3877
g66
(dp3878
g93
g94
ssg75
g3867
sg68
(lp3879
S':'
asbag61
(g82
g63
NtRp3880
(dp3881
g66
(dp3882
sg75
g3867
sg68
(lp3883
g61
(g62
g63
NtRp3884
(dp3885
g66
(dp3886
g74
I5
ssg75
g3880
sg68
(lp3887
S'SC2CTT v0.1'
p3888
asbasbasbag61
(g77
g63
NtRp3889
(dp3890
g66
(dp3891
sg75
g2986
sg68
(lp3892
g61
(g82
g63
NtRp3893
(dp3894
g66
(dp3895
g86
g87
ssg75
g3889
sg68
(lp3896
g2161
asbag61
(g82
g63
NtRp3897
(dp3898
g66
(dp3899
g93
g94
ssg75
g3889
sg68
(lp3900
S':'
asbag61
(g82
g63
NtRp3901
(dp3902
g66
(dp3903
sg75
g3889
sg68
(lp3904
g61
(g62
g63
NtRp3905
(dp3906
g66
(dp3907
g74
I5
ssg75
g3901
sg68
(lp3908
g2174
asbasbasbag61
(g77
g63
NtRp3909
(dp3910
g66
(dp3911
sg75
g2986
sg68
(lp3912
g61
(g82
g63
NtRp3913
(dp3914
g66
(dp3915
g86
g87
ssg75
g3909
sg68
(lp3916
S'view'
p3917
asbag61
(g82
g63
NtRp3918
(dp3919
g66
(dp3920
g93
g94
ssg75
g3909
sg68
(lp3921
S':'
asbag61
(g82
g63
NtRp3922
(dp3923
g66
(dp3924
sg75
g3909
sg68
(lp3925
g61
(g62
g63
NtRp3926
(dp3927
g66
(dp3928
g74
I5
ssg75
g3922
sg68
(lp3929
S'tournament/show.html'
p3930
asbasbasbasbasbsS'locals'
p3931
(dp3932
S'a'
S"('SELECT * FROM Tournament WHERE ID = None',)"
p3933
sS'self'
p3934
S'<gluon.dal.MSSQLAdapter object>'
p3935
sS'b'
g21
sS't0'
p3936
S'1328806868.631'
p3937
sssS'traceback'
p3938
S'Traceback (most recent call last):\n  File "C:\\Users\\mellinja\\Documents\\SC2Tracker\\SC2TourneyTracker\\web2py\\gluon\\restricted.py", line 204, in restricted\n    exec ccode in environment\n  File "C:\\Users\\mellinja\\Documents\\SC2Tracker\\SC2TourneyTracker\\web2py\\applications\\welcome\\controllers/tournament.py", line 22, in <module>\n  File "C:\\Users\\mellinja\\Documents\\SC2Tracker\\SC2TourneyTracker\\web2py\\gluon\\globals.py", line 172, in <lambda>\n    self._caller = lambda f: f()\n  File "C:\\Users\\mellinja\\Documents\\SC2Tracker\\SC2TourneyTracker\\web2py\\applications\\welcome\\controllers/tournament.py", line 10, in show\n    tourny = db.executesql(\'SELECT * FROM Tournament WHERE ID = \' + str(request.args(0)))\n  File "C:\\Users\\mellinja\\Documents\\SC2Tracker\\SC2TourneyTracker\\web2py\\gluon\\dal.py", line 5170, in executesql\n    self._adapter.execute(query)\n  File "C:\\Users\\mellinja\\Documents\\SC2Tracker\\SC2TourneyTracker\\web2py\\gluon\\dal.py", line 1359, in execute\n    return self.log_execute(*a, **b)\n  File "C:\\Users\\mellinja\\Documents\\SC2Tracker\\SC2TourneyTracker\\web2py\\gluon\\dal.py", line 1353, in log_execute\n    ret = self.cursor.execute(*a, **b)\nProgrammingError: (\'42S22\', "[42S22] [Microsoft][ODBC SQL Server Driver][SQL Server]Invalid column name \'None\'. (207) (SQLExecDirectW)")\n'
p3939
s.