(dp1
S'output'
p2
S"<type 'exceptions.KeyError'> 'select'"
p3
sS'layer'
p4
S'C:\\Users\\mellinja\\Documents\\SC2Tracker\\SC2TourneyTracker\\web2py\\applications\\welcome\\controllers/tournament.py'
p5
sS'code'
p6
S"# coding: utf8\n#\ndef index(): \n    #db = DAL('mssql://cheungkt:mechanes5@whale.cs.rose-hulman.edu/SC2tracker')\n    tournies = db.executesql('SELECT Name, ID FROM Tournament')\n    return dict(tournament = tournies)\n    \ndef show():\n    tourny = db.select(db.Tournament.ID)\n    return dict(test = tourny)\n\nresponse._vars=response._caller(show)\n"
p7
sS'snapshot'
p8
(dp9
S'exception'
p10
(dp11
S'__hash__'
p12
S"<method-wrapper '__hash__' of exceptions.KeyError object>"
p13
sS'__setattr__'
p14
S"<method-wrapper '__setattr__' of exceptions.KeyError object>"
p15
sS'__reduce_ex__'
p16
S'<built-in method __reduce_ex__ of exceptions.KeyError object>'
p17
sS'__getslice__'
p18
S"<method-wrapper '__getslice__' of exceptions.KeyError object>"
p19
sS'__getitem__'
p20
S"<method-wrapper '__getitem__' of exceptions.KeyError object>"
p21
sS'__setstate__'
p22
S'<built-in method __setstate__ of exceptions.KeyError object>'
p23
sS'__reduce__'
p24
S'<built-in method __reduce__ of exceptions.KeyError object>'
p25
sS'__str__'
p26
S"<method-wrapper '__str__' of exceptions.KeyError object>"
p27
sS'__format__'
p28
S'<built-in method __format__ of exceptions.KeyError object>'
p29
sS'__getattribute__'
p30
S"<method-wrapper '__getattribute__' of exceptions.KeyError object>"
p31
sS'__class__'
p32
S"<type 'exceptions.KeyError'>"
p33
sS'__unicode__'
p34
S'<built-in method __unicode__ of exceptions.KeyError object>'
p35
sS'__delattr__'
p36
S"<method-wrapper '__delattr__' of exceptions.KeyError object>"
p37
sS'__subclasshook__'
p38
S'<built-in method __subclasshook__ of type object>'
p39
sS'__repr__'
p40
S"<method-wrapper '__repr__' of exceptions.KeyError object>"
p41
sS'__dict__'
p42
S'{}'
p43
sS'args'
p44
S"('select',)"
p45
sS'__sizeof__'
p46
S'<built-in method __sizeof__ of exceptions.KeyError object>'
p47
sS'__doc__'
p48
S"'Mapping key not found.'"
p49
sS'__init__'
p50
S"<method-wrapper '__init__' of exceptions.KeyError object>"
p51
sS'__new__'
p52
S'<built-in method __new__ of type object>'
p53
ssS'evalue'
p54
S"'select'"
p55
sS'request'
p56
ccopy_reg
_reconstructor
p57
(cgluon.html
BEAUTIFY
p58
c__builtin__
object
p59
NtRp60
(dp61
S'attributes'
p62
(dp63
sS'components'
p64
(lp65
g57
(cgluon.html
TABLE
p66
g59
NtRp67
(dp68
g62
(dp69
S'level'
p70
I5
ssS'parent'
p71
Nsg64
(lp72
g57
(cgluon.html
TR
p73
g59
NtRp74
(dp75
g62
(dp76
sg71
g67
sg64
(lp77
g57
(cgluon.html
TD
p78
g59
NtRp79
(dp80
g62
(dp81
S'_style'
p82
S'font-weight:bold;vertical-align:top'
p83
ssg71
g74
sg64
(lp84
S'ajax'
p85
asbag57
(g78
g59
NtRp86
(dp87
g62
(dp88
S'_valign'
p89
S'top'
p90
ssg71
g74
sg64
(lp91
S':'
asbag57
(g78
g59
NtRp92
(dp93
g62
(dp94
sg71
g74
sg64
(lp95
g57
(g58
g59
NtRp96
(dp97
g62
(dp98
g70
I5
ssg71
g92
sg64
(lp99
S'False'
p100
asbasbasbag57
(g73
g59
NtRp101
(dp102
g62
(dp103
sg71
g67
sg64
(lp104
g57
(g78
g59
NtRp105
(dp106
g62
(dp107
g82
g83
ssg71
g101
sg64
(lp108
S'application'
p109
asbag57
(g78
g59
NtRp110
(dp111
g62
(dp112
g89
g90
ssg71
g101
sg64
(lp113
S':'
asbag57
(g78
g59
NtRp114
(dp115
g62
(dp116
sg71
g101
sg64
(lp117
g57
(g58
g59
NtRp118
(dp119
g62
(dp120
g70
I5
ssg71
g114
sg64
(lp121
S'welcome'
p122
asbasbasbag57
(g73
g59
NtRp123
(dp124
g62
(dp125
sg71
g67
sg64
(lp126
g57
(g78
g59
NtRp127
(dp128
g62
(dp129
g82
g83
ssg71
g123
sg64
(lp130
g44
asbag57
(g78
g59
NtRp131
(dp132
g62
(dp133
g89
g90
ssg71
g123
sg64
(lp134
S':'
asbag57
(g78
g59
NtRp135
(dp136
g62
(dp137
sg71
g123
sg64
(lp138
g57
(g58
g59
NtRp139
(dp140
g62
(dp141
g70
I5
ssg71
g135
sg64
(lp142
g57
(g66
g59
NtRp143
(dp144
g62
(dp145
g70
I4
ssg71
Nsg64
(lp146
g57
(g73
g59
NtRp147
(dp148
g62
(dp149
sg71
g143
sg64
(lp150
g57
(g78
g59
NtRp151
(dp152
g62
(dp153
sg71
g147
sg64
(lp154
g57
(g58
g59
NtRp155
(dp156
g62
(dp157
g70
I4
ssg71
g151
sg64
(lp158
S'7'
asbasbasbasbasbasbasbag57
(g73
g59
NtRp159
(dp160
g62
(dp161
sg71
g67
sg64
(lp162
g57
(g78
g59
NtRp163
(dp164
g62
(dp165
g82
g83
ssg71
g159
sg64
(lp166
S'body'
p167
asbag57
(g78
g59
NtRp168
(dp169
g62
(dp170
g89
g90
ssg71
g159
sg64
(lp171
S':'
asbag57
(g78
g59
NtRp172
(dp173
g62
(dp174
sg71
g159
sg64
(lp175
g57
(g58
g59
NtRp176
(dp177
g62
(dp178
g70
I5
ssg71
g172
sg64
(lp179
S'<cStringIO.StringO object at 0x0000000007E0DD18>'
p180
asbasbasbag57
(g73
g59
NtRp181
(dp182
g62
(dp183
sg71
g67
sg64
(lp184
g57
(g78
g59
NtRp185
(dp186
g62
(dp187
g82
g83
ssg71
g181
sg64
(lp188
S'client'
p189
asbag57
(g78
g59
NtRp190
(dp191
g62
(dp192
g89
g90
ssg71
g181
sg64
(lp193
S':'
asbag57
(g78
g59
NtRp194
(dp195
g62
(dp196
sg71
g181
sg64
(lp197
g57
(g58
g59
NtRp198
(dp199
g62
(dp200
g70
I5
ssg71
g194
sg64
(lp201
S'127.0.0.1'
p202
asbasbasbag57
(g73
g59
NtRp203
(dp204
g62
(dp205
sg71
g67
sg64
(lp206
g57
(g78
g59
NtRp207
(dp208
g62
(dp209
g82
g83
ssg71
g203
sg64
(lp210
S'controller'
p211
asbag57
(g78
g59
NtRp212
(dp213
g62
(dp214
g89
g90
ssg71
g203
sg64
(lp215
S':'
asbag57
(g78
g59
NtRp216
(dp217
g62
(dp218
sg71
g203
sg64
(lp219
g57
(g58
g59
NtRp220
(dp221
g62
(dp222
g70
I5
ssg71
g216
sg64
(lp223
S'tournament'
p224
asbasbasbag57
(g73
g59
NtRp225
(dp226
g62
(dp227
sg71
g67
sg64
(lp228
g57
(g78
g59
NtRp229
(dp230
g62
(dp231
g82
g83
ssg71
g225
sg64
(lp232
S'cookies'
p233
asbag57
(g78
g59
NtRp234
(dp235
g62
(dp236
g89
g90
ssg71
g225
sg64
(lp237
S':'
asbag57
(g78
g59
NtRp238
(dp239
g62
(dp240
sg71
g225
sg64
(lp241
g57
(g58
g59
NtRp242
(dp243
g62
(dp244
g70
I5
ssg71
g238
sg64
(lp245
g57
(g66
g59
NtRp246
(dp247
g62
(dp248
g70
I4
ssg71
Nsg64
(lp249
g57
(g73
g59
NtRp250
(dp251
g62
(dp252
sg71
g246
sg64
(lp253
g57
(g78
g59
NtRp254
(dp255
g62
(dp256
g82
g83
ssg71
g250
sg64
(lp257
S'session_id_admin'
p258
asbag57
(g78
g59
NtRp259
(dp260
g62
(dp261
g89
g90
ssg71
g250
sg64
(lp262
S':'
asbag57
(g78
g59
NtRp263
(dp264
g62
(dp265
sg71
g250
sg64
(lp266
g57
(g58
g59
NtRp267
(dp268
g62
(dp269
g70
I4
ssg71
g263
sg64
(lp270
g57
(g66
g59
NtRp271
(dp272
g62
(dp273
g70
I3
ssg71
Nsg64
(lp274
g57
(g73
g59
NtRp275
(dp276
g62
(dp277
sg71
g271
sg64
(lp278
g57
(g78
g59
NtRp279
(dp280
g62
(dp281
g82
g83
ssg71
g275
sg64
(lp282
S'comment'
p283
asbag57
(g78
g59
NtRp284
(dp285
g62
(dp286
g89
g90
ssg71
g275
sg64
(lp287
S':'
asbag57
(g78
g59
NtRp288
(dp289
g62
(dp290
sg71
g275
sg64
(lp291
g57
(g58
g59
NtRp292
(dp293
g62
(dp294
g70
I3
ssg71
g288
sg64
(lp295
S''
asbasbasbag57
(g73
g59
NtRp296
(dp297
g62
(dp298
sg71
g271
sg64
(lp299
g57
(g78
g59
NtRp300
(dp301
g62
(dp302
g82
g83
ssg71
g296
sg64
(lp303
S'domain'
p304
asbag57
(g78
g59
NtRp305
(dp306
g62
(dp307
g89
g90
ssg71
g296
sg64
(lp308
S':'
asbag57
(g78
g59
NtRp309
(dp310
g62
(dp311
sg71
g296
sg64
(lp312
g57
(g58
g59
NtRp313
(dp314
g62
(dp315
g70
I3
ssg71
g309
sg64
(lp316
S''
asbasbasbag57
(g73
g59
NtRp317
(dp318
g62
(dp319
sg71
g271
sg64
(lp320
g57
(g78
g59
NtRp321
(dp322
g62
(dp323
g82
g83
ssg71
g317
sg64
(lp324
S'expires'
p325
asbag57
(g78
g59
NtRp326
(dp327
g62
(dp328
g89
g90
ssg71
g317
sg64
(lp329
S':'
asbag57
(g78
g59
NtRp330
(dp331
g62
(dp332
sg71
g317
sg64
(lp333
g57
(g58
g59
NtRp334
(dp335
g62
(dp336
g70
I3
ssg71
g330
sg64
(lp337
S''
asbasbasbag57
(g73
g59
NtRp338
(dp339
g62
(dp340
sg71
g271
sg64
(lp341
g57
(g78
g59
NtRp342
(dp343
g62
(dp344
g82
g83
ssg71
g338
sg64
(lp345
S'httponly'
p346
asbag57
(g78
g59
NtRp347
(dp348
g62
(dp349
g89
g90
ssg71
g338
sg64
(lp350
S':'
asbag57
(g78
g59
NtRp351
(dp352
g62
(dp353
sg71
g338
sg64
(lp354
g57
(g58
g59
NtRp355
(dp356
g62
(dp357
g70
I3
ssg71
g351
sg64
(lp358
S''
asbasbasbag57
(g73
g59
NtRp359
(dp360
g62
(dp361
sg71
g271
sg64
(lp362
g57
(g78
g59
NtRp363
(dp364
g62
(dp365
g82
g83
ssg71
g359
sg64
(lp366
S'max-age'
p367
asbag57
(g78
g59
NtRp368
(dp369
g62
(dp370
g89
g90
ssg71
g359
sg64
(lp371
S':'
asbag57
(g78
g59
NtRp372
(dp373
g62
(dp374
sg71
g359
sg64
(lp375
g57
(g58
g59
NtRp376
(dp377
g62
(dp378
g70
I3
ssg71
g372
sg64
(lp379
S''
asbasbasbag57
(g73
g59
NtRp380
(dp381
g62
(dp382
sg71
g271
sg64
(lp383
g57
(g78
g59
NtRp384
(dp385
g62
(dp386
g82
g83
ssg71
g380
sg64
(lp387
S'path'
p388
asbag57
(g78
g59
NtRp389
(dp390
g62
(dp391
g89
g90
ssg71
g380
sg64
(lp392
S':'
asbag57
(g78
g59
NtRp393
(dp394
g62
(dp395
sg71
g380
sg64
(lp396
g57
(g58
g59
NtRp397
(dp398
g62
(dp399
g70
I3
ssg71
g393
sg64
(lp400
S''
asbasbasbag57
(g73
g59
NtRp401
(dp402
g62
(dp403
sg71
g271
sg64
(lp404
g57
(g78
g59
NtRp405
(dp406
g62
(dp407
g82
g83
ssg71
g401
sg64
(lp408
S'secure'
p409
asbag57
(g78
g59
NtRp410
(dp411
g62
(dp412
g89
g90
ssg71
g401
sg64
(lp413
S':'
asbag57
(g78
g59
NtRp414
(dp415
g62
(dp416
sg71
g401
sg64
(lp417
g57
(g58
g59
NtRp418
(dp419
g62
(dp420
g70
I3
ssg71
g414
sg64
(lp421
S''
asbasbasbag57
(g73
g59
NtRp422
(dp423
g62
(dp424
sg71
g271
sg64
(lp425
g57
(g78
g59
NtRp426
(dp427
g62
(dp428
g82
g83
ssg71
g422
sg64
(lp429
S'version'
p430
asbag57
(g78
g59
NtRp431
(dp432
g62
(dp433
g89
g90
ssg71
g422
sg64
(lp434
S':'
asbag57
(g78
g59
NtRp435
(dp436
g62
(dp437
sg71
g422
sg64
(lp438
g57
(g58
g59
NtRp439
(dp440
g62
(dp441
g70
I3
ssg71
g435
sg64
(lp442
S''
asbasbasbasbasbasbasbag57
(g73
g59
NtRp443
(dp444
g62
(dp445
sg71
g246
sg64
(lp446
g57
(g78
g59
NtRp447
(dp448
g62
(dp449
g82
g83
ssg71
g443
sg64
(lp450
S'session_id_examples'
p451
asbag57
(g78
g59
NtRp452
(dp453
g62
(dp454
g89
g90
ssg71
g443
sg64
(lp455
S':'
asbag57
(g78
g59
NtRp456
(dp457
g62
(dp458
sg71
g443
sg64
(lp459
g57
(g58
g59
NtRp460
(dp461
g62
(dp462
g70
I4
ssg71
g456
sg64
(lp463
g57
(g66
g59
NtRp464
(dp465
g62
(dp466
g70
I3
ssg71
Nsg64
(lp467
g57
(g73
g59
NtRp468
(dp469
g62
(dp470
sg71
g464
sg64
(lp471
g57
(g78
g59
NtRp472
(dp473
g62
(dp474
g82
g83
ssg71
g468
sg64
(lp475
g283
asbag57
(g78
g59
NtRp476
(dp477
g62
(dp478
g89
g90
ssg71
g468
sg64
(lp479
S':'
asbag57
(g78
g59
NtRp480
(dp481
g62
(dp482
sg71
g468
sg64
(lp483
g57
(g58
g59
NtRp484
(dp485
g62
(dp486
g70
I3
ssg71
g480
sg64
(lp487
S''
asbasbasbag57
(g73
g59
NtRp488
(dp489
g62
(dp490
sg71
g464
sg64
(lp491
g57
(g78
g59
NtRp492
(dp493
g62
(dp494
g82
g83
ssg71
g488
sg64
(lp495
g304
asbag57
(g78
g59
NtRp496
(dp497
g62
(dp498
g89
g90
ssg71
g488
sg64
(lp499
S':'
asbag57
(g78
g59
NtRp500
(dp501
g62
(dp502
sg71
g488
sg64
(lp503
g57
(g58
g59
NtRp504
(dp505
g62
(dp506
g70
I3
ssg71
g500
sg64
(lp507
S''
asbasbasbag57
(g73
g59
NtRp508
(dp509
g62
(dp510
sg71
g464
sg64
(lp511
g57
(g78
g59
NtRp512
(dp513
g62
(dp514
g82
g83
ssg71
g508
sg64
(lp515
g325
asbag57
(g78
g59
NtRp516
(dp517
g62
(dp518
g89
g90
ssg71
g508
sg64
(lp519
S':'
asbag57
(g78
g59
NtRp520
(dp521
g62
(dp522
sg71
g508
sg64
(lp523
g57
(g58
g59
NtRp524
(dp525
g62
(dp526
g70
I3
ssg71
g520
sg64
(lp527
S''
asbasbasbag57
(g73
g59
NtRp528
(dp529
g62
(dp530
sg71
g464
sg64
(lp531
g57
(g78
g59
NtRp532
(dp533
g62
(dp534
g82
g83
ssg71
g528
sg64
(lp535
g346
asbag57
(g78
g59
NtRp536
(dp537
g62
(dp538
g89
g90
ssg71
g528
sg64
(lp539
S':'
asbag57
(g78
g59
NtRp540
(dp541
g62
(dp542
sg71
g528
sg64
(lp543
g57
(g58
g59
NtRp544
(dp545
g62
(dp546
g70
I3
ssg71
g540
sg64
(lp547
S''
asbasbasbag57
(g73
g59
NtRp548
(dp549
g62
(dp550
sg71
g464
sg64
(lp551
g57
(g78
g59
NtRp552
(dp553
g62
(dp554
g82
g83
ssg71
g548
sg64
(lp555
g367
asbag57
(g78
g59
NtRp556
(dp557
g62
(dp558
g89
g90
ssg71
g548
sg64
(lp559
S':'
asbag57
(g78
g59
NtRp560
(dp561
g62
(dp562
sg71
g548
sg64
(lp563
g57
(g58
g59
NtRp564
(dp565
g62
(dp566
g70
I3
ssg71
g560
sg64
(lp567
S''
asbasbasbag57
(g73
g59
NtRp568
(dp569
g62
(dp570
sg71
g464
sg64
(lp571
g57
(g78
g59
NtRp572
(dp573
g62
(dp574
g82
g83
ssg71
g568
sg64
(lp575
g388
asbag57
(g78
g59
NtRp576
(dp577
g62
(dp578
g89
g90
ssg71
g568
sg64
(lp579
S':'
asbag57
(g78
g59
NtRp580
(dp581
g62
(dp582
sg71
g568
sg64
(lp583
g57
(g58
g59
NtRp584
(dp585
g62
(dp586
g70
I3
ssg71
g580
sg64
(lp587
S''
asbasbasbag57
(g73
g59
NtRp588
(dp589
g62
(dp590
sg71
g464
sg64
(lp591
g57
(g78
g59
NtRp592
(dp593
g62
(dp594
g82
g83
ssg71
g588
sg64
(lp595
g409
asbag57
(g78
g59
NtRp596
(dp597
g62
(dp598
g89
g90
ssg71
g588
sg64
(lp599
S':'
asbag57
(g78
g59
NtRp600
(dp601
g62
(dp602
sg71
g588
sg64
(lp603
g57
(g58
g59
NtRp604
(dp605
g62
(dp606
g70
I3
ssg71
g600
sg64
(lp607
S''
asbasbasbag57
(g73
g59
NtRp608
(dp609
g62
(dp610
sg71
g464
sg64
(lp611
g57
(g78
g59
NtRp612
(dp613
g62
(dp614
g82
g83
ssg71
g608
sg64
(lp615
g430
asbag57
(g78
g59
NtRp616
(dp617
g62
(dp618
g89
g90
ssg71
g608
sg64
(lp619
S':'
asbag57
(g78
g59
NtRp620
(dp621
g62
(dp622
sg71
g608
sg64
(lp623
g57
(g58
g59
NtRp624
(dp625
g62
(dp626
g70
I3
ssg71
g620
sg64
(lp627
S''
asbasbasbasbasbasbasbag57
(g73
g59
NtRp628
(dp629
g62
(dp630
sg71
g246
sg64
(lp631
g57
(g78
g59
NtRp632
(dp633
g62
(dp634
g82
g83
ssg71
g628
sg64
(lp635
S'session_id_welcome'
p636
asbag57
(g78
g59
NtRp637
(dp638
g62
(dp639
g89
g90
ssg71
g628
sg64
(lp640
S':'
asbag57
(g78
g59
NtRp641
(dp642
g62
(dp643
sg71
g628
sg64
(lp644
g57
(g58
g59
NtRp645
(dp646
g62
(dp647
g70
I4
ssg71
g641
sg64
(lp648
g57
(g66
g59
NtRp649
(dp650
g62
(dp651
g70
I3
ssg71
Nsg64
(lp652
g57
(g73
g59
NtRp653
(dp654
g62
(dp655
sg71
g649
sg64
(lp656
g57
(g78
g59
NtRp657
(dp658
g62
(dp659
g82
g83
ssg71
g653
sg64
(lp660
g283
asbag57
(g78
g59
NtRp661
(dp662
g62
(dp663
g89
g90
ssg71
g653
sg64
(lp664
S':'
asbag57
(g78
g59
NtRp665
(dp666
g62
(dp667
sg71
g653
sg64
(lp668
g57
(g58
g59
NtRp669
(dp670
g62
(dp671
g70
I3
ssg71
g665
sg64
(lp672
S''
asbasbasbag57
(g73
g59
NtRp673
(dp674
g62
(dp675
sg71
g649
sg64
(lp676
g57
(g78
g59
NtRp677
(dp678
g62
(dp679
g82
g83
ssg71
g673
sg64
(lp680
g304
asbag57
(g78
g59
NtRp681
(dp682
g62
(dp683
g89
g90
ssg71
g673
sg64
(lp684
S':'
asbag57
(g78
g59
NtRp685
(dp686
g62
(dp687
sg71
g673
sg64
(lp688
g57
(g58
g59
NtRp689
(dp690
g62
(dp691
g70
I3
ssg71
g685
sg64
(lp692
S''
asbasbasbag57
(g73
g59
NtRp693
(dp694
g62
(dp695
sg71
g649
sg64
(lp696
g57
(g78
g59
NtRp697
(dp698
g62
(dp699
g82
g83
ssg71
g693
sg64
(lp700
g325
asbag57
(g78
g59
NtRp701
(dp702
g62
(dp703
g89
g90
ssg71
g693
sg64
(lp704
S':'
asbag57
(g78
g59
NtRp705
(dp706
g62
(dp707
sg71
g693
sg64
(lp708
g57
(g58
g59
NtRp709
(dp710
g62
(dp711
g70
I3
ssg71
g705
sg64
(lp712
S''
asbasbasbag57
(g73
g59
NtRp713
(dp714
g62
(dp715
sg71
g649
sg64
(lp716
g57
(g78
g59
NtRp717
(dp718
g62
(dp719
g82
g83
ssg71
g713
sg64
(lp720
g346
asbag57
(g78
g59
NtRp721
(dp722
g62
(dp723
g89
g90
ssg71
g713
sg64
(lp724
S':'
asbag57
(g78
g59
NtRp725
(dp726
g62
(dp727
sg71
g713
sg64
(lp728
g57
(g58
g59
NtRp729
(dp730
g62
(dp731
g70
I3
ssg71
g725
sg64
(lp732
S''
asbasbasbag57
(g73
g59
NtRp733
(dp734
g62
(dp735
sg71
g649
sg64
(lp736
g57
(g78
g59
NtRp737
(dp738
g62
(dp739
g82
g83
ssg71
g733
sg64
(lp740
g367
asbag57
(g78
g59
NtRp741
(dp742
g62
(dp743
g89
g90
ssg71
g733
sg64
(lp744
S':'
asbag57
(g78
g59
NtRp745
(dp746
g62
(dp747
sg71
g733
sg64
(lp748
g57
(g58
g59
NtRp749
(dp750
g62
(dp751
g70
I3
ssg71
g745
sg64
(lp752
S''
asbasbasbag57
(g73
g59
NtRp753
(dp754
g62
(dp755
sg71
g649
sg64
(lp756
g57
(g78
g59
NtRp757
(dp758
g62
(dp759
g82
g83
ssg71
g753
sg64
(lp760
g388
asbag57
(g78
g59
NtRp761
(dp762
g62
(dp763
g89
g90
ssg71
g753
sg64
(lp764
S':'
asbag57
(g78
g59
NtRp765
(dp766
g62
(dp767
sg71
g753
sg64
(lp768
g57
(g58
g59
NtRp769
(dp770
g62
(dp771
g70
I3
ssg71
g765
sg64
(lp772
S''
asbasbasbag57
(g73
g59
NtRp773
(dp774
g62
(dp775
sg71
g649
sg64
(lp776
g57
(g78
g59
NtRp777
(dp778
g62
(dp779
g82
g83
ssg71
g773
sg64
(lp780
g409
asbag57
(g78
g59
NtRp781
(dp782
g62
(dp783
g89
g90
ssg71
g773
sg64
(lp784
S':'
asbag57
(g78
g59
NtRp785
(dp786
g62
(dp787
sg71
g773
sg64
(lp788
g57
(g58
g59
NtRp789
(dp790
g62
(dp791
g70
I3
ssg71
g785
sg64
(lp792
S''
asbasbasbag57
(g73
g59
NtRp793
(dp794
g62
(dp795
sg71
g649
sg64
(lp796
g57
(g78
g59
NtRp797
(dp798
g62
(dp799
g82
g83
ssg71
g793
sg64
(lp800
g430
asbag57
(g78
g59
NtRp801
(dp802
g62
(dp803
g89
g90
ssg71
g793
sg64
(lp804
S':'
asbag57
(g78
g59
NtRp805
(dp806
g62
(dp807
sg71
g793
sg64
(lp808
g57
(g58
g59
NtRp809
(dp810
g62
(dp811
g70
I3
ssg71
g805
sg64
(lp812
S''
asbasbasbasbasbasbasbasbasbasbasbag57
(g73
g59
NtRp813
(dp814
g62
(dp815
sg71
g67
sg64
(lp816
g57
(g78
g59
NtRp817
(dp818
g62
(dp819
g82
g83
ssg71
g813
sg64
(lp820
S'env'
p821
asbag57
(g78
g59
NtRp822
(dp823
g62
(dp824
g89
g90
ssg71
g813
sg64
(lp825
S':'
asbag57
(g78
g59
NtRp826
(dp827
g62
(dp828
sg71
g813
sg64
(lp829
g57
(g58
g59
NtRp830
(dp831
g62
(dp832
g70
I5
ssg71
g826
sg64
(lp833
g57
(g66
g59
NtRp834
(dp835
g62
(dp836
g70
I4
ssg71
Nsg64
(lp837
g57
(g73
g59
NtRp838
(dp839
g62
(dp840
sg71
g834
sg64
(lp841
g57
(g78
g59
NtRp842
(dp843
g62
(dp844
g82
g83
ssg71
g838
sg64
(lp845
S'app_folders'
p846
asbag57
(g78
g59
NtRp847
(dp848
g62
(dp849
g89
g90
ssg71
g838
sg64
(lp850
S':'
asbag57
(g78
g59
NtRp851
(dp852
g62
(dp853
sg71
g838
sg64
(lp854
g57
(g58
g59
NtRp855
(dp856
g62
(dp857
g70
I4
ssg71
g851
sg64
(lp858
S"set(['C:\\\\Users\\\\mellinja\\\\Documents\\\\SC2Tracker\\\\SC2TourneyTracker\\\\web2py\\\\applications\\\\welcome\\\\', 'C:\\\\Users\\\\mellinja\\\\Documents\\\\SC2Tracker\\\\SC2TourneyTracker\\\\web2py\\\\applications\\\\admin\\\\', 'C:\\\\Users\\\\mellinja\\\\Documents\\\\SC2Tracker\\\\SC2TourneyTracker\\\\web2py\\\\applications\\\\examples\\\\'])"
p859
asbasbasbag57
(g73
g59
NtRp860
(dp861
g62
(dp862
sg71
g834
sg64
(lp863
g57
(g78
g59
NtRp864
(dp865
g62
(dp866
g82
g83
ssg71
g860
sg64
(lp867
S'applications_parent'
p868
asbag57
(g78
g59
NtRp869
(dp870
g62
(dp871
g89
g90
ssg71
g860
sg64
(lp872
S':'
asbag57
(g78
g59
NtRp873
(dp874
g62
(dp875
sg71
g860
sg64
(lp876
g57
(g58
g59
NtRp877
(dp878
g62
(dp879
g70
I4
ssg71
g873
sg64
(lp880
S'C:\\Users\\mellinja\\Documents\\SC2Tracker\\SC2TourneyTracker\\web2py'
p881
asbasbasbag57
(g73
g59
NtRp882
(dp883
g62
(dp884
sg71
g834
sg64
(lp885
g57
(g78
g59
NtRp886
(dp887
g62
(dp888
g82
g83
ssg71
g882
sg64
(lp889
S'cmd_args'
p890
asbag57
(g78
g59
NtRp891
(dp892
g62
(dp893
g89
g90
ssg71
g882
sg64
(lp894
S':'
asbag57
(g78
g59
NtRp895
(dp896
g62
(dp897
sg71
g882
sg64
(lp898
g57
(g58
g59
NtRp899
(dp900
g62
(dp901
g70
I4
ssg71
g895
sg64
(lp902
g57
(g66
g59
NtRp903
(dp904
g62
(dp905
g70
I3
ssg71
Nsg64
(lp906
sbasbasbasbag57
(g73
g59
NtRp907
(dp908
g62
(dp909
sg71
g834
sg64
(lp910
g57
(g78
g59
NtRp911
(dp912
g62
(dp913
g82
g83
ssg71
g907
sg64
(lp914
S'cmd_options'
p915
asbag57
(g78
g59
NtRp916
(dp917
g62
(dp918
g89
g90
ssg71
g907
sg64
(lp919
S':'
asbag57
(g78
g59
NtRp920
(dp921
g62
(dp922
sg71
g907
sg64
(lp923
g57
(g58
g59
NtRp924
(dp925
g62
(dp926
g70
I4
ssg71
g920
sg64
(lp927
S"<Values at 0x35ed5c8: {'verbose': False, 'ip': '127.0.0.1', 'shutdown_timeout': 5, 'taskbar': False, 'nocron': False, 'pid_filename': 'httpserver.pid', 'maxthreads': None, 'softcron': False, 'server_name': 'mellinja-PC', 'bpython': False, 'nogui': False, 'port': 8000, 'extcron': False, 'debuglevel': 30, 'test': None, 'folder': 'C:\\\\Users\\\\mellinja\\\\Documents\\\\SC2Tracker\\\\SC2TourneyTracker\\\\web2py', 'config': '', 'import_models': False, 'winservice': '', 'shell': None, 'run': '', 'log_filename': 'httpserver.log', 'args': [''], 'socket_timeout': 1, 'ssl_ca_certificate': None, 'scheduler': None, 'profiler_filename': None, 'ssl_private_key': '', 'password': '<ask>', 'request_queue_size': 5, 'ssl_certificate': '', 'cronjob': False, 'numthreads': None, 'quiet': False, 'interfaces': None, 'minthreads': None, 'timeout': 10, 'plain': False, 'nobanner': False}>"
p928
asbasbasbag57
(g73
g59
NtRp929
(dp930
g62
(dp931
sg71
g834
sg64
(lp932
g57
(g78
g59
NtRp933
(dp934
g62
(dp935
g82
g83
ssg71
g929
sg64
(lp936
S'db_sessions'
p937
asbag57
(g78
g59
NtRp938
(dp939
g62
(dp940
g89
g90
ssg71
g929
sg64
(lp941
S':'
asbag57
(g78
g59
NtRp942
(dp943
g62
(dp944
sg71
g929
sg64
(lp945
g57
(g58
g59
NtRp946
(dp947
g62
(dp948
g70
I4
ssg71
g942
sg64
(lp949
S'set([])'
p950
asbasbasbag57
(g73
g59
NtRp951
(dp952
g62
(dp953
sg71
g834
sg64
(lp954
g57
(g78
g59
NtRp955
(dp956
g62
(dp957
g82
g83
ssg71
g951
sg64
(lp958
S'debugging'
p959
asbag57
(g78
g59
NtRp960
(dp961
g62
(dp962
g89
g90
ssg71
g951
sg64
(lp963
S':'
asbag57
(g78
g59
NtRp964
(dp965
g62
(dp966
sg71
g951
sg64
(lp967
g57
(g58
g59
NtRp968
(dp969
g62
(dp970
g70
I4
ssg71
g964
sg64
(lp971
g100
asbasbasbag57
(g73
g59
NtRp972
(dp973
g62
(dp974
sg71
g834
sg64
(lp975
g57
(g78
g59
NtRp976
(dp977
g62
(dp978
g82
g83
ssg71
g972
sg64
(lp979
S'gluon_parent'
p980
asbag57
(g78
g59
NtRp981
(dp982
g62
(dp983
g89
g90
ssg71
g972
sg64
(lp984
S':'
asbag57
(g78
g59
NtRp985
(dp986
g62
(dp987
sg71
g972
sg64
(lp988
g57
(g58
g59
NtRp989
(dp990
g62
(dp991
g70
I4
ssg71
g985
sg64
(lp992
S'C:\\Users\\mellinja\\Documents\\SC2Tracker\\SC2TourneyTracker\\web2py'
p993
asbasbasbag57
(g73
g59
NtRp994
(dp995
g62
(dp996
sg71
g834
sg64
(lp997
g57
(g78
g59
NtRp998
(dp999
g62
(dp1000
g82
g83
ssg71
g994
sg64
(lp1001
S'http_accept'
p1002
asbag57
(g78
g59
NtRp1003
(dp1004
g62
(dp1005
g89
g90
ssg71
g994
sg64
(lp1006
S':'
asbag57
(g78
g59
NtRp1007
(dp1008
g62
(dp1009
sg71
g994
sg64
(lp1010
g57
(g58
g59
NtRp1011
(dp1012
g62
(dp1013
g70
I4
ssg71
g1007
sg64
(lp1014
S'text/html,application/xhtml+xml,application/xml;q=0.9,*/*;q=0.8'
p1015
asbasbasbag57
(g73
g59
NtRp1016
(dp1017
g62
(dp1018
sg71
g834
sg64
(lp1019
g57
(g78
g59
NtRp1020
(dp1021
g62
(dp1022
g82
g83
ssg71
g1016
sg64
(lp1023
S'http_accept_charset'
p1024
asbag57
(g78
g59
NtRp1025
(dp1026
g62
(dp1027
g89
g90
ssg71
g1016
sg64
(lp1028
S':'
asbag57
(g78
g59
NtRp1029
(dp1030
g62
(dp1031
sg71
g1016
sg64
(lp1032
g57
(g58
g59
NtRp1033
(dp1034
g62
(dp1035
g70
I4
ssg71
g1029
sg64
(lp1036
S'ISO-8859-1,utf-8;q=0.7,*;q=0.3'
p1037
asbasbasbag57
(g73
g59
NtRp1038
(dp1039
g62
(dp1040
sg71
g834
sg64
(lp1041
g57
(g78
g59
NtRp1042
(dp1043
g62
(dp1044
g82
g83
ssg71
g1038
sg64
(lp1045
S'http_accept_encoding'
p1046
asbag57
(g78
g59
NtRp1047
(dp1048
g62
(dp1049
g89
g90
ssg71
g1038
sg64
(lp1050
S':'
asbag57
(g78
g59
NtRp1051
(dp1052
g62
(dp1053
sg71
g1038
sg64
(lp1054
g57
(g58
g59
NtRp1055
(dp1056
g62
(dp1057
g70
I4
ssg71
g1051
sg64
(lp1058
S'gzip,deflate,sdch'
p1059
asbasbasbag57
(g73
g59
NtRp1060
(dp1061
g62
(dp1062
sg71
g834
sg64
(lp1063
g57
(g78
g59
NtRp1064
(dp1065
g62
(dp1066
g82
g83
ssg71
g1060
sg64
(lp1067
S'http_accept_language'
p1068
asbag57
(g78
g59
NtRp1069
(dp1070
g62
(dp1071
g89
g90
ssg71
g1060
sg64
(lp1072
S':'
asbag57
(g78
g59
NtRp1073
(dp1074
g62
(dp1075
sg71
g1060
sg64
(lp1076
g57
(g58
g59
NtRp1077
(dp1078
g62
(dp1079
g70
I4
ssg71
g1073
sg64
(lp1080
S'en-US,en;q=0.8'
p1081
asbasbasbag57
(g73
g59
NtRp1082
(dp1083
g62
(dp1084
sg71
g834
sg64
(lp1085
g57
(g78
g59
NtRp1086
(dp1087
g62
(dp1088
g82
g83
ssg71
g1082
sg64
(lp1089
S'http_cache_control'
p1090
asbag57
(g78
g59
NtRp1091
(dp1092
g62
(dp1093
g89
g90
ssg71
g1082
sg64
(lp1094
S':'
asbag57
(g78
g59
NtRp1095
(dp1096
g62
(dp1097
sg71
g1082
sg64
(lp1098
g57
(g58
g59
NtRp1099
(dp1100
g62
(dp1101
g70
I4
ssg71
g1095
sg64
(lp1102
S'max-age=0'
p1103
asbasbasbag57
(g73
g59
NtRp1104
(dp1105
g62
(dp1106
sg71
g834
sg64
(lp1107
g57
(g78
g59
NtRp1108
(dp1109
g62
(dp1110
g82
g83
ssg71
g1104
sg64
(lp1111
S'http_connection'
p1112
asbag57
(g78
g59
NtRp1113
(dp1114
g62
(dp1115
g89
g90
ssg71
g1104
sg64
(lp1116
S':'
asbag57
(g78
g59
NtRp1117
(dp1118
g62
(dp1119
sg71
g1104
sg64
(lp1120
g57
(g58
g59
NtRp1121
(dp1122
g62
(dp1123
g70
I4
ssg71
g1117
sg64
(lp1124
S'keep-alive'
p1125
asbasbasbag57
(g73
g59
NtRp1126
(dp1127
g62
(dp1128
sg71
g834
sg64
(lp1129
g57
(g78
g59
NtRp1130
(dp1131
g62
(dp1132
g82
g83
ssg71
g1126
sg64
(lp1133
S'http_cookie'
p1134
asbag57
(g78
g59
NtRp1135
(dp1136
g62
(dp1137
g89
g90
ssg71
g1126
sg64
(lp1138
S':'
asbag57
(g78
g59
NtRp1139
(dp1140
g62
(dp1141
sg71
g1126
sg64
(lp1142
g57
(g58
g59
NtRp1143
(dp1144
g62
(dp1145
g70
I4
ssg71
g1139
sg64
(lp1146
S'session_id_examples=127.0.0.1-9e881dcd-95ac-4a4e-bf37-4ac0954cf6e0; session_id_welcome=127.0.0.1-5b61f96d-52a5-4e52-805f-552fe78bcf40; session_id_admin=127.0.0.1-d85497cf-ea1f-4eff-b6f9-b725bf1f6ac9'
p1147
asbasbasbag57
(g73
g59
NtRp1148
(dp1149
g62
(dp1150
sg71
g834
sg64
(lp1151
g57
(g78
g59
NtRp1152
(dp1153
g62
(dp1154
g82
g83
ssg71
g1148
sg64
(lp1155
S'http_host'
p1156
asbag57
(g78
g59
NtRp1157
(dp1158
g62
(dp1159
g89
g90
ssg71
g1148
sg64
(lp1160
S':'
asbag57
(g78
g59
NtRp1161
(dp1162
g62
(dp1163
sg71
g1148
sg64
(lp1164
g57
(g58
g59
NtRp1165
(dp1166
g62
(dp1167
g70
I4
ssg71
g1161
sg64
(lp1168
S'127.0.0.1:8000'
p1169
asbasbasbag57
(g73
g59
NtRp1170
(dp1171
g62
(dp1172
sg71
g834
sg64
(lp1173
g57
(g78
g59
NtRp1174
(dp1175
g62
(dp1176
g82
g83
ssg71
g1170
sg64
(lp1177
S'http_referer'
p1178
asbag57
(g78
g59
NtRp1179
(dp1180
g62
(dp1181
g89
g90
ssg71
g1170
sg64
(lp1182
S':'
asbag57
(g78
g59
NtRp1183
(dp1184
g62
(dp1185
sg71
g1170
sg64
(lp1186
g57
(g58
g59
NtRp1187
(dp1188
g62
(dp1189
g70
I4
ssg71
g1183
sg64
(lp1190
S'http://127.0.0.1:8000/welcome/tournament/'
p1191
asbasbasbag57
(g73
g59
NtRp1192
(dp1193
g62
(dp1194
sg71
g834
sg64
(lp1195
g57
(g78
g59
NtRp1196
(dp1197
g62
(dp1198
g82
g83
ssg71
g1192
sg64
(lp1199
S'http_user_agent'
p1200
asbag57
(g78
g59
NtRp1201
(dp1202
g62
(dp1203
g89
g90
ssg71
g1192
sg64
(lp1204
S':'
asbag57
(g78
g59
NtRp1205
(dp1206
g62
(dp1207
sg71
g1192
sg64
(lp1208
g57
(g58
g59
NtRp1209
(dp1210
g62
(dp1211
g70
I4
ssg71
g1205
sg64
(lp1212
S'Mozilla/5.0 (Windows NT 6.1; WOW64) AppleWebKit/535.7 (KHTML, like Gecko) Chrome/16.0.912.77 Safari/535.7'
p1213
asbasbasbag57
(g73
g59
NtRp1214
(dp1215
g62
(dp1216
sg71
g834
sg64
(lp1217
g57
(g78
g59
NtRp1218
(dp1219
g62
(dp1220
g82
g83
ssg71
g1214
sg64
(lp1221
S'is_jython'
p1222
asbag57
(g78
g59
NtRp1223
(dp1224
g62
(dp1225
g89
g90
ssg71
g1214
sg64
(lp1226
S':'
asbag57
(g78
g59
NtRp1227
(dp1228
g62
(dp1229
sg71
g1214
sg64
(lp1230
g57
(g58
g59
NtRp1231
(dp1232
g62
(dp1233
g70
I4
ssg71
g1227
sg64
(lp1234
g100
asbasbasbag57
(g73
g59
NtRp1235
(dp1236
g62
(dp1237
sg71
g834
sg64
(lp1238
g57
(g78
g59
NtRp1239
(dp1240
g62
(dp1241
g82
g83
ssg71
g1235
sg64
(lp1242
S'is_pypy'
p1243
asbag57
(g78
g59
NtRp1244
(dp1245
g62
(dp1246
g89
g90
ssg71
g1235
sg64
(lp1247
S':'
asbag57
(g78
g59
NtRp1248
(dp1249
g62
(dp1250
sg71
g1235
sg64
(lp1251
g57
(g58
g59
NtRp1252
(dp1253
g62
(dp1254
g70
I4
ssg71
g1248
sg64
(lp1255
g100
asbasbasbag57
(g73
g59
NtRp1256
(dp1257
g62
(dp1258
sg71
g834
sg64
(lp1259
g57
(g78
g59
NtRp1260
(dp1261
g62
(dp1262
g82
g83
ssg71
g1256
sg64
(lp1263
S'path_info'
p1264
asbag57
(g78
g59
NtRp1265
(dp1266
g62
(dp1267
g89
g90
ssg71
g1256
sg64
(lp1268
S':'
asbag57
(g78
g59
NtRp1269
(dp1270
g62
(dp1271
sg71
g1256
sg64
(lp1272
g57
(g58
g59
NtRp1273
(dp1274
g62
(dp1275
g70
I4
ssg71
g1269
sg64
(lp1276
S'/welcome/tournament/show/7'
p1277
asbasbasbag57
(g73
g59
NtRp1278
(dp1279
g62
(dp1280
sg71
g834
sg64
(lp1281
g57
(g78
g59
NtRp1282
(dp1283
g62
(dp1284
g82
g83
ssg71
g1278
sg64
(lp1285
S'query_string'
p1286
asbag57
(g78
g59
NtRp1287
(dp1288
g62
(dp1289
g89
g90
ssg71
g1278
sg64
(lp1290
S':'
asbag57
(g78
g59
NtRp1291
(dp1292
g62
(dp1293
sg71
g1278
sg64
(lp1294
g57
(g58
g59
NtRp1295
(dp1296
g62
(dp1297
g70
I4
ssg71
g1291
sg64
(lp1298
S''
asbasbasbag57
(g73
g59
NtRp1299
(dp1300
g62
(dp1301
sg71
g834
sg64
(lp1302
g57
(g78
g59
NtRp1303
(dp1304
g62
(dp1305
g82
g83
ssg71
g1299
sg64
(lp1306
S'remote_addr'
p1307
asbag57
(g78
g59
NtRp1308
(dp1309
g62
(dp1310
g89
g90
ssg71
g1299
sg64
(lp1311
S':'
asbag57
(g78
g59
NtRp1312
(dp1313
g62
(dp1314
sg71
g1299
sg64
(lp1315
g57
(g58
g59
NtRp1316
(dp1317
g62
(dp1318
g70
I4
ssg71
g1312
sg64
(lp1319
g202
asbasbasbag57
(g73
g59
NtRp1320
(dp1321
g62
(dp1322
sg71
g834
sg64
(lp1323
g57
(g78
g59
NtRp1324
(dp1325
g62
(dp1326
g82
g83
ssg71
g1320
sg64
(lp1327
S'remote_port'
p1328
asbag57
(g78
g59
NtRp1329
(dp1330
g62
(dp1331
g89
g90
ssg71
g1320
sg64
(lp1332
S':'
asbag57
(g78
g59
NtRp1333
(dp1334
g62
(dp1335
sg71
g1320
sg64
(lp1336
g57
(g58
g59
NtRp1337
(dp1338
g62
(dp1339
g70
I4
ssg71
g1333
sg64
(lp1340
S'54751'
p1341
asbasbasbag57
(g73
g59
NtRp1342
(dp1343
g62
(dp1344
sg71
g834
sg64
(lp1345
g57
(g78
g59
NtRp1346
(dp1347
g62
(dp1348
g82
g83
ssg71
g1342
sg64
(lp1349
S'request_method'
p1350
asbag57
(g78
g59
NtRp1351
(dp1352
g62
(dp1353
g89
g90
ssg71
g1342
sg64
(lp1354
S':'
asbag57
(g78
g59
NtRp1355
(dp1356
g62
(dp1357
sg71
g1342
sg64
(lp1358
g57
(g58
g59
NtRp1359
(dp1360
g62
(dp1361
g70
I4
ssg71
g1355
sg64
(lp1362
S'GET'
p1363
asbasbasbag57
(g73
g59
NtRp1364
(dp1365
g62
(dp1366
sg71
g834
sg64
(lp1367
g57
(g78
g59
NtRp1368
(dp1369
g62
(dp1370
g82
g83
ssg71
g1364
sg64
(lp1371
S'script_name'
p1372
asbag57
(g78
g59
NtRp1373
(dp1374
g62
(dp1375
g89
g90
ssg71
g1364
sg64
(lp1376
S':'
asbag57
(g78
g59
NtRp1377
(dp1378
g62
(dp1379
sg71
g1364
sg64
(lp1380
g57
(g58
g59
NtRp1381
(dp1382
g62
(dp1383
g70
I4
ssg71
g1377
sg64
(lp1384
S''
asbasbasbag57
(g73
g59
NtRp1385
(dp1386
g62
(dp1387
sg71
g834
sg64
(lp1388
g57
(g78
g59
NtRp1389
(dp1390
g62
(dp1391
g82
g83
ssg71
g1385
sg64
(lp1392
S'server_name'
p1393
asbag57
(g78
g59
NtRp1394
(dp1395
g62
(dp1396
g89
g90
ssg71
g1385
sg64
(lp1397
S':'
asbag57
(g78
g59
NtRp1398
(dp1399
g62
(dp1400
sg71
g1385
sg64
(lp1401
g57
(g58
g59
NtRp1402
(dp1403
g62
(dp1404
g70
I4
ssg71
g1398
sg64
(lp1405
S'mellinja-PC'
p1406
asbasbasbag57
(g73
g59
NtRp1407
(dp1408
g62
(dp1409
sg71
g834
sg64
(lp1410
g57
(g78
g59
NtRp1411
(dp1412
g62
(dp1413
g82
g83
ssg71
g1407
sg64
(lp1414
S'server_port'
p1415
asbag57
(g78
g59
NtRp1416
(dp1417
g62
(dp1418
g89
g90
ssg71
g1407
sg64
(lp1419
S':'
asbag57
(g78
g59
NtRp1420
(dp1421
g62
(dp1422
sg71
g1407
sg64
(lp1423
g57
(g58
g59
NtRp1424
(dp1425
g62
(dp1426
g70
I4
ssg71
g1420
sg64
(lp1427
S'8000'
p1428
asbasbasbag57
(g73
g59
NtRp1429
(dp1430
g62
(dp1431
sg71
g834
sg64
(lp1432
g57
(g78
g59
NtRp1433
(dp1434
g62
(dp1435
g82
g83
ssg71
g1429
sg64
(lp1436
S'server_protocol'
p1437
asbag57
(g78
g59
NtRp1438
(dp1439
g62
(dp1440
g89
g90
ssg71
g1429
sg64
(lp1441
S':'
asbag57
(g78
g59
NtRp1442
(dp1443
g62
(dp1444
sg71
g1429
sg64
(lp1445
g57
(g58
g59
NtRp1446
(dp1447
g62
(dp1448
g70
I4
ssg71
g1442
sg64
(lp1449
S'HTTP/1.1'
p1450
asbasbasbag57
(g73
g59
NtRp1451
(dp1452
g62
(dp1453
sg71
g834
sg64
(lp1454
g57
(g78
g59
NtRp1455
(dp1456
g62
(dp1457
g82
g83
ssg71
g1451
sg64
(lp1458
S'server_software'
p1459
asbag57
(g78
g59
NtRp1460
(dp1461
g62
(dp1462
g89
g90
ssg71
g1451
sg64
(lp1463
S':'
asbag57
(g78
g59
NtRp1464
(dp1465
g62
(dp1466
sg71
g1451
sg64
(lp1467
g57
(g58
g59
NtRp1468
(dp1469
g62
(dp1470
g70
I4
ssg71
g1464
sg64
(lp1471
S'Rocket 1.2.4'
p1472
asbasbasbag57
(g73
g59
NtRp1473
(dp1474
g62
(dp1475
sg71
g834
sg64
(lp1476
g57
(g78
g59
NtRp1477
(dp1478
g62
(dp1479
g82
g83
ssg71
g1473
sg64
(lp1480
S'web2py_crontype'
p1481
asbag57
(g78
g59
NtRp1482
(dp1483
g62
(dp1484
g89
g90
ssg71
g1473
sg64
(lp1485
S':'
asbag57
(g78
g59
NtRp1486
(dp1487
g62
(dp1488
sg71
g1473
sg64
(lp1489
g57
(g58
g59
NtRp1490
(dp1491
g62
(dp1492
g70
I4
ssg71
g1486
sg64
(lp1493
S'hard'
p1494
asbasbasbag57
(g73
g59
NtRp1495
(dp1496
g62
(dp1497
sg71
g834
sg64
(lp1498
g57
(g78
g59
NtRp1499
(dp1500
g62
(dp1501
g82
g83
ssg71
g1495
sg64
(lp1502
S'web2py_path'
p1503
asbag57
(g78
g59
NtRp1504
(dp1505
g62
(dp1506
g89
g90
ssg71
g1495
sg64
(lp1507
S':'
asbag57
(g78
g59
NtRp1508
(dp1509
g62
(dp1510
sg71
g1495
sg64
(lp1511
g57
(g58
g59
NtRp1512
(dp1513
g62
(dp1514
g70
I4
ssg71
g1508
sg64
(lp1515
g881
asbasbasbag57
(g73
g59
NtRp1516
(dp1517
g62
(dp1518
sg71
g834
sg64
(lp1519
g57
(g78
g59
NtRp1520
(dp1521
g62
(dp1522
g82
g83
ssg71
g1516
sg64
(lp1523
S'web2py_version'
p1524
asbag57
(g78
g59
NtRp1525
(dp1526
g62
(dp1527
g89
g90
ssg71
g1516
sg64
(lp1528
S':'
asbag57
(g78
g59
NtRp1529
(dp1530
g62
(dp1531
sg71
g1516
sg64
(lp1532
g57
(g58
g59
NtRp1533
(dp1534
g62
(dp1535
g70
I4
ssg71
g1529
sg64
(lp1536
g57
(g66
g59
NtRp1537
(dp1538
g62
(dp1539
g70
I3
ssg71
Nsg64
(lp1540
g57
(g73
g59
NtRp1541
(dp1542
g62
(dp1543
sg71
g1537
sg64
(lp1544
g57
(g78
g59
NtRp1545
(dp1546
g62
(dp1547
sg71
g1541
sg64
(lp1548
g57
(g58
g59
NtRp1549
(dp1550
g62
(dp1551
g70
I3
ssg71
g1545
sg64
(lp1552
S'1'
asbasbasbag57
(g73
g59
NtRp1553
(dp1554
g62
(dp1555
sg71
g1537
sg64
(lp1556
g57
(g78
g59
NtRp1557
(dp1558
g62
(dp1559
sg71
g1553
sg64
(lp1560
g57
(g58
g59
NtRp1561
(dp1562
g62
(dp1563
g70
I3
ssg71
g1557
sg64
(lp1564
S'99'
p1565
asbasbasbag57
(g73
g59
NtRp1566
(dp1567
g62
(dp1568
sg71
g1537
sg64
(lp1569
g57
(g78
g59
NtRp1570
(dp1571
g62
(dp1572
sg71
g1566
sg64
(lp1573
g57
(g58
g59
NtRp1574
(dp1575
g62
(dp1576
g70
I3
ssg71
g1570
sg64
(lp1577
S'4'
asbasbasbag57
(g73
g59
NtRp1578
(dp1579
g62
(dp1580
sg71
g1537
sg64
(lp1581
g57
(g78
g59
NtRp1582
(dp1583
g62
(dp1584
sg71
g1578
sg64
(lp1585
g57
(g58
g59
NtRp1586
(dp1587
g62
(dp1588
g70
I3
ssg71
g1582
sg64
(lp1589
S'datetime.datetime(2011, 12, 14, 14, 46, 14)'
p1590
asbasbasbag57
(g73
g59
NtRp1591
(dp1592
g62
(dp1593
sg71
g1537
sg64
(lp1594
g57
(g78
g59
NtRp1595
(dp1596
g62
(dp1597
sg71
g1591
sg64
(lp1598
g57
(g58
g59
NtRp1599
(dp1600
g62
(dp1601
g70
I3
ssg71
g1595
sg64
(lp1602
S'stable'
p1603
asbasbasbasbasbasbasbag57
(g73
g59
NtRp1604
(dp1605
g62
(dp1606
sg71
g834
sg64
(lp1607
g57
(g78
g59
NtRp1608
(dp1609
g62
(dp1610
g82
g83
ssg71
g1604
sg64
(lp1611
S'wsgi_errors'
p1612
asbag57
(g78
g59
NtRp1613
(dp1614
g62
(dp1615
g89
g90
ssg71
g1604
sg64
(lp1616
S':'
asbag57
(g78
g59
NtRp1617
(dp1618
g62
(dp1619
sg71
g1604
sg64
(lp1620
g57
(g58
g59
NtRp1621
(dp1622
g62
(dp1623
g70
I4
ssg71
g1617
sg64
(lp1624
S"<open file '<stderr>', mode 'w' at 0x0000000001E261E0>"
p1625
asbasbasbag57
(g73
g59
NtRp1626
(dp1627
g62
(dp1628
sg71
g834
sg64
(lp1629
g57
(g78
g59
NtRp1630
(dp1631
g62
(dp1632
g82
g83
ssg71
g1626
sg64
(lp1633
S'wsgi_file_wrapper'
p1634
asbag57
(g78
g59
NtRp1635
(dp1636
g62
(dp1637
g89
g90
ssg71
g1626
sg64
(lp1638
S':'
asbag57
(g78
g59
NtRp1639
(dp1640
g62
(dp1641
sg71
g1626
sg64
(lp1642
g57
(g58
g59
NtRp1643
(dp1644
g62
(dp1645
g70
I4
ssg71
g1639
sg64
(lp1646
S'<class wsgiref.util.FileWrapper at 0x00000000034DD828>'
p1647
asbasbasbag57
(g73
g59
NtRp1648
(dp1649
g62
(dp1650
sg71
g834
sg64
(lp1651
g57
(g78
g59
NtRp1652
(dp1653
g62
(dp1654
g82
g83
ssg71
g1648
sg64
(lp1655
S'wsgi_input'
p1656
asbag57
(g78
g59
NtRp1657
(dp1658
g62
(dp1659
g89
g90
ssg71
g1648
sg64
(lp1660
S':'
asbag57
(g78
g59
NtRp1661
(dp1662
g62
(dp1663
sg71
g1648
sg64
(lp1664
g57
(g58
g59
NtRp1665
(dp1666
g62
(dp1667
g70
I4
ssg71
g1661
sg64
(lp1668
S'<socket._fileobject object at 0x0000000009540B10>'
p1669
asbasbasbag57
(g73
g59
NtRp1670
(dp1671
g62
(dp1672
sg71
g834
sg64
(lp1673
g57
(g78
g59
NtRp1674
(dp1675
g62
(dp1676
g82
g83
ssg71
g1670
sg64
(lp1677
S'wsgi_multiprocess'
p1678
asbag57
(g78
g59
NtRp1679
(dp1680
g62
(dp1681
g89
g90
ssg71
g1670
sg64
(lp1682
S':'
asbag57
(g78
g59
NtRp1683
(dp1684
g62
(dp1685
sg71
g1670
sg64
(lp1686
g57
(g58
g59
NtRp1687
(dp1688
g62
(dp1689
g70
I4
ssg71
g1683
sg64
(lp1690
g100
asbasbasbag57
(g73
g59
NtRp1691
(dp1692
g62
(dp1693
sg71
g834
sg64
(lp1694
g57
(g78
g59
NtRp1695
(dp1696
g62
(dp1697
g82
g83
ssg71
g1691
sg64
(lp1698
S'wsgi_multithread'
p1699
asbag57
(g78
g59
NtRp1700
(dp1701
g62
(dp1702
g89
g90
ssg71
g1691
sg64
(lp1703
S':'
asbag57
(g78
g59
NtRp1704
(dp1705
g62
(dp1706
sg71
g1691
sg64
(lp1707
g57
(g58
g59
NtRp1708
(dp1709
g62
(dp1710
g70
I4
ssg71
g1704
sg64
(lp1711
S'True'
p1712
asbasbasbag57
(g73
g59
NtRp1713
(dp1714
g62
(dp1715
sg71
g834
sg64
(lp1716
g57
(g78
g59
NtRp1717
(dp1718
g62
(dp1719
g82
g83
ssg71
g1713
sg64
(lp1720
S'wsgi_run_once'
p1721
asbag57
(g78
g59
NtRp1722
(dp1723
g62
(dp1724
g89
g90
ssg71
g1713
sg64
(lp1725
S':'
asbag57
(g78
g59
NtRp1726
(dp1727
g62
(dp1728
sg71
g1713
sg64
(lp1729
g57
(g58
g59
NtRp1730
(dp1731
g62
(dp1732
g70
I4
ssg71
g1726
sg64
(lp1733
g100
asbasbasbag57
(g73
g59
NtRp1734
(dp1735
g62
(dp1736
sg71
g834
sg64
(lp1737
g57
(g78
g59
NtRp1738
(dp1739
g62
(dp1740
g82
g83
ssg71
g1734
sg64
(lp1741
S'wsgi_url_scheme'
p1742
asbag57
(g78
g59
NtRp1743
(dp1744
g62
(dp1745
g89
g90
ssg71
g1734
sg64
(lp1746
S':'
asbag57
(g78
g59
NtRp1747
(dp1748
g62
(dp1749
sg71
g1734
sg64
(lp1750
g57
(g58
g59
NtRp1751
(dp1752
g62
(dp1753
g70
I4
ssg71
g1747
sg64
(lp1754
S'http'
p1755
asbasbasbag57
(g73
g59
NtRp1756
(dp1757
g62
(dp1758
sg71
g834
sg64
(lp1759
g57
(g78
g59
NtRp1760
(dp1761
g62
(dp1762
g82
g83
ssg71
g1756
sg64
(lp1763
S'wsgi_version'
p1764
asbag57
(g78
g59
NtRp1765
(dp1766
g62
(dp1767
g89
g90
ssg71
g1756
sg64
(lp1768
S':'
asbag57
(g78
g59
NtRp1769
(dp1770
g62
(dp1771
sg71
g1756
sg64
(lp1772
g57
(g58
g59
NtRp1773
(dp1774
g62
(dp1775
g70
I4
ssg71
g1769
sg64
(lp1776
g57
(g66
g59
NtRp1777
(dp1778
g62
(dp1779
g70
I3
ssg71
Nsg64
(lp1780
g57
(g73
g59
NtRp1781
(dp1782
g62
(dp1783
sg71
g1777
sg64
(lp1784
g57
(g78
g59
NtRp1785
(dp1786
g62
(dp1787
sg71
g1781
sg64
(lp1788
g57
(g58
g59
NtRp1789
(dp1790
g62
(dp1791
g70
I3
ssg71
g1785
sg64
(lp1792
S'1'
asbasbasbag57
(g73
g59
NtRp1793
(dp1794
g62
(dp1795
sg71
g1777
sg64
(lp1796
g57
(g78
g59
NtRp1797
(dp1798
g62
(dp1799
sg71
g1793
sg64
(lp1800
g57
(g58
g59
NtRp1801
(dp1802
g62
(dp1803
g70
I3
ssg71
g1797
sg64
(lp1804
S'0'
asbasbasbasbasbasbasbasbasbasbasbag57
(g73
g59
NtRp1805
(dp1806
g62
(dp1807
sg71
g67
sg64
(lp1808
g57
(g78
g59
NtRp1809
(dp1810
g62
(dp1811
g82
g83
ssg71
g1805
sg64
(lp1812
S'extension'
p1813
asbag57
(g78
g59
NtRp1814
(dp1815
g62
(dp1816
g89
g90
ssg71
g1805
sg64
(lp1817
S':'
asbag57
(g78
g59
NtRp1818
(dp1819
g62
(dp1820
sg71
g1805
sg64
(lp1821
g57
(g58
g59
NtRp1822
(dp1823
g62
(dp1824
g70
I5
ssg71
g1818
sg64
(lp1825
S'html'
p1826
asbasbasbag57
(g73
g59
NtRp1827
(dp1828
g62
(dp1829
sg71
g67
sg64
(lp1830
g57
(g78
g59
NtRp1831
(dp1832
g62
(dp1833
g82
g83
ssg71
g1827
sg64
(lp1834
S'folder'
p1835
asbag57
(g78
g59
NtRp1836
(dp1837
g62
(dp1838
g89
g90
ssg71
g1827
sg64
(lp1839
S':'
asbag57
(g78
g59
NtRp1840
(dp1841
g62
(dp1842
sg71
g1827
sg64
(lp1843
g57
(g58
g59
NtRp1844
(dp1845
g62
(dp1846
g70
I5
ssg71
g1840
sg64
(lp1847
S'C:\\Users\\mellinja\\Documents\\SC2Tracker\\SC2TourneyTracker\\web2py\\applications\\welcome\\'
p1848
asbasbasbag57
(g73
g59
NtRp1849
(dp1850
g62
(dp1851
sg71
g67
sg64
(lp1852
g57
(g78
g59
NtRp1853
(dp1854
g62
(dp1855
g82
g83
ssg71
g1849
sg64
(lp1856
S'function'
p1857
asbag57
(g78
g59
NtRp1858
(dp1859
g62
(dp1860
g89
g90
ssg71
g1849
sg64
(lp1861
S':'
asbag57
(g78
g59
NtRp1862
(dp1863
g62
(dp1864
sg71
g1849
sg64
(lp1865
g57
(g58
g59
NtRp1866
(dp1867
g62
(dp1868
g70
I5
ssg71
g1862
sg64
(lp1869
S'show'
p1870
asbasbasbag57
(g73
g59
NtRp1871
(dp1872
g62
(dp1873
sg71
g67
sg64
(lp1874
g57
(g78
g59
NtRp1875
(dp1876
g62
(dp1877
g82
g83
ssg71
g1871
sg64
(lp1878
S'get_vars'
p1879
asbag57
(g78
g59
NtRp1880
(dp1881
g62
(dp1882
g89
g90
ssg71
g1871
sg64
(lp1883
S':'
asbag57
(g78
g59
NtRp1884
(dp1885
g62
(dp1886
sg71
g1871
sg64
(lp1887
g57
(g58
g59
NtRp1888
(dp1889
g62
(dp1890
g70
I5
ssg71
g1884
sg64
(lp1891
g57
(g66
g59
NtRp1892
(dp1893
g62
(dp1894
g70
I4
ssg71
Nsg64
(lp1895
sbasbasbasbag57
(g73
g59
NtRp1896
(dp1897
g62
(dp1898
sg71
g67
sg64
(lp1899
g57
(g78
g59
NtRp1900
(dp1901
g62
(dp1902
g82
g83
ssg71
g1896
sg64
(lp1903
S'global_settings'
p1904
asbag57
(g78
g59
NtRp1905
(dp1906
g62
(dp1907
g89
g90
ssg71
g1896
sg64
(lp1908
S':'
asbag57
(g78
g59
NtRp1909
(dp1910
g62
(dp1911
sg71
g1896
sg64
(lp1912
g57
(g58
g59
NtRp1913
(dp1914
g62
(dp1915
g70
I5
ssg71
g1909
sg64
(lp1916
g57
(g66
g59
NtRp1917
(dp1918
g62
(dp1919
g70
I4
ssg71
Nsg64
(lp1920
g57
(g73
g59
NtRp1921
(dp1922
g62
(dp1923
sg71
g1917
sg64
(lp1924
g57
(g78
g59
NtRp1925
(dp1926
g62
(dp1927
g82
g83
ssg71
g1921
sg64
(lp1928
g846
asbag57
(g78
g59
NtRp1929
(dp1930
g62
(dp1931
g89
g90
ssg71
g1921
sg64
(lp1932
S':'
asbag57
(g78
g59
NtRp1933
(dp1934
g62
(dp1935
sg71
g1921
sg64
(lp1936
g57
(g58
g59
NtRp1937
(dp1938
g62
(dp1939
g70
I4
ssg71
g1933
sg64
(lp1940
S"set(['C:\\\\Users\\\\mellinja\\\\Documents\\\\SC2Tracker\\\\SC2TourneyTracker\\\\web2py\\\\applications\\\\welcome\\\\', 'C:\\\\Users\\\\mellinja\\\\Documents\\\\SC2Tracker\\\\SC2TourneyTracker\\\\web2py\\\\applications\\\\admin\\\\', 'C:\\\\Users\\\\mellinja\\\\Documents\\\\SC2Tracker\\\\SC2TourneyTracker\\\\web2py\\\\applications\\\\examples\\\\'])"
p1941
asbasbasbag57
(g73
g59
NtRp1942
(dp1943
g62
(dp1944
sg71
g1917
sg64
(lp1945
g57
(g78
g59
NtRp1946
(dp1947
g62
(dp1948
g82
g83
ssg71
g1942
sg64
(lp1949
g868
asbag57
(g78
g59
NtRp1950
(dp1951
g62
(dp1952
g89
g90
ssg71
g1942
sg64
(lp1953
S':'
asbag57
(g78
g59
NtRp1954
(dp1955
g62
(dp1956
sg71
g1942
sg64
(lp1957
g57
(g58
g59
NtRp1958
(dp1959
g62
(dp1960
g70
I4
ssg71
g1954
sg64
(lp1961
g881
asbasbasbag57
(g73
g59
NtRp1962
(dp1963
g62
(dp1964
sg71
g1917
sg64
(lp1965
g57
(g78
g59
NtRp1966
(dp1967
g62
(dp1968
g82
g83
ssg71
g1962
sg64
(lp1969
g890
asbag57
(g78
g59
NtRp1970
(dp1971
g62
(dp1972
g89
g90
ssg71
g1962
sg64
(lp1973
S':'
asbag57
(g78
g59
NtRp1974
(dp1975
g62
(dp1976
sg71
g1962
sg64
(lp1977
g57
(g58
g59
NtRp1978
(dp1979
g62
(dp1980
g70
I4
ssg71
g1974
sg64
(lp1981
g57
(g66
g59
NtRp1982
(dp1983
g62
(dp1984
g70
I3
ssg71
Nsg64
(lp1985
sbasbasbasbag57
(g73
g59
NtRp1986
(dp1987
g62
(dp1988
sg71
g1917
sg64
(lp1989
g57
(g78
g59
NtRp1990
(dp1991
g62
(dp1992
g82
g83
ssg71
g1986
sg64
(lp1993
g915
asbag57
(g78
g59
NtRp1994
(dp1995
g62
(dp1996
g89
g90
ssg71
g1986
sg64
(lp1997
S':'
asbag57
(g78
g59
NtRp1998
(dp1999
g62
(dp2000
sg71
g1986
sg64
(lp2001
g57
(g58
g59
NtRp2002
(dp2003
g62
(dp2004
g70
I4
ssg71
g1998
sg64
(lp2005
S"<Values at 0x35ed5c8: {'verbose': False, 'ip': '127.0.0.1', 'shutdown_timeout': 5, 'taskbar': False, 'nocron': False, 'pid_filename': 'httpserver.pid', 'maxthreads': None, 'softcron': False, 'server_name': 'mellinja-PC', 'bpython': False, 'nogui': False, 'port': 8000, 'extcron': False, 'debuglevel': 30, 'test': None, 'folder': 'C:\\\\Users\\\\mellinja\\\\Documents\\\\SC2Tracker\\\\SC2TourneyTracker\\\\web2py', 'config': '', 'import_models': False, 'winservice': '', 'shell': None, 'run': '', 'log_filename': 'httpserver.log', 'args': [''], 'socket_timeout': 1, 'ssl_ca_certificate': None, 'scheduler': None, 'profiler_filename': None, 'ssl_private_key': '', 'password': '<ask>', 'request_queue_size': 5, 'ssl_certificate': '', 'cronjob': False, 'numthreads': None, 'quiet': False, 'interfaces': None, 'minthreads': None, 'timeout': 10, 'plain': False, 'nobanner': False}>"
p2006
asbasbasbag57
(g73
g59
NtRp2007
(dp2008
g62
(dp2009
sg71
g1917
sg64
(lp2010
g57
(g78
g59
NtRp2011
(dp2012
g62
(dp2013
g82
g83
ssg71
g2007
sg64
(lp2014
g937
asbag57
(g78
g59
NtRp2015
(dp2016
g62
(dp2017
g89
g90
ssg71
g2007
sg64
(lp2018
S':'
asbag57
(g78
g59
NtRp2019
(dp2020
g62
(dp2021
sg71
g2007
sg64
(lp2022
g57
(g58
g59
NtRp2023
(dp2024
g62
(dp2025
g70
I4
ssg71
g2019
sg64
(lp2026
S'set([])'
p2027
asbasbasbag57
(g73
g59
NtRp2028
(dp2029
g62
(dp2030
sg71
g1917
sg64
(lp2031
g57
(g78
g59
NtRp2032
(dp2033
g62
(dp2034
g82
g83
ssg71
g2028
sg64
(lp2035
g959
asbag57
(g78
g59
NtRp2036
(dp2037
g62
(dp2038
g89
g90
ssg71
g2028
sg64
(lp2039
S':'
asbag57
(g78
g59
NtRp2040
(dp2041
g62
(dp2042
sg71
g2028
sg64
(lp2043
g57
(g58
g59
NtRp2044
(dp2045
g62
(dp2046
g70
I4
ssg71
g2040
sg64
(lp2047
g100
asbasbasbag57
(g73
g59
NtRp2048
(dp2049
g62
(dp2050
sg71
g1917
sg64
(lp2051
g57
(g78
g59
NtRp2052
(dp2053
g62
(dp2054
g82
g83
ssg71
g2048
sg64
(lp2055
g980
asbag57
(g78
g59
NtRp2056
(dp2057
g62
(dp2058
g89
g90
ssg71
g2048
sg64
(lp2059
S':'
asbag57
(g78
g59
NtRp2060
(dp2061
g62
(dp2062
sg71
g2048
sg64
(lp2063
g57
(g58
g59
NtRp2064
(dp2065
g62
(dp2066
g70
I4
ssg71
g2060
sg64
(lp2067
g993
asbasbasbag57
(g73
g59
NtRp2068
(dp2069
g62
(dp2070
sg71
g1917
sg64
(lp2071
g57
(g78
g59
NtRp2072
(dp2073
g62
(dp2074
g82
g83
ssg71
g2068
sg64
(lp2075
g1222
asbag57
(g78
g59
NtRp2076
(dp2077
g62
(dp2078
g89
g90
ssg71
g2068
sg64
(lp2079
S':'
asbag57
(g78
g59
NtRp2080
(dp2081
g62
(dp2082
sg71
g2068
sg64
(lp2083
g57
(g58
g59
NtRp2084
(dp2085
g62
(dp2086
g70
I4
ssg71
g2080
sg64
(lp2087
g100
asbasbasbag57
(g73
g59
NtRp2088
(dp2089
g62
(dp2090
sg71
g1917
sg64
(lp2091
g57
(g78
g59
NtRp2092
(dp2093
g62
(dp2094
g82
g83
ssg71
g2088
sg64
(lp2095
g1243
asbag57
(g78
g59
NtRp2096
(dp2097
g62
(dp2098
g89
g90
ssg71
g2088
sg64
(lp2099
S':'
asbag57
(g78
g59
NtRp2100
(dp2101
g62
(dp2102
sg71
g2088
sg64
(lp2103
g57
(g58
g59
NtRp2104
(dp2105
g62
(dp2106
g70
I4
ssg71
g2100
sg64
(lp2107
g100
asbasbasbag57
(g73
g59
NtRp2108
(dp2109
g62
(dp2110
sg71
g1917
sg64
(lp2111
g57
(g78
g59
NtRp2112
(dp2113
g62
(dp2114
g82
g83
ssg71
g2108
sg64
(lp2115
g1481
asbag57
(g78
g59
NtRp2116
(dp2117
g62
(dp2118
g89
g90
ssg71
g2108
sg64
(lp2119
S':'
asbag57
(g78
g59
NtRp2120
(dp2121
g62
(dp2122
sg71
g2108
sg64
(lp2123
g57
(g58
g59
NtRp2124
(dp2125
g62
(dp2126
g70
I4
ssg71
g2120
sg64
(lp2127
g1494
asbasbasbag57
(g73
g59
NtRp2128
(dp2129
g62
(dp2130
sg71
g1917
sg64
(lp2131
g57
(g78
g59
NtRp2132
(dp2133
g62
(dp2134
g82
g83
ssg71
g2128
sg64
(lp2135
g1524
asbag57
(g78
g59
NtRp2136
(dp2137
g62
(dp2138
g89
g90
ssg71
g2128
sg64
(lp2139
S':'
asbag57
(g78
g59
NtRp2140
(dp2141
g62
(dp2142
sg71
g2128
sg64
(lp2143
g57
(g58
g59
NtRp2144
(dp2145
g62
(dp2146
g70
I4
ssg71
g2140
sg64
(lp2147
g57
(g66
g59
NtRp2148
(dp2149
g62
(dp2150
g70
I3
ssg71
Nsg64
(lp2151
g57
(g73
g59
NtRp2152
(dp2153
g62
(dp2154
sg71
g2148
sg64
(lp2155
g57
(g78
g59
NtRp2156
(dp2157
g62
(dp2158
sg71
g2152
sg64
(lp2159
g57
(g58
g59
NtRp2160
(dp2161
g62
(dp2162
g70
I3
ssg71
g2156
sg64
(lp2163
S'1'
asbasbasbag57
(g73
g59
NtRp2164
(dp2165
g62
(dp2166
sg71
g2148
sg64
(lp2167
g57
(g78
g59
NtRp2168
(dp2169
g62
(dp2170
sg71
g2164
sg64
(lp2171
g57
(g58
g59
NtRp2172
(dp2173
g62
(dp2174
g70
I3
ssg71
g2168
sg64
(lp2175
S'99'
p2176
asbasbasbag57
(g73
g59
NtRp2177
(dp2178
g62
(dp2179
sg71
g2148
sg64
(lp2180
g57
(g78
g59
NtRp2181
(dp2182
g62
(dp2183
sg71
g2177
sg64
(lp2184
g57
(g58
g59
NtRp2185
(dp2186
g62
(dp2187
g70
I3
ssg71
g2181
sg64
(lp2188
S'4'
asbasbasbag57
(g73
g59
NtRp2189
(dp2190
g62
(dp2191
sg71
g2148
sg64
(lp2192
g57
(g78
g59
NtRp2193
(dp2194
g62
(dp2195
sg71
g2189
sg64
(lp2196
g57
(g58
g59
NtRp2197
(dp2198
g62
(dp2199
g70
I3
ssg71
g2193
sg64
(lp2200
S'datetime.datetime(2011, 12, 14, 14, 46, 14)'
p2201
asbasbasbag57
(g73
g59
NtRp2202
(dp2203
g62
(dp2204
sg71
g2148
sg64
(lp2205
g57
(g78
g59
NtRp2206
(dp2207
g62
(dp2208
sg71
g2202
sg64
(lp2209
g57
(g58
g59
NtRp2210
(dp2211
g62
(dp2212
g70
I3
ssg71
g2206
sg64
(lp2213
g1603
asbasbasbasbasbasbasbasbasbasbasbag57
(g73
g59
NtRp2214
(dp2215
g62
(dp2216
sg71
g67
sg64
(lp2217
g57
(g78
g59
NtRp2218
(dp2219
g62
(dp2220
g82
g83
ssg71
g2214
sg64
(lp2221
S'is_https'
p2222
asbag57
(g78
g59
NtRp2223
(dp2224
g62
(dp2225
g89
g90
ssg71
g2214
sg64
(lp2226
S':'
asbag57
(g78
g59
NtRp2227
(dp2228
g62
(dp2229
sg71
g2214
sg64
(lp2230
g57
(g58
g59
NtRp2231
(dp2232
g62
(dp2233
g70
I5
ssg71
g2227
sg64
(lp2234
g100
asbasbasbag57
(g73
g59
NtRp2235
(dp2236
g62
(dp2237
sg71
g67
sg64
(lp2238
g57
(g78
g59
NtRp2239
(dp2240
g62
(dp2241
g82
g83
ssg71
g2235
sg64
(lp2242
S'is_local'
p2243
asbag57
(g78
g59
NtRp2244
(dp2245
g62
(dp2246
g89
g90
ssg71
g2235
sg64
(lp2247
S':'
asbag57
(g78
g59
NtRp2248
(dp2249
g62
(dp2250
sg71
g2235
sg64
(lp2251
g57
(g58
g59
NtRp2252
(dp2253
g62
(dp2254
g70
I5
ssg71
g2248
sg64
(lp2255
g1712
asbasbasbag57
(g73
g59
NtRp2256
(dp2257
g62
(dp2258
sg71
g67
sg64
(lp2259
g57
(g78
g59
NtRp2260
(dp2261
g62
(dp2262
g82
g83
ssg71
g2256
sg64
(lp2263
S'is_restful'
p2264
asbag57
(g78
g59
NtRp2265
(dp2266
g62
(dp2267
g89
g90
ssg71
g2256
sg64
(lp2268
S':'
asbag57
(g78
g59
NtRp2269
(dp2270
g62
(dp2271
sg71
g2256
sg64
(lp2272
g57
(g58
g59
NtRp2273
(dp2274
g62
(dp2275
g70
I5
ssg71
g2269
sg64
(lp2276
g100
asbasbasbag57
(g73
g59
NtRp2277
(dp2278
g62
(dp2279
sg71
g67
sg64
(lp2280
g57
(g78
g59
NtRp2281
(dp2282
g62
(dp2283
g82
g83
ssg71
g2277
sg64
(lp2284
S'now'
p2285
asbag57
(g78
g59
NtRp2286
(dp2287
g62
(dp2288
g89
g90
ssg71
g2277
sg64
(lp2289
S':'
asbag57
(g78
g59
NtRp2290
(dp2291
g62
(dp2292
sg71
g2277
sg64
(lp2293
g57
(g58
g59
NtRp2294
(dp2295
g62
(dp2296
g70
I5
ssg71
g2290
sg64
(lp2297
S'datetime.datetime(2012, 2, 7, 16, 12, 24, 265000)'
p2298
asbasbasbag57
(g73
g59
NtRp2299
(dp2300
g62
(dp2301
sg71
g67
sg64
(lp2302
g57
(g78
g59
NtRp2303
(dp2304
g62
(dp2305
g82
g83
ssg71
g2299
sg64
(lp2306
S'post_vars'
p2307
asbag57
(g78
g59
NtRp2308
(dp2309
g62
(dp2310
g89
g90
ssg71
g2299
sg64
(lp2311
S':'
asbag57
(g78
g59
NtRp2312
(dp2313
g62
(dp2314
sg71
g2299
sg64
(lp2315
g57
(g58
g59
NtRp2316
(dp2317
g62
(dp2318
g70
I5
ssg71
g2312
sg64
(lp2319
g57
(g66
g59
NtRp2320
(dp2321
g62
(dp2322
g70
I4
ssg71
Nsg64
(lp2323
sbasbasbasbag57
(g73
g59
NtRp2324
(dp2325
g62
(dp2326
sg71
g67
sg64
(lp2327
g57
(g78
g59
NtRp2328
(dp2329
g62
(dp2330
g82
g83
ssg71
g2324
sg64
(lp2331
S'raw_args'
p2332
asbag57
(g78
g59
NtRp2333
(dp2334
g62
(dp2335
g89
g90
ssg71
g2324
sg64
(lp2336
S':'
asbag57
(g78
g59
NtRp2337
(dp2338
g62
(dp2339
sg71
g2324
sg64
(lp2340
g57
(g58
g59
NtRp2341
(dp2342
g62
(dp2343
g70
I5
ssg71
g2337
sg64
(lp2344
S'7'
asbasbasbag57
(g73
g59
NtRp2345
(dp2346
g62
(dp2347
sg71
g67
sg64
(lp2348
g57
(g78
g59
NtRp2349
(dp2350
g62
(dp2351
g82
g83
ssg71
g2345
sg64
(lp2352
S'url'
p2353
asbag57
(g78
g59
NtRp2354
(dp2355
g62
(dp2356
g89
g90
ssg71
g2345
sg64
(lp2357
S':'
asbag57
(g78
g59
NtRp2358
(dp2359
g62
(dp2360
sg71
g2345
sg64
(lp2361
g57
(g58
g59
NtRp2362
(dp2363
g62
(dp2364
g70
I5
ssg71
g2358
sg64
(lp2365
S'/welcome/tournament/show/7'
p2366
asbasbasbag57
(g73
g59
NtRp2367
(dp2368
g62
(dp2369
sg71
g67
sg64
(lp2370
g57
(g78
g59
NtRp2371
(dp2372
g62
(dp2373
g82
g83
ssg71
g2367
sg64
(lp2374
S'utcnow'
p2375
asbag57
(g78
g59
NtRp2376
(dp2377
g62
(dp2378
g89
g90
ssg71
g2367
sg64
(lp2379
S':'
asbag57
(g78
g59
NtRp2380
(dp2381
g62
(dp2382
sg71
g2367
sg64
(lp2383
g57
(g58
g59
NtRp2384
(dp2385
g62
(dp2386
g70
I5
ssg71
g2380
sg64
(lp2387
S'datetime.datetime(2012, 2, 7, 21, 12, 24, 265000)'
p2388
asbasbasbag57
(g73
g59
NtRp2389
(dp2390
g62
(dp2391
sg71
g67
sg64
(lp2392
g57
(g78
g59
NtRp2393
(dp2394
g62
(dp2395
g82
g83
ssg71
g2389
sg64
(lp2396
S'uuid'
p2397
asbag57
(g78
g59
NtRp2398
(dp2399
g62
(dp2400
g89
g90
ssg71
g2389
sg64
(lp2401
S':'
asbag57
(g78
g59
NtRp2402
(dp2403
g62
(dp2404
sg71
g2389
sg64
(lp2405
g57
(g58
g59
NtRp2406
(dp2407
g62
(dp2408
g70
I5
ssg71
g2402
sg64
(lp2409
S'welcome/127.0.0.1.2012-02-07.16-12-24.7bae1d86-a242-404f-8d21-f47817297cec'
p2410
asbasbasbag57
(g73
g59
NtRp2411
(dp2412
g62
(dp2413
sg71
g67
sg64
(lp2414
g57
(g78
g59
NtRp2415
(dp2416
g62
(dp2417
g82
g83
ssg71
g2411
sg64
(lp2418
S'vars'
p2419
asbag57
(g78
g59
NtRp2420
(dp2421
g62
(dp2422
g89
g90
ssg71
g2411
sg64
(lp2423
S':'
asbag57
(g78
g59
NtRp2424
(dp2425
g62
(dp2426
sg71
g2411
sg64
(lp2427
g57
(g58
g59
NtRp2428
(dp2429
g62
(dp2430
g70
I5
ssg71
g2424
sg64
(lp2431
g57
(g66
g59
NtRp2432
(dp2433
g62
(dp2434
g70
I4
ssg71
Nsg64
(lp2435
sbasbasbasbag57
(g73
g59
NtRp2436
(dp2437
g62
(dp2438
sg71
g67
sg64
(lp2439
g57
(g78
g59
NtRp2440
(dp2441
g62
(dp2442
g82
g83
ssg71
g2436
sg64
(lp2443
S'wsgi'
p2444
asbag57
(g78
g59
NtRp2445
(dp2446
g62
(dp2447
g89
g90
ssg71
g2436
sg64
(lp2448
S':'
asbag57
(g78
g59
NtRp2449
(dp2450
g62
(dp2451
sg71
g2436
sg64
(lp2452
g57
(g58
g59
NtRp2453
(dp2454
g62
(dp2455
g70
I5
ssg71
g2449
sg64
(lp2456
g57
(g66
g59
NtRp2457
(dp2458
g62
(dp2459
g70
I4
ssg71
Nsg64
(lp2460
g57
(g73
g59
NtRp2461
(dp2462
g62
(dp2463
sg71
g2457
sg64
(lp2464
g57
(g78
g59
NtRp2465
(dp2466
g62
(dp2467
g82
g83
ssg71
g2461
sg64
(lp2468
S'environ'
p2469
asbag57
(g78
g59
NtRp2470
(dp2471
g62
(dp2472
g89
g90
ssg71
g2461
sg64
(lp2473
S':'
asbag57
(g78
g59
NtRp2474
(dp2475
g62
(dp2476
sg71
g2461
sg64
(lp2477
g57
(g58
g59
NtRp2478
(dp2479
g62
(dp2480
g70
I4
ssg71
g2474
sg64
(lp2481
g57
(g66
g59
NtRp2482
(dp2483
g62
(dp2484
g70
I3
ssg71
Nsg64
(lp2485
g57
(g73
g59
NtRp2486
(dp2487
g62
(dp2488
sg71
g2482
sg64
(lp2489
g57
(g78
g59
NtRp2490
(dp2491
g62
(dp2492
g82
g83
ssg71
g2486
sg64
(lp2493
S'HTTP_ACCEPT'
p2494
asbag57
(g78
g59
NtRp2495
(dp2496
g62
(dp2497
g89
g90
ssg71
g2486
sg64
(lp2498
S':'
asbag57
(g78
g59
NtRp2499
(dp2500
g62
(dp2501
sg71
g2486
sg64
(lp2502
g57
(g58
g59
NtRp2503
(dp2504
g62
(dp2505
g70
I3
ssg71
g2499
sg64
(lp2506
g1015
asbasbasbag57
(g73
g59
NtRp2507
(dp2508
g62
(dp2509
sg71
g2482
sg64
(lp2510
g57
(g78
g59
NtRp2511
(dp2512
g62
(dp2513
g82
g83
ssg71
g2507
sg64
(lp2514
S'HTTP_ACCEPT_CHARSET'
p2515
asbag57
(g78
g59
NtRp2516
(dp2517
g62
(dp2518
g89
g90
ssg71
g2507
sg64
(lp2519
S':'
asbag57
(g78
g59
NtRp2520
(dp2521
g62
(dp2522
sg71
g2507
sg64
(lp2523
g57
(g58
g59
NtRp2524
(dp2525
g62
(dp2526
g70
I3
ssg71
g2520
sg64
(lp2527
g1037
asbasbasbag57
(g73
g59
NtRp2528
(dp2529
g62
(dp2530
sg71
g2482
sg64
(lp2531
g57
(g78
g59
NtRp2532
(dp2533
g62
(dp2534
g82
g83
ssg71
g2528
sg64
(lp2535
S'HTTP_ACCEPT_ENCODING'
p2536
asbag57
(g78
g59
NtRp2537
(dp2538
g62
(dp2539
g89
g90
ssg71
g2528
sg64
(lp2540
S':'
asbag57
(g78
g59
NtRp2541
(dp2542
g62
(dp2543
sg71
g2528
sg64
(lp2544
g57
(g58
g59
NtRp2545
(dp2546
g62
(dp2547
g70
I3
ssg71
g2541
sg64
(lp2548
g1059
asbasbasbag57
(g73
g59
NtRp2549
(dp2550
g62
(dp2551
sg71
g2482
sg64
(lp2552
g57
(g78
g59
NtRp2553
(dp2554
g62
(dp2555
g82
g83
ssg71
g2549
sg64
(lp2556
S'HTTP_ACCEPT_LANGUAGE'
p2557
asbag57
(g78
g59
NtRp2558
(dp2559
g62
(dp2560
g89
g90
ssg71
g2549
sg64
(lp2561
S':'
asbag57
(g78
g59
NtRp2562
(dp2563
g62
(dp2564
sg71
g2549
sg64
(lp2565
g57
(g58
g59
NtRp2566
(dp2567
g62
(dp2568
g70
I3
ssg71
g2562
sg64
(lp2569
g1081
asbasbasbag57
(g73
g59
NtRp2570
(dp2571
g62
(dp2572
sg71
g2482
sg64
(lp2573
g57
(g78
g59
NtRp2574
(dp2575
g62
(dp2576
g82
g83
ssg71
g2570
sg64
(lp2577
S'HTTP_CACHE_CONTROL'
p2578
asbag57
(g78
g59
NtRp2579
(dp2580
g62
(dp2581
g89
g90
ssg71
g2570
sg64
(lp2582
S':'
asbag57
(g78
g59
NtRp2583
(dp2584
g62
(dp2585
sg71
g2570
sg64
(lp2586
g57
(g58
g59
NtRp2587
(dp2588
g62
(dp2589
g70
I3
ssg71
g2583
sg64
(lp2590
g1103
asbasbasbag57
(g73
g59
NtRp2591
(dp2592
g62
(dp2593
sg71
g2482
sg64
(lp2594
g57
(g78
g59
NtRp2595
(dp2596
g62
(dp2597
g82
g83
ssg71
g2591
sg64
(lp2598
S'HTTP_CONNECTION'
p2599
asbag57
(g78
g59
NtRp2600
(dp2601
g62
(dp2602
g89
g90
ssg71
g2591
sg64
(lp2603
S':'
asbag57
(g78
g59
NtRp2604
(dp2605
g62
(dp2606
sg71
g2591
sg64
(lp2607
g57
(g58
g59
NtRp2608
(dp2609
g62
(dp2610
g70
I3
ssg71
g2604
sg64
(lp2611
g1125
asbasbasbag57
(g73
g59
NtRp2612
(dp2613
g62
(dp2614
sg71
g2482
sg64
(lp2615
g57
(g78
g59
NtRp2616
(dp2617
g62
(dp2618
g82
g83
ssg71
g2612
sg64
(lp2619
S'HTTP_COOKIE'
p2620
asbag57
(g78
g59
NtRp2621
(dp2622
g62
(dp2623
g89
g90
ssg71
g2612
sg64
(lp2624
S':'
asbag57
(g78
g59
NtRp2625
(dp2626
g62
(dp2627
sg71
g2612
sg64
(lp2628
g57
(g58
g59
NtRp2629
(dp2630
g62
(dp2631
g70
I3
ssg71
g2625
sg64
(lp2632
g1147
asbasbasbag57
(g73
g59
NtRp2633
(dp2634
g62
(dp2635
sg71
g2482
sg64
(lp2636
g57
(g78
g59
NtRp2637
(dp2638
g62
(dp2639
g82
g83
ssg71
g2633
sg64
(lp2640
S'HTTP_HOST'
p2641
asbag57
(g78
g59
NtRp2642
(dp2643
g62
(dp2644
g89
g90
ssg71
g2633
sg64
(lp2645
S':'
asbag57
(g78
g59
NtRp2646
(dp2647
g62
(dp2648
sg71
g2633
sg64
(lp2649
g57
(g58
g59
NtRp2650
(dp2651
g62
(dp2652
g70
I3
ssg71
g2646
sg64
(lp2653
g1169
asbasbasbag57
(g73
g59
NtRp2654
(dp2655
g62
(dp2656
sg71
g2482
sg64
(lp2657
g57
(g78
g59
NtRp2658
(dp2659
g62
(dp2660
g82
g83
ssg71
g2654
sg64
(lp2661
S'HTTP_REFERER'
p2662
asbag57
(g78
g59
NtRp2663
(dp2664
g62
(dp2665
g89
g90
ssg71
g2654
sg64
(lp2666
S':'
asbag57
(g78
g59
NtRp2667
(dp2668
g62
(dp2669
sg71
g2654
sg64
(lp2670
g57
(g58
g59
NtRp2671
(dp2672
g62
(dp2673
g70
I3
ssg71
g2667
sg64
(lp2674
g1191
asbasbasbag57
(g73
g59
NtRp2675
(dp2676
g62
(dp2677
sg71
g2482
sg64
(lp2678
g57
(g78
g59
NtRp2679
(dp2680
g62
(dp2681
g82
g83
ssg71
g2675
sg64
(lp2682
S'HTTP_USER_AGENT'
p2683
asbag57
(g78
g59
NtRp2684
(dp2685
g62
(dp2686
g89
g90
ssg71
g2675
sg64
(lp2687
S':'
asbag57
(g78
g59
NtRp2688
(dp2689
g62
(dp2690
sg71
g2675
sg64
(lp2691
g57
(g58
g59
NtRp2692
(dp2693
g62
(dp2694
g70
I3
ssg71
g2688
sg64
(lp2695
g1213
asbasbasbag57
(g73
g59
NtRp2696
(dp2697
g62
(dp2698
sg71
g2482
sg64
(lp2699
g57
(g78
g59
NtRp2700
(dp2701
g62
(dp2702
g82
g83
ssg71
g2696
sg64
(lp2703
S'PATH_INFO'
p2704
asbag57
(g78
g59
NtRp2705
(dp2706
g62
(dp2707
g89
g90
ssg71
g2696
sg64
(lp2708
S':'
asbag57
(g78
g59
NtRp2709
(dp2710
g62
(dp2711
sg71
g2696
sg64
(lp2712
g57
(g58
g59
NtRp2713
(dp2714
g62
(dp2715
g70
I3
ssg71
g2709
sg64
(lp2716
g1277
asbasbasbag57
(g73
g59
NtRp2717
(dp2718
g62
(dp2719
sg71
g2482
sg64
(lp2720
g57
(g78
g59
NtRp2721
(dp2722
g62
(dp2723
g82
g83
ssg71
g2717
sg64
(lp2724
S'QUERY_STRING'
p2725
asbag57
(g78
g59
NtRp2726
(dp2727
g62
(dp2728
g89
g90
ssg71
g2717
sg64
(lp2729
S':'
asbag57
(g78
g59
NtRp2730
(dp2731
g62
(dp2732
sg71
g2717
sg64
(lp2733
g57
(g58
g59
NtRp2734
(dp2735
g62
(dp2736
g70
I3
ssg71
g2730
sg64
(lp2737
S''
asbasbasbag57
(g73
g59
NtRp2738
(dp2739
g62
(dp2740
sg71
g2482
sg64
(lp2741
g57
(g78
g59
NtRp2742
(dp2743
g62
(dp2744
g82
g83
ssg71
g2738
sg64
(lp2745
S'REMOTE_ADDR'
p2746
asbag57
(g78
g59
NtRp2747
(dp2748
g62
(dp2749
g89
g90
ssg71
g2738
sg64
(lp2750
S':'
asbag57
(g78
g59
NtRp2751
(dp2752
g62
(dp2753
sg71
g2738
sg64
(lp2754
g57
(g58
g59
NtRp2755
(dp2756
g62
(dp2757
g70
I3
ssg71
g2751
sg64
(lp2758
g202
asbasbasbag57
(g73
g59
NtRp2759
(dp2760
g62
(dp2761
sg71
g2482
sg64
(lp2762
g57
(g78
g59
NtRp2763
(dp2764
g62
(dp2765
g82
g83
ssg71
g2759
sg64
(lp2766
S'REMOTE_PORT'
p2767
asbag57
(g78
g59
NtRp2768
(dp2769
g62
(dp2770
g89
g90
ssg71
g2759
sg64
(lp2771
S':'
asbag57
(g78
g59
NtRp2772
(dp2773
g62
(dp2774
sg71
g2759
sg64
(lp2775
g57
(g58
g59
NtRp2776
(dp2777
g62
(dp2778
g70
I3
ssg71
g2772
sg64
(lp2779
g1341
asbasbasbag57
(g73
g59
NtRp2780
(dp2781
g62
(dp2782
sg71
g2482
sg64
(lp2783
g57
(g78
g59
NtRp2784
(dp2785
g62
(dp2786
g82
g83
ssg71
g2780
sg64
(lp2787
S'REQUEST_METHOD'
p2788
asbag57
(g78
g59
NtRp2789
(dp2790
g62
(dp2791
g89
g90
ssg71
g2780
sg64
(lp2792
S':'
asbag57
(g78
g59
NtRp2793
(dp2794
g62
(dp2795
sg71
g2780
sg64
(lp2796
g57
(g58
g59
NtRp2797
(dp2798
g62
(dp2799
g70
I3
ssg71
g2793
sg64
(lp2800
g1363
asbasbasbag57
(g73
g59
NtRp2801
(dp2802
g62
(dp2803
sg71
g2482
sg64
(lp2804
g57
(g78
g59
NtRp2805
(dp2806
g62
(dp2807
g82
g83
ssg71
g2801
sg64
(lp2808
S'SCRIPT_NAME'
p2809
asbag57
(g78
g59
NtRp2810
(dp2811
g62
(dp2812
g89
g90
ssg71
g2801
sg64
(lp2813
S':'
asbag57
(g78
g59
NtRp2814
(dp2815
g62
(dp2816
sg71
g2801
sg64
(lp2817
g57
(g58
g59
NtRp2818
(dp2819
g62
(dp2820
g70
I3
ssg71
g2814
sg64
(lp2821
S''
asbasbasbag57
(g73
g59
NtRp2822
(dp2823
g62
(dp2824
sg71
g2482
sg64
(lp2825
g57
(g78
g59
NtRp2826
(dp2827
g62
(dp2828
g82
g83
ssg71
g2822
sg64
(lp2829
S'SERVER_NAME'
p2830
asbag57
(g78
g59
NtRp2831
(dp2832
g62
(dp2833
g89
g90
ssg71
g2822
sg64
(lp2834
S':'
asbag57
(g78
g59
NtRp2835
(dp2836
g62
(dp2837
sg71
g2822
sg64
(lp2838
g57
(g58
g59
NtRp2839
(dp2840
g62
(dp2841
g70
I3
ssg71
g2835
sg64
(lp2842
g1406
asbasbasbag57
(g73
g59
NtRp2843
(dp2844
g62
(dp2845
sg71
g2482
sg64
(lp2846
g57
(g78
g59
NtRp2847
(dp2848
g62
(dp2849
g82
g83
ssg71
g2843
sg64
(lp2850
S'SERVER_PORT'
p2851
asbag57
(g78
g59
NtRp2852
(dp2853
g62
(dp2854
g89
g90
ssg71
g2843
sg64
(lp2855
S':'
asbag57
(g78
g59
NtRp2856
(dp2857
g62
(dp2858
sg71
g2843
sg64
(lp2859
g57
(g58
g59
NtRp2860
(dp2861
g62
(dp2862
g70
I3
ssg71
g2856
sg64
(lp2863
g1428
asbasbasbag57
(g73
g59
NtRp2864
(dp2865
g62
(dp2866
sg71
g2482
sg64
(lp2867
g57
(g78
g59
NtRp2868
(dp2869
g62
(dp2870
g82
g83
ssg71
g2864
sg64
(lp2871
S'SERVER_PROTOCOL'
p2872
asbag57
(g78
g59
NtRp2873
(dp2874
g62
(dp2875
g89
g90
ssg71
g2864
sg64
(lp2876
S':'
asbag57
(g78
g59
NtRp2877
(dp2878
g62
(dp2879
sg71
g2864
sg64
(lp2880
g57
(g58
g59
NtRp2881
(dp2882
g62
(dp2883
g70
I3
ssg71
g2877
sg64
(lp2884
g1450
asbasbasbag57
(g73
g59
NtRp2885
(dp2886
g62
(dp2887
sg71
g2482
sg64
(lp2888
g57
(g78
g59
NtRp2889
(dp2890
g62
(dp2891
g82
g83
ssg71
g2885
sg64
(lp2892
S'SERVER_SOFTWARE'
p2893
asbag57
(g78
g59
NtRp2894
(dp2895
g62
(dp2896
g89
g90
ssg71
g2885
sg64
(lp2897
S':'
asbag57
(g78
g59
NtRp2898
(dp2899
g62
(dp2900
sg71
g2885
sg64
(lp2901
g57
(g58
g59
NtRp2902
(dp2903
g62
(dp2904
g70
I3
ssg71
g2898
sg64
(lp2905
g1472
asbasbasbag57
(g73
g59
NtRp2906
(dp2907
g62
(dp2908
sg71
g2482
sg64
(lp2909
g57
(g78
g59
NtRp2910
(dp2911
g62
(dp2912
g82
g83
ssg71
g2906
sg64
(lp2913
S'wsgi.errors'
p2914
asbag57
(g78
g59
NtRp2915
(dp2916
g62
(dp2917
g89
g90
ssg71
g2906
sg64
(lp2918
S':'
asbag57
(g78
g59
NtRp2919
(dp2920
g62
(dp2921
sg71
g2906
sg64
(lp2922
g57
(g58
g59
NtRp2923
(dp2924
g62
(dp2925
g70
I3
ssg71
g2919
sg64
(lp2926
S"<open file '<stderr>', mode 'w' at 0x0000000001E261E0>"
p2927
asbasbasbag57
(g73
g59
NtRp2928
(dp2929
g62
(dp2930
sg71
g2482
sg64
(lp2931
g57
(g78
g59
NtRp2932
(dp2933
g62
(dp2934
g82
g83
ssg71
g2928
sg64
(lp2935
S'wsgi.file_wrapper'
p2936
asbag57
(g78
g59
NtRp2937
(dp2938
g62
(dp2939
g89
g90
ssg71
g2928
sg64
(lp2940
S':'
asbag57
(g78
g59
NtRp2941
(dp2942
g62
(dp2943
sg71
g2928
sg64
(lp2944
g57
(g58
g59
NtRp2945
(dp2946
g62
(dp2947
g70
I3
ssg71
g2941
sg64
(lp2948
S'<class wsgiref.util.FileWrapper at 0x00000000034DD828>'
p2949
asbasbasbag57
(g73
g59
NtRp2950
(dp2951
g62
(dp2952
sg71
g2482
sg64
(lp2953
g57
(g78
g59
NtRp2954
(dp2955
g62
(dp2956
g82
g83
ssg71
g2950
sg64
(lp2957
S'wsgi.input'
p2958
asbag57
(g78
g59
NtRp2959
(dp2960
g62
(dp2961
g89
g90
ssg71
g2950
sg64
(lp2962
S':'
asbag57
(g78
g59
NtRp2963
(dp2964
g62
(dp2965
sg71
g2950
sg64
(lp2966
g57
(g58
g59
NtRp2967
(dp2968
g62
(dp2969
g70
I3
ssg71
g2963
sg64
(lp2970
S'<cStringIO.StringO object at 0x0000000007E0DD18>'
p2971
asbasbasbag57
(g73
g59
NtRp2972
(dp2973
g62
(dp2974
sg71
g2482
sg64
(lp2975
g57
(g78
g59
NtRp2976
(dp2977
g62
(dp2978
g82
g83
ssg71
g2972
sg64
(lp2979
S'wsgi.multiprocess'
p2980
asbag57
(g78
g59
NtRp2981
(dp2982
g62
(dp2983
g89
g90
ssg71
g2972
sg64
(lp2984
S':'
asbag57
(g78
g59
NtRp2985
(dp2986
g62
(dp2987
sg71
g2972
sg64
(lp2988
g57
(g58
g59
NtRp2989
(dp2990
g62
(dp2991
g70
I3
ssg71
g2985
sg64
(lp2992
g100
asbasbasbag57
(g73
g59
NtRp2993
(dp2994
g62
(dp2995
sg71
g2482
sg64
(lp2996
g57
(g78
g59
NtRp2997
(dp2998
g62
(dp2999
g82
g83
ssg71
g2993
sg64
(lp3000
S'wsgi.multithread'
p3001
asbag57
(g78
g59
NtRp3002
(dp3003
g62
(dp3004
g89
g90
ssg71
g2993
sg64
(lp3005
S':'
asbag57
(g78
g59
NtRp3006
(dp3007
g62
(dp3008
sg71
g2993
sg64
(lp3009
g57
(g58
g59
NtRp3010
(dp3011
g62
(dp3012
g70
I3
ssg71
g3006
sg64
(lp3013
g1712
asbasbasbag57
(g73
g59
NtRp3014
(dp3015
g62
(dp3016
sg71
g2482
sg64
(lp3017
g57
(g78
g59
NtRp3018
(dp3019
g62
(dp3020
g82
g83
ssg71
g3014
sg64
(lp3021
S'wsgi.run_once'
p3022
asbag57
(g78
g59
NtRp3023
(dp3024
g62
(dp3025
g89
g90
ssg71
g3014
sg64
(lp3026
S':'
asbag57
(g78
g59
NtRp3027
(dp3028
g62
(dp3029
sg71
g3014
sg64
(lp3030
g57
(g58
g59
NtRp3031
(dp3032
g62
(dp3033
g70
I3
ssg71
g3027
sg64
(lp3034
g100
asbasbasbag57
(g73
g59
NtRp3035
(dp3036
g62
(dp3037
sg71
g2482
sg64
(lp3038
g57
(g78
g59
NtRp3039
(dp3040
g62
(dp3041
g82
g83
ssg71
g3035
sg64
(lp3042
S'wsgi.url_scheme'
p3043
asbag57
(g78
g59
NtRp3044
(dp3045
g62
(dp3046
g89
g90
ssg71
g3035
sg64
(lp3047
S':'
asbag57
(g78
g59
NtRp3048
(dp3049
g62
(dp3050
sg71
g3035
sg64
(lp3051
g57
(g58
g59
NtRp3052
(dp3053
g62
(dp3054
g70
I3
ssg71
g3048
sg64
(lp3055
g1755
asbasbasbag57
(g73
g59
NtRp3056
(dp3057
g62
(dp3058
sg71
g2482
sg64
(lp3059
g57
(g78
g59
NtRp3060
(dp3061
g62
(dp3062
g82
g83
ssg71
g3056
sg64
(lp3063
S'wsgi.version'
p3064
asbag57
(g78
g59
NtRp3065
(dp3066
g62
(dp3067
g89
g90
ssg71
g3056
sg64
(lp3068
S':'
asbag57
(g78
g59
NtRp3069
(dp3070
g62
(dp3071
sg71
g3056
sg64
(lp3072
g57
(g58
g59
NtRp3073
(dp3074
g62
(dp3075
g70
I3
ssg71
g3069
sg64
(lp3076
S'1'
asbasbasbasbasbasbasbasbasbasbasbasbasbsS'frames'
p3077
(lp3078
(dp3079
S'file'
p3080
S'C:\\Users\\mellinja\\Documents\\SC2Tracker\\SC2TourneyTracker\\web2py\\gluon\\restricted.py'
p3081
sS'dump'
p3082
(dp3083
S'environment'
p3084
S"{'A': <class 'gluon.html.A'>, 'Auth': <class 'gluon.tools.Auth'>, 'B': <class 'gluon.html.B'>, 'BEAUTIFY': <class 'gluon.html.BEAUTIFY'>, 'BODY': <class 'gluon.html.BODY'>, 'BR': <class 'gluon.html.BR'>, 'BUTTON': <class 'gluon.html.BUTTON'>, 'CAT': <class 'gluon.html.CAT'>, 'CENTER': <class 'gluon.html.CENTER'>, 'CLEANUP': <class 'gluon.validators.CLEANUP'>, ...}"
p3085
sS'ccode'
p3086
S'<code object <module> at 00000000075A59B0, file ...tions\\welcome\\controllers/tournament.py", line 3>'
p3087
ssS'lnum'
p3088
I204
sS'lines'
p3089
(dp3090
I199
S'    try:'
p3091
sI200
S'        if type(code) == types.CodeType:'
p3092
sI201
S'            ccode = code'
p3093
sI202
S'        else:'
p3094
sI203
S'            ccode = compile2(code,layer)'
p3095
sI204
S'        exec ccode in environment'
p3096
sI205
S'    except HTTP:'
p3097
sI206
S'        raise'
p3098
sI207
S'    except RestrictedError:'
p3099
sI208
S'        # do not encapsulate (obfuscate) the original RestrictedError'
p3100
ssS'call'
p3101
S'(code="# coding: utf8\\n#\\ndef index(): \\n    #db = DAL(\'ms...= tourny)\\n\\nresponse._vars=response._caller(show)\\n", environment={\'A\': <class \'gluon.html.A\'>, \'Auth\': <class \'gluon.tools.Auth\'>, \'B\': <class \'gluon.html.B\'>, \'BEAUTIFY\': <class \'gluon.html.BEAUTIFY\'>, \'BODY\': <class \'gluon.html.BODY\'>, \'BR\': <class \'gluon.html.BR\'>, \'BUTTON\': <class \'gluon.html.BUTTON\'>, \'CAT\': <class \'gluon.html.CAT\'>, \'CENTER\': <class \'gluon.html.CENTER\'>, \'CLEANUP\': <class \'gluon.validators.CLEANUP\'>, ...}, layer=r\'C:\\Users\\mellinja\\Documents\\SC2Tracker\\SC2Tourne...py\\applications\\welcome\\controllers/tournament.py\')'
p3102
sS'func'
p3103
S'restricted'
p3104
sa(dp3105
g3080
S'C:\\Users\\mellinja\\Documents\\SC2Tracker\\SC2TourneyTracker\\web2py\\applications\\welcome\\controllers\\tournament.py'
p3106
sg3082
(dp3107
sg3088
I12
sg3089
(dp3108
I1
S'# coding: utf8'
p3109
sI2
S'#'
sI3
S'def index():'
p3110
sI4
S"    #db = DAL('mssql://cheungkt:mechanes5@whale.cs.rose-hulman.edu/SC2tracker')"
p3111
sI5
S"    tournies = db.executesql('SELECT Name, ID FROM Tournament')"
p3112
sI6
S'    return dict(tournament = tournies)'
p3113
sI7
S''
sI8
S'def show():'
p3114
sI9
S'    tourny = db.select(db.Tournament.ID)'
p3115
sI10
S'    return dict(test = tourny)'
p3116
ssg3101
S'()'
p3117
sg3103
S'<module>'
p3118
sa(dp3119
g3080
S'C:\\Users\\mellinja\\Documents\\SC2Tracker\\SC2TourneyTracker\\web2py\\gluon\\globals.py'
p3120
sg3082
(dp3121
S'self'
p3122
S'undefined'
p3123
sS'f'
S'<function show>'
p3124
ssg3088
I172
sg3089
(dp3125
I167
S'        self.meta = Storage()      # used by web2py_ajax.html'
p3126
sI168
S'        self.menu = []             # used by the default view layout'
p3127
sI169
S'        self.files = []            # used by web2py_ajax.html'
p3128
sI170
S'        self.generic_patterns = [] # patterns to allow generic views'
p3129
sI171
S'        self._vars = None'
p3130
sI172
S'        self._caller = lambda f: f()'
p3131
sI173
S'        self._view_environment = None'
p3132
sI174
S'        self._custom_commit = None'
p3133
sI175
S'        self._custom_rollback = None'
p3134
sI176
S''
ssg3101
S'(f=<function show>)'
p3135
sg3103
S'<lambda>'
p3136
sa(dp3137
g3080
S'C:\\Users\\mellinja\\Documents\\SC2Tracker\\SC2TourneyTracker\\web2py\\applications\\welcome\\controllers\\tournament.py'
p3138
sg3082
(dp3139
sg3088
I9
sg3089
(dp3140
I1
S'# coding: utf8'
p3141
sI2
S'#'
sI3
S'def index():'
p3142
sI4
S"    #db = DAL('mssql://cheungkt:mechanes5@whale.cs.rose-hulman.edu/SC2tracker')"
p3143
sI5
S"    tournies = db.executesql('SELECT Name, ID FROM Tournament')"
p3144
sI6
S'    return dict(tournament = tournies)'
p3145
sI7
S''
sI8
S'def show():'
p3146
sI9
S'    tourny = db.select(db.Tournament.ID)'
p3147
sI10
S'    return dict(test = tourny)'
p3148
ssg3101
S'()'
p3149
sg3103
S'show'
p3150
sa(dp3151
g3080
S'C:\\Users\\mellinja\\Documents\\SC2Tracker\\SC2TourneyTracker\\web2py\\gluon\\dal.py'
p3152
sg3082
(dp3153
S'self'
p3154
S"<DAL {'auth_event': <Table {'origin': <gluon.dal...gluon.dal.Field object at 0x00000000073AC7F0>}>}>"
p3155
sS'key'
p3156
S"'select'"
p3157
ssg3088
I5119
sg3089
(dp3158
I5120
S''
sI5121
S'    def __setattr__(self, key, value):'
p3159
sI5122
S"        if key[:1]!='_' and key in self:"
p3160
sI5123
S'            raise SyntaxError, \\'
p3161
sI5114
S''
sI5115
S'    def __setitem__(self, key, value):'
p3162
sI5116
S'        dict.__setitem__(self, str(key), value)'
p3163
sI5117
S''
sI5118
S'    def __getattr__(self, key):'
p3164
sI5119
S'        return self[key]'
p3165
ssg3101
S"(self=<DAL {'auth_event': <Table {'origin': <gluon.dal...gluon.dal.Field object at 0x00000000073AC7F0>}>}>, key='select')"
p3166
sg3103
S'__getattr__'
p3167
sa(dp3168
g3080
S'C:\\Users\\mellinja\\Documents\\SC2Tracker\\SC2TourneyTracker\\web2py\\gluon\\dal.py'
p3169
sg3082
(dp3170
S'builtinstr'
p3171
S"<type 'str'>"
p3172
sS'self'
p3173
S"<DAL {'auth_event': <Table {'origin': <gluon.dal...gluon.dal.Field object at 0x00000000073AC7F0>}>}>"
p3174
sS'dict.__getitem__'
p3175
S"<method '__getitem__' of 'dict' objects>"
p3176
sS'key'
p3177
S"'select'"
p3178
sS'builtindict'
p3179
S"<type 'dict'>"
p3180
ssg3088
I5113
sg3089
(dp3181
I5108
S'    def __iter__(self):'
p3182
sI5109
S'        for tablename in self.tables:'
p3183
sI5110
S'            yield self[tablename]'
p3184
sI5111
S''
sI5112
S'    def __getitem__(self, key):'
p3185
sI5113
S'        return dict.__getitem__(self, str(key))'
p3186
sI5114
S''
sI5115
S'    def __setitem__(self, key, value):'
p3187
sI5116
S'        dict.__setitem__(self, str(key), value)'
p3188
sI5117
S''
ssg3101
S"(self=<DAL {'auth_event': <Table {'origin': <gluon.dal...gluon.dal.Field object at 0x00000000073AC7F0>}>}>, key='select')"
p3189
sg3103
g20
sasS'pyver'
p3190
S'Python 2.7.2: C:\\Python27\\python.exe'
p3191
sS'session'
p3192
g57
(g58
g59
NtRp3193
(dp3194
g62
(dp3195
sg64
(lp3196
g57
(g66
g59
NtRp3197
(dp3198
g62
(dp3199
g70
I5
ssg71
Nsg64
(lp3200
g57
(g73
g59
NtRp3201
(dp3202
g62
(dp3203
sg71
g3197
sg64
(lp3204
g57
(g78
g59
NtRp3205
(dp3206
g62
(dp3207
g82
g83
ssg71
g3201
sg64
(lp3208
S'auth'
p3209
asbag57
(g78
g59
NtRp3210
(dp3211
g62
(dp3212
g89
g90
ssg71
g3201
sg64
(lp3213
S':'
asbag57
(g78
g59
NtRp3214
(dp3215
g62
(dp3216
sg71
g3201
sg64
(lp3217
g57
(g58
g59
NtRp3218
(dp3219
g62
(dp3220
g70
I5
ssg71
g3214
sg64
(lp3221
g57
(g66
g59
NtRp3222
(dp3223
g62
(dp3224
g70
I4
ssg71
Nsg64
(lp3225
g57
(g73
g59
NtRp3226
(dp3227
g62
(dp3228
sg71
g3222
sg64
(lp3229
g57
(g78
g59
NtRp3230
(dp3231
g62
(dp3232
g82
g83
ssg71
g3226
sg64
(lp3233
S'expiration'
p3234
asbag57
(g78
g59
NtRp3235
(dp3236
g62
(dp3237
g89
g90
ssg71
g3226
sg64
(lp3238
S':'
asbag57
(g78
g59
NtRp3239
(dp3240
g62
(dp3241
sg71
g3226
sg64
(lp3242
g57
(g58
g59
NtRp3243
(dp3244
g62
(dp3245
g70
I4
ssg71
g3239
sg64
(lp3246
S'3600'
p3247
asbasbasbag57
(g73
g59
NtRp3248
(dp3249
g62
(dp3250
sg71
g3222
sg64
(lp3251
g57
(g78
g59
NtRp3252
(dp3253
g62
(dp3254
g82
g83
ssg71
g3248
sg64
(lp3255
S'hmac_key'
p3256
asbag57
(g78
g59
NtRp3257
(dp3258
g62
(dp3259
g89
g90
ssg71
g3248
sg64
(lp3260
S':'
asbag57
(g78
g59
NtRp3261
(dp3262
g62
(dp3263
sg71
g3248
sg64
(lp3264
g57
(g58
g59
NtRp3265
(dp3266
g62
(dp3267
g70
I4
ssg71
g3261
sg64
(lp3268
S'db24f9b0-a170-4301-a61b-cc6744b5cef2'
p3269
asbasbasbag57
(g73
g59
NtRp3270
(dp3271
g62
(dp3272
sg71
g3222
sg64
(lp3273
g57
(g78
g59
NtRp3274
(dp3275
g62
(dp3276
g82
g83
ssg71
g3270
sg64
(lp3277
S'last_visit'
p3278
asbag57
(g78
g59
NtRp3279
(dp3280
g62
(dp3281
g89
g90
ssg71
g3270
sg64
(lp3282
S':'
asbag57
(g78
g59
NtRp3283
(dp3284
g62
(dp3285
sg71
g3270
sg64
(lp3286
g57
(g58
g59
NtRp3287
(dp3288
g62
(dp3289
g70
I4
ssg71
g3283
sg64
(lp3290
S'datetime.datetime(2012, 2, 7, 16, 12, 24, 265000)'
p3291
asbasbasbag57
(g73
g59
NtRp3292
(dp3293
g62
(dp3294
sg71
g3222
sg64
(lp3295
g57
(g78
g59
NtRp3296
(dp3297
g62
(dp3298
g82
g83
ssg71
g3292
sg64
(lp3299
S'user'
p3300
asbag57
(g78
g59
NtRp3301
(dp3302
g62
(dp3303
g89
g90
ssg71
g3292
sg64
(lp3304
S':'
asbag57
(g78
g59
NtRp3305
(dp3306
g62
(dp3307
sg71
g3292
sg64
(lp3308
g57
(g58
g59
NtRp3309
(dp3310
g62
(dp3311
g70
I4
ssg71
g3305
sg64
(lp3312
g57
(g66
g59
NtRp3313
(dp3314
g62
(dp3315
g70
I3
ssg71
Nsg64
(lp3316
g57
(g73
g59
NtRp3317
(dp3318
g62
(dp3319
sg71
g3313
sg64
(lp3320
g57
(g78
g59
NtRp3321
(dp3322
g62
(dp3323
g82
g83
ssg71
g3317
sg64
(lp3324
S'email'
p3325
asbag57
(g78
g59
NtRp3326
(dp3327
g62
(dp3328
g89
g90
ssg71
g3317
sg64
(lp3329
S':'
asbag57
(g78
g59
NtRp3330
(dp3331
g62
(dp3332
sg71
g3317
sg64
(lp3333
g57
(g58
g59
NtRp3334
(dp3335
g62
(dp3336
g70
I3
ssg71
g3330
sg64
(lp3337
S'test@test.com'
p3338
asbasbasbag57
(g73
g59
NtRp3339
(dp3340
g62
(dp3341
sg71
g3313
sg64
(lp3342
g57
(g78
g59
NtRp3343
(dp3344
g62
(dp3345
g82
g83
ssg71
g3339
sg64
(lp3346
S'first_name'
p3347
asbag57
(g78
g59
NtRp3348
(dp3349
g62
(dp3350
g89
g90
ssg71
g3339
sg64
(lp3351
S':'
asbag57
(g78
g59
NtRp3352
(dp3353
g62
(dp3354
sg71
g3339
sg64
(lp3355
g57
(g58
g59
NtRp3356
(dp3357
g62
(dp3358
g70
I3
ssg71
g3352
sg64
(lp3359
S'test'
p3360
asbasbasbag57
(g73
g59
NtRp3361
(dp3362
g62
(dp3363
sg71
g3313
sg64
(lp3364
g57
(g78
g59
NtRp3365
(dp3366
g62
(dp3367
g82
g83
ssg71
g3361
sg64
(lp3368
S'id'
p3369
asbag57
(g78
g59
NtRp3370
(dp3371
g62
(dp3372
g89
g90
ssg71
g3361
sg64
(lp3373
S':'
asbag57
(g78
g59
NtRp3374
(dp3375
g62
(dp3376
sg71
g3361
sg64
(lp3377
g57
(g58
g59
NtRp3378
(dp3379
g62
(dp3380
g70
I3
ssg71
g3374
sg64
(lp3381
S'5'
asbasbasbag57
(g73
g59
NtRp3382
(dp3383
g62
(dp3384
sg71
g3313
sg64
(lp3385
g57
(g78
g59
NtRp3386
(dp3387
g62
(dp3388
g82
g83
ssg71
g3382
sg64
(lp3389
S'last_name'
p3390
asbag57
(g78
g59
NtRp3391
(dp3392
g62
(dp3393
g89
g90
ssg71
g3382
sg64
(lp3394
S':'
asbag57
(g78
g59
NtRp3395
(dp3396
g62
(dp3397
sg71
g3382
sg64
(lp3398
g57
(g58
g59
NtRp3399
(dp3400
g62
(dp3401
g70
I3
ssg71
g3395
sg64
(lp3402
S'test'
p3403
asbasbasbag57
(g73
g59
NtRp3404
(dp3405
g62
(dp3406
sg71
g3313
sg64
(lp3407
g57
(g78
g59
NtRp3408
(dp3409
g62
(dp3410
g82
g83
ssg71
g3404
sg64
(lp3411
S'password'
p3412
asbag57
(g78
g59
NtRp3413
(dp3414
g62
(dp3415
g89
g90
ssg71
g3404
sg64
(lp3416
S':'
asbag57
(g78
g59
NtRp3417
(dp3418
g62
(dp3419
sg71
g3404
sg64
(lp3420
g57
(g58
g59
NtRp3421
(dp3422
g62
(dp3423
g70
I3
ssg71
g3417
sg64
(lp3424
S'0835d7189a6927648202bd9d8a8562a8'
p3425
asbasbasbag57
(g73
g59
NtRp3426
(dp3427
g62
(dp3428
sg71
g3313
sg64
(lp3429
g57
(g78
g59
NtRp3430
(dp3431
g62
(dp3432
g82
g83
ssg71
g3426
sg64
(lp3433
S'registration_id'
p3434
asbag57
(g78
g59
NtRp3435
(dp3436
g62
(dp3437
g89
g90
ssg71
g3426
sg64
(lp3438
S':'
asbag57
(g78
g59
NtRp3439
(dp3440
g62
(dp3441
sg71
g3426
sg64
(lp3442
g57
(g58
g59
NtRp3443
(dp3444
g62
(dp3445
g70
I3
ssg71
g3439
sg64
(lp3446
S''
asbasbasbag57
(g73
g59
NtRp3447
(dp3448
g62
(dp3449
sg71
g3313
sg64
(lp3450
g57
(g78
g59
NtRp3451
(dp3452
g62
(dp3453
g82
g83
ssg71
g3447
sg64
(lp3454
S'registration_key'
p3455
asbag57
(g78
g59
NtRp3456
(dp3457
g62
(dp3458
g89
g90
ssg71
g3447
sg64
(lp3459
S':'
asbag57
(g78
g59
NtRp3460
(dp3461
g62
(dp3462
sg71
g3447
sg64
(lp3463
g57
(g58
g59
NtRp3464
(dp3465
g62
(dp3466
g70
I3
ssg71
g3460
sg64
(lp3467
S''
asbasbasbag57
(g73
g59
NtRp3468
(dp3469
g62
(dp3470
sg71
g3313
sg64
(lp3471
g57
(g78
g59
NtRp3472
(dp3473
g62
(dp3474
g82
g83
ssg71
g3468
sg64
(lp3475
S'reset_password_key'
p3476
asbag57
(g78
g59
NtRp3477
(dp3478
g62
(dp3479
g89
g90
ssg71
g3468
sg64
(lp3480
S':'
asbag57
(g78
g59
NtRp3481
(dp3482
g62
(dp3483
sg71
g3468
sg64
(lp3484
g57
(g58
g59
NtRp3485
(dp3486
g62
(dp3487
g70
I3
ssg71
g3481
sg64
(lp3488
S''
asbasbasbasbasbasbasbasbasbasbasbasbasbsS'etype'
p3489
S"<type 'exceptions.KeyError'>"
p3490
sS'date'
p3491
S'Tue Feb 07 16:12:24 2012'
p3492
sS'response'
p3493
g57
(g58
g59
NtRp3494
(dp3495
g62
(dp3496
sg64
(lp3497
g57
(g66
g59
NtRp3498
(dp3499
g62
(dp3500
g70
I5
ssg71
Nsg64
(lp3501
g57
(g73
g59
NtRp3502
(dp3503
g62
(dp3504
sg71
g3498
sg64
(lp3505
g57
(g78
g59
NtRp3506
(dp3507
g62
(dp3508
g82
g83
ssg71
g3502
sg64
(lp3509
g167
asbag57
(g78
g59
NtRp3510
(dp3511
g62
(dp3512
g89
g90
ssg71
g3502
sg64
(lp3513
S':'
asbag57
(g78
g59
NtRp3514
(dp3515
g62
(dp3516
sg71
g3502
sg64
(lp3517
g57
(g58
g59
NtRp3518
(dp3519
g62
(dp3520
g70
I5
ssg71
g3514
sg64
(lp3521
S'<cStringIO.StringO object at 0x00000000072615E0>'
p3522
asbasbasbag57
(g73
g59
NtRp3523
(dp3524
g62
(dp3525
sg71
g3498
sg64
(lp3526
g57
(g78
g59
NtRp3527
(dp3528
g62
(dp3529
g82
g83
ssg71
g3523
sg64
(lp3530
g233
asbag57
(g78
g59
NtRp3531
(dp3532
g62
(dp3533
g89
g90
ssg71
g3523
sg64
(lp3534
S':'
asbag57
(g78
g59
NtRp3535
(dp3536
g62
(dp3537
sg71
g3523
sg64
(lp3538
g57
(g58
g59
NtRp3539
(dp3540
g62
(dp3541
g70
I5
ssg71
g3535
sg64
(lp3542
g57
(g66
g59
NtRp3543
(dp3544
g62
(dp3545
g70
I4
ssg71
Nsg64
(lp3546
g57
(g73
g59
NtRp3547
(dp3548
g62
(dp3549
sg71
g3543
sg64
(lp3550
g57
(g78
g59
NtRp3551
(dp3552
g62
(dp3553
g82
g83
ssg71
g3547
sg64
(lp3554
S'session_id_welcome'
p3555
asbag57
(g78
g59
NtRp3556
(dp3557
g62
(dp3558
g89
g90
ssg71
g3547
sg64
(lp3559
S':'
asbag57
(g78
g59
NtRp3560
(dp3561
g62
(dp3562
sg71
g3547
sg64
(lp3563
g57
(g58
g59
NtRp3564
(dp3565
g62
(dp3566
g70
I4
ssg71
g3560
sg64
(lp3567
g57
(g66
g59
NtRp3568
(dp3569
g62
(dp3570
g70
I3
ssg71
Nsg64
(lp3571
g57
(g73
g59
NtRp3572
(dp3573
g62
(dp3574
sg71
g3568
sg64
(lp3575
g57
(g78
g59
NtRp3576
(dp3577
g62
(dp3578
g82
g83
ssg71
g3572
sg64
(lp3579
g283
asbag57
(g78
g59
NtRp3580
(dp3581
g62
(dp3582
g89
g90
ssg71
g3572
sg64
(lp3583
S':'
asbag57
(g78
g59
NtRp3584
(dp3585
g62
(dp3586
sg71
g3572
sg64
(lp3587
g57
(g58
g59
NtRp3588
(dp3589
g62
(dp3590
g70
I3
ssg71
g3584
sg64
(lp3591
S''
asbasbasbag57
(g73
g59
NtRp3592
(dp3593
g62
(dp3594
sg71
g3568
sg64
(lp3595
g57
(g78
g59
NtRp3596
(dp3597
g62
(dp3598
g82
g83
ssg71
g3592
sg64
(lp3599
g304
asbag57
(g78
g59
NtRp3600
(dp3601
g62
(dp3602
g89
g90
ssg71
g3592
sg64
(lp3603
S':'
asbag57
(g78
g59
NtRp3604
(dp3605
g62
(dp3606
sg71
g3592
sg64
(lp3607
g57
(g58
g59
NtRp3608
(dp3609
g62
(dp3610
g70
I3
ssg71
g3604
sg64
(lp3611
S''
asbasbasbag57
(g73
g59
NtRp3612
(dp3613
g62
(dp3614
sg71
g3568
sg64
(lp3615
g57
(g78
g59
NtRp3616
(dp3617
g62
(dp3618
g82
g83
ssg71
g3612
sg64
(lp3619
g325
asbag57
(g78
g59
NtRp3620
(dp3621
g62
(dp3622
g89
g90
ssg71
g3612
sg64
(lp3623
S':'
asbag57
(g78
g59
NtRp3624
(dp3625
g62
(dp3626
sg71
g3612
sg64
(lp3627
g57
(g58
g59
NtRp3628
(dp3629
g62
(dp3630
g70
I3
ssg71
g3624
sg64
(lp3631
S''
asbasbasbag57
(g73
g59
NtRp3632
(dp3633
g62
(dp3634
sg71
g3568
sg64
(lp3635
g57
(g78
g59
NtRp3636
(dp3637
g62
(dp3638
g82
g83
ssg71
g3632
sg64
(lp3639
g346
asbag57
(g78
g59
NtRp3640
(dp3641
g62
(dp3642
g89
g90
ssg71
g3632
sg64
(lp3643
S':'
asbag57
(g78
g59
NtRp3644
(dp3645
g62
(dp3646
sg71
g3632
sg64
(lp3647
g57
(g58
g59
NtRp3648
(dp3649
g62
(dp3650
g70
I3
ssg71
g3644
sg64
(lp3651
S''
asbasbasbag57
(g73
g59
NtRp3652
(dp3653
g62
(dp3654
sg71
g3568
sg64
(lp3655
g57
(g78
g59
NtRp3656
(dp3657
g62
(dp3658
g82
g83
ssg71
g3652
sg64
(lp3659
g367
asbag57
(g78
g59
NtRp3660
(dp3661
g62
(dp3662
g89
g90
ssg71
g3652
sg64
(lp3663
S':'
asbag57
(g78
g59
NtRp3664
(dp3665
g62
(dp3666
sg71
g3652
sg64
(lp3667
g57
(g58
g59
NtRp3668
(dp3669
g62
(dp3670
g70
I3
ssg71
g3664
sg64
(lp3671
S''
asbasbasbag57
(g73
g59
NtRp3672
(dp3673
g62
(dp3674
sg71
g3568
sg64
(lp3675
g57
(g78
g59
NtRp3676
(dp3677
g62
(dp3678
g82
g83
ssg71
g3672
sg64
(lp3679
g388
asbag57
(g78
g59
NtRp3680
(dp3681
g62
(dp3682
g89
g90
ssg71
g3672
sg64
(lp3683
S':'
asbag57
(g78
g59
NtRp3684
(dp3685
g62
(dp3686
sg71
g3672
sg64
(lp3687
g57
(g58
g59
NtRp3688
(dp3689
g62
(dp3690
g70
I3
ssg71
g3684
sg64
(lp3691
S'/'
asbasbasbag57
(g73
g59
NtRp3692
(dp3693
g62
(dp3694
sg71
g3568
sg64
(lp3695
g57
(g78
g59
NtRp3696
(dp3697
g62
(dp3698
g82
g83
ssg71
g3692
sg64
(lp3699
g409
asbag57
(g78
g59
NtRp3700
(dp3701
g62
(dp3702
g89
g90
ssg71
g3692
sg64
(lp3703
S':'
asbag57
(g78
g59
NtRp3704
(dp3705
g62
(dp3706
sg71
g3692
sg64
(lp3707
g57
(g58
g59
NtRp3708
(dp3709
g62
(dp3710
g70
I3
ssg71
g3704
sg64
(lp3711
S''
asbasbasbag57
(g73
g59
NtRp3712
(dp3713
g62
(dp3714
sg71
g3568
sg64
(lp3715
g57
(g78
g59
NtRp3716
(dp3717
g62
(dp3718
g82
g83
ssg71
g3712
sg64
(lp3719
g430
asbag57
(g78
g59
NtRp3720
(dp3721
g62
(dp3722
g89
g90
ssg71
g3712
sg64
(lp3723
S':'
asbag57
(g78
g59
NtRp3724
(dp3725
g62
(dp3726
sg71
g3712
sg64
(lp3727
g57
(g58
g59
NtRp3728
(dp3729
g62
(dp3730
g70
I3
ssg71
g3724
sg64
(lp3731
S''
asbasbasbasbasbasbasbasbasbasbasbag57
(g73
g59
NtRp3732
(dp3733
g62
(dp3734
sg71
g3498
sg64
(lp3735
g57
(g78
g59
NtRp3736
(dp3737
g62
(dp3738
g82
g83
ssg71
g3732
sg64
(lp3739
S'files'
p3740
asbag57
(g78
g59
NtRp3741
(dp3742
g62
(dp3743
g89
g90
ssg71
g3732
sg64
(lp3744
S':'
asbag57
(g78
g59
NtRp3745
(dp3746
g62
(dp3747
sg71
g3732
sg64
(lp3748
g57
(g58
g59
NtRp3749
(dp3750
g62
(dp3751
g70
I5
ssg71
g3745
sg64
(lp3752
g57
(g66
g59
NtRp3753
(dp3754
g62
(dp3755
g70
I4
ssg71
Nsg64
(lp3756
sbasbasbasbag57
(g73
g59
NtRp3757
(dp3758
g62
(dp3759
sg71
g3498
sg64
(lp3760
g57
(g78
g59
NtRp3761
(dp3762
g62
(dp3763
g82
g83
ssg71
g3757
sg64
(lp3764
S'flash'
p3765
asbag57
(g78
g59
NtRp3766
(dp3767
g62
(dp3768
g89
g90
ssg71
g3757
sg64
(lp3769
S':'
asbag57
(g78
g59
NtRp3770
(dp3771
g62
(dp3772
sg71
g3757
sg64
(lp3773
g57
(g58
g59
NtRp3774
(dp3775
g62
(dp3776
g70
I5
ssg71
g3770
sg64
(lp3777
S''
asbasbasbag57
(g73
g59
NtRp3778
(dp3779
g62
(dp3780
sg71
g3498
sg64
(lp3781
g57
(g78
g59
NtRp3782
(dp3783
g62
(dp3784
g82
g83
ssg71
g3778
sg64
(lp3785
S'generic_patterns'
p3786
asbag57
(g78
g59
NtRp3787
(dp3788
g62
(dp3789
g89
g90
ssg71
g3778
sg64
(lp3790
S':'
asbag57
(g78
g59
NtRp3791
(dp3792
g62
(dp3793
sg71
g3778
sg64
(lp3794
g57
(g58
g59
NtRp3795
(dp3796
g62
(dp3797
g70
I5
ssg71
g3791
sg64
(lp3798
g57
(g66
g59
NtRp3799
(dp3800
g62
(dp3801
g70
I4
ssg71
Nsg64
(lp3802
g57
(g73
g59
NtRp3803
(dp3804
g62
(dp3805
sg71
g3799
sg64
(lp3806
g57
(g78
g59
NtRp3807
(dp3808
g62
(dp3809
sg71
g3803
sg64
(lp3810
g57
(g58
g59
NtRp3811
(dp3812
g62
(dp3813
g70
I4
ssg71
g3807
sg64
(lp3814
S'*'
asbasbasbasbasbasbasbag57
(g73
g59
NtRp3815
(dp3816
g62
(dp3817
sg71
g3498
sg64
(lp3818
g57
(g78
g59
NtRp3819
(dp3820
g62
(dp3821
g82
g83
ssg71
g3815
sg64
(lp3822
S'headers'
p3823
asbag57
(g78
g59
NtRp3824
(dp3825
g62
(dp3826
g89
g90
ssg71
g3815
sg64
(lp3827
S':'
asbag57
(g78
g59
NtRp3828
(dp3829
g62
(dp3830
sg71
g3815
sg64
(lp3831
g57
(g58
g59
NtRp3832
(dp3833
g62
(dp3834
g70
I5
ssg71
g3828
sg64
(lp3835
g57
(g66
g59
NtRp3836
(dp3837
g62
(dp3838
g70
I4
ssg71
Nsg64
(lp3839
g57
(g73
g59
NtRp3840
(dp3841
g62
(dp3842
sg71
g3836
sg64
(lp3843
g57
(g78
g59
NtRp3844
(dp3845
g62
(dp3846
g82
g83
ssg71
g3840
sg64
(lp3847
S'Cache-Control'
p3848
asbag57
(g78
g59
NtRp3849
(dp3850
g62
(dp3851
g89
g90
ssg71
g3840
sg64
(lp3852
S':'
asbag57
(g78
g59
NtRp3853
(dp3854
g62
(dp3855
sg71
g3840
sg64
(lp3856
g57
(g58
g59
NtRp3857
(dp3858
g62
(dp3859
g70
I4
ssg71
g3853
sg64
(lp3860
S'no-store, no-cache, must-revalidate, post-check=0, pre-check=0'
p3861
asbasbasbag57
(g73
g59
NtRp3862
(dp3863
g62
(dp3864
sg71
g3836
sg64
(lp3865
g57
(g78
g59
NtRp3866
(dp3867
g62
(dp3868
g82
g83
ssg71
g3862
sg64
(lp3869
S'Content-Type'
p3870
asbag57
(g78
g59
NtRp3871
(dp3872
g62
(dp3873
g89
g90
ssg71
g3862
sg64
(lp3874
S':'
asbag57
(g78
g59
NtRp3875
(dp3876
g62
(dp3877
sg71
g3862
sg64
(lp3878
g57
(g58
g59
NtRp3879
(dp3880
g62
(dp3881
g70
I4
ssg71
g3875
sg64
(lp3882
S'text/html; charset=utf-8'
p3883
asbasbasbag57
(g73
g59
NtRp3884
(dp3885
g62
(dp3886
sg71
g3836
sg64
(lp3887
g57
(g78
g59
NtRp3888
(dp3889
g62
(dp3890
g82
g83
ssg71
g3884
sg64
(lp3891
S'Expires'
p3892
asbag57
(g78
g59
NtRp3893
(dp3894
g62
(dp3895
g89
g90
ssg71
g3884
sg64
(lp3896
S':'
asbag57
(g78
g59
NtRp3897
(dp3898
g62
(dp3899
sg71
g3884
sg64
(lp3900
g57
(g58
g59
NtRp3901
(dp3902
g62
(dp3903
g70
I4
ssg71
g3897
sg64
(lp3904
S'Tue, 07 Feb 2012 21:12:24 GMT'
p3905
asbasbasbag57
(g73
g59
NtRp3906
(dp3907
g62
(dp3908
sg71
g3836
sg64
(lp3909
g57
(g78
g59
NtRp3910
(dp3911
g62
(dp3912
g82
g83
ssg71
g3906
sg64
(lp3913
S'Pragma'
p3914
asbag57
(g78
g59
NtRp3915
(dp3916
g62
(dp3917
g89
g90
ssg71
g3906
sg64
(lp3918
S':'
asbag57
(g78
g59
NtRp3919
(dp3920
g62
(dp3921
sg71
g3906
sg64
(lp3922
g57
(g58
g59
NtRp3923
(dp3924
g62
(dp3925
g70
I4
ssg71
g3919
sg64
(lp3926
S'no-cache'
p3927
asbasbasbag57
(g73
g59
NtRp3928
(dp3929
g62
(dp3930
sg71
g3836
sg64
(lp3931
g57
(g78
g59
NtRp3932
(dp3933
g62
(dp3934
g82
g83
ssg71
g3928
sg64
(lp3935
S'X-Powered-By'
p3936
asbag57
(g78
g59
NtRp3937
(dp3938
g62
(dp3939
g89
g90
ssg71
g3928
sg64
(lp3940
S':'
asbag57
(g78
g59
NtRp3941
(dp3942
g62
(dp3943
sg71
g3928
sg64
(lp3944
g57
(g58
g59
NtRp3945
(dp3946
g62
(dp3947
g70
I4
ssg71
g3941
sg64
(lp3948
S'web2py'
p3949
asbasbasbasbasbasbasbag57
(g73
g59
NtRp3950
(dp3951
g62
(dp3952
sg71
g3498
sg64
(lp3953
g57
(g78
g59
NtRp3954
(dp3955
g62
(dp3956
g82
g83
ssg71
g3950
sg64
(lp3957
S'menu'
p3958
asbag57
(g78
g59
NtRp3959
(dp3960
g62
(dp3961
g89
g90
ssg71
g3950
sg64
(lp3962
S':'
asbag57
(g78
g59
NtRp3963
(dp3964
g62
(dp3965
sg71
g3950
sg64
(lp3966
g57
(g58
g59
NtRp3967
(dp3968
g62
(dp3969
g70
I5
ssg71
g3963
sg64
(lp3970
g57
(g66
g59
NtRp3971
(dp3972
g62
(dp3973
g70
I4
ssg71
Nsg64
(lp3974
g57
(g73
g59
NtRp3975
(dp3976
g62
(dp3977
sg71
g3971
sg64
(lp3978
g57
(g78
g59
NtRp3979
(dp3980
g62
(dp3981
sg71
g3975
sg64
(lp3982
g57
(g58
g59
NtRp3983
(dp3984
g62
(dp3985
g70
I4
ssg71
g3979
sg64
(lp3986
g57
(g66
g59
NtRp3987
(dp3988
g62
(dp3989
g70
I3
ssg71
Nsg64
(lp3990
g57
(g73
g59
NtRp3991
(dp3992
g62
(dp3993
sg71
g3987
sg64
(lp3994
g57
(g78
g59
NtRp3995
(dp3996
g62
(dp3997
sg71
g3991
sg64
(lp3998
g57
(g58
g59
NtRp3999
(dp4000
g62
(dp4001
g70
I3
ssg71
g3995
sg64
(lp4002
cgluon.languages
lazyT_unpickle
p4003
(S't\x04\x00\x00\x00Home'
tRp4004
asbasbasbag57
(g73
g59
NtRp4005
(dp4006
g62
(dp4007
sg71
g3987
sg64
(lp4008
g57
(g78
g59
NtRp4009
(dp4010
g62
(dp4011
sg71
g4005
sg64
(lp4012
g57
(g58
g59
NtRp4013
(dp4014
g62
(dp4015
g70
I3
ssg71
g4009
sg64
(lp4016
g100
asbasbasbag57
(g73
g59
NtRp4017
(dp4018
g62
(dp4019
sg71
g3987
sg64
(lp4020
g57
(g78
g59
NtRp4021
(dp4022
g62
(dp4023
sg71
g4017
sg64
(lp4024
g57
(g58
g59
NtRp4025
(dp4026
g62
(dp4027
g70
I3
ssg71
g4021
sg64
(lp4028
S'/welcome/default/index'
p4029
asbasbasbag57
(g73
g59
NtRp4030
(dp4031
g62
(dp4032
sg71
g3987
sg64
(lp4033
g57
(g78
g59
NtRp4034
(dp4035
g62
(dp4036
sg71
g4030
sg64
(lp4037
g57
(g58
g59
NtRp4038
(dp4039
g62
(dp4040
g70
I3
ssg71
g4034
sg64
(lp4041
g57
(g66
g59
NtRp4042
(dp4043
g62
(dp4044
g70
I2
ssg71
Nsg64
(lp4045
sbasbasbasbasbasbasbasbasbasbasbasbag57
(g73
g59
NtRp4046
(dp4047
g62
(dp4048
sg71
g3498
sg64
(lp4049
g57
(g78
g59
NtRp4050
(dp4051
g62
(dp4052
g82
g83
ssg71
g4046
sg64
(lp4053
S'meta'
p4054
asbag57
(g78
g59
NtRp4055
(dp4056
g62
(dp4057
g89
g90
ssg71
g4046
sg64
(lp4058
S':'
asbag57
(g78
g59
NtRp4059
(dp4060
g62
(dp4061
sg71
g4046
sg64
(lp4062
g57
(g58
g59
NtRp4063
(dp4064
g62
(dp4065
g70
I5
ssg71
g4059
sg64
(lp4066
g57
(g66
g59
NtRp4067
(dp4068
g62
(dp4069
g70
I4
ssg71
Nsg64
(lp4070
g57
(g73
g59
NtRp4071
(dp4072
g62
(dp4073
sg71
g4067
sg64
(lp4074
g57
(g78
g59
NtRp4075
(dp4076
g62
(dp4077
g82
g83
ssg71
g4071
sg64
(lp4078
S'author'
p4079
asbag57
(g78
g59
NtRp4080
(dp4081
g62
(dp4082
g89
g90
ssg71
g4071
sg64
(lp4083
S':'
asbag57
(g78
g59
NtRp4084
(dp4085
g62
(dp4086
sg71
g4071
sg64
(lp4087
g57
(g58
g59
NtRp4088
(dp4089
g62
(dp4090
g70
I4
ssg71
g4084
sg64
(lp4091
S'Your Name <you@example.com>'
p4092
asbasbasbag57
(g73
g59
NtRp4093
(dp4094
g62
(dp4095
sg71
g4067
sg64
(lp4096
g57
(g78
g59
NtRp4097
(dp4098
g62
(dp4099
g82
g83
ssg71
g4093
sg64
(lp4100
S'copyright'
p4101
asbag57
(g78
g59
NtRp4102
(dp4103
g62
(dp4104
g89
g90
ssg71
g4093
sg64
(lp4105
S':'
asbag57
(g78
g59
NtRp4106
(dp4107
g62
(dp4108
sg71
g4093
sg64
(lp4109
g57
(g58
g59
NtRp4110
(dp4111
g62
(dp4112
g70
I4
ssg71
g4106
sg64
(lp4113
S'Copyright 2011'
p4114
asbasbasbag57
(g73
g59
NtRp4115
(dp4116
g62
(dp4117
sg71
g4067
sg64
(lp4118
g57
(g78
g59
NtRp4119
(dp4120
g62
(dp4121
g82
g83
ssg71
g4115
sg64
(lp4122
S'description'
p4123
asbag57
(g78
g59
NtRp4124
(dp4125
g62
(dp4126
g89
g90
ssg71
g4115
sg64
(lp4127
S':'
asbag57
(g78
g59
NtRp4128
(dp4129
g62
(dp4130
sg71
g4115
sg64
(lp4131
g57
(g58
g59
NtRp4132
(dp4133
g62
(dp4134
g70
I4
ssg71
g4128
sg64
(lp4135
S'a cool new app'
p4136
asbasbasbag57
(g73
g59
NtRp4137
(dp4138
g62
(dp4139
sg71
g4067
sg64
(lp4140
g57
(g78
g59
NtRp4141
(dp4142
g62
(dp4143
g82
g83
ssg71
g4137
sg64
(lp4144
S'generator'
p4145
asbag57
(g78
g59
NtRp4146
(dp4147
g62
(dp4148
g89
g90
ssg71
g4137
sg64
(lp4149
S':'
asbag57
(g78
g59
NtRp4150
(dp4151
g62
(dp4152
sg71
g4137
sg64
(lp4153
g57
(g58
g59
NtRp4154
(dp4155
g62
(dp4156
g70
I4
ssg71
g4150
sg64
(lp4157
S'Web2py Web Framework'
p4158
asbasbasbag57
(g73
g59
NtRp4159
(dp4160
g62
(dp4161
sg71
g4067
sg64
(lp4162
g57
(g78
g59
NtRp4163
(dp4164
g62
(dp4165
g82
g83
ssg71
g4159
sg64
(lp4166
S'keywords'
p4167
asbag57
(g78
g59
NtRp4168
(dp4169
g62
(dp4170
g89
g90
ssg71
g4159
sg64
(lp4171
S':'
asbag57
(g78
g59
NtRp4172
(dp4173
g62
(dp4174
sg71
g4159
sg64
(lp4175
g57
(g58
g59
NtRp4176
(dp4177
g62
(dp4178
g70
I4
ssg71
g4172
sg64
(lp4179
S'web2py, python, framework'
p4180
asbasbasbasbasbasbasbag57
(g73
g59
NtRp4181
(dp4182
g62
(dp4183
sg71
g3498
sg64
(lp4184
g57
(g78
g59
NtRp4185
(dp4186
g62
(dp4187
g82
g83
ssg71
g4181
sg64
(lp4188
S'postprocessing'
p4189
asbag57
(g78
g59
NtRp4190
(dp4191
g62
(dp4192
g89
g90
ssg71
g4181
sg64
(lp4193
S':'
asbag57
(g78
g59
NtRp4194
(dp4195
g62
(dp4196
sg71
g4181
sg64
(lp4197
g57
(g58
g59
NtRp4198
(dp4199
g62
(dp4200
g70
I5
ssg71
g4194
sg64
(lp4201
g57
(g66
g59
NtRp4202
(dp4203
g62
(dp4204
g70
I4
ssg71
Nsg64
(lp4205
sbasbasbasbag57
(g73
g59
NtRp4206
(dp4207
g62
(dp4208
sg71
g3498
sg64
(lp4209
g57
(g78
g59
NtRp4210
(dp4211
g62
(dp4212
g82
g83
ssg71
g4206
sg64
(lp4213
S'session_file'
p4214
asbag57
(g78
g59
NtRp4215
(dp4216
g62
(dp4217
g89
g90
ssg71
g4206
sg64
(lp4218
S':'
asbag57
(g78
g59
NtRp4219
(dp4220
g62
(dp4221
sg71
g4206
sg64
(lp4222
g57
(g58
g59
NtRp4223
(dp4224
g62
(dp4225
g70
I5
ssg71
g4219
sg64
(lp4226
S"<open file 'C:\\Users\\mellinja\\Documents\\SC2Tracker\\SC2TourneyTracker\\web2py\\applications\\welcome\\sessions\\127.0.0.1-5b61f96d-52a5-4e52-805f-552fe78bcf40', mode 'rb+' at 0x00000000095B6D20>"
p4227
asbasbasbag57
(g73
g59
NtRp4228
(dp4229
g62
(dp4230
sg71
g3498
sg64
(lp4231
g57
(g78
g59
NtRp4232
(dp4233
g62
(dp4234
g82
g83
ssg71
g4228
sg64
(lp4235
S'session_filename'
p4236
asbag57
(g78
g59
NtRp4237
(dp4238
g62
(dp4239
g89
g90
ssg71
g4228
sg64
(lp4240
S':'
asbag57
(g78
g59
NtRp4241
(dp4242
g62
(dp4243
sg71
g4228
sg64
(lp4244
g57
(g58
g59
NtRp4245
(dp4246
g62
(dp4247
g70
I5
ssg71
g4241
sg64
(lp4248
S'C:\\Users\\mellinja\\Documents\\SC2Tracker\\SC2TourneyTracker\\web2py\\applications\\welcome\\sessions\\127.0.0.1-5b61f96d-52a5-4e52-805f-552fe78bcf40'
p4249
asbasbasbag57
(g73
g59
NtRp4250
(dp4251
g62
(dp4252
sg71
g3498
sg64
(lp4253
g57
(g78
g59
NtRp4254
(dp4255
g62
(dp4256
g82
g83
ssg71
g4250
sg64
(lp4257
S'session_id'
p4258
asbag57
(g78
g59
NtRp4259
(dp4260
g62
(dp4261
g89
g90
ssg71
g4250
sg64
(lp4262
S':'
asbag57
(g78
g59
NtRp4263
(dp4264
g62
(dp4265
sg71
g4250
sg64
(lp4266
g57
(g58
g59
NtRp4267
(dp4268
g62
(dp4269
g70
I5
ssg71
g4263
sg64
(lp4270
S'127.0.0.1-5b61f96d-52a5-4e52-805f-552fe78bcf40'
p4271
asbasbasbag57
(g73
g59
NtRp4272
(dp4273
g62
(dp4274
sg71
g3498
sg64
(lp4275
g57
(g78
g59
NtRp4276
(dp4277
g62
(dp4278
g82
g83
ssg71
g4272
sg64
(lp4279
S'session_id_name'
p4280
asbag57
(g78
g59
NtRp4281
(dp4282
g62
(dp4283
g89
g90
ssg71
g4272
sg64
(lp4284
S':'
asbag57
(g78
g59
NtRp4285
(dp4286
g62
(dp4287
sg71
g4272
sg64
(lp4288
g57
(g58
g59
NtRp4289
(dp4290
g62
(dp4291
g70
I5
ssg71
g4285
sg64
(lp4292
g3555
asbasbasbag57
(g73
g59
NtRp4293
(dp4294
g62
(dp4295
sg71
g3498
sg64
(lp4296
g57
(g78
g59
NtRp4297
(dp4298
g62
(dp4299
g82
g83
ssg71
g4293
sg64
(lp4300
S'session_locked'
p4301
asbag57
(g78
g59
NtRp4302
(dp4303
g62
(dp4304
g89
g90
ssg71
g4293
sg64
(lp4305
S':'
asbag57
(g78
g59
NtRp4306
(dp4307
g62
(dp4308
sg71
g4293
sg64
(lp4309
g57
(g58
g59
NtRp4310
(dp4311
g62
(dp4312
g70
I5
ssg71
g4306
sg64
(lp4313
g1712
asbasbasbag57
(g73
g59
NtRp4314
(dp4315
g62
(dp4316
sg71
g3498
sg64
(lp4317
g57
(g78
g59
NtRp4318
(dp4319
g62
(dp4320
g82
g83
ssg71
g4314
sg64
(lp4321
S'session_new'
p4322
asbag57
(g78
g59
NtRp4323
(dp4324
g62
(dp4325
g89
g90
ssg71
g4314
sg64
(lp4326
S':'
asbag57
(g78
g59
NtRp4327
(dp4328
g62
(dp4329
sg71
g4314
sg64
(lp4330
g57
(g58
g59
NtRp4331
(dp4332
g62
(dp4333
g70
I5
ssg71
g4327
sg64
(lp4334
g100
asbasbasbag57
(g73
g59
NtRp4335
(dp4336
g62
(dp4337
sg71
g3498
sg64
(lp4338
g57
(g78
g59
NtRp4339
(dp4340
g62
(dp4341
g82
g83
ssg71
g4335
sg64
(lp4342
S'status'
p4343
asbag57
(g78
g59
NtRp4344
(dp4345
g62
(dp4346
g89
g90
ssg71
g4335
sg64
(lp4347
S':'
asbag57
(g78
g59
NtRp4348
(dp4349
g62
(dp4350
sg71
g4335
sg64
(lp4351
g57
(g58
g59
NtRp4352
(dp4353
g62
(dp4354
g70
I5
ssg71
g4348
sg64
(lp4355
S'200'
p4356
asbasbasbag57
(g73
g59
NtRp4357
(dp4358
g62
(dp4359
sg71
g3498
sg64
(lp4360
g57
(g78
g59
NtRp4361
(dp4362
g62
(dp4363
g82
g83
ssg71
g4357
sg64
(lp4364
S'subtitle'
p4365
asbag57
(g78
g59
NtRp4366
(dp4367
g62
(dp4368
g89
g90
ssg71
g4357
sg64
(lp4369
S':'
asbag57
(g78
g59
NtRp4370
(dp4371
g62
(dp4372
sg71
g4357
sg64
(lp4373
g57
(g58
g59
NtRp4374
(dp4375
g62
(dp4376
g70
I5
ssg71
g4370
sg64
(lp4377
g4003
(S's2\x00\x00\x00Starcraft II Custom Tournament Tracker Version 0.1'
tRp4378
asbasbasbag57
(g73
g59
NtRp4379
(dp4380
g62
(dp4381
sg71
g3498
sg64
(lp4382
g57
(g78
g59
NtRp4383
(dp4384
g62
(dp4385
g82
g83
ssg71
g4379
sg64
(lp4386
S'title'
p4387
asbag57
(g78
g59
NtRp4388
(dp4389
g62
(dp4390
g89
g90
ssg71
g4379
sg64
(lp4391
S':'
asbag57
(g78
g59
NtRp4392
(dp4393
g62
(dp4394
sg71
g4379
sg64
(lp4395
g57
(g58
g59
NtRp4396
(dp4397
g62
(dp4398
g70
I5
ssg71
g4392
sg64
(lp4399
S'SC2CTT v0.1'
p4400
asbasbasbag57
(g73
g59
NtRp4401
(dp4402
g62
(dp4403
sg71
g3498
sg64
(lp4404
g57
(g78
g59
NtRp4405
(dp4406
g62
(dp4407
g82
g83
ssg71
g4401
sg64
(lp4408
g2397
asbag57
(g78
g59
NtRp4409
(dp4410
g62
(dp4411
g89
g90
ssg71
g4401
sg64
(lp4412
S':'
asbag57
(g78
g59
NtRp4413
(dp4414
g62
(dp4415
sg71
g4401
sg64
(lp4416
g57
(g58
g59
NtRp4417
(dp4418
g62
(dp4419
g70
I5
ssg71
g4413
sg64
(lp4420
g2410
asbasbasbag57
(g73
g59
NtRp4421
(dp4422
g62
(dp4423
sg71
g3498
sg64
(lp4424
g57
(g78
g59
NtRp4425
(dp4426
g62
(dp4427
g82
g83
ssg71
g4421
sg64
(lp4428
S'view'
p4429
asbag57
(g78
g59
NtRp4430
(dp4431
g62
(dp4432
g89
g90
ssg71
g4421
sg64
(lp4433
S':'
asbag57
(g78
g59
NtRp4434
(dp4435
g62
(dp4436
sg71
g4421
sg64
(lp4437
g57
(g58
g59
NtRp4438
(dp4439
g62
(dp4440
g70
I5
ssg71
g4434
sg64
(lp4441
S'tournament/show.html'
p4442
asbasbasbasbasbsS'locals'
p4443
(dp4444
S'self'
p4445
S"<DAL {'auth_event': <Table {'origin': <gluon.dal...gluon.dal.Field object at 0x00000000073AC7F0>}>}>"
p4446
sS'key'
p4447
S"'select'"
p4448
sssS'traceback'
p4449
S'Traceback (most recent call last):\n  File "C:\\Users\\mellinja\\Documents\\SC2Tracker\\SC2TourneyTracker\\web2py\\gluon\\restricted.py", line 204, in restricted\n    exec ccode in environment\n  File "C:\\Users\\mellinja\\Documents\\SC2Tracker\\SC2TourneyTracker\\web2py\\applications\\welcome\\controllers/tournament.py", line 12, in <module>\n  File "C:\\Users\\mellinja\\Documents\\SC2Tracker\\SC2TourneyTracker\\web2py\\gluon\\globals.py", line 172, in <lambda>\n    self._caller = lambda f: f()\n  File "C:\\Users\\mellinja\\Documents\\SC2Tracker\\SC2TourneyTracker\\web2py\\applications\\welcome\\controllers/tournament.py", line 9, in show\n    tourny = db.select(db.Tournament.ID)\n  File "C:\\Users\\mellinja\\Documents\\SC2Tracker\\SC2TourneyTracker\\web2py\\gluon\\dal.py", line 5119, in __getattr__\n    return self[key]\n  File "C:\\Users\\mellinja\\Documents\\SC2Tracker\\SC2TourneyTracker\\web2py\\gluon\\dal.py", line 5113, in __getitem__\n    return dict.__getitem__(self, str(key))\nKeyError: \'select\'\n'
p4450
s.