(dp1
S'output'
p2
S'<class \'pyodbc.ProgrammingError\'> (\'42000\', "[42000] [Microsoft][ODBC SQL Server Driver][SQL Server]Incorrect syntax near \'_OR_1\'. (102) (SQLExecDirectW)")'
p3
sS'layer'
p4
S'C:\\Users\\mellinja\\Documents\\SC2Tracker\\SC2TourneyTracker\\web2py\\applications\\welcome\\controllers/tournament.py'
p5
sS'code'
p6
S"# coding: utf8\n#\ndef index(): \n    #db = DAL('mssql://cheungkt:mechanes5@whale.cs.rose-hulman.edu/SC2tracker')\n    tournies = db.executesql('SELECT Name, ID FROM Tournament')\n    return dict(tournament = tournies)\n    \ndef show():\n    tourny = db.executesql('SELECT * FROM Tournament WHERE ID = ' + str(request.args(0)))\n    return dict(test = tourny)\n\nresponse._vars=response._caller(show)\n"
p7
sS'snapshot'
p8
(dp9
S'exception'
p10
(dp11
S'__module__'
p12
S"'pyodbc'"
p13
sS'__getslice__'
p14
S"<method-wrapper '__getslice__' of ProgrammingError object>"
p15
sS'__str__'
p16
S"<method-wrapper '__str__' of ProgrammingError object>"
p17
sS'__reduce__'
p18
S'<built-in method __reduce__ of ProgrammingError object>'
p19
sS'__dict__'
p20
S'{}'
p21
sS'__sizeof__'
p22
S'<built-in method __sizeof__ of ProgrammingError object>'
p23
sS'__weakref__'
p24
S'None'
p25
sS'__init__'
p26
S"<method-wrapper '__init__' of ProgrammingError object>"
p27
sS'__setattr__'
p28
S"<method-wrapper '__setattr__' of ProgrammingError object>"
p29
sS'__reduce_ex__'
p30
S'<built-in method __reduce_ex__ of ProgrammingError object>'
p31
sS'__new__'
p32
S'<built-in method __new__ of type object>'
p33
sS'__format__'
p34
S'<built-in method __format__ of ProgrammingError object>'
p35
sS'__class__'
p36
S"<class 'pyodbc.ProgrammingError'>"
p37
sS'__doc__'
p38
S"'Exception raised for programming errors, e.g. ta...ement, wrong number of parameters\\nspecified, etc.'"
p39
sS'__getitem__'
p40
S"<method-wrapper '__getitem__' of ProgrammingError object>"
p41
sS'__setstate__'
p42
S'<built-in method __setstate__ of ProgrammingError object>'
p43
sS'__getattribute__'
p44
S"<method-wrapper '__getattribute__' of ProgrammingError object>"
p45
sS'args'
p46
S'(\'42000\', "[42000] [Microsoft][ODBC SQL Server Driver][SQL ...rrect syntax near \'_OR_1\'. (102) (SQLExecDirectW)")'
p47
sS'__subclasshook__'
p48
S'<built-in method __subclasshook__ of type object>'
p49
sS'__unicode__'
p50
S'<built-in method __unicode__ of ProgrammingError object>'
p51
sS'__delattr__'
p52
S"<method-wrapper '__delattr__' of ProgrammingError object>"
p53
sS'__repr__'
p54
S"<method-wrapper '__repr__' of ProgrammingError object>"
p55
sS'__hash__'
p56
S"<method-wrapper '__hash__' of ProgrammingError object>"
p57
ssS'evalue'
p58
S'(\'42000\', "[42000] [Microsoft][ODBC SQL Server Driver][SQL Server]Incorrect syntax near \'_OR_1\'. (102) (SQLExecDirectW)")'
p59
sS'request'
p60
ccopy_reg
_reconstructor
p61
(cgluon.html
BEAUTIFY
p62
c__builtin__
object
p63
NtRp64
(dp65
S'attributes'
p66
(dp67
sS'components'
p68
(lp69
g61
(cgluon.html
TABLE
p70
g63
NtRp71
(dp72
g66
(dp73
S'level'
p74
I5
ssS'parent'
p75
Nsg68
(lp76
g61
(cgluon.html
TR
p77
g63
NtRp78
(dp79
g66
(dp80
sg75
g71
sg68
(lp81
g61
(cgluon.html
TD
p82
g63
NtRp83
(dp84
g66
(dp85
S'_style'
p86
S'font-weight:bold;vertical-align:top'
p87
ssg75
g78
sg68
(lp88
S'ajax'
p89
asbag61
(g82
g63
NtRp90
(dp91
g66
(dp92
S'_valign'
p93
S'top'
p94
ssg75
g78
sg68
(lp95
S':'
asbag61
(g82
g63
NtRp96
(dp97
g66
(dp98
sg75
g78
sg68
(lp99
g61
(g62
g63
NtRp100
(dp101
g66
(dp102
g74
I5
ssg75
g96
sg68
(lp103
S'False'
p104
asbasbasbag61
(g77
g63
NtRp105
(dp106
g66
(dp107
sg75
g71
sg68
(lp108
g61
(g82
g63
NtRp109
(dp110
g66
(dp111
g86
g87
ssg75
g105
sg68
(lp112
S'application'
p113
asbag61
(g82
g63
NtRp114
(dp115
g66
(dp116
g93
g94
ssg75
g105
sg68
(lp117
S':'
asbag61
(g82
g63
NtRp118
(dp119
g66
(dp120
sg75
g105
sg68
(lp121
g61
(g62
g63
NtRp122
(dp123
g66
(dp124
g74
I5
ssg75
g118
sg68
(lp125
S'welcome'
p126
asbasbasbag61
(g77
g63
NtRp127
(dp128
g66
(dp129
sg75
g71
sg68
(lp130
g61
(g82
g63
NtRp131
(dp132
g66
(dp133
g86
g87
ssg75
g127
sg68
(lp134
g46
asbag61
(g82
g63
NtRp135
(dp136
g66
(dp137
g93
g94
ssg75
g127
sg68
(lp138
S':'
asbag61
(g82
g63
NtRp139
(dp140
g66
(dp141
sg75
g127
sg68
(lp142
g61
(g62
g63
NtRp143
(dp144
g66
(dp145
g74
I5
ssg75
g139
sg68
(lp146
g61
(g70
g63
NtRp147
(dp148
g66
(dp149
g74
I4
ssg75
Nsg68
(lp150
g61
(g77
g63
NtRp151
(dp152
g66
(dp153
sg75
g147
sg68
(lp154
g61
(g82
g63
NtRp155
(dp156
g66
(dp157
sg75
g151
sg68
(lp158
g61
(g62
g63
NtRp159
(dp160
g66
(dp161
g74
I4
ssg75
g155
sg68
(lp162
S'8_OR_1=1'
p163
asbasbasbasbasbasbasbag61
(g77
g63
NtRp164
(dp165
g66
(dp166
sg75
g71
sg68
(lp167
g61
(g82
g63
NtRp168
(dp169
g66
(dp170
g86
g87
ssg75
g164
sg68
(lp171
S'body'
p172
asbag61
(g82
g63
NtRp173
(dp174
g66
(dp175
g93
g94
ssg75
g164
sg68
(lp176
S':'
asbag61
(g82
g63
NtRp177
(dp178
g66
(dp179
sg75
g164
sg68
(lp180
g61
(g62
g63
NtRp181
(dp182
g66
(dp183
g74
I5
ssg75
g177
sg68
(lp184
S'<cStringIO.StringO object at 0x0000000009424180>'
p185
asbasbasbag61
(g77
g63
NtRp186
(dp187
g66
(dp188
sg75
g71
sg68
(lp189
g61
(g82
g63
NtRp190
(dp191
g66
(dp192
g86
g87
ssg75
g186
sg68
(lp193
S'client'
p194
asbag61
(g82
g63
NtRp195
(dp196
g66
(dp197
g93
g94
ssg75
g186
sg68
(lp198
S':'
asbag61
(g82
g63
NtRp199
(dp200
g66
(dp201
sg75
g186
sg68
(lp202
g61
(g62
g63
NtRp203
(dp204
g66
(dp205
g74
I5
ssg75
g199
sg68
(lp206
S'127.0.0.1'
p207
asbasbasbag61
(g77
g63
NtRp208
(dp209
g66
(dp210
sg75
g71
sg68
(lp211
g61
(g82
g63
NtRp212
(dp213
g66
(dp214
g86
g87
ssg75
g208
sg68
(lp215
S'controller'
p216
asbag61
(g82
g63
NtRp217
(dp218
g66
(dp219
g93
g94
ssg75
g208
sg68
(lp220
S':'
asbag61
(g82
g63
NtRp221
(dp222
g66
(dp223
sg75
g208
sg68
(lp224
g61
(g62
g63
NtRp225
(dp226
g66
(dp227
g74
I5
ssg75
g221
sg68
(lp228
S'tournament'
p229
asbasbasbag61
(g77
g63
NtRp230
(dp231
g66
(dp232
sg75
g71
sg68
(lp233
g61
(g82
g63
NtRp234
(dp235
g66
(dp236
g86
g87
ssg75
g230
sg68
(lp237
S'cookies'
p238
asbag61
(g82
g63
NtRp239
(dp240
g66
(dp241
g93
g94
ssg75
g230
sg68
(lp242
S':'
asbag61
(g82
g63
NtRp243
(dp244
g66
(dp245
sg75
g230
sg68
(lp246
g61
(g62
g63
NtRp247
(dp248
g66
(dp249
g74
I5
ssg75
g243
sg68
(lp250
g61
(g70
g63
NtRp251
(dp252
g66
(dp253
g74
I4
ssg75
Nsg68
(lp254
g61
(g77
g63
NtRp255
(dp256
g66
(dp257
sg75
g251
sg68
(lp258
g61
(g82
g63
NtRp259
(dp260
g66
(dp261
g86
g87
ssg75
g255
sg68
(lp262
S'session_id_admin'
p263
asbag61
(g82
g63
NtRp264
(dp265
g66
(dp266
g93
g94
ssg75
g255
sg68
(lp267
S':'
asbag61
(g82
g63
NtRp268
(dp269
g66
(dp270
sg75
g255
sg68
(lp271
g61
(g62
g63
NtRp272
(dp273
g66
(dp274
g74
I4
ssg75
g268
sg68
(lp275
g61
(g70
g63
NtRp276
(dp277
g66
(dp278
g74
I3
ssg75
Nsg68
(lp279
g61
(g77
g63
NtRp280
(dp281
g66
(dp282
sg75
g276
sg68
(lp283
g61
(g82
g63
NtRp284
(dp285
g66
(dp286
g86
g87
ssg75
g280
sg68
(lp287
S'comment'
p288
asbag61
(g82
g63
NtRp289
(dp290
g66
(dp291
g93
g94
ssg75
g280
sg68
(lp292
S':'
asbag61
(g82
g63
NtRp293
(dp294
g66
(dp295
sg75
g280
sg68
(lp296
g61
(g62
g63
NtRp297
(dp298
g66
(dp299
g74
I3
ssg75
g293
sg68
(lp300
S''
asbasbasbag61
(g77
g63
NtRp301
(dp302
g66
(dp303
sg75
g276
sg68
(lp304
g61
(g82
g63
NtRp305
(dp306
g66
(dp307
g86
g87
ssg75
g301
sg68
(lp308
S'domain'
p309
asbag61
(g82
g63
NtRp310
(dp311
g66
(dp312
g93
g94
ssg75
g301
sg68
(lp313
S':'
asbag61
(g82
g63
NtRp314
(dp315
g66
(dp316
sg75
g301
sg68
(lp317
g61
(g62
g63
NtRp318
(dp319
g66
(dp320
g74
I3
ssg75
g314
sg68
(lp321
S''
asbasbasbag61
(g77
g63
NtRp322
(dp323
g66
(dp324
sg75
g276
sg68
(lp325
g61
(g82
g63
NtRp326
(dp327
g66
(dp328
g86
g87
ssg75
g322
sg68
(lp329
S'expires'
p330
asbag61
(g82
g63
NtRp331
(dp332
g66
(dp333
g93
g94
ssg75
g322
sg68
(lp334
S':'
asbag61
(g82
g63
NtRp335
(dp336
g66
(dp337
sg75
g322
sg68
(lp338
g61
(g62
g63
NtRp339
(dp340
g66
(dp341
g74
I3
ssg75
g335
sg68
(lp342
S''
asbasbasbag61
(g77
g63
NtRp343
(dp344
g66
(dp345
sg75
g276
sg68
(lp346
g61
(g82
g63
NtRp347
(dp348
g66
(dp349
g86
g87
ssg75
g343
sg68
(lp350
S'httponly'
p351
asbag61
(g82
g63
NtRp352
(dp353
g66
(dp354
g93
g94
ssg75
g343
sg68
(lp355
S':'
asbag61
(g82
g63
NtRp356
(dp357
g66
(dp358
sg75
g343
sg68
(lp359
g61
(g62
g63
NtRp360
(dp361
g66
(dp362
g74
I3
ssg75
g356
sg68
(lp363
S''
asbasbasbag61
(g77
g63
NtRp364
(dp365
g66
(dp366
sg75
g276
sg68
(lp367
g61
(g82
g63
NtRp368
(dp369
g66
(dp370
g86
g87
ssg75
g364
sg68
(lp371
S'max-age'
p372
asbag61
(g82
g63
NtRp373
(dp374
g66
(dp375
g93
g94
ssg75
g364
sg68
(lp376
S':'
asbag61
(g82
g63
NtRp377
(dp378
g66
(dp379
sg75
g364
sg68
(lp380
g61
(g62
g63
NtRp381
(dp382
g66
(dp383
g74
I3
ssg75
g377
sg68
(lp384
S''
asbasbasbag61
(g77
g63
NtRp385
(dp386
g66
(dp387
sg75
g276
sg68
(lp388
g61
(g82
g63
NtRp389
(dp390
g66
(dp391
g86
g87
ssg75
g385
sg68
(lp392
S'path'
p393
asbag61
(g82
g63
NtRp394
(dp395
g66
(dp396
g93
g94
ssg75
g385
sg68
(lp397
S':'
asbag61
(g82
g63
NtRp398
(dp399
g66
(dp400
sg75
g385
sg68
(lp401
g61
(g62
g63
NtRp402
(dp403
g66
(dp404
g74
I3
ssg75
g398
sg68
(lp405
S''
asbasbasbag61
(g77
g63
NtRp406
(dp407
g66
(dp408
sg75
g276
sg68
(lp409
g61
(g82
g63
NtRp410
(dp411
g66
(dp412
g86
g87
ssg75
g406
sg68
(lp413
S'secure'
p414
asbag61
(g82
g63
NtRp415
(dp416
g66
(dp417
g93
g94
ssg75
g406
sg68
(lp418
S':'
asbag61
(g82
g63
NtRp419
(dp420
g66
(dp421
sg75
g406
sg68
(lp422
g61
(g62
g63
NtRp423
(dp424
g66
(dp425
g74
I3
ssg75
g419
sg68
(lp426
S''
asbasbasbag61
(g77
g63
NtRp427
(dp428
g66
(dp429
sg75
g276
sg68
(lp430
g61
(g82
g63
NtRp431
(dp432
g66
(dp433
g86
g87
ssg75
g427
sg68
(lp434
S'version'
p435
asbag61
(g82
g63
NtRp436
(dp437
g66
(dp438
g93
g94
ssg75
g427
sg68
(lp439
S':'
asbag61
(g82
g63
NtRp440
(dp441
g66
(dp442
sg75
g427
sg68
(lp443
g61
(g62
g63
NtRp444
(dp445
g66
(dp446
g74
I3
ssg75
g440
sg68
(lp447
S''
asbasbasbasbasbasbasbag61
(g77
g63
NtRp448
(dp449
g66
(dp450
sg75
g251
sg68
(lp451
g61
(g82
g63
NtRp452
(dp453
g66
(dp454
g86
g87
ssg75
g448
sg68
(lp455
S'session_id_examples'
p456
asbag61
(g82
g63
NtRp457
(dp458
g66
(dp459
g93
g94
ssg75
g448
sg68
(lp460
S':'
asbag61
(g82
g63
NtRp461
(dp462
g66
(dp463
sg75
g448
sg68
(lp464
g61
(g62
g63
NtRp465
(dp466
g66
(dp467
g74
I4
ssg75
g461
sg68
(lp468
g61
(g70
g63
NtRp469
(dp470
g66
(dp471
g74
I3
ssg75
Nsg68
(lp472
g61
(g77
g63
NtRp473
(dp474
g66
(dp475
sg75
g469
sg68
(lp476
g61
(g82
g63
NtRp477
(dp478
g66
(dp479
g86
g87
ssg75
g473
sg68
(lp480
g288
asbag61
(g82
g63
NtRp481
(dp482
g66
(dp483
g93
g94
ssg75
g473
sg68
(lp484
S':'
asbag61
(g82
g63
NtRp485
(dp486
g66
(dp487
sg75
g473
sg68
(lp488
g61
(g62
g63
NtRp489
(dp490
g66
(dp491
g74
I3
ssg75
g485
sg68
(lp492
S''
asbasbasbag61
(g77
g63
NtRp493
(dp494
g66
(dp495
sg75
g469
sg68
(lp496
g61
(g82
g63
NtRp497
(dp498
g66
(dp499
g86
g87
ssg75
g493
sg68
(lp500
g309
asbag61
(g82
g63
NtRp501
(dp502
g66
(dp503
g93
g94
ssg75
g493
sg68
(lp504
S':'
asbag61
(g82
g63
NtRp505
(dp506
g66
(dp507
sg75
g493
sg68
(lp508
g61
(g62
g63
NtRp509
(dp510
g66
(dp511
g74
I3
ssg75
g505
sg68
(lp512
S''
asbasbasbag61
(g77
g63
NtRp513
(dp514
g66
(dp515
sg75
g469
sg68
(lp516
g61
(g82
g63
NtRp517
(dp518
g66
(dp519
g86
g87
ssg75
g513
sg68
(lp520
g330
asbag61
(g82
g63
NtRp521
(dp522
g66
(dp523
g93
g94
ssg75
g513
sg68
(lp524
S':'
asbag61
(g82
g63
NtRp525
(dp526
g66
(dp527
sg75
g513
sg68
(lp528
g61
(g62
g63
NtRp529
(dp530
g66
(dp531
g74
I3
ssg75
g525
sg68
(lp532
S''
asbasbasbag61
(g77
g63
NtRp533
(dp534
g66
(dp535
sg75
g469
sg68
(lp536
g61
(g82
g63
NtRp537
(dp538
g66
(dp539
g86
g87
ssg75
g533
sg68
(lp540
g351
asbag61
(g82
g63
NtRp541
(dp542
g66
(dp543
g93
g94
ssg75
g533
sg68
(lp544
S':'
asbag61
(g82
g63
NtRp545
(dp546
g66
(dp547
sg75
g533
sg68
(lp548
g61
(g62
g63
NtRp549
(dp550
g66
(dp551
g74
I3
ssg75
g545
sg68
(lp552
S''
asbasbasbag61
(g77
g63
NtRp553
(dp554
g66
(dp555
sg75
g469
sg68
(lp556
g61
(g82
g63
NtRp557
(dp558
g66
(dp559
g86
g87
ssg75
g553
sg68
(lp560
g372
asbag61
(g82
g63
NtRp561
(dp562
g66
(dp563
g93
g94
ssg75
g553
sg68
(lp564
S':'
asbag61
(g82
g63
NtRp565
(dp566
g66
(dp567
sg75
g553
sg68
(lp568
g61
(g62
g63
NtRp569
(dp570
g66
(dp571
g74
I3
ssg75
g565
sg68
(lp572
S''
asbasbasbag61
(g77
g63
NtRp573
(dp574
g66
(dp575
sg75
g469
sg68
(lp576
g61
(g82
g63
NtRp577
(dp578
g66
(dp579
g86
g87
ssg75
g573
sg68
(lp580
g393
asbag61
(g82
g63
NtRp581
(dp582
g66
(dp583
g93
g94
ssg75
g573
sg68
(lp584
S':'
asbag61
(g82
g63
NtRp585
(dp586
g66
(dp587
sg75
g573
sg68
(lp588
g61
(g62
g63
NtRp589
(dp590
g66
(dp591
g74
I3
ssg75
g585
sg68
(lp592
S''
asbasbasbag61
(g77
g63
NtRp593
(dp594
g66
(dp595
sg75
g469
sg68
(lp596
g61
(g82
g63
NtRp597
(dp598
g66
(dp599
g86
g87
ssg75
g593
sg68
(lp600
g414
asbag61
(g82
g63
NtRp601
(dp602
g66
(dp603
g93
g94
ssg75
g593
sg68
(lp604
S':'
asbag61
(g82
g63
NtRp605
(dp606
g66
(dp607
sg75
g593
sg68
(lp608
g61
(g62
g63
NtRp609
(dp610
g66
(dp611
g74
I3
ssg75
g605
sg68
(lp612
S''
asbasbasbag61
(g77
g63
NtRp613
(dp614
g66
(dp615
sg75
g469
sg68
(lp616
g61
(g82
g63
NtRp617
(dp618
g66
(dp619
g86
g87
ssg75
g613
sg68
(lp620
g435
asbag61
(g82
g63
NtRp621
(dp622
g66
(dp623
g93
g94
ssg75
g613
sg68
(lp624
S':'
asbag61
(g82
g63
NtRp625
(dp626
g66
(dp627
sg75
g613
sg68
(lp628
g61
(g62
g63
NtRp629
(dp630
g66
(dp631
g74
I3
ssg75
g625
sg68
(lp632
S''
asbasbasbasbasbasbasbag61
(g77
g63
NtRp633
(dp634
g66
(dp635
sg75
g251
sg68
(lp636
g61
(g82
g63
NtRp637
(dp638
g66
(dp639
g86
g87
ssg75
g633
sg68
(lp640
S'session_id_welcome'
p641
asbag61
(g82
g63
NtRp642
(dp643
g66
(dp644
g93
g94
ssg75
g633
sg68
(lp645
S':'
asbag61
(g82
g63
NtRp646
(dp647
g66
(dp648
sg75
g633
sg68
(lp649
g61
(g62
g63
NtRp650
(dp651
g66
(dp652
g74
I4
ssg75
g646
sg68
(lp653
g61
(g70
g63
NtRp654
(dp655
g66
(dp656
g74
I3
ssg75
Nsg68
(lp657
g61
(g77
g63
NtRp658
(dp659
g66
(dp660
sg75
g654
sg68
(lp661
g61
(g82
g63
NtRp662
(dp663
g66
(dp664
g86
g87
ssg75
g658
sg68
(lp665
g288
asbag61
(g82
g63
NtRp666
(dp667
g66
(dp668
g93
g94
ssg75
g658
sg68
(lp669
S':'
asbag61
(g82
g63
NtRp670
(dp671
g66
(dp672
sg75
g658
sg68
(lp673
g61
(g62
g63
NtRp674
(dp675
g66
(dp676
g74
I3
ssg75
g670
sg68
(lp677
S''
asbasbasbag61
(g77
g63
NtRp678
(dp679
g66
(dp680
sg75
g654
sg68
(lp681
g61
(g82
g63
NtRp682
(dp683
g66
(dp684
g86
g87
ssg75
g678
sg68
(lp685
g309
asbag61
(g82
g63
NtRp686
(dp687
g66
(dp688
g93
g94
ssg75
g678
sg68
(lp689
S':'
asbag61
(g82
g63
NtRp690
(dp691
g66
(dp692
sg75
g678
sg68
(lp693
g61
(g62
g63
NtRp694
(dp695
g66
(dp696
g74
I3
ssg75
g690
sg68
(lp697
S''
asbasbasbag61
(g77
g63
NtRp698
(dp699
g66
(dp700
sg75
g654
sg68
(lp701
g61
(g82
g63
NtRp702
(dp703
g66
(dp704
g86
g87
ssg75
g698
sg68
(lp705
g330
asbag61
(g82
g63
NtRp706
(dp707
g66
(dp708
g93
g94
ssg75
g698
sg68
(lp709
S':'
asbag61
(g82
g63
NtRp710
(dp711
g66
(dp712
sg75
g698
sg68
(lp713
g61
(g62
g63
NtRp714
(dp715
g66
(dp716
g74
I3
ssg75
g710
sg68
(lp717
S''
asbasbasbag61
(g77
g63
NtRp718
(dp719
g66
(dp720
sg75
g654
sg68
(lp721
g61
(g82
g63
NtRp722
(dp723
g66
(dp724
g86
g87
ssg75
g718
sg68
(lp725
g351
asbag61
(g82
g63
NtRp726
(dp727
g66
(dp728
g93
g94
ssg75
g718
sg68
(lp729
S':'
asbag61
(g82
g63
NtRp730
(dp731
g66
(dp732
sg75
g718
sg68
(lp733
g61
(g62
g63
NtRp734
(dp735
g66
(dp736
g74
I3
ssg75
g730
sg68
(lp737
S''
asbasbasbag61
(g77
g63
NtRp738
(dp739
g66
(dp740
sg75
g654
sg68
(lp741
g61
(g82
g63
NtRp742
(dp743
g66
(dp744
g86
g87
ssg75
g738
sg68
(lp745
g372
asbag61
(g82
g63
NtRp746
(dp747
g66
(dp748
g93
g94
ssg75
g738
sg68
(lp749
S':'
asbag61
(g82
g63
NtRp750
(dp751
g66
(dp752
sg75
g738
sg68
(lp753
g61
(g62
g63
NtRp754
(dp755
g66
(dp756
g74
I3
ssg75
g750
sg68
(lp757
S''
asbasbasbag61
(g77
g63
NtRp758
(dp759
g66
(dp760
sg75
g654
sg68
(lp761
g61
(g82
g63
NtRp762
(dp763
g66
(dp764
g86
g87
ssg75
g758
sg68
(lp765
g393
asbag61
(g82
g63
NtRp766
(dp767
g66
(dp768
g93
g94
ssg75
g758
sg68
(lp769
S':'
asbag61
(g82
g63
NtRp770
(dp771
g66
(dp772
sg75
g758
sg68
(lp773
g61
(g62
g63
NtRp774
(dp775
g66
(dp776
g74
I3
ssg75
g770
sg68
(lp777
S''
asbasbasbag61
(g77
g63
NtRp778
(dp779
g66
(dp780
sg75
g654
sg68
(lp781
g61
(g82
g63
NtRp782
(dp783
g66
(dp784
g86
g87
ssg75
g778
sg68
(lp785
g414
asbag61
(g82
g63
NtRp786
(dp787
g66
(dp788
g93
g94
ssg75
g778
sg68
(lp789
S':'
asbag61
(g82
g63
NtRp790
(dp791
g66
(dp792
sg75
g778
sg68
(lp793
g61
(g62
g63
NtRp794
(dp795
g66
(dp796
g74
I3
ssg75
g790
sg68
(lp797
S''
asbasbasbag61
(g77
g63
NtRp798
(dp799
g66
(dp800
sg75
g654
sg68
(lp801
g61
(g82
g63
NtRp802
(dp803
g66
(dp804
g86
g87
ssg75
g798
sg68
(lp805
g435
asbag61
(g82
g63
NtRp806
(dp807
g66
(dp808
g93
g94
ssg75
g798
sg68
(lp809
S':'
asbag61
(g82
g63
NtRp810
(dp811
g66
(dp812
sg75
g798
sg68
(lp813
g61
(g62
g63
NtRp814
(dp815
g66
(dp816
g74
I3
ssg75
g810
sg68
(lp817
S''
asbasbasbasbasbasbasbasbasbasbasbag61
(g77
g63
NtRp818
(dp819
g66
(dp820
sg75
g71
sg68
(lp821
g61
(g82
g63
NtRp822
(dp823
g66
(dp824
g86
g87
ssg75
g818
sg68
(lp825
S'env'
p826
asbag61
(g82
g63
NtRp827
(dp828
g66
(dp829
g93
g94
ssg75
g818
sg68
(lp830
S':'
asbag61
(g82
g63
NtRp831
(dp832
g66
(dp833
sg75
g818
sg68
(lp834
g61
(g62
g63
NtRp835
(dp836
g66
(dp837
g74
I5
ssg75
g831
sg68
(lp838
g61
(g70
g63
NtRp839
(dp840
g66
(dp841
g74
I4
ssg75
Nsg68
(lp842
g61
(g77
g63
NtRp843
(dp844
g66
(dp845
sg75
g839
sg68
(lp846
g61
(g82
g63
NtRp847
(dp848
g66
(dp849
g86
g87
ssg75
g843
sg68
(lp850
S'app_folders'
p851
asbag61
(g82
g63
NtRp852
(dp853
g66
(dp854
g93
g94
ssg75
g843
sg68
(lp855
S':'
asbag61
(g82
g63
NtRp856
(dp857
g66
(dp858
sg75
g843
sg68
(lp859
g61
(g62
g63
NtRp860
(dp861
g66
(dp862
g74
I4
ssg75
g856
sg68
(lp863
S"set(['C:\\\\Users\\\\mellinja\\\\Documents\\\\SC2Tracker\\\\SC2TourneyTracker\\\\web2py\\\\applications\\\\welcome\\\\', 'C:\\\\Users\\\\mellinja\\\\Documents\\\\SC2Tracker\\\\SC2TourneyTracker\\\\web2py\\\\applications\\\\admin\\\\', 'C:\\\\Users\\\\mellinja\\\\Documents\\\\SC2Tracker\\\\SC2TourneyTracker\\\\web2py\\\\applications\\\\examples\\\\'])"
p864
asbasbasbag61
(g77
g63
NtRp865
(dp866
g66
(dp867
sg75
g839
sg68
(lp868
g61
(g82
g63
NtRp869
(dp870
g66
(dp871
g86
g87
ssg75
g865
sg68
(lp872
S'applications_parent'
p873
asbag61
(g82
g63
NtRp874
(dp875
g66
(dp876
g93
g94
ssg75
g865
sg68
(lp877
S':'
asbag61
(g82
g63
NtRp878
(dp879
g66
(dp880
sg75
g865
sg68
(lp881
g61
(g62
g63
NtRp882
(dp883
g66
(dp884
g74
I4
ssg75
g878
sg68
(lp885
S'C:\\Users\\mellinja\\Documents\\SC2Tracker\\SC2TourneyTracker\\web2py'
p886
asbasbasbag61
(g77
g63
NtRp887
(dp888
g66
(dp889
sg75
g839
sg68
(lp890
g61
(g82
g63
NtRp891
(dp892
g66
(dp893
g86
g87
ssg75
g887
sg68
(lp894
S'cmd_args'
p895
asbag61
(g82
g63
NtRp896
(dp897
g66
(dp898
g93
g94
ssg75
g887
sg68
(lp899
S':'
asbag61
(g82
g63
NtRp900
(dp901
g66
(dp902
sg75
g887
sg68
(lp903
g61
(g62
g63
NtRp904
(dp905
g66
(dp906
g74
I4
ssg75
g900
sg68
(lp907
g61
(g70
g63
NtRp908
(dp909
g66
(dp910
g74
I3
ssg75
Nsg68
(lp911
sbasbasbasbag61
(g77
g63
NtRp912
(dp913
g66
(dp914
sg75
g839
sg68
(lp915
g61
(g82
g63
NtRp916
(dp917
g66
(dp918
g86
g87
ssg75
g912
sg68
(lp919
S'cmd_options'
p920
asbag61
(g82
g63
NtRp921
(dp922
g66
(dp923
g93
g94
ssg75
g912
sg68
(lp924
S':'
asbag61
(g82
g63
NtRp925
(dp926
g66
(dp927
sg75
g912
sg68
(lp928
g61
(g62
g63
NtRp929
(dp930
g66
(dp931
g74
I4
ssg75
g925
sg68
(lp932
S"<Values at 0x35ed5c8: {'verbose': False, 'ip': '127.0.0.1', 'shutdown_timeout': 5, 'taskbar': False, 'nocron': False, 'pid_filename': 'httpserver.pid', 'maxthreads': None, 'softcron': False, 'server_name': 'mellinja-PC', 'bpython': False, 'nogui': False, 'port': 8000, 'extcron': False, 'debuglevel': 30, 'test': None, 'folder': 'C:\\\\Users\\\\mellinja\\\\Documents\\\\SC2Tracker\\\\SC2TourneyTracker\\\\web2py', 'config': '', 'import_models': False, 'winservice': '', 'shell': None, 'run': '', 'log_filename': 'httpserver.log', 'args': [''], 'socket_timeout': 1, 'ssl_ca_certificate': None, 'scheduler': None, 'profiler_filename': None, 'ssl_private_key': '', 'password': '<ask>', 'request_queue_size': 5, 'ssl_certificate': '', 'cronjob': False, 'numthreads': None, 'quiet': False, 'interfaces': None, 'minthreads': None, 'timeout': 10, 'plain': False, 'nobanner': False}>"
p933
asbasbasbag61
(g77
g63
NtRp934
(dp935
g66
(dp936
sg75
g839
sg68
(lp937
g61
(g82
g63
NtRp938
(dp939
g66
(dp940
g86
g87
ssg75
g934
sg68
(lp941
S'db_sessions'
p942
asbag61
(g82
g63
NtRp943
(dp944
g66
(dp945
g93
g94
ssg75
g934
sg68
(lp946
S':'
asbag61
(g82
g63
NtRp947
(dp948
g66
(dp949
sg75
g934
sg68
(lp950
g61
(g62
g63
NtRp951
(dp952
g66
(dp953
g74
I4
ssg75
g947
sg68
(lp954
S'set([])'
p955
asbasbasbag61
(g77
g63
NtRp956
(dp957
g66
(dp958
sg75
g839
sg68
(lp959
g61
(g82
g63
NtRp960
(dp961
g66
(dp962
g86
g87
ssg75
g956
sg68
(lp963
S'debugging'
p964
asbag61
(g82
g63
NtRp965
(dp966
g66
(dp967
g93
g94
ssg75
g956
sg68
(lp968
S':'
asbag61
(g82
g63
NtRp969
(dp970
g66
(dp971
sg75
g956
sg68
(lp972
g61
(g62
g63
NtRp973
(dp974
g66
(dp975
g74
I4
ssg75
g969
sg68
(lp976
g104
asbasbasbag61
(g77
g63
NtRp977
(dp978
g66
(dp979
sg75
g839
sg68
(lp980
g61
(g82
g63
NtRp981
(dp982
g66
(dp983
g86
g87
ssg75
g977
sg68
(lp984
S'gluon_parent'
p985
asbag61
(g82
g63
NtRp986
(dp987
g66
(dp988
g93
g94
ssg75
g977
sg68
(lp989
S':'
asbag61
(g82
g63
NtRp990
(dp991
g66
(dp992
sg75
g977
sg68
(lp993
g61
(g62
g63
NtRp994
(dp995
g66
(dp996
g74
I4
ssg75
g990
sg68
(lp997
S'C:\\Users\\mellinja\\Documents\\SC2Tracker\\SC2TourneyTracker\\web2py'
p998
asbasbasbag61
(g77
g63
NtRp999
(dp1000
g66
(dp1001
sg75
g839
sg68
(lp1002
g61
(g82
g63
NtRp1003
(dp1004
g66
(dp1005
g86
g87
ssg75
g999
sg68
(lp1006
S'http_accept'
p1007
asbag61
(g82
g63
NtRp1008
(dp1009
g66
(dp1010
g93
g94
ssg75
g999
sg68
(lp1011
S':'
asbag61
(g82
g63
NtRp1012
(dp1013
g66
(dp1014
sg75
g999
sg68
(lp1015
g61
(g62
g63
NtRp1016
(dp1017
g66
(dp1018
g74
I4
ssg75
g1012
sg68
(lp1019
S'text/html,application/xhtml+xml,application/xml;q=0.9,*/*;q=0.8'
p1020
asbasbasbag61
(g77
g63
NtRp1021
(dp1022
g66
(dp1023
sg75
g839
sg68
(lp1024
g61
(g82
g63
NtRp1025
(dp1026
g66
(dp1027
g86
g87
ssg75
g1021
sg68
(lp1028
S'http_accept_charset'
p1029
asbag61
(g82
g63
NtRp1030
(dp1031
g66
(dp1032
g93
g94
ssg75
g1021
sg68
(lp1033
S':'
asbag61
(g82
g63
NtRp1034
(dp1035
g66
(dp1036
sg75
g1021
sg68
(lp1037
g61
(g62
g63
NtRp1038
(dp1039
g66
(dp1040
g74
I4
ssg75
g1034
sg68
(lp1041
S'ISO-8859-1,utf-8;q=0.7,*;q=0.3'
p1042
asbasbasbag61
(g77
g63
NtRp1043
(dp1044
g66
(dp1045
sg75
g839
sg68
(lp1046
g61
(g82
g63
NtRp1047
(dp1048
g66
(dp1049
g86
g87
ssg75
g1043
sg68
(lp1050
S'http_accept_encoding'
p1051
asbag61
(g82
g63
NtRp1052
(dp1053
g66
(dp1054
g93
g94
ssg75
g1043
sg68
(lp1055
S':'
asbag61
(g82
g63
NtRp1056
(dp1057
g66
(dp1058
sg75
g1043
sg68
(lp1059
g61
(g62
g63
NtRp1060
(dp1061
g66
(dp1062
g74
I4
ssg75
g1056
sg68
(lp1063
S'gzip,deflate,sdch'
p1064
asbasbasbag61
(g77
g63
NtRp1065
(dp1066
g66
(dp1067
sg75
g839
sg68
(lp1068
g61
(g82
g63
NtRp1069
(dp1070
g66
(dp1071
g86
g87
ssg75
g1065
sg68
(lp1072
S'http_accept_language'
p1073
asbag61
(g82
g63
NtRp1074
(dp1075
g66
(dp1076
g93
g94
ssg75
g1065
sg68
(lp1077
S':'
asbag61
(g82
g63
NtRp1078
(dp1079
g66
(dp1080
sg75
g1065
sg68
(lp1081
g61
(g62
g63
NtRp1082
(dp1083
g66
(dp1084
g74
I4
ssg75
g1078
sg68
(lp1085
S'en-US,en;q=0.8'
p1086
asbasbasbag61
(g77
g63
NtRp1087
(dp1088
g66
(dp1089
sg75
g839
sg68
(lp1090
g61
(g82
g63
NtRp1091
(dp1092
g66
(dp1093
g86
g87
ssg75
g1087
sg68
(lp1094
S'http_connection'
p1095
asbag61
(g82
g63
NtRp1096
(dp1097
g66
(dp1098
g93
g94
ssg75
g1087
sg68
(lp1099
S':'
asbag61
(g82
g63
NtRp1100
(dp1101
g66
(dp1102
sg75
g1087
sg68
(lp1103
g61
(g62
g63
NtRp1104
(dp1105
g66
(dp1106
g74
I4
ssg75
g1100
sg68
(lp1107
S'keep-alive'
p1108
asbasbasbag61
(g77
g63
NtRp1109
(dp1110
g66
(dp1111
sg75
g839
sg68
(lp1112
g61
(g82
g63
NtRp1113
(dp1114
g66
(dp1115
g86
g87
ssg75
g1109
sg68
(lp1116
S'http_cookie'
p1117
asbag61
(g82
g63
NtRp1118
(dp1119
g66
(dp1120
g93
g94
ssg75
g1109
sg68
(lp1121
S':'
asbag61
(g82
g63
NtRp1122
(dp1123
g66
(dp1124
sg75
g1109
sg68
(lp1125
g61
(g62
g63
NtRp1126
(dp1127
g66
(dp1128
g74
I4
ssg75
g1122
sg68
(lp1129
S'session_id_examples=127.0.0.1-9e881dcd-95ac-4a4e-bf37-4ac0954cf6e0; session_id_admin=127.0.0.1-d85497cf-ea1f-4eff-b6f9-b725bf1f6ac9; session_id_welcome=127.0.0.1-5b61f96d-52a5-4e52-805f-552fe78bcf40'
p1130
asbasbasbag61
(g77
g63
NtRp1131
(dp1132
g66
(dp1133
sg75
g839
sg68
(lp1134
g61
(g82
g63
NtRp1135
(dp1136
g66
(dp1137
g86
g87
ssg75
g1131
sg68
(lp1138
S'http_host'
p1139
asbag61
(g82
g63
NtRp1140
(dp1141
g66
(dp1142
g93
g94
ssg75
g1131
sg68
(lp1143
S':'
asbag61
(g82
g63
NtRp1144
(dp1145
g66
(dp1146
sg75
g1131
sg68
(lp1147
g61
(g62
g63
NtRp1148
(dp1149
g66
(dp1150
g74
I4
ssg75
g1144
sg68
(lp1151
S'127.0.0.1:8000'
p1152
asbasbasbag61
(g77
g63
NtRp1153
(dp1154
g66
(dp1155
sg75
g839
sg68
(lp1156
g61
(g82
g63
NtRp1157
(dp1158
g66
(dp1159
g86
g87
ssg75
g1153
sg68
(lp1160
S'http_user_agent'
p1161
asbag61
(g82
g63
NtRp1162
(dp1163
g66
(dp1164
g93
g94
ssg75
g1153
sg68
(lp1165
S':'
asbag61
(g82
g63
NtRp1166
(dp1167
g66
(dp1168
sg75
g1153
sg68
(lp1169
g61
(g62
g63
NtRp1170
(dp1171
g66
(dp1172
g74
I4
ssg75
g1166
sg68
(lp1173
S'Mozilla/5.0 (Windows NT 6.1; WOW64) AppleWebKit/535.7 (KHTML, like Gecko) Chrome/16.0.912.77 Safari/535.7'
p1174
asbasbasbag61
(g77
g63
NtRp1175
(dp1176
g66
(dp1177
sg75
g839
sg68
(lp1178
g61
(g82
g63
NtRp1179
(dp1180
g66
(dp1181
g86
g87
ssg75
g1175
sg68
(lp1182
S'is_jython'
p1183
asbag61
(g82
g63
NtRp1184
(dp1185
g66
(dp1186
g93
g94
ssg75
g1175
sg68
(lp1187
S':'
asbag61
(g82
g63
NtRp1188
(dp1189
g66
(dp1190
sg75
g1175
sg68
(lp1191
g61
(g62
g63
NtRp1192
(dp1193
g66
(dp1194
g74
I4
ssg75
g1188
sg68
(lp1195
g104
asbasbasbag61
(g77
g63
NtRp1196
(dp1197
g66
(dp1198
sg75
g839
sg68
(lp1199
g61
(g82
g63
NtRp1200
(dp1201
g66
(dp1202
g86
g87
ssg75
g1196
sg68
(lp1203
S'is_pypy'
p1204
asbag61
(g82
g63
NtRp1205
(dp1206
g66
(dp1207
g93
g94
ssg75
g1196
sg68
(lp1208
S':'
asbag61
(g82
g63
NtRp1209
(dp1210
g66
(dp1211
sg75
g1196
sg68
(lp1212
g61
(g62
g63
NtRp1213
(dp1214
g66
(dp1215
g74
I4
ssg75
g1209
sg68
(lp1216
g104
asbasbasbag61
(g77
g63
NtRp1217
(dp1218
g66
(dp1219
sg75
g839
sg68
(lp1220
g61
(g82
g63
NtRp1221
(dp1222
g66
(dp1223
g86
g87
ssg75
g1217
sg68
(lp1224
S'path_info'
p1225
asbag61
(g82
g63
NtRp1226
(dp1227
g66
(dp1228
g93
g94
ssg75
g1217
sg68
(lp1229
S':'
asbag61
(g82
g63
NtRp1230
(dp1231
g66
(dp1232
sg75
g1217
sg68
(lp1233
g61
(g62
g63
NtRp1234
(dp1235
g66
(dp1236
g74
I4
ssg75
g1230
sg68
(lp1237
S'/welcome/tournament/show/8 OR 1=1'
p1238
asbasbasbag61
(g77
g63
NtRp1239
(dp1240
g66
(dp1241
sg75
g839
sg68
(lp1242
g61
(g82
g63
NtRp1243
(dp1244
g66
(dp1245
g86
g87
ssg75
g1239
sg68
(lp1246
S'query_string'
p1247
asbag61
(g82
g63
NtRp1248
(dp1249
g66
(dp1250
g93
g94
ssg75
g1239
sg68
(lp1251
S':'
asbag61
(g82
g63
NtRp1252
(dp1253
g66
(dp1254
sg75
g1239
sg68
(lp1255
g61
(g62
g63
NtRp1256
(dp1257
g66
(dp1258
g74
I4
ssg75
g1252
sg68
(lp1259
S''
asbasbasbag61
(g77
g63
NtRp1260
(dp1261
g66
(dp1262
sg75
g839
sg68
(lp1263
g61
(g82
g63
NtRp1264
(dp1265
g66
(dp1266
g86
g87
ssg75
g1260
sg68
(lp1267
S'remote_addr'
p1268
asbag61
(g82
g63
NtRp1269
(dp1270
g66
(dp1271
g93
g94
ssg75
g1260
sg68
(lp1272
S':'
asbag61
(g82
g63
NtRp1273
(dp1274
g66
(dp1275
sg75
g1260
sg68
(lp1276
g61
(g62
g63
NtRp1277
(dp1278
g66
(dp1279
g74
I4
ssg75
g1273
sg68
(lp1280
g207
asbasbasbag61
(g77
g63
NtRp1281
(dp1282
g66
(dp1283
sg75
g839
sg68
(lp1284
g61
(g82
g63
NtRp1285
(dp1286
g66
(dp1287
g86
g87
ssg75
g1281
sg68
(lp1288
S'remote_port'
p1289
asbag61
(g82
g63
NtRp1290
(dp1291
g66
(dp1292
g93
g94
ssg75
g1281
sg68
(lp1293
S':'
asbag61
(g82
g63
NtRp1294
(dp1295
g66
(dp1296
sg75
g1281
sg68
(lp1297
g61
(g62
g63
NtRp1298
(dp1299
g66
(dp1300
g74
I4
ssg75
g1294
sg68
(lp1301
S'54797'
p1302
asbasbasbag61
(g77
g63
NtRp1303
(dp1304
g66
(dp1305
sg75
g839
sg68
(lp1306
g61
(g82
g63
NtRp1307
(dp1308
g66
(dp1309
g86
g87
ssg75
g1303
sg68
(lp1310
S'request_method'
p1311
asbag61
(g82
g63
NtRp1312
(dp1313
g66
(dp1314
g93
g94
ssg75
g1303
sg68
(lp1315
S':'
asbag61
(g82
g63
NtRp1316
(dp1317
g66
(dp1318
sg75
g1303
sg68
(lp1319
g61
(g62
g63
NtRp1320
(dp1321
g66
(dp1322
g74
I4
ssg75
g1316
sg68
(lp1323
S'GET'
p1324
asbasbasbag61
(g77
g63
NtRp1325
(dp1326
g66
(dp1327
sg75
g839
sg68
(lp1328
g61
(g82
g63
NtRp1329
(dp1330
g66
(dp1331
g86
g87
ssg75
g1325
sg68
(lp1332
S'script_name'
p1333
asbag61
(g82
g63
NtRp1334
(dp1335
g66
(dp1336
g93
g94
ssg75
g1325
sg68
(lp1337
S':'
asbag61
(g82
g63
NtRp1338
(dp1339
g66
(dp1340
sg75
g1325
sg68
(lp1341
g61
(g62
g63
NtRp1342
(dp1343
g66
(dp1344
g74
I4
ssg75
g1338
sg68
(lp1345
S''
asbasbasbag61
(g77
g63
NtRp1346
(dp1347
g66
(dp1348
sg75
g839
sg68
(lp1349
g61
(g82
g63
NtRp1350
(dp1351
g66
(dp1352
g86
g87
ssg75
g1346
sg68
(lp1353
S'server_name'
p1354
asbag61
(g82
g63
NtRp1355
(dp1356
g66
(dp1357
g93
g94
ssg75
g1346
sg68
(lp1358
S':'
asbag61
(g82
g63
NtRp1359
(dp1360
g66
(dp1361
sg75
g1346
sg68
(lp1362
g61
(g62
g63
NtRp1363
(dp1364
g66
(dp1365
g74
I4
ssg75
g1359
sg68
(lp1366
S'mellinja-PC'
p1367
asbasbasbag61
(g77
g63
NtRp1368
(dp1369
g66
(dp1370
sg75
g839
sg68
(lp1371
g61
(g82
g63
NtRp1372
(dp1373
g66
(dp1374
g86
g87
ssg75
g1368
sg68
(lp1375
S'server_port'
p1376
asbag61
(g82
g63
NtRp1377
(dp1378
g66
(dp1379
g93
g94
ssg75
g1368
sg68
(lp1380
S':'
asbag61
(g82
g63
NtRp1381
(dp1382
g66
(dp1383
sg75
g1368
sg68
(lp1384
g61
(g62
g63
NtRp1385
(dp1386
g66
(dp1387
g74
I4
ssg75
g1381
sg68
(lp1388
S'8000'
p1389
asbasbasbag61
(g77
g63
NtRp1390
(dp1391
g66
(dp1392
sg75
g839
sg68
(lp1393
g61
(g82
g63
NtRp1394
(dp1395
g66
(dp1396
g86
g87
ssg75
g1390
sg68
(lp1397
S'server_protocol'
p1398
asbag61
(g82
g63
NtRp1399
(dp1400
g66
(dp1401
g93
g94
ssg75
g1390
sg68
(lp1402
S':'
asbag61
(g82
g63
NtRp1403
(dp1404
g66
(dp1405
sg75
g1390
sg68
(lp1406
g61
(g62
g63
NtRp1407
(dp1408
g66
(dp1409
g74
I4
ssg75
g1403
sg68
(lp1410
S'HTTP/1.1'
p1411
asbasbasbag61
(g77
g63
NtRp1412
(dp1413
g66
(dp1414
sg75
g839
sg68
(lp1415
g61
(g82
g63
NtRp1416
(dp1417
g66
(dp1418
g86
g87
ssg75
g1412
sg68
(lp1419
S'server_software'
p1420
asbag61
(g82
g63
NtRp1421
(dp1422
g66
(dp1423
g93
g94
ssg75
g1412
sg68
(lp1424
S':'
asbag61
(g82
g63
NtRp1425
(dp1426
g66
(dp1427
sg75
g1412
sg68
(lp1428
g61
(g62
g63
NtRp1429
(dp1430
g66
(dp1431
g74
I4
ssg75
g1425
sg68
(lp1432
S'Rocket 1.2.4'
p1433
asbasbasbag61
(g77
g63
NtRp1434
(dp1435
g66
(dp1436
sg75
g839
sg68
(lp1437
g61
(g82
g63
NtRp1438
(dp1439
g66
(dp1440
g86
g87
ssg75
g1434
sg68
(lp1441
S'web2py_crontype'
p1442
asbag61
(g82
g63
NtRp1443
(dp1444
g66
(dp1445
g93
g94
ssg75
g1434
sg68
(lp1446
S':'
asbag61
(g82
g63
NtRp1447
(dp1448
g66
(dp1449
sg75
g1434
sg68
(lp1450
g61
(g62
g63
NtRp1451
(dp1452
g66
(dp1453
g74
I4
ssg75
g1447
sg68
(lp1454
S'hard'
p1455
asbasbasbag61
(g77
g63
NtRp1456
(dp1457
g66
(dp1458
sg75
g839
sg68
(lp1459
g61
(g82
g63
NtRp1460
(dp1461
g66
(dp1462
g86
g87
ssg75
g1456
sg68
(lp1463
S'web2py_path'
p1464
asbag61
(g82
g63
NtRp1465
(dp1466
g66
(dp1467
g93
g94
ssg75
g1456
sg68
(lp1468
S':'
asbag61
(g82
g63
NtRp1469
(dp1470
g66
(dp1471
sg75
g1456
sg68
(lp1472
g61
(g62
g63
NtRp1473
(dp1474
g66
(dp1475
g74
I4
ssg75
g1469
sg68
(lp1476
g886
asbasbasbag61
(g77
g63
NtRp1477
(dp1478
g66
(dp1479
sg75
g839
sg68
(lp1480
g61
(g82
g63
NtRp1481
(dp1482
g66
(dp1483
g86
g87
ssg75
g1477
sg68
(lp1484
S'web2py_version'
p1485
asbag61
(g82
g63
NtRp1486
(dp1487
g66
(dp1488
g93
g94
ssg75
g1477
sg68
(lp1489
S':'
asbag61
(g82
g63
NtRp1490
(dp1491
g66
(dp1492
sg75
g1477
sg68
(lp1493
g61
(g62
g63
NtRp1494
(dp1495
g66
(dp1496
g74
I4
ssg75
g1490
sg68
(lp1497
g61
(g70
g63
NtRp1498
(dp1499
g66
(dp1500
g74
I3
ssg75
Nsg68
(lp1501
g61
(g77
g63
NtRp1502
(dp1503
g66
(dp1504
sg75
g1498
sg68
(lp1505
g61
(g82
g63
NtRp1506
(dp1507
g66
(dp1508
sg75
g1502
sg68
(lp1509
g61
(g62
g63
NtRp1510
(dp1511
g66
(dp1512
g74
I3
ssg75
g1506
sg68
(lp1513
S'1'
asbasbasbag61
(g77
g63
NtRp1514
(dp1515
g66
(dp1516
sg75
g1498
sg68
(lp1517
g61
(g82
g63
NtRp1518
(dp1519
g66
(dp1520
sg75
g1514
sg68
(lp1521
g61
(g62
g63
NtRp1522
(dp1523
g66
(dp1524
g74
I3
ssg75
g1518
sg68
(lp1525
S'99'
p1526
asbasbasbag61
(g77
g63
NtRp1527
(dp1528
g66
(dp1529
sg75
g1498
sg68
(lp1530
g61
(g82
g63
NtRp1531
(dp1532
g66
(dp1533
sg75
g1527
sg68
(lp1534
g61
(g62
g63
NtRp1535
(dp1536
g66
(dp1537
g74
I3
ssg75
g1531
sg68
(lp1538
S'4'
asbasbasbag61
(g77
g63
NtRp1539
(dp1540
g66
(dp1541
sg75
g1498
sg68
(lp1542
g61
(g82
g63
NtRp1543
(dp1544
g66
(dp1545
sg75
g1539
sg68
(lp1546
g61
(g62
g63
NtRp1547
(dp1548
g66
(dp1549
g74
I3
ssg75
g1543
sg68
(lp1550
S'datetime.datetime(2011, 12, 14, 14, 46, 14)'
p1551
asbasbasbag61
(g77
g63
NtRp1552
(dp1553
g66
(dp1554
sg75
g1498
sg68
(lp1555
g61
(g82
g63
NtRp1556
(dp1557
g66
(dp1558
sg75
g1552
sg68
(lp1559
g61
(g62
g63
NtRp1560
(dp1561
g66
(dp1562
g74
I3
ssg75
g1556
sg68
(lp1563
S'stable'
p1564
asbasbasbasbasbasbasbag61
(g77
g63
NtRp1565
(dp1566
g66
(dp1567
sg75
g839
sg68
(lp1568
g61
(g82
g63
NtRp1569
(dp1570
g66
(dp1571
g86
g87
ssg75
g1565
sg68
(lp1572
S'wsgi_errors'
p1573
asbag61
(g82
g63
NtRp1574
(dp1575
g66
(dp1576
g93
g94
ssg75
g1565
sg68
(lp1577
S':'
asbag61
(g82
g63
NtRp1578
(dp1579
g66
(dp1580
sg75
g1565
sg68
(lp1581
g61
(g62
g63
NtRp1582
(dp1583
g66
(dp1584
g74
I4
ssg75
g1578
sg68
(lp1585
S"<open file '<stderr>', mode 'w' at 0x0000000001E261E0>"
p1586
asbasbasbag61
(g77
g63
NtRp1587
(dp1588
g66
(dp1589
sg75
g839
sg68
(lp1590
g61
(g82
g63
NtRp1591
(dp1592
g66
(dp1593
g86
g87
ssg75
g1587
sg68
(lp1594
S'wsgi_file_wrapper'
p1595
asbag61
(g82
g63
NtRp1596
(dp1597
g66
(dp1598
g93
g94
ssg75
g1587
sg68
(lp1599
S':'
asbag61
(g82
g63
NtRp1600
(dp1601
g66
(dp1602
sg75
g1587
sg68
(lp1603
g61
(g62
g63
NtRp1604
(dp1605
g66
(dp1606
g74
I4
ssg75
g1600
sg68
(lp1607
S'<class wsgiref.util.FileWrapper at 0x00000000034DD828>'
p1608
asbasbasbag61
(g77
g63
NtRp1609
(dp1610
g66
(dp1611
sg75
g839
sg68
(lp1612
g61
(g82
g63
NtRp1613
(dp1614
g66
(dp1615
g86
g87
ssg75
g1609
sg68
(lp1616
S'wsgi_input'
p1617
asbag61
(g82
g63
NtRp1618
(dp1619
g66
(dp1620
g93
g94
ssg75
g1609
sg68
(lp1621
S':'
asbag61
(g82
g63
NtRp1622
(dp1623
g66
(dp1624
sg75
g1609
sg68
(lp1625
g61
(g62
g63
NtRp1626
(dp1627
g66
(dp1628
g74
I4
ssg75
g1622
sg68
(lp1629
S'<socket._fileobject object at 0x0000000009540D68>'
p1630
asbasbasbag61
(g77
g63
NtRp1631
(dp1632
g66
(dp1633
sg75
g839
sg68
(lp1634
g61
(g82
g63
NtRp1635
(dp1636
g66
(dp1637
g86
g87
ssg75
g1631
sg68
(lp1638
S'wsgi_multiprocess'
p1639
asbag61
(g82
g63
NtRp1640
(dp1641
g66
(dp1642
g93
g94
ssg75
g1631
sg68
(lp1643
S':'
asbag61
(g82
g63
NtRp1644
(dp1645
g66
(dp1646
sg75
g1631
sg68
(lp1647
g61
(g62
g63
NtRp1648
(dp1649
g66
(dp1650
g74
I4
ssg75
g1644
sg68
(lp1651
g104
asbasbasbag61
(g77
g63
NtRp1652
(dp1653
g66
(dp1654
sg75
g839
sg68
(lp1655
g61
(g82
g63
NtRp1656
(dp1657
g66
(dp1658
g86
g87
ssg75
g1652
sg68
(lp1659
S'wsgi_multithread'
p1660
asbag61
(g82
g63
NtRp1661
(dp1662
g66
(dp1663
g93
g94
ssg75
g1652
sg68
(lp1664
S':'
asbag61
(g82
g63
NtRp1665
(dp1666
g66
(dp1667
sg75
g1652
sg68
(lp1668
g61
(g62
g63
NtRp1669
(dp1670
g66
(dp1671
g74
I4
ssg75
g1665
sg68
(lp1672
S'True'
p1673
asbasbasbag61
(g77
g63
NtRp1674
(dp1675
g66
(dp1676
sg75
g839
sg68
(lp1677
g61
(g82
g63
NtRp1678
(dp1679
g66
(dp1680
g86
g87
ssg75
g1674
sg68
(lp1681
S'wsgi_run_once'
p1682
asbag61
(g82
g63
NtRp1683
(dp1684
g66
(dp1685
g93
g94
ssg75
g1674
sg68
(lp1686
S':'
asbag61
(g82
g63
NtRp1687
(dp1688
g66
(dp1689
sg75
g1674
sg68
(lp1690
g61
(g62
g63
NtRp1691
(dp1692
g66
(dp1693
g74
I4
ssg75
g1687
sg68
(lp1694
g104
asbasbasbag61
(g77
g63
NtRp1695
(dp1696
g66
(dp1697
sg75
g839
sg68
(lp1698
g61
(g82
g63
NtRp1699
(dp1700
g66
(dp1701
g86
g87
ssg75
g1695
sg68
(lp1702
S'wsgi_url_scheme'
p1703
asbag61
(g82
g63
NtRp1704
(dp1705
g66
(dp1706
g93
g94
ssg75
g1695
sg68
(lp1707
S':'
asbag61
(g82
g63
NtRp1708
(dp1709
g66
(dp1710
sg75
g1695
sg68
(lp1711
g61
(g62
g63
NtRp1712
(dp1713
g66
(dp1714
g74
I4
ssg75
g1708
sg68
(lp1715
S'http'
p1716
asbasbasbag61
(g77
g63
NtRp1717
(dp1718
g66
(dp1719
sg75
g839
sg68
(lp1720
g61
(g82
g63
NtRp1721
(dp1722
g66
(dp1723
g86
g87
ssg75
g1717
sg68
(lp1724
S'wsgi_version'
p1725
asbag61
(g82
g63
NtRp1726
(dp1727
g66
(dp1728
g93
g94
ssg75
g1717
sg68
(lp1729
S':'
asbag61
(g82
g63
NtRp1730
(dp1731
g66
(dp1732
sg75
g1717
sg68
(lp1733
g61
(g62
g63
NtRp1734
(dp1735
g66
(dp1736
g74
I4
ssg75
g1730
sg68
(lp1737
g61
(g70
g63
NtRp1738
(dp1739
g66
(dp1740
g74
I3
ssg75
Nsg68
(lp1741
g61
(g77
g63
NtRp1742
(dp1743
g66
(dp1744
sg75
g1738
sg68
(lp1745
g61
(g82
g63
NtRp1746
(dp1747
g66
(dp1748
sg75
g1742
sg68
(lp1749
g61
(g62
g63
NtRp1750
(dp1751
g66
(dp1752
g74
I3
ssg75
g1746
sg68
(lp1753
S'1'
asbasbasbag61
(g77
g63
NtRp1754
(dp1755
g66
(dp1756
sg75
g1738
sg68
(lp1757
g61
(g82
g63
NtRp1758
(dp1759
g66
(dp1760
sg75
g1754
sg68
(lp1761
g61
(g62
g63
NtRp1762
(dp1763
g66
(dp1764
g74
I3
ssg75
g1758
sg68
(lp1765
S'0'
asbasbasbasbasbasbasbasbasbasbasbag61
(g77
g63
NtRp1766
(dp1767
g66
(dp1768
sg75
g71
sg68
(lp1769
g61
(g82
g63
NtRp1770
(dp1771
g66
(dp1772
g86
g87
ssg75
g1766
sg68
(lp1773
S'extension'
p1774
asbag61
(g82
g63
NtRp1775
(dp1776
g66
(dp1777
g93
g94
ssg75
g1766
sg68
(lp1778
S':'
asbag61
(g82
g63
NtRp1779
(dp1780
g66
(dp1781
sg75
g1766
sg68
(lp1782
g61
(g62
g63
NtRp1783
(dp1784
g66
(dp1785
g74
I5
ssg75
g1779
sg68
(lp1786
S'html'
p1787
asbasbasbag61
(g77
g63
NtRp1788
(dp1789
g66
(dp1790
sg75
g71
sg68
(lp1791
g61
(g82
g63
NtRp1792
(dp1793
g66
(dp1794
g86
g87
ssg75
g1788
sg68
(lp1795
S'folder'
p1796
asbag61
(g82
g63
NtRp1797
(dp1798
g66
(dp1799
g93
g94
ssg75
g1788
sg68
(lp1800
S':'
asbag61
(g82
g63
NtRp1801
(dp1802
g66
(dp1803
sg75
g1788
sg68
(lp1804
g61
(g62
g63
NtRp1805
(dp1806
g66
(dp1807
g74
I5
ssg75
g1801
sg68
(lp1808
S'C:\\Users\\mellinja\\Documents\\SC2Tracker\\SC2TourneyTracker\\web2py\\applications\\welcome\\'
p1809
asbasbasbag61
(g77
g63
NtRp1810
(dp1811
g66
(dp1812
sg75
g71
sg68
(lp1813
g61
(g82
g63
NtRp1814
(dp1815
g66
(dp1816
g86
g87
ssg75
g1810
sg68
(lp1817
S'function'
p1818
asbag61
(g82
g63
NtRp1819
(dp1820
g66
(dp1821
g93
g94
ssg75
g1810
sg68
(lp1822
S':'
asbag61
(g82
g63
NtRp1823
(dp1824
g66
(dp1825
sg75
g1810
sg68
(lp1826
g61
(g62
g63
NtRp1827
(dp1828
g66
(dp1829
g74
I5
ssg75
g1823
sg68
(lp1830
S'show'
p1831
asbasbasbag61
(g77
g63
NtRp1832
(dp1833
g66
(dp1834
sg75
g71
sg68
(lp1835
g61
(g82
g63
NtRp1836
(dp1837
g66
(dp1838
g86
g87
ssg75
g1832
sg68
(lp1839
S'get_vars'
p1840
asbag61
(g82
g63
NtRp1841
(dp1842
g66
(dp1843
g93
g94
ssg75
g1832
sg68
(lp1844
S':'
asbag61
(g82
g63
NtRp1845
(dp1846
g66
(dp1847
sg75
g1832
sg68
(lp1848
g61
(g62
g63
NtRp1849
(dp1850
g66
(dp1851
g74
I5
ssg75
g1845
sg68
(lp1852
g61
(g70
g63
NtRp1853
(dp1854
g66
(dp1855
g74
I4
ssg75
Nsg68
(lp1856
sbasbasbasbag61
(g77
g63
NtRp1857
(dp1858
g66
(dp1859
sg75
g71
sg68
(lp1860
g61
(g82
g63
NtRp1861
(dp1862
g66
(dp1863
g86
g87
ssg75
g1857
sg68
(lp1864
S'global_settings'
p1865
asbag61
(g82
g63
NtRp1866
(dp1867
g66
(dp1868
g93
g94
ssg75
g1857
sg68
(lp1869
S':'
asbag61
(g82
g63
NtRp1870
(dp1871
g66
(dp1872
sg75
g1857
sg68
(lp1873
g61
(g62
g63
NtRp1874
(dp1875
g66
(dp1876
g74
I5
ssg75
g1870
sg68
(lp1877
g61
(g70
g63
NtRp1878
(dp1879
g66
(dp1880
g74
I4
ssg75
Nsg68
(lp1881
g61
(g77
g63
NtRp1882
(dp1883
g66
(dp1884
sg75
g1878
sg68
(lp1885
g61
(g82
g63
NtRp1886
(dp1887
g66
(dp1888
g86
g87
ssg75
g1882
sg68
(lp1889
g851
asbag61
(g82
g63
NtRp1890
(dp1891
g66
(dp1892
g93
g94
ssg75
g1882
sg68
(lp1893
S':'
asbag61
(g82
g63
NtRp1894
(dp1895
g66
(dp1896
sg75
g1882
sg68
(lp1897
g61
(g62
g63
NtRp1898
(dp1899
g66
(dp1900
g74
I4
ssg75
g1894
sg68
(lp1901
S"set(['C:\\\\Users\\\\mellinja\\\\Documents\\\\SC2Tracker\\\\SC2TourneyTracker\\\\web2py\\\\applications\\\\welcome\\\\', 'C:\\\\Users\\\\mellinja\\\\Documents\\\\SC2Tracker\\\\SC2TourneyTracker\\\\web2py\\\\applications\\\\admin\\\\', 'C:\\\\Users\\\\mellinja\\\\Documents\\\\SC2Tracker\\\\SC2TourneyTracker\\\\web2py\\\\applications\\\\examples\\\\'])"
p1902
asbasbasbag61
(g77
g63
NtRp1903
(dp1904
g66
(dp1905
sg75
g1878
sg68
(lp1906
g61
(g82
g63
NtRp1907
(dp1908
g66
(dp1909
g86
g87
ssg75
g1903
sg68
(lp1910
g873
asbag61
(g82
g63
NtRp1911
(dp1912
g66
(dp1913
g93
g94
ssg75
g1903
sg68
(lp1914
S':'
asbag61
(g82
g63
NtRp1915
(dp1916
g66
(dp1917
sg75
g1903
sg68
(lp1918
g61
(g62
g63
NtRp1919
(dp1920
g66
(dp1921
g74
I4
ssg75
g1915
sg68
(lp1922
g886
asbasbasbag61
(g77
g63
NtRp1923
(dp1924
g66
(dp1925
sg75
g1878
sg68
(lp1926
g61
(g82
g63
NtRp1927
(dp1928
g66
(dp1929
g86
g87
ssg75
g1923
sg68
(lp1930
g895
asbag61
(g82
g63
NtRp1931
(dp1932
g66
(dp1933
g93
g94
ssg75
g1923
sg68
(lp1934
S':'
asbag61
(g82
g63
NtRp1935
(dp1936
g66
(dp1937
sg75
g1923
sg68
(lp1938
g61
(g62
g63
NtRp1939
(dp1940
g66
(dp1941
g74
I4
ssg75
g1935
sg68
(lp1942
g61
(g70
g63
NtRp1943
(dp1944
g66
(dp1945
g74
I3
ssg75
Nsg68
(lp1946
sbasbasbasbag61
(g77
g63
NtRp1947
(dp1948
g66
(dp1949
sg75
g1878
sg68
(lp1950
g61
(g82
g63
NtRp1951
(dp1952
g66
(dp1953
g86
g87
ssg75
g1947
sg68
(lp1954
g920
asbag61
(g82
g63
NtRp1955
(dp1956
g66
(dp1957
g93
g94
ssg75
g1947
sg68
(lp1958
S':'
asbag61
(g82
g63
NtRp1959
(dp1960
g66
(dp1961
sg75
g1947
sg68
(lp1962
g61
(g62
g63
NtRp1963
(dp1964
g66
(dp1965
g74
I4
ssg75
g1959
sg68
(lp1966
S"<Values at 0x35ed5c8: {'verbose': False, 'ip': '127.0.0.1', 'shutdown_timeout': 5, 'taskbar': False, 'nocron': False, 'pid_filename': 'httpserver.pid', 'maxthreads': None, 'softcron': False, 'server_name': 'mellinja-PC', 'bpython': False, 'nogui': False, 'port': 8000, 'extcron': False, 'debuglevel': 30, 'test': None, 'folder': 'C:\\\\Users\\\\mellinja\\\\Documents\\\\SC2Tracker\\\\SC2TourneyTracker\\\\web2py', 'config': '', 'import_models': False, 'winservice': '', 'shell': None, 'run': '', 'log_filename': 'httpserver.log', 'args': [''], 'socket_timeout': 1, 'ssl_ca_certificate': None, 'scheduler': None, 'profiler_filename': None, 'ssl_private_key': '', 'password': '<ask>', 'request_queue_size': 5, 'ssl_certificate': '', 'cronjob': False, 'numthreads': None, 'quiet': False, 'interfaces': None, 'minthreads': None, 'timeout': 10, 'plain': False, 'nobanner': False}>"
p1967
asbasbasbag61
(g77
g63
NtRp1968
(dp1969
g66
(dp1970
sg75
g1878
sg68
(lp1971
g61
(g82
g63
NtRp1972
(dp1973
g66
(dp1974
g86
g87
ssg75
g1968
sg68
(lp1975
g942
asbag61
(g82
g63
NtRp1976
(dp1977
g66
(dp1978
g93
g94
ssg75
g1968
sg68
(lp1979
S':'
asbag61
(g82
g63
NtRp1980
(dp1981
g66
(dp1982
sg75
g1968
sg68
(lp1983
g61
(g62
g63
NtRp1984
(dp1985
g66
(dp1986
g74
I4
ssg75
g1980
sg68
(lp1987
S'set([])'
p1988
asbasbasbag61
(g77
g63
NtRp1989
(dp1990
g66
(dp1991
sg75
g1878
sg68
(lp1992
g61
(g82
g63
NtRp1993
(dp1994
g66
(dp1995
g86
g87
ssg75
g1989
sg68
(lp1996
g964
asbag61
(g82
g63
NtRp1997
(dp1998
g66
(dp1999
g93
g94
ssg75
g1989
sg68
(lp2000
S':'
asbag61
(g82
g63
NtRp2001
(dp2002
g66
(dp2003
sg75
g1989
sg68
(lp2004
g61
(g62
g63
NtRp2005
(dp2006
g66
(dp2007
g74
I4
ssg75
g2001
sg68
(lp2008
g104
asbasbasbag61
(g77
g63
NtRp2009
(dp2010
g66
(dp2011
sg75
g1878
sg68
(lp2012
g61
(g82
g63
NtRp2013
(dp2014
g66
(dp2015
g86
g87
ssg75
g2009
sg68
(lp2016
g985
asbag61
(g82
g63
NtRp2017
(dp2018
g66
(dp2019
g93
g94
ssg75
g2009
sg68
(lp2020
S':'
asbag61
(g82
g63
NtRp2021
(dp2022
g66
(dp2023
sg75
g2009
sg68
(lp2024
g61
(g62
g63
NtRp2025
(dp2026
g66
(dp2027
g74
I4
ssg75
g2021
sg68
(lp2028
g998
asbasbasbag61
(g77
g63
NtRp2029
(dp2030
g66
(dp2031
sg75
g1878
sg68
(lp2032
g61
(g82
g63
NtRp2033
(dp2034
g66
(dp2035
g86
g87
ssg75
g2029
sg68
(lp2036
g1183
asbag61
(g82
g63
NtRp2037
(dp2038
g66
(dp2039
g93
g94
ssg75
g2029
sg68
(lp2040
S':'
asbag61
(g82
g63
NtRp2041
(dp2042
g66
(dp2043
sg75
g2029
sg68
(lp2044
g61
(g62
g63
NtRp2045
(dp2046
g66
(dp2047
g74
I4
ssg75
g2041
sg68
(lp2048
g104
asbasbasbag61
(g77
g63
NtRp2049
(dp2050
g66
(dp2051
sg75
g1878
sg68
(lp2052
g61
(g82
g63
NtRp2053
(dp2054
g66
(dp2055
g86
g87
ssg75
g2049
sg68
(lp2056
g1204
asbag61
(g82
g63
NtRp2057
(dp2058
g66
(dp2059
g93
g94
ssg75
g2049
sg68
(lp2060
S':'
asbag61
(g82
g63
NtRp2061
(dp2062
g66
(dp2063
sg75
g2049
sg68
(lp2064
g61
(g62
g63
NtRp2065
(dp2066
g66
(dp2067
g74
I4
ssg75
g2061
sg68
(lp2068
g104
asbasbasbag61
(g77
g63
NtRp2069
(dp2070
g66
(dp2071
sg75
g1878
sg68
(lp2072
g61
(g82
g63
NtRp2073
(dp2074
g66
(dp2075
g86
g87
ssg75
g2069
sg68
(lp2076
g1442
asbag61
(g82
g63
NtRp2077
(dp2078
g66
(dp2079
g93
g94
ssg75
g2069
sg68
(lp2080
S':'
asbag61
(g82
g63
NtRp2081
(dp2082
g66
(dp2083
sg75
g2069
sg68
(lp2084
g61
(g62
g63
NtRp2085
(dp2086
g66
(dp2087
g74
I4
ssg75
g2081
sg68
(lp2088
g1455
asbasbasbag61
(g77
g63
NtRp2089
(dp2090
g66
(dp2091
sg75
g1878
sg68
(lp2092
g61
(g82
g63
NtRp2093
(dp2094
g66
(dp2095
g86
g87
ssg75
g2089
sg68
(lp2096
g1485
asbag61
(g82
g63
NtRp2097
(dp2098
g66
(dp2099
g93
g94
ssg75
g2089
sg68
(lp2100
S':'
asbag61
(g82
g63
NtRp2101
(dp2102
g66
(dp2103
sg75
g2089
sg68
(lp2104
g61
(g62
g63
NtRp2105
(dp2106
g66
(dp2107
g74
I4
ssg75
g2101
sg68
(lp2108
g61
(g70
g63
NtRp2109
(dp2110
g66
(dp2111
g74
I3
ssg75
Nsg68
(lp2112
g61
(g77
g63
NtRp2113
(dp2114
g66
(dp2115
sg75
g2109
sg68
(lp2116
g61
(g82
g63
NtRp2117
(dp2118
g66
(dp2119
sg75
g2113
sg68
(lp2120
g61
(g62
g63
NtRp2121
(dp2122
g66
(dp2123
g74
I3
ssg75
g2117
sg68
(lp2124
S'1'
asbasbasbag61
(g77
g63
NtRp2125
(dp2126
g66
(dp2127
sg75
g2109
sg68
(lp2128
g61
(g82
g63
NtRp2129
(dp2130
g66
(dp2131
sg75
g2125
sg68
(lp2132
g61
(g62
g63
NtRp2133
(dp2134
g66
(dp2135
g74
I3
ssg75
g2129
sg68
(lp2136
S'99'
p2137
asbasbasbag61
(g77
g63
NtRp2138
(dp2139
g66
(dp2140
sg75
g2109
sg68
(lp2141
g61
(g82
g63
NtRp2142
(dp2143
g66
(dp2144
sg75
g2138
sg68
(lp2145
g61
(g62
g63
NtRp2146
(dp2147
g66
(dp2148
g74
I3
ssg75
g2142
sg68
(lp2149
S'4'
asbasbasbag61
(g77
g63
NtRp2150
(dp2151
g66
(dp2152
sg75
g2109
sg68
(lp2153
g61
(g82
g63
NtRp2154
(dp2155
g66
(dp2156
sg75
g2150
sg68
(lp2157
g61
(g62
g63
NtRp2158
(dp2159
g66
(dp2160
g74
I3
ssg75
g2154
sg68
(lp2161
S'datetime.datetime(2011, 12, 14, 14, 46, 14)'
p2162
asbasbasbag61
(g77
g63
NtRp2163
(dp2164
g66
(dp2165
sg75
g2109
sg68
(lp2166
g61
(g82
g63
NtRp2167
(dp2168
g66
(dp2169
sg75
g2163
sg68
(lp2170
g61
(g62
g63
NtRp2171
(dp2172
g66
(dp2173
g74
I3
ssg75
g2167
sg68
(lp2174
g1564
asbasbasbasbasbasbasbasbasbasbasbag61
(g77
g63
NtRp2175
(dp2176
g66
(dp2177
sg75
g71
sg68
(lp2178
g61
(g82
g63
NtRp2179
(dp2180
g66
(dp2181
g86
g87
ssg75
g2175
sg68
(lp2182
S'is_https'
p2183
asbag61
(g82
g63
NtRp2184
(dp2185
g66
(dp2186
g93
g94
ssg75
g2175
sg68
(lp2187
S':'
asbag61
(g82
g63
NtRp2188
(dp2189
g66
(dp2190
sg75
g2175
sg68
(lp2191
g61
(g62
g63
NtRp2192
(dp2193
g66
(dp2194
g74
I5
ssg75
g2188
sg68
(lp2195
g104
asbasbasbag61
(g77
g63
NtRp2196
(dp2197
g66
(dp2198
sg75
g71
sg68
(lp2199
g61
(g82
g63
NtRp2200
(dp2201
g66
(dp2202
g86
g87
ssg75
g2196
sg68
(lp2203
S'is_local'
p2204
asbag61
(g82
g63
NtRp2205
(dp2206
g66
(dp2207
g93
g94
ssg75
g2196
sg68
(lp2208
S':'
asbag61
(g82
g63
NtRp2209
(dp2210
g66
(dp2211
sg75
g2196
sg68
(lp2212
g61
(g62
g63
NtRp2213
(dp2214
g66
(dp2215
g74
I5
ssg75
g2209
sg68
(lp2216
g1673
asbasbasbag61
(g77
g63
NtRp2217
(dp2218
g66
(dp2219
sg75
g71
sg68
(lp2220
g61
(g82
g63
NtRp2221
(dp2222
g66
(dp2223
g86
g87
ssg75
g2217
sg68
(lp2224
S'is_restful'
p2225
asbag61
(g82
g63
NtRp2226
(dp2227
g66
(dp2228
g93
g94
ssg75
g2217
sg68
(lp2229
S':'
asbag61
(g82
g63
NtRp2230
(dp2231
g66
(dp2232
sg75
g2217
sg68
(lp2233
g61
(g62
g63
NtRp2234
(dp2235
g66
(dp2236
g74
I5
ssg75
g2230
sg68
(lp2237
g104
asbasbasbag61
(g77
g63
NtRp2238
(dp2239
g66
(dp2240
sg75
g71
sg68
(lp2241
g61
(g82
g63
NtRp2242
(dp2243
g66
(dp2244
g86
g87
ssg75
g2238
sg68
(lp2245
S'now'
p2246
asbag61
(g82
g63
NtRp2247
(dp2248
g66
(dp2249
g93
g94
ssg75
g2238
sg68
(lp2250
S':'
asbag61
(g82
g63
NtRp2251
(dp2252
g66
(dp2253
sg75
g2238
sg68
(lp2254
g61
(g62
g63
NtRp2255
(dp2256
g66
(dp2257
g74
I5
ssg75
g2251
sg68
(lp2258
S'datetime.datetime(2012, 2, 7, 16, 18, 17, 325000)'
p2259
asbasbasbag61
(g77
g63
NtRp2260
(dp2261
g66
(dp2262
sg75
g71
sg68
(lp2263
g61
(g82
g63
NtRp2264
(dp2265
g66
(dp2266
g86
g87
ssg75
g2260
sg68
(lp2267
S'post_vars'
p2268
asbag61
(g82
g63
NtRp2269
(dp2270
g66
(dp2271
g93
g94
ssg75
g2260
sg68
(lp2272
S':'
asbag61
(g82
g63
NtRp2273
(dp2274
g66
(dp2275
sg75
g2260
sg68
(lp2276
g61
(g62
g63
NtRp2277
(dp2278
g66
(dp2279
g74
I5
ssg75
g2273
sg68
(lp2280
g61
(g70
g63
NtRp2281
(dp2282
g66
(dp2283
g74
I4
ssg75
Nsg68
(lp2284
sbasbasbasbag61
(g77
g63
NtRp2285
(dp2286
g66
(dp2287
sg75
g71
sg68
(lp2288
g61
(g82
g63
NtRp2289
(dp2290
g66
(dp2291
g86
g87
ssg75
g2285
sg68
(lp2292
S'raw_args'
p2293
asbag61
(g82
g63
NtRp2294
(dp2295
g66
(dp2296
g93
g94
ssg75
g2285
sg68
(lp2297
S':'
asbag61
(g82
g63
NtRp2298
(dp2299
g66
(dp2300
sg75
g2285
sg68
(lp2301
g61
(g62
g63
NtRp2302
(dp2303
g66
(dp2304
g74
I5
ssg75
g2298
sg68
(lp2305
S'8 OR 1=1'
p2306
asbasbasbag61
(g77
g63
NtRp2307
(dp2308
g66
(dp2309
sg75
g71
sg68
(lp2310
g61
(g82
g63
NtRp2311
(dp2312
g66
(dp2313
g86
g87
ssg75
g2307
sg68
(lp2314
S'url'
p2315
asbag61
(g82
g63
NtRp2316
(dp2317
g66
(dp2318
g93
g94
ssg75
g2307
sg68
(lp2319
S':'
asbag61
(g82
g63
NtRp2320
(dp2321
g66
(dp2322
sg75
g2307
sg68
(lp2323
g61
(g62
g63
NtRp2324
(dp2325
g66
(dp2326
g74
I5
ssg75
g2320
sg68
(lp2327
S'/welcome/tournament/show/8_OR_1%3D1'
p2328
asbasbasbag61
(g77
g63
NtRp2329
(dp2330
g66
(dp2331
sg75
g71
sg68
(lp2332
g61
(g82
g63
NtRp2333
(dp2334
g66
(dp2335
g86
g87
ssg75
g2329
sg68
(lp2336
S'utcnow'
p2337
asbag61
(g82
g63
NtRp2338
(dp2339
g66
(dp2340
g93
g94
ssg75
g2329
sg68
(lp2341
S':'
asbag61
(g82
g63
NtRp2342
(dp2343
g66
(dp2344
sg75
g2329
sg68
(lp2345
g61
(g62
g63
NtRp2346
(dp2347
g66
(dp2348
g74
I5
ssg75
g2342
sg68
(lp2349
S'datetime.datetime(2012, 2, 7, 21, 18, 17, 325000)'
p2350
asbasbasbag61
(g77
g63
NtRp2351
(dp2352
g66
(dp2353
sg75
g71
sg68
(lp2354
g61
(g82
g63
NtRp2355
(dp2356
g66
(dp2357
g86
g87
ssg75
g2351
sg68
(lp2358
S'uuid'
p2359
asbag61
(g82
g63
NtRp2360
(dp2361
g66
(dp2362
g93
g94
ssg75
g2351
sg68
(lp2363
S':'
asbag61
(g82
g63
NtRp2364
(dp2365
g66
(dp2366
sg75
g2351
sg68
(lp2367
g61
(g62
g63
NtRp2368
(dp2369
g66
(dp2370
g74
I5
ssg75
g2364
sg68
(lp2371
S'welcome/127.0.0.1.2012-02-07.16-18-17.0c2da63e-3296-4c82-b63f-433659d6060e'
p2372
asbasbasbag61
(g77
g63
NtRp2373
(dp2374
g66
(dp2375
sg75
g71
sg68
(lp2376
g61
(g82
g63
NtRp2377
(dp2378
g66
(dp2379
g86
g87
ssg75
g2373
sg68
(lp2380
S'vars'
p2381
asbag61
(g82
g63
NtRp2382
(dp2383
g66
(dp2384
g93
g94
ssg75
g2373
sg68
(lp2385
S':'
asbag61
(g82
g63
NtRp2386
(dp2387
g66
(dp2388
sg75
g2373
sg68
(lp2389
g61
(g62
g63
NtRp2390
(dp2391
g66
(dp2392
g74
I5
ssg75
g2386
sg68
(lp2393
g61
(g70
g63
NtRp2394
(dp2395
g66
(dp2396
g74
I4
ssg75
Nsg68
(lp2397
sbasbasbasbag61
(g77
g63
NtRp2398
(dp2399
g66
(dp2400
sg75
g71
sg68
(lp2401
g61
(g82
g63
NtRp2402
(dp2403
g66
(dp2404
g86
g87
ssg75
g2398
sg68
(lp2405
S'wsgi'
p2406
asbag61
(g82
g63
NtRp2407
(dp2408
g66
(dp2409
g93
g94
ssg75
g2398
sg68
(lp2410
S':'
asbag61
(g82
g63
NtRp2411
(dp2412
g66
(dp2413
sg75
g2398
sg68
(lp2414
g61
(g62
g63
NtRp2415
(dp2416
g66
(dp2417
g74
I5
ssg75
g2411
sg68
(lp2418
g61
(g70
g63
NtRp2419
(dp2420
g66
(dp2421
g74
I4
ssg75
Nsg68
(lp2422
g61
(g77
g63
NtRp2423
(dp2424
g66
(dp2425
sg75
g2419
sg68
(lp2426
g61
(g82
g63
NtRp2427
(dp2428
g66
(dp2429
g86
g87
ssg75
g2423
sg68
(lp2430
S'environ'
p2431
asbag61
(g82
g63
NtRp2432
(dp2433
g66
(dp2434
g93
g94
ssg75
g2423
sg68
(lp2435
S':'
asbag61
(g82
g63
NtRp2436
(dp2437
g66
(dp2438
sg75
g2423
sg68
(lp2439
g61
(g62
g63
NtRp2440
(dp2441
g66
(dp2442
g74
I4
ssg75
g2436
sg68
(lp2443
g61
(g70
g63
NtRp2444
(dp2445
g66
(dp2446
g74
I3
ssg75
Nsg68
(lp2447
g61
(g77
g63
NtRp2448
(dp2449
g66
(dp2450
sg75
g2444
sg68
(lp2451
g61
(g82
g63
NtRp2452
(dp2453
g66
(dp2454
g86
g87
ssg75
g2448
sg68
(lp2455
S'HTTP_ACCEPT'
p2456
asbag61
(g82
g63
NtRp2457
(dp2458
g66
(dp2459
g93
g94
ssg75
g2448
sg68
(lp2460
S':'
asbag61
(g82
g63
NtRp2461
(dp2462
g66
(dp2463
sg75
g2448
sg68
(lp2464
g61
(g62
g63
NtRp2465
(dp2466
g66
(dp2467
g74
I3
ssg75
g2461
sg68
(lp2468
g1020
asbasbasbag61
(g77
g63
NtRp2469
(dp2470
g66
(dp2471
sg75
g2444
sg68
(lp2472
g61
(g82
g63
NtRp2473
(dp2474
g66
(dp2475
g86
g87
ssg75
g2469
sg68
(lp2476
S'HTTP_ACCEPT_CHARSET'
p2477
asbag61
(g82
g63
NtRp2478
(dp2479
g66
(dp2480
g93
g94
ssg75
g2469
sg68
(lp2481
S':'
asbag61
(g82
g63
NtRp2482
(dp2483
g66
(dp2484
sg75
g2469
sg68
(lp2485
g61
(g62
g63
NtRp2486
(dp2487
g66
(dp2488
g74
I3
ssg75
g2482
sg68
(lp2489
g1042
asbasbasbag61
(g77
g63
NtRp2490
(dp2491
g66
(dp2492
sg75
g2444
sg68
(lp2493
g61
(g82
g63
NtRp2494
(dp2495
g66
(dp2496
g86
g87
ssg75
g2490
sg68
(lp2497
S'HTTP_ACCEPT_ENCODING'
p2498
asbag61
(g82
g63
NtRp2499
(dp2500
g66
(dp2501
g93
g94
ssg75
g2490
sg68
(lp2502
S':'
asbag61
(g82
g63
NtRp2503
(dp2504
g66
(dp2505
sg75
g2490
sg68
(lp2506
g61
(g62
g63
NtRp2507
(dp2508
g66
(dp2509
g74
I3
ssg75
g2503
sg68
(lp2510
g1064
asbasbasbag61
(g77
g63
NtRp2511
(dp2512
g66
(dp2513
sg75
g2444
sg68
(lp2514
g61
(g82
g63
NtRp2515
(dp2516
g66
(dp2517
g86
g87
ssg75
g2511
sg68
(lp2518
S'HTTP_ACCEPT_LANGUAGE'
p2519
asbag61
(g82
g63
NtRp2520
(dp2521
g66
(dp2522
g93
g94
ssg75
g2511
sg68
(lp2523
S':'
asbag61
(g82
g63
NtRp2524
(dp2525
g66
(dp2526
sg75
g2511
sg68
(lp2527
g61
(g62
g63
NtRp2528
(dp2529
g66
(dp2530
g74
I3
ssg75
g2524
sg68
(lp2531
g1086
asbasbasbag61
(g77
g63
NtRp2532
(dp2533
g66
(dp2534
sg75
g2444
sg68
(lp2535
g61
(g82
g63
NtRp2536
(dp2537
g66
(dp2538
g86
g87
ssg75
g2532
sg68
(lp2539
S'HTTP_CONNECTION'
p2540
asbag61
(g82
g63
NtRp2541
(dp2542
g66
(dp2543
g93
g94
ssg75
g2532
sg68
(lp2544
S':'
asbag61
(g82
g63
NtRp2545
(dp2546
g66
(dp2547
sg75
g2532
sg68
(lp2548
g61
(g62
g63
NtRp2549
(dp2550
g66
(dp2551
g74
I3
ssg75
g2545
sg68
(lp2552
g1108
asbasbasbag61
(g77
g63
NtRp2553
(dp2554
g66
(dp2555
sg75
g2444
sg68
(lp2556
g61
(g82
g63
NtRp2557
(dp2558
g66
(dp2559
g86
g87
ssg75
g2553
sg68
(lp2560
S'HTTP_COOKIE'
p2561
asbag61
(g82
g63
NtRp2562
(dp2563
g66
(dp2564
g93
g94
ssg75
g2553
sg68
(lp2565
S':'
asbag61
(g82
g63
NtRp2566
(dp2567
g66
(dp2568
sg75
g2553
sg68
(lp2569
g61
(g62
g63
NtRp2570
(dp2571
g66
(dp2572
g74
I3
ssg75
g2566
sg68
(lp2573
g1130
asbasbasbag61
(g77
g63
NtRp2574
(dp2575
g66
(dp2576
sg75
g2444
sg68
(lp2577
g61
(g82
g63
NtRp2578
(dp2579
g66
(dp2580
g86
g87
ssg75
g2574
sg68
(lp2581
S'HTTP_HOST'
p2582
asbag61
(g82
g63
NtRp2583
(dp2584
g66
(dp2585
g93
g94
ssg75
g2574
sg68
(lp2586
S':'
asbag61
(g82
g63
NtRp2587
(dp2588
g66
(dp2589
sg75
g2574
sg68
(lp2590
g61
(g62
g63
NtRp2591
(dp2592
g66
(dp2593
g74
I3
ssg75
g2587
sg68
(lp2594
g1152
asbasbasbag61
(g77
g63
NtRp2595
(dp2596
g66
(dp2597
sg75
g2444
sg68
(lp2598
g61
(g82
g63
NtRp2599
(dp2600
g66
(dp2601
g86
g87
ssg75
g2595
sg68
(lp2602
S'HTTP_USER_AGENT'
p2603
asbag61
(g82
g63
NtRp2604
(dp2605
g66
(dp2606
g93
g94
ssg75
g2595
sg68
(lp2607
S':'
asbag61
(g82
g63
NtRp2608
(dp2609
g66
(dp2610
sg75
g2595
sg68
(lp2611
g61
(g62
g63
NtRp2612
(dp2613
g66
(dp2614
g74
I3
ssg75
g2608
sg68
(lp2615
g1174
asbasbasbag61
(g77
g63
NtRp2616
(dp2617
g66
(dp2618
sg75
g2444
sg68
(lp2619
g61
(g82
g63
NtRp2620
(dp2621
g66
(dp2622
g86
g87
ssg75
g2616
sg68
(lp2623
S'PATH_INFO'
p2624
asbag61
(g82
g63
NtRp2625
(dp2626
g66
(dp2627
g93
g94
ssg75
g2616
sg68
(lp2628
S':'
asbag61
(g82
g63
NtRp2629
(dp2630
g66
(dp2631
sg75
g2616
sg68
(lp2632
g61
(g62
g63
NtRp2633
(dp2634
g66
(dp2635
g74
I3
ssg75
g2629
sg68
(lp2636
g1238
asbasbasbag61
(g77
g63
NtRp2637
(dp2638
g66
(dp2639
sg75
g2444
sg68
(lp2640
g61
(g82
g63
NtRp2641
(dp2642
g66
(dp2643
g86
g87
ssg75
g2637
sg68
(lp2644
S'QUERY_STRING'
p2645
asbag61
(g82
g63
NtRp2646
(dp2647
g66
(dp2648
g93
g94
ssg75
g2637
sg68
(lp2649
S':'
asbag61
(g82
g63
NtRp2650
(dp2651
g66
(dp2652
sg75
g2637
sg68
(lp2653
g61
(g62
g63
NtRp2654
(dp2655
g66
(dp2656
g74
I3
ssg75
g2650
sg68
(lp2657
S''
asbasbasbag61
(g77
g63
NtRp2658
(dp2659
g66
(dp2660
sg75
g2444
sg68
(lp2661
g61
(g82
g63
NtRp2662
(dp2663
g66
(dp2664
g86
g87
ssg75
g2658
sg68
(lp2665
S'REMOTE_ADDR'
p2666
asbag61
(g82
g63
NtRp2667
(dp2668
g66
(dp2669
g93
g94
ssg75
g2658
sg68
(lp2670
S':'
asbag61
(g82
g63
NtRp2671
(dp2672
g66
(dp2673
sg75
g2658
sg68
(lp2674
g61
(g62
g63
NtRp2675
(dp2676
g66
(dp2677
g74
I3
ssg75
g2671
sg68
(lp2678
g207
asbasbasbag61
(g77
g63
NtRp2679
(dp2680
g66
(dp2681
sg75
g2444
sg68
(lp2682
g61
(g82
g63
NtRp2683
(dp2684
g66
(dp2685
g86
g87
ssg75
g2679
sg68
(lp2686
S'REMOTE_PORT'
p2687
asbag61
(g82
g63
NtRp2688
(dp2689
g66
(dp2690
g93
g94
ssg75
g2679
sg68
(lp2691
S':'
asbag61
(g82
g63
NtRp2692
(dp2693
g66
(dp2694
sg75
g2679
sg68
(lp2695
g61
(g62
g63
NtRp2696
(dp2697
g66
(dp2698
g74
I3
ssg75
g2692
sg68
(lp2699
g1302
asbasbasbag61
(g77
g63
NtRp2700
(dp2701
g66
(dp2702
sg75
g2444
sg68
(lp2703
g61
(g82
g63
NtRp2704
(dp2705
g66
(dp2706
g86
g87
ssg75
g2700
sg68
(lp2707
S'REQUEST_METHOD'
p2708
asbag61
(g82
g63
NtRp2709
(dp2710
g66
(dp2711
g93
g94
ssg75
g2700
sg68
(lp2712
S':'
asbag61
(g82
g63
NtRp2713
(dp2714
g66
(dp2715
sg75
g2700
sg68
(lp2716
g61
(g62
g63
NtRp2717
(dp2718
g66
(dp2719
g74
I3
ssg75
g2713
sg68
(lp2720
g1324
asbasbasbag61
(g77
g63
NtRp2721
(dp2722
g66
(dp2723
sg75
g2444
sg68
(lp2724
g61
(g82
g63
NtRp2725
(dp2726
g66
(dp2727
g86
g87
ssg75
g2721
sg68
(lp2728
S'SCRIPT_NAME'
p2729
asbag61
(g82
g63
NtRp2730
(dp2731
g66
(dp2732
g93
g94
ssg75
g2721
sg68
(lp2733
S':'
asbag61
(g82
g63
NtRp2734
(dp2735
g66
(dp2736
sg75
g2721
sg68
(lp2737
g61
(g62
g63
NtRp2738
(dp2739
g66
(dp2740
g74
I3
ssg75
g2734
sg68
(lp2741
S''
asbasbasbag61
(g77
g63
NtRp2742
(dp2743
g66
(dp2744
sg75
g2444
sg68
(lp2745
g61
(g82
g63
NtRp2746
(dp2747
g66
(dp2748
g86
g87
ssg75
g2742
sg68
(lp2749
S'SERVER_NAME'
p2750
asbag61
(g82
g63
NtRp2751
(dp2752
g66
(dp2753
g93
g94
ssg75
g2742
sg68
(lp2754
S':'
asbag61
(g82
g63
NtRp2755
(dp2756
g66
(dp2757
sg75
g2742
sg68
(lp2758
g61
(g62
g63
NtRp2759
(dp2760
g66
(dp2761
g74
I3
ssg75
g2755
sg68
(lp2762
g1367
asbasbasbag61
(g77
g63
NtRp2763
(dp2764
g66
(dp2765
sg75
g2444
sg68
(lp2766
g61
(g82
g63
NtRp2767
(dp2768
g66
(dp2769
g86
g87
ssg75
g2763
sg68
(lp2770
S'SERVER_PORT'
p2771
asbag61
(g82
g63
NtRp2772
(dp2773
g66
(dp2774
g93
g94
ssg75
g2763
sg68
(lp2775
S':'
asbag61
(g82
g63
NtRp2776
(dp2777
g66
(dp2778
sg75
g2763
sg68
(lp2779
g61
(g62
g63
NtRp2780
(dp2781
g66
(dp2782
g74
I3
ssg75
g2776
sg68
(lp2783
g1389
asbasbasbag61
(g77
g63
NtRp2784
(dp2785
g66
(dp2786
sg75
g2444
sg68
(lp2787
g61
(g82
g63
NtRp2788
(dp2789
g66
(dp2790
g86
g87
ssg75
g2784
sg68
(lp2791
S'SERVER_PROTOCOL'
p2792
asbag61
(g82
g63
NtRp2793
(dp2794
g66
(dp2795
g93
g94
ssg75
g2784
sg68
(lp2796
S':'
asbag61
(g82
g63
NtRp2797
(dp2798
g66
(dp2799
sg75
g2784
sg68
(lp2800
g61
(g62
g63
NtRp2801
(dp2802
g66
(dp2803
g74
I3
ssg75
g2797
sg68
(lp2804
g1411
asbasbasbag61
(g77
g63
NtRp2805
(dp2806
g66
(dp2807
sg75
g2444
sg68
(lp2808
g61
(g82
g63
NtRp2809
(dp2810
g66
(dp2811
g86
g87
ssg75
g2805
sg68
(lp2812
S'SERVER_SOFTWARE'
p2813
asbag61
(g82
g63
NtRp2814
(dp2815
g66
(dp2816
g93
g94
ssg75
g2805
sg68
(lp2817
S':'
asbag61
(g82
g63
NtRp2818
(dp2819
g66
(dp2820
sg75
g2805
sg68
(lp2821
g61
(g62
g63
NtRp2822
(dp2823
g66
(dp2824
g74
I3
ssg75
g2818
sg68
(lp2825
g1433
asbasbasbag61
(g77
g63
NtRp2826
(dp2827
g66
(dp2828
sg75
g2444
sg68
(lp2829
g61
(g82
g63
NtRp2830
(dp2831
g66
(dp2832
g86
g87
ssg75
g2826
sg68
(lp2833
S'wsgi.errors'
p2834
asbag61
(g82
g63
NtRp2835
(dp2836
g66
(dp2837
g93
g94
ssg75
g2826
sg68
(lp2838
S':'
asbag61
(g82
g63
NtRp2839
(dp2840
g66
(dp2841
sg75
g2826
sg68
(lp2842
g61
(g62
g63
NtRp2843
(dp2844
g66
(dp2845
g74
I3
ssg75
g2839
sg68
(lp2846
S"<open file '<stderr>', mode 'w' at 0x0000000001E261E0>"
p2847
asbasbasbag61
(g77
g63
NtRp2848
(dp2849
g66
(dp2850
sg75
g2444
sg68
(lp2851
g61
(g82
g63
NtRp2852
(dp2853
g66
(dp2854
g86
g87
ssg75
g2848
sg68
(lp2855
S'wsgi.file_wrapper'
p2856
asbag61
(g82
g63
NtRp2857
(dp2858
g66
(dp2859
g93
g94
ssg75
g2848
sg68
(lp2860
S':'
asbag61
(g82
g63
NtRp2861
(dp2862
g66
(dp2863
sg75
g2848
sg68
(lp2864
g61
(g62
g63
NtRp2865
(dp2866
g66
(dp2867
g74
I3
ssg75
g2861
sg68
(lp2868
S'<class wsgiref.util.FileWrapper at 0x00000000034DD828>'
p2869
asbasbasbag61
(g77
g63
NtRp2870
(dp2871
g66
(dp2872
sg75
g2444
sg68
(lp2873
g61
(g82
g63
NtRp2874
(dp2875
g66
(dp2876
g86
g87
ssg75
g2870
sg68
(lp2877
S'wsgi.input'
p2878
asbag61
(g82
g63
NtRp2879
(dp2880
g66
(dp2881
g93
g94
ssg75
g2870
sg68
(lp2882
S':'
asbag61
(g82
g63
NtRp2883
(dp2884
g66
(dp2885
sg75
g2870
sg68
(lp2886
g61
(g62
g63
NtRp2887
(dp2888
g66
(dp2889
g74
I3
ssg75
g2883
sg68
(lp2890
S'<cStringIO.StringO object at 0x0000000009424180>'
p2891
asbasbasbag61
(g77
g63
NtRp2892
(dp2893
g66
(dp2894
sg75
g2444
sg68
(lp2895
g61
(g82
g63
NtRp2896
(dp2897
g66
(dp2898
g86
g87
ssg75
g2892
sg68
(lp2899
S'wsgi.multiprocess'
p2900
asbag61
(g82
g63
NtRp2901
(dp2902
g66
(dp2903
g93
g94
ssg75
g2892
sg68
(lp2904
S':'
asbag61
(g82
g63
NtRp2905
(dp2906
g66
(dp2907
sg75
g2892
sg68
(lp2908
g61
(g62
g63
NtRp2909
(dp2910
g66
(dp2911
g74
I3
ssg75
g2905
sg68
(lp2912
g104
asbasbasbag61
(g77
g63
NtRp2913
(dp2914
g66
(dp2915
sg75
g2444
sg68
(lp2916
g61
(g82
g63
NtRp2917
(dp2918
g66
(dp2919
g86
g87
ssg75
g2913
sg68
(lp2920
S'wsgi.multithread'
p2921
asbag61
(g82
g63
NtRp2922
(dp2923
g66
(dp2924
g93
g94
ssg75
g2913
sg68
(lp2925
S':'
asbag61
(g82
g63
NtRp2926
(dp2927
g66
(dp2928
sg75
g2913
sg68
(lp2929
g61
(g62
g63
NtRp2930
(dp2931
g66
(dp2932
g74
I3
ssg75
g2926
sg68
(lp2933
g1673
asbasbasbag61
(g77
g63
NtRp2934
(dp2935
g66
(dp2936
sg75
g2444
sg68
(lp2937
g61
(g82
g63
NtRp2938
(dp2939
g66
(dp2940
g86
g87
ssg75
g2934
sg68
(lp2941
S'wsgi.run_once'
p2942
asbag61
(g82
g63
NtRp2943
(dp2944
g66
(dp2945
g93
g94
ssg75
g2934
sg68
(lp2946
S':'
asbag61
(g82
g63
NtRp2947
(dp2948
g66
(dp2949
sg75
g2934
sg68
(lp2950
g61
(g62
g63
NtRp2951
(dp2952
g66
(dp2953
g74
I3
ssg75
g2947
sg68
(lp2954
g104
asbasbasbag61
(g77
g63
NtRp2955
(dp2956
g66
(dp2957
sg75
g2444
sg68
(lp2958
g61
(g82
g63
NtRp2959
(dp2960
g66
(dp2961
g86
g87
ssg75
g2955
sg68
(lp2962
S'wsgi.url_scheme'
p2963
asbag61
(g82
g63
NtRp2964
(dp2965
g66
(dp2966
g93
g94
ssg75
g2955
sg68
(lp2967
S':'
asbag61
(g82
g63
NtRp2968
(dp2969
g66
(dp2970
sg75
g2955
sg68
(lp2971
g61
(g62
g63
NtRp2972
(dp2973
g66
(dp2974
g74
I3
ssg75
g2968
sg68
(lp2975
g1716
asbasbasbag61
(g77
g63
NtRp2976
(dp2977
g66
(dp2978
sg75
g2444
sg68
(lp2979
g61
(g82
g63
NtRp2980
(dp2981
g66
(dp2982
g86
g87
ssg75
g2976
sg68
(lp2983
S'wsgi.version'
p2984
asbag61
(g82
g63
NtRp2985
(dp2986
g66
(dp2987
g93
g94
ssg75
g2976
sg68
(lp2988
S':'
asbag61
(g82
g63
NtRp2989
(dp2990
g66
(dp2991
sg75
g2976
sg68
(lp2992
g61
(g62
g63
NtRp2993
(dp2994
g66
(dp2995
g74
I3
ssg75
g2989
sg68
(lp2996
S'1'
asbasbasbasbasbasbasbasbasbasbasbasbasbsS'frames'
p2997
(lp2998
(dp2999
S'file'
p3000
S'C:\\Users\\mellinja\\Documents\\SC2Tracker\\SC2TourneyTracker\\web2py\\gluon\\restricted.py'
p3001
sS'dump'
p3002
(dp3003
S'environment'
p3004
S"{'A': <class 'gluon.html.A'>, 'Auth': <class 'gluon.tools.Auth'>, 'B': <class 'gluon.html.B'>, 'BEAUTIFY': <class 'gluon.html.BEAUTIFY'>, 'BODY': <class 'gluon.html.BODY'>, 'BR': <class 'gluon.html.BR'>, 'BUTTON': <class 'gluon.html.BUTTON'>, 'CAT': <class 'gluon.html.CAT'>, 'CENTER': <class 'gluon.html.CENTER'>, 'CLEANUP': <class 'gluon.validators.CLEANUP'>, ...}"
p3005
sS'ccode'
p3006
S'<code object <module> at 0000000007C391B0, file ...tions\\welcome\\controllers/tournament.py", line 3>'
p3007
ssS'lnum'
p3008
I204
sS'lines'
p3009
(dp3010
I199
S'    try:'
p3011
sI200
S'        if type(code) == types.CodeType:'
p3012
sI201
S'            ccode = code'
p3013
sI202
S'        else:'
p3014
sI203
S'            ccode = compile2(code,layer)'
p3015
sI204
S'        exec ccode in environment'
p3016
sI205
S'    except HTTP:'
p3017
sI206
S'        raise'
p3018
sI207
S'    except RestrictedError:'
p3019
sI208
S'        # do not encapsulate (obfuscate) the original RestrictedError'
p3020
ssS'call'
p3021
S'(code="# coding: utf8\\n#\\ndef index(): \\n    #db = DAL(\'ms...= tourny)\\n\\nresponse._vars=response._caller(show)\\n", environment={\'A\': <class \'gluon.html.A\'>, \'Auth\': <class \'gluon.tools.Auth\'>, \'B\': <class \'gluon.html.B\'>, \'BEAUTIFY\': <class \'gluon.html.BEAUTIFY\'>, \'BODY\': <class \'gluon.html.BODY\'>, \'BR\': <class \'gluon.html.BR\'>, \'BUTTON\': <class \'gluon.html.BUTTON\'>, \'CAT\': <class \'gluon.html.CAT\'>, \'CENTER\': <class \'gluon.html.CENTER\'>, \'CLEANUP\': <class \'gluon.validators.CLEANUP\'>, ...}, layer=r\'C:\\Users\\mellinja\\Documents\\SC2Tracker\\SC2Tourne...py\\applications\\welcome\\controllers/tournament.py\')'
p3022
sS'func'
p3023
S'restricted'
p3024
sa(dp3025
g3000
S'C:\\Users\\mellinja\\Documents\\SC2Tracker\\SC2TourneyTracker\\web2py\\applications\\welcome\\controllers\\tournament.py'
p3026
sg3002
(dp3027
sg3008
I12
sg3009
(dp3028
I1
S'# coding: utf8'
p3029
sI2
S'#'
sI3
S'def index():'
p3030
sI4
S"    #db = DAL('mssql://cheungkt:mechanes5@whale.cs.rose-hulman.edu/SC2tracker')"
p3031
sI5
S"    tournies = db.executesql('SELECT Name, ID FROM Tournament')"
p3032
sI6
S'    return dict(tournament = tournies)'
p3033
sI7
S''
sI8
S'def show():'
p3034
sI9
S"    tourny = db.executesql('SELECT * FROM Tournament WHERE ID = ' + str(request.args(0)))"
p3035
sI10
S'    return dict(test = tourny)'
p3036
ssg3021
S'()'
p3037
sg3023
S'<module>'
p3038
sa(dp3039
g3000
S'C:\\Users\\mellinja\\Documents\\SC2Tracker\\SC2TourneyTracker\\web2py\\gluon\\globals.py'
p3040
sg3002
(dp3041
S'self'
p3042
S'undefined'
p3043
sS'f'
S'<function show>'
p3044
ssg3008
I172
sg3009
(dp3045
I167
S'        self.meta = Storage()      # used by web2py_ajax.html'
p3046
sI168
S'        self.menu = []             # used by the default view layout'
p3047
sI169
S'        self.files = []            # used by web2py_ajax.html'
p3048
sI170
S'        self.generic_patterns = [] # patterns to allow generic views'
p3049
sI171
S'        self._vars = None'
p3050
sI172
S'        self._caller = lambda f: f()'
p3051
sI173
S'        self._view_environment = None'
p3052
sI174
S'        self._custom_commit = None'
p3053
sI175
S'        self._custom_rollback = None'
p3054
sI176
S''
ssg3021
S'(f=<function show>)'
p3055
sg3023
S'<lambda>'
p3056
sa(dp3057
g3000
S'C:\\Users\\mellinja\\Documents\\SC2Tracker\\SC2TourneyTracker\\web2py\\applications\\welcome\\controllers\\tournament.py'
p3058
sg3002
(dp3059
sg3008
I9
sg3009
(dp3060
I1
S'# coding: utf8'
p3061
sI2
S'#'
sI3
S'def index():'
p3062
sI4
S"    #db = DAL('mssql://cheungkt:mechanes5@whale.cs.rose-hulman.edu/SC2tracker')"
p3063
sI5
S"    tournies = db.executesql('SELECT Name, ID FROM Tournament')"
p3064
sI6
S'    return dict(tournament = tournies)'
p3065
sI7
S''
sI8
S'def show():'
p3066
sI9
S"    tourny = db.executesql('SELECT * FROM Tournament WHERE ID = ' + str(request.args(0)))"
p3067
sI10
S'    return dict(test = tourny)'
p3068
ssg3021
S'()'
p3069
sg3023
S'show'
p3070
sa(dp3071
g3000
S'C:\\Users\\mellinja\\Documents\\SC2Tracker\\SC2TourneyTracker\\web2py\\gluon\\dal.py'
p3072
sg3002
(dp3073
S'query'
p3074
S"'SELECT * FROM Tournament WHERE ID = 8_OR_1=1'"
p3075
sS'self'
p3076
S"<DAL {'auth_event': <Table {'origin': <gluon.dal...gluon.dal.Field object at 0x00000000095A4550>}>}>"
p3077
sS'self._adapter'
p3078
S'<gluon.dal.MSSQLAdapter object>'
p3079
sS'self._adapter.execute'
p3080
S'<bound method MSSQLAdapter.execute of <gluon.dal.MSSQLAdapter object>>'
p3081
ssg3008
I5170
sg3009
(dp3082
I5165
S'        --bmeredyk'
p3083
sI5166
S'        """'
p3084
sI5167
S'        if placeholders:'
p3085
sI5168
S'            self._adapter.execute(query, placeholders)'
p3086
sI5169
S'        else:'
p3087
sI5170
S'            self._adapter.execute(query)'
p3088
sI5171
S'        if as_dict:'
p3089
sI5172
S"            if not hasattr(self._adapter.cursor,'description'):"
p3090
sI5173
S'                raise RuntimeError, "database does not support executesql(...,as_dict=True)"'
p3091
sI5174
S'            # Non-DAL legacy db query, converts cursor results to dict.'
p3092
ssg3021
S"(self=<DAL {'auth_event': <Table {'origin': <gluon.dal...gluon.dal.Field object at 0x00000000095A4550>}>}>, query='SELECT * FROM Tournament WHERE ID = 8_OR_1=1', placeholders=None, as_dict=False)"
p3093
sg3023
S'executesql'
p3094
sa(dp3095
g3000
S'C:\\Users\\mellinja\\Documents\\SC2Tracker\\SC2TourneyTracker\\web2py\\gluon\\dal.py'
p3096
sg3002
(dp3097
S'a'
S"('SELECT * FROM Tournament WHERE ID = 8_OR_1=1',)"
p3098
sS'self'
p3099
S'<gluon.dal.MSSQLAdapter object>'
p3100
sS'b'
g21
sS'self.log_execute'
p3101
S'<bound method MSSQLAdapter.log_execute of <gluon.dal.MSSQLAdapter object>>'
p3102
ssg3008
I1359
sg3009
(dp3103
I1354
S'        self.db._timings.append((a[0],time.time()-t0))'
p3104
sI1355
S'        del self.db._timings[:-TIMINGSSIZE]'
p3105
sI1356
S'        return ret'
p3106
sI1357
S''
sI1358
S'    def execute(self, *a, **b):'
p3107
sI1359
S'        return self.log_execute(*a, **b)'
p3108
sI1360
S''
sI1361
S'    def represent(self, obj, fieldtype):'
p3109
sI1362
S'        if isinstance(obj, CALLABLETYPES):'
p3110
sI1363
S'            obj = obj()'
p3111
ssg3021
S"(self=<gluon.dal.MSSQLAdapter object>, *a=('SELECT * FROM Tournament WHERE ID = 8_OR_1=1',), **b={})"
p3112
sg3023
S'execute'
p3113
sa(dp3114
g3000
S'C:\\Users\\mellinja\\Documents\\SC2Tracker\\SC2TourneyTracker\\web2py\\gluon\\dal.py'
p3115
sg3002
(dp3116
S'a'
S"('SELECT * FROM Tournament WHERE ID = 8_OR_1=1',)"
p3117
sS'b'
g21
sS'self'
p3118
S'<gluon.dal.MSSQLAdapter object>'
p3119
sS'ret'
p3120
g3043
sS'self.cursor'
p3121
S'<pyodbc.Cursor object>'
p3122
sS'self.cursor.execute'
p3123
S'<built-in method execute of pyodbc.Cursor object>'
p3124
ssg3008
I1353
sg3009
(dp3125
I1348
S'        self.execute(query)'
p3126
sI1349
S''
sI1350
S'    def log_execute(self, *a, **b):'
p3127
sI1351
S'        self.db._lastsql = a[0]'
p3128
sI1352
S'        t0 = time.time()'
p3129
sI1353
S'        ret = self.cursor.execute(*a, **b)'
p3130
sI1354
S'        self.db._timings.append((a[0],time.time()-t0))'
p3131
sI1355
S'        del self.db._timings[:-TIMINGSSIZE]'
p3132
sI1356
S'        return ret'
p3133
sI1357
S''
ssg3021
S"(self=<gluon.dal.MSSQLAdapter object>, *a=('SELECT * FROM Tournament WHERE ID = 8_OR_1=1',), **b={})"
p3134
sg3023
S'log_execute'
p3135
sasS'pyver'
p3136
S'Python 2.7.2: C:\\Python27\\python.exe'
p3137
sS'session'
p3138
g61
(g62
g63
NtRp3139
(dp3140
g66
(dp3141
sg68
(lp3142
g61
(g70
g63
NtRp3143
(dp3144
g66
(dp3145
g74
I5
ssg75
Nsg68
(lp3146
g61
(g77
g63
NtRp3147
(dp3148
g66
(dp3149
sg75
g3143
sg68
(lp3150
g61
(g82
g63
NtRp3151
(dp3152
g66
(dp3153
g86
g87
ssg75
g3147
sg68
(lp3154
S'auth'
p3155
asbag61
(g82
g63
NtRp3156
(dp3157
g66
(dp3158
g93
g94
ssg75
g3147
sg68
(lp3159
S':'
asbag61
(g82
g63
NtRp3160
(dp3161
g66
(dp3162
sg75
g3147
sg68
(lp3163
g61
(g62
g63
NtRp3164
(dp3165
g66
(dp3166
g74
I5
ssg75
g3160
sg68
(lp3167
g61
(g70
g63
NtRp3168
(dp3169
g66
(dp3170
g74
I4
ssg75
Nsg68
(lp3171
g61
(g77
g63
NtRp3172
(dp3173
g66
(dp3174
sg75
g3168
sg68
(lp3175
g61
(g82
g63
NtRp3176
(dp3177
g66
(dp3178
g86
g87
ssg75
g3172
sg68
(lp3179
S'expiration'
p3180
asbag61
(g82
g63
NtRp3181
(dp3182
g66
(dp3183
g93
g94
ssg75
g3172
sg68
(lp3184
S':'
asbag61
(g82
g63
NtRp3185
(dp3186
g66
(dp3187
sg75
g3172
sg68
(lp3188
g61
(g62
g63
NtRp3189
(dp3190
g66
(dp3191
g74
I4
ssg75
g3185
sg68
(lp3192
S'3600'
p3193
asbasbasbag61
(g77
g63
NtRp3194
(dp3195
g66
(dp3196
sg75
g3168
sg68
(lp3197
g61
(g82
g63
NtRp3198
(dp3199
g66
(dp3200
g86
g87
ssg75
g3194
sg68
(lp3201
S'hmac_key'
p3202
asbag61
(g82
g63
NtRp3203
(dp3204
g66
(dp3205
g93
g94
ssg75
g3194
sg68
(lp3206
S':'
asbag61
(g82
g63
NtRp3207
(dp3208
g66
(dp3209
sg75
g3194
sg68
(lp3210
g61
(g62
g63
NtRp3211
(dp3212
g66
(dp3213
g74
I4
ssg75
g3207
sg68
(lp3214
S'db24f9b0-a170-4301-a61b-cc6744b5cef2'
p3215
asbasbasbag61
(g77
g63
NtRp3216
(dp3217
g66
(dp3218
sg75
g3168
sg68
(lp3219
g61
(g82
g63
NtRp3220
(dp3221
g66
(dp3222
g86
g87
ssg75
g3216
sg68
(lp3223
S'last_visit'
p3224
asbag61
(g82
g63
NtRp3225
(dp3226
g66
(dp3227
g93
g94
ssg75
g3216
sg68
(lp3228
S':'
asbag61
(g82
g63
NtRp3229
(dp3230
g66
(dp3231
sg75
g3216
sg68
(lp3232
g61
(g62
g63
NtRp3233
(dp3234
g66
(dp3235
g74
I4
ssg75
g3229
sg68
(lp3236
S'datetime.datetime(2012, 2, 7, 16, 14, 17, 539000)'
p3237
asbasbasbag61
(g77
g63
NtRp3238
(dp3239
g66
(dp3240
sg75
g3168
sg68
(lp3241
g61
(g82
g63
NtRp3242
(dp3243
g66
(dp3244
g86
g87
ssg75
g3238
sg68
(lp3245
S'user'
p3246
asbag61
(g82
g63
NtRp3247
(dp3248
g66
(dp3249
g93
g94
ssg75
g3238
sg68
(lp3250
S':'
asbag61
(g82
g63
NtRp3251
(dp3252
g66
(dp3253
sg75
g3238
sg68
(lp3254
g61
(g62
g63
NtRp3255
(dp3256
g66
(dp3257
g74
I4
ssg75
g3251
sg68
(lp3258
g61
(g70
g63
NtRp3259
(dp3260
g66
(dp3261
g74
I3
ssg75
Nsg68
(lp3262
g61
(g77
g63
NtRp3263
(dp3264
g66
(dp3265
sg75
g3259
sg68
(lp3266
g61
(g82
g63
NtRp3267
(dp3268
g66
(dp3269
g86
g87
ssg75
g3263
sg68
(lp3270
S'email'
p3271
asbag61
(g82
g63
NtRp3272
(dp3273
g66
(dp3274
g93
g94
ssg75
g3263
sg68
(lp3275
S':'
asbag61
(g82
g63
NtRp3276
(dp3277
g66
(dp3278
sg75
g3263
sg68
(lp3279
g61
(g62
g63
NtRp3280
(dp3281
g66
(dp3282
g74
I3
ssg75
g3276
sg68
(lp3283
S'test@test.com'
p3284
asbasbasbag61
(g77
g63
NtRp3285
(dp3286
g66
(dp3287
sg75
g3259
sg68
(lp3288
g61
(g82
g63
NtRp3289
(dp3290
g66
(dp3291
g86
g87
ssg75
g3285
sg68
(lp3292
S'first_name'
p3293
asbag61
(g82
g63
NtRp3294
(dp3295
g66
(dp3296
g93
g94
ssg75
g3285
sg68
(lp3297
S':'
asbag61
(g82
g63
NtRp3298
(dp3299
g66
(dp3300
sg75
g3285
sg68
(lp3301
g61
(g62
g63
NtRp3302
(dp3303
g66
(dp3304
g74
I3
ssg75
g3298
sg68
(lp3305
S'test'
p3306
asbasbasbag61
(g77
g63
NtRp3307
(dp3308
g66
(dp3309
sg75
g3259
sg68
(lp3310
g61
(g82
g63
NtRp3311
(dp3312
g66
(dp3313
g86
g87
ssg75
g3307
sg68
(lp3314
S'id'
p3315
asbag61
(g82
g63
NtRp3316
(dp3317
g66
(dp3318
g93
g94
ssg75
g3307
sg68
(lp3319
S':'
asbag61
(g82
g63
NtRp3320
(dp3321
g66
(dp3322
sg75
g3307
sg68
(lp3323
g61
(g62
g63
NtRp3324
(dp3325
g66
(dp3326
g74
I3
ssg75
g3320
sg68
(lp3327
S'5'
asbasbasbag61
(g77
g63
NtRp3328
(dp3329
g66
(dp3330
sg75
g3259
sg68
(lp3331
g61
(g82
g63
NtRp3332
(dp3333
g66
(dp3334
g86
g87
ssg75
g3328
sg68
(lp3335
S'last_name'
p3336
asbag61
(g82
g63
NtRp3337
(dp3338
g66
(dp3339
g93
g94
ssg75
g3328
sg68
(lp3340
S':'
asbag61
(g82
g63
NtRp3341
(dp3342
g66
(dp3343
sg75
g3328
sg68
(lp3344
g61
(g62
g63
NtRp3345
(dp3346
g66
(dp3347
g74
I3
ssg75
g3341
sg68
(lp3348
S'test'
p3349
asbasbasbag61
(g77
g63
NtRp3350
(dp3351
g66
(dp3352
sg75
g3259
sg68
(lp3353
g61
(g82
g63
NtRp3354
(dp3355
g66
(dp3356
g86
g87
ssg75
g3350
sg68
(lp3357
S'password'
p3358
asbag61
(g82
g63
NtRp3359
(dp3360
g66
(dp3361
g93
g94
ssg75
g3350
sg68
(lp3362
S':'
asbag61
(g82
g63
NtRp3363
(dp3364
g66
(dp3365
sg75
g3350
sg68
(lp3366
g61
(g62
g63
NtRp3367
(dp3368
g66
(dp3369
g74
I3
ssg75
g3363
sg68
(lp3370
S'0835d7189a6927648202bd9d8a8562a8'
p3371
asbasbasbag61
(g77
g63
NtRp3372
(dp3373
g66
(dp3374
sg75
g3259
sg68
(lp3375
g61
(g82
g63
NtRp3376
(dp3377
g66
(dp3378
g86
g87
ssg75
g3372
sg68
(lp3379
S'registration_id'
p3380
asbag61
(g82
g63
NtRp3381
(dp3382
g66
(dp3383
g93
g94
ssg75
g3372
sg68
(lp3384
S':'
asbag61
(g82
g63
NtRp3385
(dp3386
g66
(dp3387
sg75
g3372
sg68
(lp3388
g61
(g62
g63
NtRp3389
(dp3390
g66
(dp3391
g74
I3
ssg75
g3385
sg68
(lp3392
S''
asbasbasbag61
(g77
g63
NtRp3393
(dp3394
g66
(dp3395
sg75
g3259
sg68
(lp3396
g61
(g82
g63
NtRp3397
(dp3398
g66
(dp3399
g86
g87
ssg75
g3393
sg68
(lp3400
S'registration_key'
p3401
asbag61
(g82
g63
NtRp3402
(dp3403
g66
(dp3404
g93
g94
ssg75
g3393
sg68
(lp3405
S':'
asbag61
(g82
g63
NtRp3406
(dp3407
g66
(dp3408
sg75
g3393
sg68
(lp3409
g61
(g62
g63
NtRp3410
(dp3411
g66
(dp3412
g74
I3
ssg75
g3406
sg68
(lp3413
S''
asbasbasbag61
(g77
g63
NtRp3414
(dp3415
g66
(dp3416
sg75
g3259
sg68
(lp3417
g61
(g82
g63
NtRp3418
(dp3419
g66
(dp3420
g86
g87
ssg75
g3414
sg68
(lp3421
S'reset_password_key'
p3422
asbag61
(g82
g63
NtRp3423
(dp3424
g66
(dp3425
g93
g94
ssg75
g3414
sg68
(lp3426
S':'
asbag61
(g82
g63
NtRp3427
(dp3428
g66
(dp3429
sg75
g3414
sg68
(lp3430
g61
(g62
g63
NtRp3431
(dp3432
g66
(dp3433
g74
I3
ssg75
g3427
sg68
(lp3434
S''
asbasbasbasbasbasbasbasbasbasbasbasbasbsS'etype'
p3435
S"<class 'pyodbc.ProgrammingError'>"
p3436
sS'date'
p3437
S'Tue Feb 07 16:18:17 2012'
p3438
sS'response'
p3439
g61
(g62
g63
NtRp3440
(dp3441
g66
(dp3442
sg68
(lp3443
g61
(g70
g63
NtRp3444
(dp3445
g66
(dp3446
g74
I5
ssg75
Nsg68
(lp3447
g61
(g77
g63
NtRp3448
(dp3449
g66
(dp3450
sg75
g3444
sg68
(lp3451
g61
(g82
g63
NtRp3452
(dp3453
g66
(dp3454
g86
g87
ssg75
g3448
sg68
(lp3455
g172
asbag61
(g82
g63
NtRp3456
(dp3457
g66
(dp3458
g93
g94
ssg75
g3448
sg68
(lp3459
S':'
asbag61
(g82
g63
NtRp3460
(dp3461
g66
(dp3462
sg75
g3448
sg68
(lp3463
g61
(g62
g63
NtRp3464
(dp3465
g66
(dp3466
g74
I5
ssg75
g3460
sg68
(lp3467
S'<cStringIO.StringO object at 0x00000000095A40D8>'
p3468
asbasbasbag61
(g77
g63
NtRp3469
(dp3470
g66
(dp3471
sg75
g3444
sg68
(lp3472
g61
(g82
g63
NtRp3473
(dp3474
g66
(dp3475
g86
g87
ssg75
g3469
sg68
(lp3476
g238
asbag61
(g82
g63
NtRp3477
(dp3478
g66
(dp3479
g93
g94
ssg75
g3469
sg68
(lp3480
S':'
asbag61
(g82
g63
NtRp3481
(dp3482
g66
(dp3483
sg75
g3469
sg68
(lp3484
g61
(g62
g63
NtRp3485
(dp3486
g66
(dp3487
g74
I5
ssg75
g3481
sg68
(lp3488
g61
(g70
g63
NtRp3489
(dp3490
g66
(dp3491
g74
I4
ssg75
Nsg68
(lp3492
g61
(g77
g63
NtRp3493
(dp3494
g66
(dp3495
sg75
g3489
sg68
(lp3496
g61
(g82
g63
NtRp3497
(dp3498
g66
(dp3499
g86
g87
ssg75
g3493
sg68
(lp3500
S'session_id_welcome'
p3501
asbag61
(g82
g63
NtRp3502
(dp3503
g66
(dp3504
g93
g94
ssg75
g3493
sg68
(lp3505
S':'
asbag61
(g82
g63
NtRp3506
(dp3507
g66
(dp3508
sg75
g3493
sg68
(lp3509
g61
(g62
g63
NtRp3510
(dp3511
g66
(dp3512
g74
I4
ssg75
g3506
sg68
(lp3513
g61
(g70
g63
NtRp3514
(dp3515
g66
(dp3516
g74
I3
ssg75
Nsg68
(lp3517
g61
(g77
g63
NtRp3518
(dp3519
g66
(dp3520
sg75
g3514
sg68
(lp3521
g61
(g82
g63
NtRp3522
(dp3523
g66
(dp3524
g86
g87
ssg75
g3518
sg68
(lp3525
g288
asbag61
(g82
g63
NtRp3526
(dp3527
g66
(dp3528
g93
g94
ssg75
g3518
sg68
(lp3529
S':'
asbag61
(g82
g63
NtRp3530
(dp3531
g66
(dp3532
sg75
g3518
sg68
(lp3533
g61
(g62
g63
NtRp3534
(dp3535
g66
(dp3536
g74
I3
ssg75
g3530
sg68
(lp3537
S''
asbasbasbag61
(g77
g63
NtRp3538
(dp3539
g66
(dp3540
sg75
g3514
sg68
(lp3541
g61
(g82
g63
NtRp3542
(dp3543
g66
(dp3544
g86
g87
ssg75
g3538
sg68
(lp3545
g309
asbag61
(g82
g63
NtRp3546
(dp3547
g66
(dp3548
g93
g94
ssg75
g3538
sg68
(lp3549
S':'
asbag61
(g82
g63
NtRp3550
(dp3551
g66
(dp3552
sg75
g3538
sg68
(lp3553
g61
(g62
g63
NtRp3554
(dp3555
g66
(dp3556
g74
I3
ssg75
g3550
sg68
(lp3557
S''
asbasbasbag61
(g77
g63
NtRp3558
(dp3559
g66
(dp3560
sg75
g3514
sg68
(lp3561
g61
(g82
g63
NtRp3562
(dp3563
g66
(dp3564
g86
g87
ssg75
g3558
sg68
(lp3565
g330
asbag61
(g82
g63
NtRp3566
(dp3567
g66
(dp3568
g93
g94
ssg75
g3558
sg68
(lp3569
S':'
asbag61
(g82
g63
NtRp3570
(dp3571
g66
(dp3572
sg75
g3558
sg68
(lp3573
g61
(g62
g63
NtRp3574
(dp3575
g66
(dp3576
g74
I3
ssg75
g3570
sg68
(lp3577
S''
asbasbasbag61
(g77
g63
NtRp3578
(dp3579
g66
(dp3580
sg75
g3514
sg68
(lp3581
g61
(g82
g63
NtRp3582
(dp3583
g66
(dp3584
g86
g87
ssg75
g3578
sg68
(lp3585
g351
asbag61
(g82
g63
NtRp3586
(dp3587
g66
(dp3588
g93
g94
ssg75
g3578
sg68
(lp3589
S':'
asbag61
(g82
g63
NtRp3590
(dp3591
g66
(dp3592
sg75
g3578
sg68
(lp3593
g61
(g62
g63
NtRp3594
(dp3595
g66
(dp3596
g74
I3
ssg75
g3590
sg68
(lp3597
S''
asbasbasbag61
(g77
g63
NtRp3598
(dp3599
g66
(dp3600
sg75
g3514
sg68
(lp3601
g61
(g82
g63
NtRp3602
(dp3603
g66
(dp3604
g86
g87
ssg75
g3598
sg68
(lp3605
g372
asbag61
(g82
g63
NtRp3606
(dp3607
g66
(dp3608
g93
g94
ssg75
g3598
sg68
(lp3609
S':'
asbag61
(g82
g63
NtRp3610
(dp3611
g66
(dp3612
sg75
g3598
sg68
(lp3613
g61
(g62
g63
NtRp3614
(dp3615
g66
(dp3616
g74
I3
ssg75
g3610
sg68
(lp3617
S''
asbasbasbag61
(g77
g63
NtRp3618
(dp3619
g66
(dp3620
sg75
g3514
sg68
(lp3621
g61
(g82
g63
NtRp3622
(dp3623
g66
(dp3624
g86
g87
ssg75
g3618
sg68
(lp3625
g393
asbag61
(g82
g63
NtRp3626
(dp3627
g66
(dp3628
g93
g94
ssg75
g3618
sg68
(lp3629
S':'
asbag61
(g82
g63
NtRp3630
(dp3631
g66
(dp3632
sg75
g3618
sg68
(lp3633
g61
(g62
g63
NtRp3634
(dp3635
g66
(dp3636
g74
I3
ssg75
g3630
sg68
(lp3637
S'/'
asbasbasbag61
(g77
g63
NtRp3638
(dp3639
g66
(dp3640
sg75
g3514
sg68
(lp3641
g61
(g82
g63
NtRp3642
(dp3643
g66
(dp3644
g86
g87
ssg75
g3638
sg68
(lp3645
g414
asbag61
(g82
g63
NtRp3646
(dp3647
g66
(dp3648
g93
g94
ssg75
g3638
sg68
(lp3649
S':'
asbag61
(g82
g63
NtRp3650
(dp3651
g66
(dp3652
sg75
g3638
sg68
(lp3653
g61
(g62
g63
NtRp3654
(dp3655
g66
(dp3656
g74
I3
ssg75
g3650
sg68
(lp3657
S''
asbasbasbag61
(g77
g63
NtRp3658
(dp3659
g66
(dp3660
sg75
g3514
sg68
(lp3661
g61
(g82
g63
NtRp3662
(dp3663
g66
(dp3664
g86
g87
ssg75
g3658
sg68
(lp3665
g435
asbag61
(g82
g63
NtRp3666
(dp3667
g66
(dp3668
g93
g94
ssg75
g3658
sg68
(lp3669
S':'
asbag61
(g82
g63
NtRp3670
(dp3671
g66
(dp3672
sg75
g3658
sg68
(lp3673
g61
(g62
g63
NtRp3674
(dp3675
g66
(dp3676
g74
I3
ssg75
g3670
sg68
(lp3677
S''
asbasbasbasbasbasbasbasbasbasbasbag61
(g77
g63
NtRp3678
(dp3679
g66
(dp3680
sg75
g3444
sg68
(lp3681
g61
(g82
g63
NtRp3682
(dp3683
g66
(dp3684
g86
g87
ssg75
g3678
sg68
(lp3685
S'files'
p3686
asbag61
(g82
g63
NtRp3687
(dp3688
g66
(dp3689
g93
g94
ssg75
g3678
sg68
(lp3690
S':'
asbag61
(g82
g63
NtRp3691
(dp3692
g66
(dp3693
sg75
g3678
sg68
(lp3694
g61
(g62
g63
NtRp3695
(dp3696
g66
(dp3697
g74
I5
ssg75
g3691
sg68
(lp3698
g61
(g70
g63
NtRp3699
(dp3700
g66
(dp3701
g74
I4
ssg75
Nsg68
(lp3702
sbasbasbasbag61
(g77
g63
NtRp3703
(dp3704
g66
(dp3705
sg75
g3444
sg68
(lp3706
g61
(g82
g63
NtRp3707
(dp3708
g66
(dp3709
g86
g87
ssg75
g3703
sg68
(lp3710
S'flash'
p3711
asbag61
(g82
g63
NtRp3712
(dp3713
g66
(dp3714
g93
g94
ssg75
g3703
sg68
(lp3715
S':'
asbag61
(g82
g63
NtRp3716
(dp3717
g66
(dp3718
sg75
g3703
sg68
(lp3719
g61
(g62
g63
NtRp3720
(dp3721
g66
(dp3722
g74
I5
ssg75
g3716
sg68
(lp3723
S''
asbasbasbag61
(g77
g63
NtRp3724
(dp3725
g66
(dp3726
sg75
g3444
sg68
(lp3727
g61
(g82
g63
NtRp3728
(dp3729
g66
(dp3730
g86
g87
ssg75
g3724
sg68
(lp3731
S'generic_patterns'
p3732
asbag61
(g82
g63
NtRp3733
(dp3734
g66
(dp3735
g93
g94
ssg75
g3724
sg68
(lp3736
S':'
asbag61
(g82
g63
NtRp3737
(dp3738
g66
(dp3739
sg75
g3724
sg68
(lp3740
g61
(g62
g63
NtRp3741
(dp3742
g66
(dp3743
g74
I5
ssg75
g3737
sg68
(lp3744
g61
(g70
g63
NtRp3745
(dp3746
g66
(dp3747
g74
I4
ssg75
Nsg68
(lp3748
g61
(g77
g63
NtRp3749
(dp3750
g66
(dp3751
sg75
g3745
sg68
(lp3752
g61
(g82
g63
NtRp3753
(dp3754
g66
(dp3755
sg75
g3749
sg68
(lp3756
g61
(g62
g63
NtRp3757
(dp3758
g66
(dp3759
g74
I4
ssg75
g3753
sg68
(lp3760
S'*'
asbasbasbasbasbasbasbag61
(g77
g63
NtRp3761
(dp3762
g66
(dp3763
sg75
g3444
sg68
(lp3764
g61
(g82
g63
NtRp3765
(dp3766
g66
(dp3767
g86
g87
ssg75
g3761
sg68
(lp3768
S'headers'
p3769
asbag61
(g82
g63
NtRp3770
(dp3771
g66
(dp3772
g93
g94
ssg75
g3761
sg68
(lp3773
S':'
asbag61
(g82
g63
NtRp3774
(dp3775
g66
(dp3776
sg75
g3761
sg68
(lp3777
g61
(g62
g63
NtRp3778
(dp3779
g66
(dp3780
g74
I5
ssg75
g3774
sg68
(lp3781
g61
(g70
g63
NtRp3782
(dp3783
g66
(dp3784
g74
I4
ssg75
Nsg68
(lp3785
g61
(g77
g63
NtRp3786
(dp3787
g66
(dp3788
sg75
g3782
sg68
(lp3789
g61
(g82
g63
NtRp3790
(dp3791
g66
(dp3792
g86
g87
ssg75
g3786
sg68
(lp3793
S'Cache-Control'
p3794
asbag61
(g82
g63
NtRp3795
(dp3796
g66
(dp3797
g93
g94
ssg75
g3786
sg68
(lp3798
S':'
asbag61
(g82
g63
NtRp3799
(dp3800
g66
(dp3801
sg75
g3786
sg68
(lp3802
g61
(g62
g63
NtRp3803
(dp3804
g66
(dp3805
g74
I4
ssg75
g3799
sg68
(lp3806
S'no-store, no-cache, must-revalidate, post-check=0, pre-check=0'
p3807
asbasbasbag61
(g77
g63
NtRp3808
(dp3809
g66
(dp3810
sg75
g3782
sg68
(lp3811
g61
(g82
g63
NtRp3812
(dp3813
g66
(dp3814
g86
g87
ssg75
g3808
sg68
(lp3815
S'Content-Type'
p3816
asbag61
(g82
g63
NtRp3817
(dp3818
g66
(dp3819
g93
g94
ssg75
g3808
sg68
(lp3820
S':'
asbag61
(g82
g63
NtRp3821
(dp3822
g66
(dp3823
sg75
g3808
sg68
(lp3824
g61
(g62
g63
NtRp3825
(dp3826
g66
(dp3827
g74
I4
ssg75
g3821
sg68
(lp3828
S'text/html; charset=utf-8'
p3829
asbasbasbag61
(g77
g63
NtRp3830
(dp3831
g66
(dp3832
sg75
g3782
sg68
(lp3833
g61
(g82
g63
NtRp3834
(dp3835
g66
(dp3836
g86
g87
ssg75
g3830
sg68
(lp3837
S'Expires'
p3838
asbag61
(g82
g63
NtRp3839
(dp3840
g66
(dp3841
g93
g94
ssg75
g3830
sg68
(lp3842
S':'
asbag61
(g82
g63
NtRp3843
(dp3844
g66
(dp3845
sg75
g3830
sg68
(lp3846
g61
(g62
g63
NtRp3847
(dp3848
g66
(dp3849
g74
I4
ssg75
g3843
sg68
(lp3850
S'Tue, 07 Feb 2012 21:18:17 GMT'
p3851
asbasbasbag61
(g77
g63
NtRp3852
(dp3853
g66
(dp3854
sg75
g3782
sg68
(lp3855
g61
(g82
g63
NtRp3856
(dp3857
g66
(dp3858
g86
g87
ssg75
g3852
sg68
(lp3859
S'Pragma'
p3860
asbag61
(g82
g63
NtRp3861
(dp3862
g66
(dp3863
g93
g94
ssg75
g3852
sg68
(lp3864
S':'
asbag61
(g82
g63
NtRp3865
(dp3866
g66
(dp3867
sg75
g3852
sg68
(lp3868
g61
(g62
g63
NtRp3869
(dp3870
g66
(dp3871
g74
I4
ssg75
g3865
sg68
(lp3872
S'no-cache'
p3873
asbasbasbag61
(g77
g63
NtRp3874
(dp3875
g66
(dp3876
sg75
g3782
sg68
(lp3877
g61
(g82
g63
NtRp3878
(dp3879
g66
(dp3880
g86
g87
ssg75
g3874
sg68
(lp3881
S'X-Powered-By'
p3882
asbag61
(g82
g63
NtRp3883
(dp3884
g66
(dp3885
g93
g94
ssg75
g3874
sg68
(lp3886
S':'
asbag61
(g82
g63
NtRp3887
(dp3888
g66
(dp3889
sg75
g3874
sg68
(lp3890
g61
(g62
g63
NtRp3891
(dp3892
g66
(dp3893
g74
I4
ssg75
g3887
sg68
(lp3894
S'web2py'
p3895
asbasbasbasbasbasbasbag61
(g77
g63
NtRp3896
(dp3897
g66
(dp3898
sg75
g3444
sg68
(lp3899
g61
(g82
g63
NtRp3900
(dp3901
g66
(dp3902
g86
g87
ssg75
g3896
sg68
(lp3903
S'menu'
p3904
asbag61
(g82
g63
NtRp3905
(dp3906
g66
(dp3907
g93
g94
ssg75
g3896
sg68
(lp3908
S':'
asbag61
(g82
g63
NtRp3909
(dp3910
g66
(dp3911
sg75
g3896
sg68
(lp3912
g61
(g62
g63
NtRp3913
(dp3914
g66
(dp3915
g74
I5
ssg75
g3909
sg68
(lp3916
g61
(g70
g63
NtRp3917
(dp3918
g66
(dp3919
g74
I4
ssg75
Nsg68
(lp3920
g61
(g77
g63
NtRp3921
(dp3922
g66
(dp3923
sg75
g3917
sg68
(lp3924
g61
(g82
g63
NtRp3925
(dp3926
g66
(dp3927
sg75
g3921
sg68
(lp3928
g61
(g62
g63
NtRp3929
(dp3930
g66
(dp3931
g74
I4
ssg75
g3925
sg68
(lp3932
g61
(g70
g63
NtRp3933
(dp3934
g66
(dp3935
g74
I3
ssg75
Nsg68
(lp3936
g61
(g77
g63
NtRp3937
(dp3938
g66
(dp3939
sg75
g3933
sg68
(lp3940
g61
(g82
g63
NtRp3941
(dp3942
g66
(dp3943
sg75
g3937
sg68
(lp3944
g61
(g62
g63
NtRp3945
(dp3946
g66
(dp3947
g74
I3
ssg75
g3941
sg68
(lp3948
cgluon.languages
lazyT_unpickle
p3949
(S't\x04\x00\x00\x00Home'
tRp3950
asbasbasbag61
(g77
g63
NtRp3951
(dp3952
g66
(dp3953
sg75
g3933
sg68
(lp3954
g61
(g82
g63
NtRp3955
(dp3956
g66
(dp3957
sg75
g3951
sg68
(lp3958
g61
(g62
g63
NtRp3959
(dp3960
g66
(dp3961
g74
I3
ssg75
g3955
sg68
(lp3962
g104
asbasbasbag61
(g77
g63
NtRp3963
(dp3964
g66
(dp3965
sg75
g3933
sg68
(lp3966
g61
(g82
g63
NtRp3967
(dp3968
g66
(dp3969
sg75
g3963
sg68
(lp3970
g61
(g62
g63
NtRp3971
(dp3972
g66
(dp3973
g74
I3
ssg75
g3967
sg68
(lp3974
S'/welcome/default/index'
p3975
asbasbasbag61
(g77
g63
NtRp3976
(dp3977
g66
(dp3978
sg75
g3933
sg68
(lp3979
g61
(g82
g63
NtRp3980
(dp3981
g66
(dp3982
sg75
g3976
sg68
(lp3983
g61
(g62
g63
NtRp3984
(dp3985
g66
(dp3986
g74
I3
ssg75
g3980
sg68
(lp3987
g61
(g70
g63
NtRp3988
(dp3989
g66
(dp3990
g74
I2
ssg75
Nsg68
(lp3991
sbasbasbasbasbasbasbasbasbasbasbasbag61
(g77
g63
NtRp3992
(dp3993
g66
(dp3994
sg75
g3444
sg68
(lp3995
g61
(g82
g63
NtRp3996
(dp3997
g66
(dp3998
g86
g87
ssg75
g3992
sg68
(lp3999
S'meta'
p4000
asbag61
(g82
g63
NtRp4001
(dp4002
g66
(dp4003
g93
g94
ssg75
g3992
sg68
(lp4004
S':'
asbag61
(g82
g63
NtRp4005
(dp4006
g66
(dp4007
sg75
g3992
sg68
(lp4008
g61
(g62
g63
NtRp4009
(dp4010
g66
(dp4011
g74
I5
ssg75
g4005
sg68
(lp4012
g61
(g70
g63
NtRp4013
(dp4014
g66
(dp4015
g74
I4
ssg75
Nsg68
(lp4016
g61
(g77
g63
NtRp4017
(dp4018
g66
(dp4019
sg75
g4013
sg68
(lp4020
g61
(g82
g63
NtRp4021
(dp4022
g66
(dp4023
g86
g87
ssg75
g4017
sg68
(lp4024
S'author'
p4025
asbag61
(g82
g63
NtRp4026
(dp4027
g66
(dp4028
g93
g94
ssg75
g4017
sg68
(lp4029
S':'
asbag61
(g82
g63
NtRp4030
(dp4031
g66
(dp4032
sg75
g4017
sg68
(lp4033
g61
(g62
g63
NtRp4034
(dp4035
g66
(dp4036
g74
I4
ssg75
g4030
sg68
(lp4037
S'Your Name <you@example.com>'
p4038
asbasbasbag61
(g77
g63
NtRp4039
(dp4040
g66
(dp4041
sg75
g4013
sg68
(lp4042
g61
(g82
g63
NtRp4043
(dp4044
g66
(dp4045
g86
g87
ssg75
g4039
sg68
(lp4046
S'copyright'
p4047
asbag61
(g82
g63
NtRp4048
(dp4049
g66
(dp4050
g93
g94
ssg75
g4039
sg68
(lp4051
S':'
asbag61
(g82
g63
NtRp4052
(dp4053
g66
(dp4054
sg75
g4039
sg68
(lp4055
g61
(g62
g63
NtRp4056
(dp4057
g66
(dp4058
g74
I4
ssg75
g4052
sg68
(lp4059
S'Copyright 2011'
p4060
asbasbasbag61
(g77
g63
NtRp4061
(dp4062
g66
(dp4063
sg75
g4013
sg68
(lp4064
g61
(g82
g63
NtRp4065
(dp4066
g66
(dp4067
g86
g87
ssg75
g4061
sg68
(lp4068
S'description'
p4069
asbag61
(g82
g63
NtRp4070
(dp4071
g66
(dp4072
g93
g94
ssg75
g4061
sg68
(lp4073
S':'
asbag61
(g82
g63
NtRp4074
(dp4075
g66
(dp4076
sg75
g4061
sg68
(lp4077
g61
(g62
g63
NtRp4078
(dp4079
g66
(dp4080
g74
I4
ssg75
g4074
sg68
(lp4081
S'a cool new app'
p4082
asbasbasbag61
(g77
g63
NtRp4083
(dp4084
g66
(dp4085
sg75
g4013
sg68
(lp4086
g61
(g82
g63
NtRp4087
(dp4088
g66
(dp4089
g86
g87
ssg75
g4083
sg68
(lp4090
S'generator'
p4091
asbag61
(g82
g63
NtRp4092
(dp4093
g66
(dp4094
g93
g94
ssg75
g4083
sg68
(lp4095
S':'
asbag61
(g82
g63
NtRp4096
(dp4097
g66
(dp4098
sg75
g4083
sg68
(lp4099
g61
(g62
g63
NtRp4100
(dp4101
g66
(dp4102
g74
I4
ssg75
g4096
sg68
(lp4103
S'Web2py Web Framework'
p4104
asbasbasbag61
(g77
g63
NtRp4105
(dp4106
g66
(dp4107
sg75
g4013
sg68
(lp4108
g61
(g82
g63
NtRp4109
(dp4110
g66
(dp4111
g86
g87
ssg75
g4105
sg68
(lp4112
S'keywords'
p4113
asbag61
(g82
g63
NtRp4114
(dp4115
g66
(dp4116
g93
g94
ssg75
g4105
sg68
(lp4117
S':'
asbag61
(g82
g63
NtRp4118
(dp4119
g66
(dp4120
sg75
g4105
sg68
(lp4121
g61
(g62
g63
NtRp4122
(dp4123
g66
(dp4124
g74
I4
ssg75
g4118
sg68
(lp4125
S'web2py, python, framework'
p4126
asbasbasbasbasbasbasbag61
(g77
g63
NtRp4127
(dp4128
g66
(dp4129
sg75
g3444
sg68
(lp4130
g61
(g82
g63
NtRp4131
(dp4132
g66
(dp4133
g86
g87
ssg75
g4127
sg68
(lp4134
S'postprocessing'
p4135
asbag61
(g82
g63
NtRp4136
(dp4137
g66
(dp4138
g93
g94
ssg75
g4127
sg68
(lp4139
S':'
asbag61
(g82
g63
NtRp4140
(dp4141
g66
(dp4142
sg75
g4127
sg68
(lp4143
g61
(g62
g63
NtRp4144
(dp4145
g66
(dp4146
g74
I5
ssg75
g4140
sg68
(lp4147
g61
(g70
g63
NtRp4148
(dp4149
g66
(dp4150
g74
I4
ssg75
Nsg68
(lp4151
sbasbasbasbag61
(g77
g63
NtRp4152
(dp4153
g66
(dp4154
sg75
g3444
sg68
(lp4155
g61
(g82
g63
NtRp4156
(dp4157
g66
(dp4158
g86
g87
ssg75
g4152
sg68
(lp4159
S'session_file'
p4160
asbag61
(g82
g63
NtRp4161
(dp4162
g66
(dp4163
g93
g94
ssg75
g4152
sg68
(lp4164
S':'
asbag61
(g82
g63
NtRp4165
(dp4166
g66
(dp4167
sg75
g4152
sg68
(lp4168
g61
(g62
g63
NtRp4169
(dp4170
g66
(dp4171
g74
I5
ssg75
g4165
sg68
(lp4172
S"<open file 'C:\\Users\\mellinja\\Documents\\SC2Tracker\\SC2TourneyTracker\\web2py\\applications\\welcome\\sessions\\127.0.0.1-5b61f96d-52a5-4e52-805f-552fe78bcf40', mode 'rb+' at 0x00000000071EAB70>"
p4173
asbasbasbag61
(g77
g63
NtRp4174
(dp4175
g66
(dp4176
sg75
g3444
sg68
(lp4177
g61
(g82
g63
NtRp4178
(dp4179
g66
(dp4180
g86
g87
ssg75
g4174
sg68
(lp4181
S'session_filename'
p4182
asbag61
(g82
g63
NtRp4183
(dp4184
g66
(dp4185
g93
g94
ssg75
g4174
sg68
(lp4186
S':'
asbag61
(g82
g63
NtRp4187
(dp4188
g66
(dp4189
sg75
g4174
sg68
(lp4190
g61
(g62
g63
NtRp4191
(dp4192
g66
(dp4193
g74
I5
ssg75
g4187
sg68
(lp4194
S'C:\\Users\\mellinja\\Documents\\SC2Tracker\\SC2TourneyTracker\\web2py\\applications\\welcome\\sessions\\127.0.0.1-5b61f96d-52a5-4e52-805f-552fe78bcf40'
p4195
asbasbasbag61
(g77
g63
NtRp4196
(dp4197
g66
(dp4198
sg75
g3444
sg68
(lp4199
g61
(g82
g63
NtRp4200
(dp4201
g66
(dp4202
g86
g87
ssg75
g4196
sg68
(lp4203
S'session_id'
p4204
asbag61
(g82
g63
NtRp4205
(dp4206
g66
(dp4207
g93
g94
ssg75
g4196
sg68
(lp4208
S':'
asbag61
(g82
g63
NtRp4209
(dp4210
g66
(dp4211
sg75
g4196
sg68
(lp4212
g61
(g62
g63
NtRp4213
(dp4214
g66
(dp4215
g74
I5
ssg75
g4209
sg68
(lp4216
S'127.0.0.1-5b61f96d-52a5-4e52-805f-552fe78bcf40'
p4217
asbasbasbag61
(g77
g63
NtRp4218
(dp4219
g66
(dp4220
sg75
g3444
sg68
(lp4221
g61
(g82
g63
NtRp4222
(dp4223
g66
(dp4224
g86
g87
ssg75
g4218
sg68
(lp4225
S'session_id_name'
p4226
asbag61
(g82
g63
NtRp4227
(dp4228
g66
(dp4229
g93
g94
ssg75
g4218
sg68
(lp4230
S':'
asbag61
(g82
g63
NtRp4231
(dp4232
g66
(dp4233
sg75
g4218
sg68
(lp4234
g61
(g62
g63
NtRp4235
(dp4236
g66
(dp4237
g74
I5
ssg75
g4231
sg68
(lp4238
g3501
asbasbasbag61
(g77
g63
NtRp4239
(dp4240
g66
(dp4241
sg75
g3444
sg68
(lp4242
g61
(g82
g63
NtRp4243
(dp4244
g66
(dp4245
g86
g87
ssg75
g4239
sg68
(lp4246
S'session_locked'
p4247
asbag61
(g82
g63
NtRp4248
(dp4249
g66
(dp4250
g93
g94
ssg75
g4239
sg68
(lp4251
S':'
asbag61
(g82
g63
NtRp4252
(dp4253
g66
(dp4254
sg75
g4239
sg68
(lp4255
g61
(g62
g63
NtRp4256
(dp4257
g66
(dp4258
g74
I5
ssg75
g4252
sg68
(lp4259
g1673
asbasbasbag61
(g77
g63
NtRp4260
(dp4261
g66
(dp4262
sg75
g3444
sg68
(lp4263
g61
(g82
g63
NtRp4264
(dp4265
g66
(dp4266
g86
g87
ssg75
g4260
sg68
(lp4267
S'session_new'
p4268
asbag61
(g82
g63
NtRp4269
(dp4270
g66
(dp4271
g93
g94
ssg75
g4260
sg68
(lp4272
S':'
asbag61
(g82
g63
NtRp4273
(dp4274
g66
(dp4275
sg75
g4260
sg68
(lp4276
g61
(g62
g63
NtRp4277
(dp4278
g66
(dp4279
g74
I5
ssg75
g4273
sg68
(lp4280
g104
asbasbasbag61
(g77
g63
NtRp4281
(dp4282
g66
(dp4283
sg75
g3444
sg68
(lp4284
g61
(g82
g63
NtRp4285
(dp4286
g66
(dp4287
g86
g87
ssg75
g4281
sg68
(lp4288
S'status'
p4289
asbag61
(g82
g63
NtRp4290
(dp4291
g66
(dp4292
g93
g94
ssg75
g4281
sg68
(lp4293
S':'
asbag61
(g82
g63
NtRp4294
(dp4295
g66
(dp4296
sg75
g4281
sg68
(lp4297
g61
(g62
g63
NtRp4298
(dp4299
g66
(dp4300
g74
I5
ssg75
g4294
sg68
(lp4301
S'200'
p4302
asbasbasbag61
(g77
g63
NtRp4303
(dp4304
g66
(dp4305
sg75
g3444
sg68
(lp4306
g61
(g82
g63
NtRp4307
(dp4308
g66
(dp4309
g86
g87
ssg75
g4303
sg68
(lp4310
S'subtitle'
p4311
asbag61
(g82
g63
NtRp4312
(dp4313
g66
(dp4314
g93
g94
ssg75
g4303
sg68
(lp4315
S':'
asbag61
(g82
g63
NtRp4316
(dp4317
g66
(dp4318
sg75
g4303
sg68
(lp4319
g61
(g62
g63
NtRp4320
(dp4321
g66
(dp4322
g74
I5
ssg75
g4316
sg68
(lp4323
g3949
(S's2\x00\x00\x00Starcraft II Custom Tournament Tracker Version 0.1'
tRp4324
asbasbasbag61
(g77
g63
NtRp4325
(dp4326
g66
(dp4327
sg75
g3444
sg68
(lp4328
g61
(g82
g63
NtRp4329
(dp4330
g66
(dp4331
g86
g87
ssg75
g4325
sg68
(lp4332
S'title'
p4333
asbag61
(g82
g63
NtRp4334
(dp4335
g66
(dp4336
g93
g94
ssg75
g4325
sg68
(lp4337
S':'
asbag61
(g82
g63
NtRp4338
(dp4339
g66
(dp4340
sg75
g4325
sg68
(lp4341
g61
(g62
g63
NtRp4342
(dp4343
g66
(dp4344
g74
I5
ssg75
g4338
sg68
(lp4345
S'SC2CTT v0.1'
p4346
asbasbasbag61
(g77
g63
NtRp4347
(dp4348
g66
(dp4349
sg75
g3444
sg68
(lp4350
g61
(g82
g63
NtRp4351
(dp4352
g66
(dp4353
g86
g87
ssg75
g4347
sg68
(lp4354
g2359
asbag61
(g82
g63
NtRp4355
(dp4356
g66
(dp4357
g93
g94
ssg75
g4347
sg68
(lp4358
S':'
asbag61
(g82
g63
NtRp4359
(dp4360
g66
(dp4361
sg75
g4347
sg68
(lp4362
g61
(g62
g63
NtRp4363
(dp4364
g66
(dp4365
g74
I5
ssg75
g4359
sg68
(lp4366
g2372
asbasbasbag61
(g77
g63
NtRp4367
(dp4368
g66
(dp4369
sg75
g3444
sg68
(lp4370
g61
(g82
g63
NtRp4371
(dp4372
g66
(dp4373
g86
g87
ssg75
g4367
sg68
(lp4374
S'view'
p4375
asbag61
(g82
g63
NtRp4376
(dp4377
g66
(dp4378
g93
g94
ssg75
g4367
sg68
(lp4379
S':'
asbag61
(g82
g63
NtRp4380
(dp4381
g66
(dp4382
sg75
g4367
sg68
(lp4383
g61
(g62
g63
NtRp4384
(dp4385
g66
(dp4386
g74
I5
ssg75
g4380
sg68
(lp4387
S'tournament/show.html'
p4388
asbasbasbasbasbsS'locals'
p4389
(dp4390
S'a'
S"('SELECT * FROM Tournament WHERE ID = 8_OR_1=1',)"
p4391
sS'self'
p4392
S'<gluon.dal.MSSQLAdapter object>'
p4393
sS'b'
g21
sS't0'
p4394
S'1328649497.346'
p4395
sssS'traceback'
p4396
S'Traceback (most recent call last):\n  File "C:\\Users\\mellinja\\Documents\\SC2Tracker\\SC2TourneyTracker\\web2py\\gluon\\restricted.py", line 204, in restricted\n    exec ccode in environment\n  File "C:\\Users\\mellinja\\Documents\\SC2Tracker\\SC2TourneyTracker\\web2py\\applications\\welcome\\controllers/tournament.py", line 12, in <module>\n  File "C:\\Users\\mellinja\\Documents\\SC2Tracker\\SC2TourneyTracker\\web2py\\gluon\\globals.py", line 172, in <lambda>\n    self._caller = lambda f: f()\n  File "C:\\Users\\mellinja\\Documents\\SC2Tracker\\SC2TourneyTracker\\web2py\\applications\\welcome\\controllers/tournament.py", line 9, in show\n    tourny = db.executesql(\'SELECT * FROM Tournament WHERE ID = \' + str(request.args(0)))\n  File "C:\\Users\\mellinja\\Documents\\SC2Tracker\\SC2TourneyTracker\\web2py\\gluon\\dal.py", line 5170, in executesql\n    self._adapter.execute(query)\n  File "C:\\Users\\mellinja\\Documents\\SC2Tracker\\SC2TourneyTracker\\web2py\\gluon\\dal.py", line 1359, in execute\n    return self.log_execute(*a, **b)\n  File "C:\\Users\\mellinja\\Documents\\SC2Tracker\\SC2TourneyTracker\\web2py\\gluon\\dal.py", line 1353, in log_execute\n    ret = self.cursor.execute(*a, **b)\nProgrammingError: (\'42000\', "[42000] [Microsoft][ODBC SQL Server Driver][SQL Server]Incorrect syntax near \'_OR_1\'. (102) (SQLExecDirectW)")\n'
p4397
s.