(dp1
S'output'
p2
S"<type 'exceptions.SyntaxError'> invalid syntax (tournament/show.html, line 80)"
p3
sS'layer'
p4
S'C:\\Users\\mellinja\\Documents\\SC2Tracker\\SC2TourneyTracker\\web2py\\applications\\welcome\\views\\tournament/show.html'
p5
sS'code'
p6
S'response.write(\'<!DOCTYPE html>\\r\\n<!-- paulirish.com/2008/conditional-stylesheets-vs-css-hacks-answer-neither/ -->\\r\\n<!--[if lt IE 7]><html class="ie ie6 ie-lte9 ie-lte8 ie-lte7 no-js" lang="\', escape=False)\nresponse.write(T.accepted_language or \'en\')\nresponse.write(\'"> <![endif]-->\\r\\n<!--[if IE 7]><html class="ie ie7 ie-lte9 ie-lte8 ie-lte7 no-js" lang="\', escape=False)\nresponse.write(T.accepted_language or \'en\')\nresponse.write(\'"> <![endif]-->\\r\\n<!--[if IE 8]><html class="ie ie8 ie-lte9 ie-lte8 no-js" lang="\', escape=False)\nresponse.write(T.accepted_language or \'en\')\nresponse.write(\'"> <![endif]-->\\r\\n<!--[if IE 9]><html class="ie9 ie-lte9 no-js" lang="\', escape=False)\nresponse.write(T.accepted_language or \'en\')\nresponse.write(\'"> <![endif]-->\\r\\n<!--[if (gt IE 9)|!(IE)]><!--> <html class="no-js" lang="\', escape=False)\nresponse.write(T.accepted_language or \'en\')\nresponse.write(\'"> <!--<![endif]-->\\r\\n<head>\\r\\n  <meta charset="utf-8" />\\r\\n  <!-- www.phpied.com/conditional-comments-block-downloads/ -->\\r\\n  <!-- Always force latest IE rendering engine\\r\\n       (even in intranet) & Chrome Frame\\r\\n       Remove this if you use the .htaccess -->\\r\\n  <!--[if IE]>\\r\\n    <meta http-equiv="X-UA-Compatible" content="IE=edge\', escape=False)\nresponse.write(not request.is_local and \',chrome=1\' or \'\')\nresponse.write(\'">\\r\\n  <![endif]-->\\r\\n  \\r\\n  <title>\', escape=False)\nresponse.write(response.title or request.application)\nresponse.write(\'</title>\\r\\n  \\r\\n  <!-- http://dev.w3.org/html5/markup/meta.name.html -->\\r\\n  <meta name="application-name" content="\', escape=False)\nresponse.write(request.application)\nresponse.write(\'" />\\r\\n  \\r\\n  <!-- Speaking of Google, don\\\'t forget to set your site up:\\r\\n       http://google.com/webmasters -->\\r\\n  <meta name="google-site-verification" content="" />\\r\\n\\r\\n  <!--  Mobile Viewport Fix\\r\\n      j.mp/mobileviewport & davidbcalhoun.com/2010/viewport-metatag\\r\\n      device-width: Occupy full width of the screen in its current orientation\\r\\n      initial-scale = 1.0 retains dimensions instead of zooming out if page height > device height\\r\\n      user-scalable = yes allows the user to zoom in -->\\r\\n  <meta name="viewport" content="width=device-width, initial-scale=1.0, user-scalable=yes">\\r\\n  \\r\\n  <!-- Place favicon.ico and apple-touch-icon.png in the root of your domain and delete these references -->\\r\\n  <link rel="shortcut icon" href="\', escape=False)\nresponse.write(URL(\'static\',\'favicon.ico\'))\nresponse.write(\'" type="image/x-icon">\\r\\n  <link rel="apple-touch-icon" href="\', escape=False)\nresponse.write(URL(\'static\',\'favicon.png\'))\nresponse.write(\'">\\r\\n\\r\\n  <!-- All JavaScript at the bottom, except for Modernizr which enables \\r\\n       HTML5 elements & feature detects -->\\r\\n  <script src="\', escape=False)\nresponse.write(URL(\'static\',\'js/modernizr.custom.js\'))\nresponse.write(\'"></script>  \\r\\n\\r\\n  <!-- include stylesheets -->\\r\\n  \', escape=False)\nresponse.files.append(URL(\'static\',\'css/skeleton.css\'))\nresponse.files.append(URL(\'static\',\'css/web2py.css\'))\nresponse.files.append(URL(\'static\',\'css/superfish.css\'))\nresponse.files.append(URL(\'static\',\'js/superfish.js\'))\nresponse.write(\'\\r\\n\\r\\n  \', escape=False)\nresponse.write(\'<script type="text/javascript"><!--\\r\\n    // These variables are used by the web2py_ajax_init function in web2py_ajax.js (which is loaded below).\\r\\n    var w2p_ajax_confirm_message = "\', escape=False)\nresponse.write(T(\'Are you sure you want to delete this object?\'))\nresponse.write(\'";\\r\\n    var w2p_ajax_date_format = "\', escape=False)\nresponse.write(T(\'%Y-%m-%d\'))\nresponse.write(\'";\\r\\n    var w2p_ajax_datetime_format = "\', escape=False)\nresponse.write(T(\'%Y-%m-%d %H:%M:%S\'))\nresponse.write(\'";\\r\\n    //--></script>\\r\\n\', escape=False)\nresponse.files.insert(0,URL(\'static\',\'js/jquery.js\'))\nresponse.files.insert(1,URL(\'static\',\'css/calendar.css\'))\nresponse.files.insert(2,URL(\'static\',\'js/calendar.js\'))\nresponse.files.insert(3,URL(\'static\',\'js/web2py.js\'))\nresponse.include_meta()\nresponse.include_files()\nresponse.write(\'\\r\\n\', escape=False)\nresponse.write(\'\\r\\n\\r\\n  <script type="text/javascript">\\r\\n    jQuery(function(){ jQuery(\\\'ul.sf-menu\\\').supersubs({minWidth:12,maxWidth:30,extraWidth:3}).superfish(); });\\r\\n  </script>\\r\\n\\r\\n  \', escape=False)\n# using sidebars need to know what sidebar you want to use\nleft_sidebar_enabled = globals().get(\'left_sidebar_enabled\',False)\nright_sidebar_enabled = globals().get(\'right_sidebar_enabled\',False)\nmiddle_columns = {0:\'sixteen\',1:\'twelve\',2:\'eight\'}[\n(left_sidebar_enabled and 1 or 0)+(right_sidebar_enabled and 1 or 0)]\nresponse.write(\'\\r\\n\\r\\n  <!-- uncomment here to load jquery-ui\\r\\n  <link rel="stylesheet" href="http://ajax.googleapis.com/ajax/libs/jqueryui/1.8.16/themes/base/jquery-ui.css" type="text/css" media="all" />\\r\\n  <script src="http://ajax.googleapis.com/ajax/libs/jqueryui/1.8.16/jquery-ui.min.js" type="text/javascript"></script>\\r\\n  uncomment to load jquery-ui //-->\\r\\n</head>\\r\\n<body>\\r\\n  <div class="wrapper"><!-- for sticky footer -->\\r\\n  \\r\\n    <div class="topbar">\\r\\n      <div class="container">    \\r\\n        <div class="sixteen columns">\\r\\n          <div id="navbar">\', escape=False)\nresponse.write(\'auth\' in globals() and auth.navbar(separators=(\' \',\' | \',\'\')))\nresponse.write(\'</div>\\r\\n          \', escape=False)\nis_mobile=request.user_agent().is_mobile\nresponse.write(\'\\r\\n          <div id="menu">\', escape=False)\nresponse.write(MENU(response.menu, _class=\'mobile-menu\' if is_mobile else \'sf-menu\',mobile=is_mobile))\nresponse.write(\'\\r\\n          </div>\\r\\n        </div>\\r\\n      </div>\\r\\n    </div><!-- topbar -->\\r\\n    \\r\\n    <div class="flash">\', escape=False)\nresponse.write(response.flash or \'\')\nresponse.write(\'</div>\\r\\n    \\r\\n    <div class="header">\\r\\n      <div class="container">         \\r\\n        <div class="sixteen columns">\\r\\n          <h1 class="remove-bottom" style="margin-top: .5em;">\\r\\n          \', escape=False)\nresponse.write(response.title or request.application)\nresponse.write(\'\\r\\n          </h1>\\r\\n          <h5>\', escape=False)\nresponse.write(response.subtitle or \'\')\nresponse.write(\'</h5>\\r\\n        </div>\\r\\n        <div class="sixteen columns">\\r\\n          <div class="statusbar clearfix">\\r\\n            \', escape=False)\nresponse.write(\'\\r\\n            <div class="breadcrumbs">\', escape=False)\nresponse.write(request.function.replace(\'_\', \' \').title())\nresponse.write(\'</div>\\r\\n            \', escape=False)\nresponse.write(\'\\r\\n            <!-- AddToAny BEGIN -->\\r\\n            <!--<div style="float:right; padding-top: .25em;" class="a2a_kit a2a_default_style">\\r\\n            <a class="a2a_dd" href="http://www.addtoany.com/share_save">Share</a></div>\\r\\n            <script type="text/javascript" src="http://static.addtoany.com/menu/page.js"></script>-->\\r\\n            <!-- AddToAny END -->\\r\\n          </div>\\r\\n        </div>\\r\\n      </div>\\r\\n    </div>\\r\\n\\r\\n    <div class="main">\\r\\n      <div class="container">                 \\r\\n        \', escape=False)\nif left_sidebar_enabled:\n    response.write(\'\\r\\n        <div class="four columns left-sidebar">\\r\\n          \', escape=False)\n    response.write(\'\\r\\n          <h3>Left Sidebar</h3>\\r\\n          <p></p>\\r\\n          \', escape=False)\n    response.write(\'\\r\\n        </div>\\r\\n        \', escape=False)\n    pass\nresponse.write(\'\\r\\n        \\r\\n        <div class="\', escape=False)\nresponse.write(middle_columns)\nresponse.write(\' columns center">\\r\\n          \', escape=False)\nresponse.write(\'\\r\\n          \', escape=False)\nresponse.write(\'\\r\\n<h1>This is the tournament/show.html template</h1>\\r\\n\', escape=False)\nresponse.write(test)\nresponse.write(\'\\r\\n<p>\\r\\n\', escape=False)\nresponse.write(A(T(\'Join this tournament\'), _href=(URL(\'join/\' + pid))))\nresponse.write(\'\\r\\n</p>\\r\\n\', escape=False)\nif message != ""\nresponse.write(\'\\r\\n    \', escape=False)\nresponse.flash = message\nresponse.write(\'\\r\\n\', escape=False)\nresponse.write(\'\\r\\n          \', escape=False)\nresponse.write(\'\\r\\n        </div>\\r\\n        \\r\\n        \', escape=False)\nif right_sidebar_enabled:\n    response.write(\'\\r\\n        <div class="four columns">\\r\\n          \', escape=False)\n    response.write(\'\\r\\n          <h3>Right Sidebar</h3>\\r\\n          <p></p>\\r\\n          \', escape=False)\n    response.write(\'\\r\\n        </div>    \\r\\n        \', escape=False)\n    pass\nresponse.write(\'\\r\\n        \\r\\n      </div><!-- container -->\\r\\n    </div><!-- main -->\\r\\n    \\r\\n    <div class="push"></div>\\r\\n  </div><!-- wrapper -->\\r\\n\\r\\n  <div class="footer">\\r\\n    <div class="container">    \\r\\n      <div class="sixteen columns">\\r\\n        \', escape=False)\nresponse.write(\' <!-- this is default footer -->\\r\\n        <div class="footer-content clearfix">\\r\\n          <div class="copyright">\\r\\n\\t\\t\\t  \', escape=False)\nresponse.write(T(\'Copyright\'))\nresponse.write(\' &#169; 2012 <br />\\r\\n\\t\\t\\t  Kyle Cheung, Simon Liang, Jackson Melling\\r\\n\\t\\t  </div>\\r\\n          <div style="float: right;">\\r\\n            <a href="http://www.web2py.com/">\\r\\n            <img style="padding-bottom: 0;" src="\', escape=False)\nresponse.write(URL(\'static\',\'images/poweredby.png\'))\nresponse.write(\'"/>\\r\\n            </a>\\r\\n          </div>\\r\\n        </div>\\r\\n        \', escape=False)\nresponse.write(\' \\r\\n      </div>\\r\\n    </div><!-- container -->\\r\\n  </div><!-- footer -->\\r\\n  \\r\\n  <!--[if lt IE 7 ]>\\r\\n    <script src="\', escape=False)\nresponse.write(URL(\'static\',\'js/dd_belatedpng.js\'))\nresponse.write(\'"></script>\\r\\n    <script> DD_belatedPNG.fix(\\\'img, .png_bg\\\'); //fix any <img> or .png_bg background-images </script>\\r\\n    <![endif]-->\\r\\n  \', escape=False)\nif response.google_analytics_id:\n    response.write(\'<script type="text/javascript"> var _gaq = _gaq || []; _gaq.push([\\\'_setAccount\\\', \\\'\', escape=False)\n    response.write(response.google_analytics_id)\n    response.write("\']); _gaq.push([\'_trackPageview\']); (function() { var ga = document.createElement(\'script\'); ga.type = \'text/javascript\'; ga.async = true; ga.src = (\'https:\' == document.location.protocol ? \'https://ssl\' : \'http://www\') + \'.google-analytics.com/ga.js\'; var s = document.getElementsByTagName(\'script\')[0]; s.parentNode.insertBefore(ga, s); })(); </script> ", escape=False)\n    pass\nresponse.write(\'\\r\\n</body>\\r\\n</html>\\r\\n\', escape=False)'
p7
sS'snapshot'
p8
(dp9
S'exception'
p10
(dp11
S'__getslice__'
p12
S"<method-wrapper '__getslice__' of exceptions.SyntaxError object>"
p13
sS'text'
p14
S'\'if message != ""\\n\''
p15
sS'__str__'
p16
S"<method-wrapper '__str__' of exceptions.SyntaxError object>"
p17
sS'__reduce__'
p18
S'<built-in method __reduce__ of exceptions.SyntaxError object>'
p19
sS'__dict__'
p20
S'{}'
p21
sS'__sizeof__'
p22
S'<built-in method __sizeof__ of exceptions.SyntaxError object>'
p23
sS'__init__'
p24
S"<method-wrapper '__init__' of exceptions.SyntaxError object>"
p25
sS'__setattr__'
p26
S"<method-wrapper '__setattr__' of exceptions.SyntaxError object>"
p27
sS'__reduce_ex__'
p28
S'<built-in method __reduce_ex__ of exceptions.SyntaxError object>'
p29
sS'__new__'
p30
S'<built-in method __new__ of type object>'
p31
sS'__format__'
p32
S'<built-in method __format__ of exceptions.SyntaxError object>'
p33
sS'__class__'
p34
S"<type 'exceptions.SyntaxError'>"
p35
sS'filename'
p36
S"r'C:\\Users\\mellinja\\Documents\\SC2Tracker\\SC2Tourne...y\\applications\\welcome\\views\\tournament/show.html'"
p37
sS'lineno'
p38
S'80'
p39
sS'msg'
p40
S"'invalid syntax'"
p41
sS'__doc__'
p42
S"'Invalid syntax.'"
p43
sS'__getitem__'
p44
S"<method-wrapper '__getitem__' of exceptions.SyntaxError object>"
p45
sS'__setstate__'
p46
S'<built-in method __setstate__ of exceptions.SyntaxError object>'
p47
sS'__getattribute__'
p48
S"<method-wrapper '__getattribute__' of exceptions.SyntaxError object>"
p49
sS'print_file_and_line'
p50
S'None'
p51
sS'args'
p52
S'(\'invalid syntax\', (r\'C:\\Users\\mellinja\\Documents\\SC2Tracker\\SC2Tourne...y\\applications\\welcome\\views\\tournament/show.html\', 80, 17, \'if message != ""\\n\'))'
p53
sS'__subclasshook__'
p54
S'<built-in method __subclasshook__ of type object>'
p55
sS'offset'
p56
S'17'
p57
sS'__unicode__'
p58
S'<built-in method __unicode__ of exceptions.SyntaxError object>'
p59
sS'__delattr__'
p60
S"<method-wrapper '__delattr__' of exceptions.SyntaxError object>"
p61
sS'__repr__'
p62
S"<method-wrapper '__repr__' of exceptions.SyntaxError object>"
p63
sS'__hash__'
p64
S"<method-wrapper '__hash__' of exceptions.SyntaxError object>"
p65
ssS'evalue'
p66
S'invalid syntax (tournament/show.html, line 80)'
p67
sS'request'
p68
ccopy_reg
_reconstructor
p69
(cgluon.html
BEAUTIFY
p70
c__builtin__
object
p71
NtRp72
(dp73
S'attributes'
p74
(dp75
sS'components'
p76
(lp77
g69
(cgluon.html
TABLE
p78
g71
NtRp79
(dp80
g74
(dp81
S'level'
p82
I5
ssS'parent'
p83
Nsg76
(lp84
g69
(cgluon.html
TR
p85
g71
NtRp86
(dp87
g74
(dp88
sg83
g79
sg76
(lp89
g69
(cgluon.html
TD
p90
g71
NtRp91
(dp92
g74
(dp93
S'_style'
p94
S'font-weight:bold;vertical-align:top'
p95
ssg83
g86
sg76
(lp96
S'ajax'
p97
asbag69
(g90
g71
NtRp98
(dp99
g74
(dp100
S'_valign'
p101
S'top'
p102
ssg83
g86
sg76
(lp103
S':'
asbag69
(g90
g71
NtRp104
(dp105
g74
(dp106
sg83
g86
sg76
(lp107
g69
(g70
g71
NtRp108
(dp109
g74
(dp110
g82
I5
ssg83
g104
sg76
(lp111
S'False'
p112
asbasbasbag69
(g85
g71
NtRp113
(dp114
g74
(dp115
sg83
g79
sg76
(lp116
g69
(g90
g71
NtRp117
(dp118
g74
(dp119
g94
g95
ssg83
g113
sg76
(lp120
S'application'
p121
asbag69
(g90
g71
NtRp122
(dp123
g74
(dp124
g101
g102
ssg83
g113
sg76
(lp125
S':'
asbag69
(g90
g71
NtRp126
(dp127
g74
(dp128
sg83
g113
sg76
(lp129
g69
(g70
g71
NtRp130
(dp131
g74
(dp132
g82
I5
ssg83
g126
sg76
(lp133
S'welcome'
p134
asbasbasbag69
(g85
g71
NtRp135
(dp136
g74
(dp137
sg83
g79
sg76
(lp138
g69
(g90
g71
NtRp139
(dp140
g74
(dp141
g94
g95
ssg83
g135
sg76
(lp142
g52
asbag69
(g90
g71
NtRp143
(dp144
g74
(dp145
g101
g102
ssg83
g135
sg76
(lp146
S':'
asbag69
(g90
g71
NtRp147
(dp148
g74
(dp149
sg83
g135
sg76
(lp150
g69
(g70
g71
NtRp151
(dp152
g74
(dp153
g82
I5
ssg83
g147
sg76
(lp154
g69
(g78
g71
NtRp155
(dp156
g74
(dp157
g82
I4
ssg83
Nsg76
(lp158
g69
(g85
g71
NtRp159
(dp160
g74
(dp161
sg83
g155
sg76
(lp162
g69
(g90
g71
NtRp163
(dp164
g74
(dp165
sg83
g159
sg76
(lp166
g69
(g70
g71
NtRp167
(dp168
g74
(dp169
g82
I4
ssg83
g163
sg76
(lp170
S'7'
asbasbasbasbasbasbasbag69
(g85
g71
NtRp171
(dp172
g74
(dp173
sg83
g79
sg76
(lp174
g69
(g90
g71
NtRp175
(dp176
g74
(dp177
g94
g95
ssg83
g171
sg76
(lp178
S'body'
p179
asbag69
(g90
g71
NtRp180
(dp181
g74
(dp182
g101
g102
ssg83
g171
sg76
(lp183
S':'
asbag69
(g90
g71
NtRp184
(dp185
g74
(dp186
sg83
g171
sg76
(lp187
g69
(g70
g71
NtRp188
(dp189
g74
(dp190
g82
I5
ssg83
g184
sg76
(lp191
S'<cStringIO.StringO object at 0x000000000789E880>'
p192
asbasbasbag69
(g85
g71
NtRp193
(dp194
g74
(dp195
sg83
g79
sg76
(lp196
g69
(g90
g71
NtRp197
(dp198
g74
(dp199
g94
g95
ssg83
g193
sg76
(lp200
S'client'
p201
asbag69
(g90
g71
NtRp202
(dp203
g74
(dp204
g101
g102
ssg83
g193
sg76
(lp205
S':'
asbag69
(g90
g71
NtRp206
(dp207
g74
(dp208
sg83
g193
sg76
(lp209
g69
(g70
g71
NtRp210
(dp211
g74
(dp212
g82
I5
ssg83
g206
sg76
(lp213
S'127.0.0.1'
p214
asbasbasbag69
(g85
g71
NtRp215
(dp216
g74
(dp217
sg83
g79
sg76
(lp218
g69
(g90
g71
NtRp219
(dp220
g74
(dp221
g94
g95
ssg83
g215
sg76
(lp222
S'controller'
p223
asbag69
(g90
g71
NtRp224
(dp225
g74
(dp226
g101
g102
ssg83
g215
sg76
(lp227
S':'
asbag69
(g90
g71
NtRp228
(dp229
g74
(dp230
sg83
g215
sg76
(lp231
g69
(g70
g71
NtRp232
(dp233
g74
(dp234
g82
I5
ssg83
g228
sg76
(lp235
S'tournament'
p236
asbasbasbag69
(g85
g71
NtRp237
(dp238
g74
(dp239
sg83
g79
sg76
(lp240
g69
(g90
g71
NtRp241
(dp242
g74
(dp243
g94
g95
ssg83
g237
sg76
(lp244
S'cookies'
p245
asbag69
(g90
g71
NtRp246
(dp247
g74
(dp248
g101
g102
ssg83
g237
sg76
(lp249
S':'
asbag69
(g90
g71
NtRp250
(dp251
g74
(dp252
sg83
g237
sg76
(lp253
g69
(g70
g71
NtRp254
(dp255
g74
(dp256
g82
I5
ssg83
g250
sg76
(lp257
g69
(g78
g71
NtRp258
(dp259
g74
(dp260
g82
I4
ssg83
Nsg76
(lp261
g69
(g85
g71
NtRp262
(dp263
g74
(dp264
sg83
g258
sg76
(lp265
g69
(g90
g71
NtRp266
(dp267
g74
(dp268
g94
g95
ssg83
g262
sg76
(lp269
S'session_id_admin'
p270
asbag69
(g90
g71
NtRp271
(dp272
g74
(dp273
g101
g102
ssg83
g262
sg76
(lp274
S':'
asbag69
(g90
g71
NtRp275
(dp276
g74
(dp277
sg83
g262
sg76
(lp278
g69
(g70
g71
NtRp279
(dp280
g74
(dp281
g82
I4
ssg83
g275
sg76
(lp282
g69
(g78
g71
NtRp283
(dp284
g74
(dp285
g82
I3
ssg83
Nsg76
(lp286
g69
(g85
g71
NtRp287
(dp288
g74
(dp289
sg83
g283
sg76
(lp290
g69
(g90
g71
NtRp291
(dp292
g74
(dp293
g94
g95
ssg83
g287
sg76
(lp294
S'comment'
p295
asbag69
(g90
g71
NtRp296
(dp297
g74
(dp298
g101
g102
ssg83
g287
sg76
(lp299
S':'
asbag69
(g90
g71
NtRp300
(dp301
g74
(dp302
sg83
g287
sg76
(lp303
g69
(g70
g71
NtRp304
(dp305
g74
(dp306
g82
I3
ssg83
g300
sg76
(lp307
S''
asbasbasbag69
(g85
g71
NtRp308
(dp309
g74
(dp310
sg83
g283
sg76
(lp311
g69
(g90
g71
NtRp312
(dp313
g74
(dp314
g94
g95
ssg83
g308
sg76
(lp315
S'domain'
p316
asbag69
(g90
g71
NtRp317
(dp318
g74
(dp319
g101
g102
ssg83
g308
sg76
(lp320
S':'
asbag69
(g90
g71
NtRp321
(dp322
g74
(dp323
sg83
g308
sg76
(lp324
g69
(g70
g71
NtRp325
(dp326
g74
(dp327
g82
I3
ssg83
g321
sg76
(lp328
S''
asbasbasbag69
(g85
g71
NtRp329
(dp330
g74
(dp331
sg83
g283
sg76
(lp332
g69
(g90
g71
NtRp333
(dp334
g74
(dp335
g94
g95
ssg83
g329
sg76
(lp336
S'expires'
p337
asbag69
(g90
g71
NtRp338
(dp339
g74
(dp340
g101
g102
ssg83
g329
sg76
(lp341
S':'
asbag69
(g90
g71
NtRp342
(dp343
g74
(dp344
sg83
g329
sg76
(lp345
g69
(g70
g71
NtRp346
(dp347
g74
(dp348
g82
I3
ssg83
g342
sg76
(lp349
S''
asbasbasbag69
(g85
g71
NtRp350
(dp351
g74
(dp352
sg83
g283
sg76
(lp353
g69
(g90
g71
NtRp354
(dp355
g74
(dp356
g94
g95
ssg83
g350
sg76
(lp357
S'httponly'
p358
asbag69
(g90
g71
NtRp359
(dp360
g74
(dp361
g101
g102
ssg83
g350
sg76
(lp362
S':'
asbag69
(g90
g71
NtRp363
(dp364
g74
(dp365
sg83
g350
sg76
(lp366
g69
(g70
g71
NtRp367
(dp368
g74
(dp369
g82
I3
ssg83
g363
sg76
(lp370
S''
asbasbasbag69
(g85
g71
NtRp371
(dp372
g74
(dp373
sg83
g283
sg76
(lp374
g69
(g90
g71
NtRp375
(dp376
g74
(dp377
g94
g95
ssg83
g371
sg76
(lp378
S'max-age'
p379
asbag69
(g90
g71
NtRp380
(dp381
g74
(dp382
g101
g102
ssg83
g371
sg76
(lp383
S':'
asbag69
(g90
g71
NtRp384
(dp385
g74
(dp386
sg83
g371
sg76
(lp387
g69
(g70
g71
NtRp388
(dp389
g74
(dp390
g82
I3
ssg83
g384
sg76
(lp391
S''
asbasbasbag69
(g85
g71
NtRp392
(dp393
g74
(dp394
sg83
g283
sg76
(lp395
g69
(g90
g71
NtRp396
(dp397
g74
(dp398
g94
g95
ssg83
g392
sg76
(lp399
S'path'
p400
asbag69
(g90
g71
NtRp401
(dp402
g74
(dp403
g101
g102
ssg83
g392
sg76
(lp404
S':'
asbag69
(g90
g71
NtRp405
(dp406
g74
(dp407
sg83
g392
sg76
(lp408
g69
(g70
g71
NtRp409
(dp410
g74
(dp411
g82
I3
ssg83
g405
sg76
(lp412
S''
asbasbasbag69
(g85
g71
NtRp413
(dp414
g74
(dp415
sg83
g283
sg76
(lp416
g69
(g90
g71
NtRp417
(dp418
g74
(dp419
g94
g95
ssg83
g413
sg76
(lp420
S'secure'
p421
asbag69
(g90
g71
NtRp422
(dp423
g74
(dp424
g101
g102
ssg83
g413
sg76
(lp425
S':'
asbag69
(g90
g71
NtRp426
(dp427
g74
(dp428
sg83
g413
sg76
(lp429
g69
(g70
g71
NtRp430
(dp431
g74
(dp432
g82
I3
ssg83
g426
sg76
(lp433
S''
asbasbasbag69
(g85
g71
NtRp434
(dp435
g74
(dp436
sg83
g283
sg76
(lp437
g69
(g90
g71
NtRp438
(dp439
g74
(dp440
g94
g95
ssg83
g434
sg76
(lp441
S'version'
p442
asbag69
(g90
g71
NtRp443
(dp444
g74
(dp445
g101
g102
ssg83
g434
sg76
(lp446
S':'
asbag69
(g90
g71
NtRp447
(dp448
g74
(dp449
sg83
g434
sg76
(lp450
g69
(g70
g71
NtRp451
(dp452
g74
(dp453
g82
I3
ssg83
g447
sg76
(lp454
S''
asbasbasbasbasbasbasbag69
(g85
g71
NtRp455
(dp456
g74
(dp457
sg83
g258
sg76
(lp458
g69
(g90
g71
NtRp459
(dp460
g74
(dp461
g94
g95
ssg83
g455
sg76
(lp462
S'session_id_welcome'
p463
asbag69
(g90
g71
NtRp464
(dp465
g74
(dp466
g101
g102
ssg83
g455
sg76
(lp467
S':'
asbag69
(g90
g71
NtRp468
(dp469
g74
(dp470
sg83
g455
sg76
(lp471
g69
(g70
g71
NtRp472
(dp473
g74
(dp474
g82
I4
ssg83
g468
sg76
(lp475
g69
(g78
g71
NtRp476
(dp477
g74
(dp478
g82
I3
ssg83
Nsg76
(lp479
g69
(g85
g71
NtRp480
(dp481
g74
(dp482
sg83
g476
sg76
(lp483
g69
(g90
g71
NtRp484
(dp485
g74
(dp486
g94
g95
ssg83
g480
sg76
(lp487
g295
asbag69
(g90
g71
NtRp488
(dp489
g74
(dp490
g101
g102
ssg83
g480
sg76
(lp491
S':'
asbag69
(g90
g71
NtRp492
(dp493
g74
(dp494
sg83
g480
sg76
(lp495
g69
(g70
g71
NtRp496
(dp497
g74
(dp498
g82
I3
ssg83
g492
sg76
(lp499
S''
asbasbasbag69
(g85
g71
NtRp500
(dp501
g74
(dp502
sg83
g476
sg76
(lp503
g69
(g90
g71
NtRp504
(dp505
g74
(dp506
g94
g95
ssg83
g500
sg76
(lp507
g316
asbag69
(g90
g71
NtRp508
(dp509
g74
(dp510
g101
g102
ssg83
g500
sg76
(lp511
S':'
asbag69
(g90
g71
NtRp512
(dp513
g74
(dp514
sg83
g500
sg76
(lp515
g69
(g70
g71
NtRp516
(dp517
g74
(dp518
g82
I3
ssg83
g512
sg76
(lp519
S''
asbasbasbag69
(g85
g71
NtRp520
(dp521
g74
(dp522
sg83
g476
sg76
(lp523
g69
(g90
g71
NtRp524
(dp525
g74
(dp526
g94
g95
ssg83
g520
sg76
(lp527
g337
asbag69
(g90
g71
NtRp528
(dp529
g74
(dp530
g101
g102
ssg83
g520
sg76
(lp531
S':'
asbag69
(g90
g71
NtRp532
(dp533
g74
(dp534
sg83
g520
sg76
(lp535
g69
(g70
g71
NtRp536
(dp537
g74
(dp538
g82
I3
ssg83
g532
sg76
(lp539
S''
asbasbasbag69
(g85
g71
NtRp540
(dp541
g74
(dp542
sg83
g476
sg76
(lp543
g69
(g90
g71
NtRp544
(dp545
g74
(dp546
g94
g95
ssg83
g540
sg76
(lp547
g358
asbag69
(g90
g71
NtRp548
(dp549
g74
(dp550
g101
g102
ssg83
g540
sg76
(lp551
S':'
asbag69
(g90
g71
NtRp552
(dp553
g74
(dp554
sg83
g540
sg76
(lp555
g69
(g70
g71
NtRp556
(dp557
g74
(dp558
g82
I3
ssg83
g552
sg76
(lp559
S''
asbasbasbag69
(g85
g71
NtRp560
(dp561
g74
(dp562
sg83
g476
sg76
(lp563
g69
(g90
g71
NtRp564
(dp565
g74
(dp566
g94
g95
ssg83
g560
sg76
(lp567
g379
asbag69
(g90
g71
NtRp568
(dp569
g74
(dp570
g101
g102
ssg83
g560
sg76
(lp571
S':'
asbag69
(g90
g71
NtRp572
(dp573
g74
(dp574
sg83
g560
sg76
(lp575
g69
(g70
g71
NtRp576
(dp577
g74
(dp578
g82
I3
ssg83
g572
sg76
(lp579
S''
asbasbasbag69
(g85
g71
NtRp580
(dp581
g74
(dp582
sg83
g476
sg76
(lp583
g69
(g90
g71
NtRp584
(dp585
g74
(dp586
g94
g95
ssg83
g580
sg76
(lp587
g400
asbag69
(g90
g71
NtRp588
(dp589
g74
(dp590
g101
g102
ssg83
g580
sg76
(lp591
S':'
asbag69
(g90
g71
NtRp592
(dp593
g74
(dp594
sg83
g580
sg76
(lp595
g69
(g70
g71
NtRp596
(dp597
g74
(dp598
g82
I3
ssg83
g592
sg76
(lp599
S''
asbasbasbag69
(g85
g71
NtRp600
(dp601
g74
(dp602
sg83
g476
sg76
(lp603
g69
(g90
g71
NtRp604
(dp605
g74
(dp606
g94
g95
ssg83
g600
sg76
(lp607
g421
asbag69
(g90
g71
NtRp608
(dp609
g74
(dp610
g101
g102
ssg83
g600
sg76
(lp611
S':'
asbag69
(g90
g71
NtRp612
(dp613
g74
(dp614
sg83
g600
sg76
(lp615
g69
(g70
g71
NtRp616
(dp617
g74
(dp618
g82
I3
ssg83
g612
sg76
(lp619
S''
asbasbasbag69
(g85
g71
NtRp620
(dp621
g74
(dp622
sg83
g476
sg76
(lp623
g69
(g90
g71
NtRp624
(dp625
g74
(dp626
g94
g95
ssg83
g620
sg76
(lp627
g442
asbag69
(g90
g71
NtRp628
(dp629
g74
(dp630
g101
g102
ssg83
g620
sg76
(lp631
S':'
asbag69
(g90
g71
NtRp632
(dp633
g74
(dp634
sg83
g620
sg76
(lp635
g69
(g70
g71
NtRp636
(dp637
g74
(dp638
g82
I3
ssg83
g632
sg76
(lp639
S''
asbasbasbasbasbasbasbasbasbasbasbag69
(g85
g71
NtRp640
(dp641
g74
(dp642
sg83
g79
sg76
(lp643
g69
(g90
g71
NtRp644
(dp645
g74
(dp646
g94
g95
ssg83
g640
sg76
(lp647
S'env'
p648
asbag69
(g90
g71
NtRp649
(dp650
g74
(dp651
g101
g102
ssg83
g640
sg76
(lp652
S':'
asbag69
(g90
g71
NtRp653
(dp654
g74
(dp655
sg83
g640
sg76
(lp656
g69
(g70
g71
NtRp657
(dp658
g74
(dp659
g82
I5
ssg83
g653
sg76
(lp660
g69
(g78
g71
NtRp661
(dp662
g74
(dp663
g82
I4
ssg83
Nsg76
(lp664
g69
(g85
g71
NtRp665
(dp666
g74
(dp667
sg83
g661
sg76
(lp668
g69
(g90
g71
NtRp669
(dp670
g74
(dp671
g94
g95
ssg83
g665
sg76
(lp672
S'app_folders'
p673
asbag69
(g90
g71
NtRp674
(dp675
g74
(dp676
g101
g102
ssg83
g665
sg76
(lp677
S':'
asbag69
(g90
g71
NtRp678
(dp679
g74
(dp680
sg83
g665
sg76
(lp681
g69
(g70
g71
NtRp682
(dp683
g74
(dp684
g82
I4
ssg83
g678
sg76
(lp685
S"set(['C:\\\\Users\\\\mellinja\\\\Documents\\\\SC2Tracker\\\\SC2TourneyTracker\\\\web2py\\\\applications\\\\welcome\\\\', 'C:\\\\Users\\\\mellinja\\\\Documents\\\\SC2Tracker\\\\SC2TourneyTracker\\\\web2py\\\\applications\\\\admin\\\\'])"
p686
asbasbasbag69
(g85
g71
NtRp687
(dp688
g74
(dp689
sg83
g661
sg76
(lp690
g69
(g90
g71
NtRp691
(dp692
g74
(dp693
g94
g95
ssg83
g687
sg76
(lp694
S'applications_parent'
p695
asbag69
(g90
g71
NtRp696
(dp697
g74
(dp698
g101
g102
ssg83
g687
sg76
(lp699
S':'
asbag69
(g90
g71
NtRp700
(dp701
g74
(dp702
sg83
g687
sg76
(lp703
g69
(g70
g71
NtRp704
(dp705
g74
(dp706
g82
I4
ssg83
g700
sg76
(lp707
S'C:\\Users\\mellinja\\Documents\\SC2Tracker\\SC2TourneyTracker\\web2py'
p708
asbasbasbag69
(g85
g71
NtRp709
(dp710
g74
(dp711
sg83
g661
sg76
(lp712
g69
(g90
g71
NtRp713
(dp714
g74
(dp715
g94
g95
ssg83
g709
sg76
(lp716
S'cmd_args'
p717
asbag69
(g90
g71
NtRp718
(dp719
g74
(dp720
g101
g102
ssg83
g709
sg76
(lp721
S':'
asbag69
(g90
g71
NtRp722
(dp723
g74
(dp724
sg83
g709
sg76
(lp725
g69
(g70
g71
NtRp726
(dp727
g74
(dp728
g82
I4
ssg83
g722
sg76
(lp729
g69
(g78
g71
NtRp730
(dp731
g74
(dp732
g82
I3
ssg83
Nsg76
(lp733
sbasbasbasbag69
(g85
g71
NtRp734
(dp735
g74
(dp736
sg83
g661
sg76
(lp737
g69
(g90
g71
NtRp738
(dp739
g74
(dp740
g94
g95
ssg83
g734
sg76
(lp741
S'cmd_options'
p742
asbag69
(g90
g71
NtRp743
(dp744
g74
(dp745
g101
g102
ssg83
g734
sg76
(lp746
S':'
asbag69
(g90
g71
NtRp747
(dp748
g74
(dp749
sg83
g734
sg76
(lp750
g69
(g70
g71
NtRp751
(dp752
g74
(dp753
g82
I4
ssg83
g747
sg76
(lp754
S"<Values at 0x391d5c8: {'verbose': False, 'ip': '127.0.0.1', 'shutdown_timeout': 5, 'taskbar': False, 'nocron': False, 'pid_filename': 'httpserver.pid', 'maxthreads': None, 'softcron': False, 'server_name': 'mellinja-PC', 'bpython': False, 'nogui': False, 'port': 8000, 'extcron': False, 'debuglevel': 30, 'test': None, 'folder': 'C:\\\\Users\\\\mellinja\\\\Documents\\\\SC2Tracker\\\\SC2TourneyTracker\\\\web2py', 'config': '', 'import_models': False, 'winservice': '', 'shell': None, 'run': '', 'log_filename': 'httpserver.log', 'args': [''], 'socket_timeout': 1, 'ssl_ca_certificate': None, 'scheduler': None, 'profiler_filename': None, 'ssl_private_key': '', 'password': '<ask>', 'request_queue_size': 5, 'ssl_certificate': '', 'cronjob': False, 'numthreads': None, 'quiet': False, 'interfaces': None, 'minthreads': None, 'timeout': 10, 'plain': False, 'nobanner': False}>"
p755
asbasbasbag69
(g85
g71
NtRp756
(dp757
g74
(dp758
sg83
g661
sg76
(lp759
g69
(g90
g71
NtRp760
(dp761
g74
(dp762
g94
g95
ssg83
g756
sg76
(lp763
S'db_sessions'
p764
asbag69
(g90
g71
NtRp765
(dp766
g74
(dp767
g101
g102
ssg83
g756
sg76
(lp768
S':'
asbag69
(g90
g71
NtRp769
(dp770
g74
(dp771
sg83
g756
sg76
(lp772
g69
(g70
g71
NtRp773
(dp774
g74
(dp775
g82
I4
ssg83
g769
sg76
(lp776
S'set([])'
p777
asbasbasbag69
(g85
g71
NtRp778
(dp779
g74
(dp780
sg83
g661
sg76
(lp781
g69
(g90
g71
NtRp782
(dp783
g74
(dp784
g94
g95
ssg83
g778
sg76
(lp785
S'debugging'
p786
asbag69
(g90
g71
NtRp787
(dp788
g74
(dp789
g101
g102
ssg83
g778
sg76
(lp790
S':'
asbag69
(g90
g71
NtRp791
(dp792
g74
(dp793
sg83
g778
sg76
(lp794
g69
(g70
g71
NtRp795
(dp796
g74
(dp797
g82
I4
ssg83
g791
sg76
(lp798
g112
asbasbasbag69
(g85
g71
NtRp799
(dp800
g74
(dp801
sg83
g661
sg76
(lp802
g69
(g90
g71
NtRp803
(dp804
g74
(dp805
g94
g95
ssg83
g799
sg76
(lp806
S'gluon_parent'
p807
asbag69
(g90
g71
NtRp808
(dp809
g74
(dp810
g101
g102
ssg83
g799
sg76
(lp811
S':'
asbag69
(g90
g71
NtRp812
(dp813
g74
(dp814
sg83
g799
sg76
(lp815
g69
(g70
g71
NtRp816
(dp817
g74
(dp818
g82
I4
ssg83
g812
sg76
(lp819
S'C:\\Users\\mellinja\\Documents\\SC2Tracker\\SC2TourneyTracker\\web2py'
p820
asbasbasbag69
(g85
g71
NtRp821
(dp822
g74
(dp823
sg83
g661
sg76
(lp824
g69
(g90
g71
NtRp825
(dp826
g74
(dp827
g94
g95
ssg83
g821
sg76
(lp828
S'http_accept'
p829
asbag69
(g90
g71
NtRp830
(dp831
g74
(dp832
g101
g102
ssg83
g821
sg76
(lp833
S':'
asbag69
(g90
g71
NtRp834
(dp835
g74
(dp836
sg83
g821
sg76
(lp837
g69
(g70
g71
NtRp838
(dp839
g74
(dp840
g82
I4
ssg83
g834
sg76
(lp841
S'text/html,application/xhtml+xml,application/xml;q=0.9,*/*;q=0.8'
p842
asbasbasbag69
(g85
g71
NtRp843
(dp844
g74
(dp845
sg83
g661
sg76
(lp846
g69
(g90
g71
NtRp847
(dp848
g74
(dp849
g94
g95
ssg83
g843
sg76
(lp850
S'http_accept_charset'
p851
asbag69
(g90
g71
NtRp852
(dp853
g74
(dp854
g101
g102
ssg83
g843
sg76
(lp855
S':'
asbag69
(g90
g71
NtRp856
(dp857
g74
(dp858
sg83
g843
sg76
(lp859
g69
(g70
g71
NtRp860
(dp861
g74
(dp862
g82
I4
ssg83
g856
sg76
(lp863
S'ISO-8859-1,utf-8;q=0.7,*;q=0.3'
p864
asbasbasbag69
(g85
g71
NtRp865
(dp866
g74
(dp867
sg83
g661
sg76
(lp868
g69
(g90
g71
NtRp869
(dp870
g74
(dp871
g94
g95
ssg83
g865
sg76
(lp872
S'http_accept_encoding'
p873
asbag69
(g90
g71
NtRp874
(dp875
g74
(dp876
g101
g102
ssg83
g865
sg76
(lp877
S':'
asbag69
(g90
g71
NtRp878
(dp879
g74
(dp880
sg83
g865
sg76
(lp881
g69
(g70
g71
NtRp882
(dp883
g74
(dp884
g82
I4
ssg83
g878
sg76
(lp885
S'gzip,deflate,sdch'
p886
asbasbasbag69
(g85
g71
NtRp887
(dp888
g74
(dp889
sg83
g661
sg76
(lp890
g69
(g90
g71
NtRp891
(dp892
g74
(dp893
g94
g95
ssg83
g887
sg76
(lp894
S'http_accept_language'
p895
asbag69
(g90
g71
NtRp896
(dp897
g74
(dp898
g101
g102
ssg83
g887
sg76
(lp899
S':'
asbag69
(g90
g71
NtRp900
(dp901
g74
(dp902
sg83
g887
sg76
(lp903
g69
(g70
g71
NtRp904
(dp905
g74
(dp906
g82
I4
ssg83
g900
sg76
(lp907
S'en-US,en;q=0.8'
p908
asbasbasbag69
(g85
g71
NtRp909
(dp910
g74
(dp911
sg83
g661
sg76
(lp912
g69
(g90
g71
NtRp913
(dp914
g74
(dp915
g94
g95
ssg83
g909
sg76
(lp916
S'http_connection'
p917
asbag69
(g90
g71
NtRp918
(dp919
g74
(dp920
g101
g102
ssg83
g909
sg76
(lp921
S':'
asbag69
(g90
g71
NtRp922
(dp923
g74
(dp924
sg83
g909
sg76
(lp925
g69
(g70
g71
NtRp926
(dp927
g74
(dp928
g82
I4
ssg83
g922
sg76
(lp929
S'keep-alive'
p930
asbasbasbag69
(g85
g71
NtRp931
(dp932
g74
(dp933
sg83
g661
sg76
(lp934
g69
(g90
g71
NtRp935
(dp936
g74
(dp937
g94
g95
ssg83
g931
sg76
(lp938
S'http_cookie'
p939
asbag69
(g90
g71
NtRp940
(dp941
g74
(dp942
g101
g102
ssg83
g931
sg76
(lp943
S':'
asbag69
(g90
g71
NtRp944
(dp945
g74
(dp946
sg83
g931
sg76
(lp947
g69
(g70
g71
NtRp948
(dp949
g74
(dp950
g82
I4
ssg83
g944
sg76
(lp951
S'session_id_welcome=127.0.0.1-3577bb45-b3be-4c0f-be7b-edc2ad5f937c; session_id_admin=127.0.0.1-b47b53ba-13cb-4e89-884f-d4f0a6a5c149'
p952
asbasbasbag69
(g85
g71
NtRp953
(dp954
g74
(dp955
sg83
g661
sg76
(lp956
g69
(g90
g71
NtRp957
(dp958
g74
(dp959
g94
g95
ssg83
g953
sg76
(lp960
S'http_host'
p961
asbag69
(g90
g71
NtRp962
(dp963
g74
(dp964
g101
g102
ssg83
g953
sg76
(lp965
S':'
asbag69
(g90
g71
NtRp966
(dp967
g74
(dp968
sg83
g953
sg76
(lp969
g69
(g70
g71
NtRp970
(dp971
g74
(dp972
g82
I4
ssg83
g966
sg76
(lp973
S'127.0.0.1:8000'
p974
asbasbasbag69
(g85
g71
NtRp975
(dp976
g74
(dp977
sg83
g661
sg76
(lp978
g69
(g90
g71
NtRp979
(dp980
g74
(dp981
g94
g95
ssg83
g975
sg76
(lp982
S'http_referer'
p983
asbag69
(g90
g71
NtRp984
(dp985
g74
(dp986
g101
g102
ssg83
g975
sg76
(lp987
S':'
asbag69
(g90
g71
NtRp988
(dp989
g74
(dp990
sg83
g975
sg76
(lp991
g69
(g70
g71
NtRp992
(dp993
g74
(dp994
g82
I4
ssg83
g988
sg76
(lp995
S'http://127.0.0.1:8000/welcome/tournament/index'
p996
asbasbasbag69
(g85
g71
NtRp997
(dp998
g74
(dp999
sg83
g661
sg76
(lp1000
g69
(g90
g71
NtRp1001
(dp1002
g74
(dp1003
g94
g95
ssg83
g997
sg76
(lp1004
S'http_user_agent'
p1005
asbag69
(g90
g71
NtRp1006
(dp1007
g74
(dp1008
g101
g102
ssg83
g997
sg76
(lp1009
S':'
asbag69
(g90
g71
NtRp1010
(dp1011
g74
(dp1012
sg83
g997
sg76
(lp1013
g69
(g70
g71
NtRp1014
(dp1015
g74
(dp1016
g82
I4
ssg83
g1010
sg76
(lp1017
S'Mozilla/5.0 (Windows NT 6.1; WOW64) AppleWebKit/535.7 (KHTML, like Gecko) Chrome/16.0.912.77 Safari/535.7'
p1018
asbasbasbag69
(g85
g71
NtRp1019
(dp1020
g74
(dp1021
sg83
g661
sg76
(lp1022
g69
(g90
g71
NtRp1023
(dp1024
g74
(dp1025
g94
g95
ssg83
g1019
sg76
(lp1026
S'is_jython'
p1027
asbag69
(g90
g71
NtRp1028
(dp1029
g74
(dp1030
g101
g102
ssg83
g1019
sg76
(lp1031
S':'
asbag69
(g90
g71
NtRp1032
(dp1033
g74
(dp1034
sg83
g1019
sg76
(lp1035
g69
(g70
g71
NtRp1036
(dp1037
g74
(dp1038
g82
I4
ssg83
g1032
sg76
(lp1039
g112
asbasbasbag69
(g85
g71
NtRp1040
(dp1041
g74
(dp1042
sg83
g661
sg76
(lp1043
g69
(g90
g71
NtRp1044
(dp1045
g74
(dp1046
g94
g95
ssg83
g1040
sg76
(lp1047
S'is_pypy'
p1048
asbag69
(g90
g71
NtRp1049
(dp1050
g74
(dp1051
g101
g102
ssg83
g1040
sg76
(lp1052
S':'
asbag69
(g90
g71
NtRp1053
(dp1054
g74
(dp1055
sg83
g1040
sg76
(lp1056
g69
(g70
g71
NtRp1057
(dp1058
g74
(dp1059
g82
I4
ssg83
g1053
sg76
(lp1060
g112
asbasbasbag69
(g85
g71
NtRp1061
(dp1062
g74
(dp1063
sg83
g661
sg76
(lp1064
g69
(g90
g71
NtRp1065
(dp1066
g74
(dp1067
g94
g95
ssg83
g1061
sg76
(lp1068
S'path_info'
p1069
asbag69
(g90
g71
NtRp1070
(dp1071
g74
(dp1072
g101
g102
ssg83
g1061
sg76
(lp1073
S':'
asbag69
(g90
g71
NtRp1074
(dp1075
g74
(dp1076
sg83
g1061
sg76
(lp1077
g69
(g70
g71
NtRp1078
(dp1079
g74
(dp1080
g82
I4
ssg83
g1074
sg76
(lp1081
S'/welcome/tournament/show/7'
p1082
asbasbasbag69
(g85
g71
NtRp1083
(dp1084
g74
(dp1085
sg83
g661
sg76
(lp1086
g69
(g90
g71
NtRp1087
(dp1088
g74
(dp1089
g94
g95
ssg83
g1083
sg76
(lp1090
S'query_string'
p1091
asbag69
(g90
g71
NtRp1092
(dp1093
g74
(dp1094
g101
g102
ssg83
g1083
sg76
(lp1095
S':'
asbag69
(g90
g71
NtRp1096
(dp1097
g74
(dp1098
sg83
g1083
sg76
(lp1099
g69
(g70
g71
NtRp1100
(dp1101
g74
(dp1102
g82
I4
ssg83
g1096
sg76
(lp1103
S''
asbasbasbag69
(g85
g71
NtRp1104
(dp1105
g74
(dp1106
sg83
g661
sg76
(lp1107
g69
(g90
g71
NtRp1108
(dp1109
g74
(dp1110
g94
g95
ssg83
g1104
sg76
(lp1111
S'remote_addr'
p1112
asbag69
(g90
g71
NtRp1113
(dp1114
g74
(dp1115
g101
g102
ssg83
g1104
sg76
(lp1116
S':'
asbag69
(g90
g71
NtRp1117
(dp1118
g74
(dp1119
sg83
g1104
sg76
(lp1120
g69
(g70
g71
NtRp1121
(dp1122
g74
(dp1123
g82
I4
ssg83
g1117
sg76
(lp1124
g214
asbasbasbag69
(g85
g71
NtRp1125
(dp1126
g74
(dp1127
sg83
g661
sg76
(lp1128
g69
(g90
g71
NtRp1129
(dp1130
g74
(dp1131
g94
g95
ssg83
g1125
sg76
(lp1132
S'remote_port'
p1133
asbag69
(g90
g71
NtRp1134
(dp1135
g74
(dp1136
g101
g102
ssg83
g1125
sg76
(lp1137
S':'
asbag69
(g90
g71
NtRp1138
(dp1139
g74
(dp1140
sg83
g1125
sg76
(lp1141
g69
(g70
g71
NtRp1142
(dp1143
g74
(dp1144
g82
I4
ssg83
g1138
sg76
(lp1145
S'49701'
p1146
asbasbasbag69
(g85
g71
NtRp1147
(dp1148
g74
(dp1149
sg83
g661
sg76
(lp1150
g69
(g90
g71
NtRp1151
(dp1152
g74
(dp1153
g94
g95
ssg83
g1147
sg76
(lp1154
S'request_method'
p1155
asbag69
(g90
g71
NtRp1156
(dp1157
g74
(dp1158
g101
g102
ssg83
g1147
sg76
(lp1159
S':'
asbag69
(g90
g71
NtRp1160
(dp1161
g74
(dp1162
sg83
g1147
sg76
(lp1163
g69
(g70
g71
NtRp1164
(dp1165
g74
(dp1166
g82
I4
ssg83
g1160
sg76
(lp1167
S'GET'
p1168
asbasbasbag69
(g85
g71
NtRp1169
(dp1170
g74
(dp1171
sg83
g661
sg76
(lp1172
g69
(g90
g71
NtRp1173
(dp1174
g74
(dp1175
g94
g95
ssg83
g1169
sg76
(lp1176
S'script_name'
p1177
asbag69
(g90
g71
NtRp1178
(dp1179
g74
(dp1180
g101
g102
ssg83
g1169
sg76
(lp1181
S':'
asbag69
(g90
g71
NtRp1182
(dp1183
g74
(dp1184
sg83
g1169
sg76
(lp1185
g69
(g70
g71
NtRp1186
(dp1187
g74
(dp1188
g82
I4
ssg83
g1182
sg76
(lp1189
S''
asbasbasbag69
(g85
g71
NtRp1190
(dp1191
g74
(dp1192
sg83
g661
sg76
(lp1193
g69
(g90
g71
NtRp1194
(dp1195
g74
(dp1196
g94
g95
ssg83
g1190
sg76
(lp1197
S'server_name'
p1198
asbag69
(g90
g71
NtRp1199
(dp1200
g74
(dp1201
g101
g102
ssg83
g1190
sg76
(lp1202
S':'
asbag69
(g90
g71
NtRp1203
(dp1204
g74
(dp1205
sg83
g1190
sg76
(lp1206
g69
(g70
g71
NtRp1207
(dp1208
g74
(dp1209
g82
I4
ssg83
g1203
sg76
(lp1210
S'mellinja-PC'
p1211
asbasbasbag69
(g85
g71
NtRp1212
(dp1213
g74
(dp1214
sg83
g661
sg76
(lp1215
g69
(g90
g71
NtRp1216
(dp1217
g74
(dp1218
g94
g95
ssg83
g1212
sg76
(lp1219
S'server_port'
p1220
asbag69
(g90
g71
NtRp1221
(dp1222
g74
(dp1223
g101
g102
ssg83
g1212
sg76
(lp1224
S':'
asbag69
(g90
g71
NtRp1225
(dp1226
g74
(dp1227
sg83
g1212
sg76
(lp1228
g69
(g70
g71
NtRp1229
(dp1230
g74
(dp1231
g82
I4
ssg83
g1225
sg76
(lp1232
S'8000'
p1233
asbasbasbag69
(g85
g71
NtRp1234
(dp1235
g74
(dp1236
sg83
g661
sg76
(lp1237
g69
(g90
g71
NtRp1238
(dp1239
g74
(dp1240
g94
g95
ssg83
g1234
sg76
(lp1241
S'server_protocol'
p1242
asbag69
(g90
g71
NtRp1243
(dp1244
g74
(dp1245
g101
g102
ssg83
g1234
sg76
(lp1246
S':'
asbag69
(g90
g71
NtRp1247
(dp1248
g74
(dp1249
sg83
g1234
sg76
(lp1250
g69
(g70
g71
NtRp1251
(dp1252
g74
(dp1253
g82
I4
ssg83
g1247
sg76
(lp1254
S'HTTP/1.1'
p1255
asbasbasbag69
(g85
g71
NtRp1256
(dp1257
g74
(dp1258
sg83
g661
sg76
(lp1259
g69
(g90
g71
NtRp1260
(dp1261
g74
(dp1262
g94
g95
ssg83
g1256
sg76
(lp1263
S'server_software'
p1264
asbag69
(g90
g71
NtRp1265
(dp1266
g74
(dp1267
g101
g102
ssg83
g1256
sg76
(lp1268
S':'
asbag69
(g90
g71
NtRp1269
(dp1270
g74
(dp1271
sg83
g1256
sg76
(lp1272
g69
(g70
g71
NtRp1273
(dp1274
g74
(dp1275
g82
I4
ssg83
g1269
sg76
(lp1276
S'Rocket 1.2.4'
p1277
asbasbasbag69
(g85
g71
NtRp1278
(dp1279
g74
(dp1280
sg83
g661
sg76
(lp1281
g69
(g90
g71
NtRp1282
(dp1283
g74
(dp1284
g94
g95
ssg83
g1278
sg76
(lp1285
S'web2py_crontype'
p1286
asbag69
(g90
g71
NtRp1287
(dp1288
g74
(dp1289
g101
g102
ssg83
g1278
sg76
(lp1290
S':'
asbag69
(g90
g71
NtRp1291
(dp1292
g74
(dp1293
sg83
g1278
sg76
(lp1294
g69
(g70
g71
NtRp1295
(dp1296
g74
(dp1297
g82
I4
ssg83
g1291
sg76
(lp1298
S'hard'
p1299
asbasbasbag69
(g85
g71
NtRp1300
(dp1301
g74
(dp1302
sg83
g661
sg76
(lp1303
g69
(g90
g71
NtRp1304
(dp1305
g74
(dp1306
g94
g95
ssg83
g1300
sg76
(lp1307
S'web2py_path'
p1308
asbag69
(g90
g71
NtRp1309
(dp1310
g74
(dp1311
g101
g102
ssg83
g1300
sg76
(lp1312
S':'
asbag69
(g90
g71
NtRp1313
(dp1314
g74
(dp1315
sg83
g1300
sg76
(lp1316
g69
(g70
g71
NtRp1317
(dp1318
g74
(dp1319
g82
I4
ssg83
g1313
sg76
(lp1320
g708
asbasbasbag69
(g85
g71
NtRp1321
(dp1322
g74
(dp1323
sg83
g661
sg76
(lp1324
g69
(g90
g71
NtRp1325
(dp1326
g74
(dp1327
g94
g95
ssg83
g1321
sg76
(lp1328
S'web2py_version'
p1329
asbag69
(g90
g71
NtRp1330
(dp1331
g74
(dp1332
g101
g102
ssg83
g1321
sg76
(lp1333
S':'
asbag69
(g90
g71
NtRp1334
(dp1335
g74
(dp1336
sg83
g1321
sg76
(lp1337
g69
(g70
g71
NtRp1338
(dp1339
g74
(dp1340
g82
I4
ssg83
g1334
sg76
(lp1341
g69
(g78
g71
NtRp1342
(dp1343
g74
(dp1344
g82
I3
ssg83
Nsg76
(lp1345
g69
(g85
g71
NtRp1346
(dp1347
g74
(dp1348
sg83
g1342
sg76
(lp1349
g69
(g90
g71
NtRp1350
(dp1351
g74
(dp1352
sg83
g1346
sg76
(lp1353
g69
(g70
g71
NtRp1354
(dp1355
g74
(dp1356
g82
I3
ssg83
g1350
sg76
(lp1357
S'1'
asbasbasbag69
(g85
g71
NtRp1358
(dp1359
g74
(dp1360
sg83
g1342
sg76
(lp1361
g69
(g90
g71
NtRp1362
(dp1363
g74
(dp1364
sg83
g1358
sg76
(lp1365
g69
(g70
g71
NtRp1366
(dp1367
g74
(dp1368
g82
I3
ssg83
g1362
sg76
(lp1369
S'99'
p1370
asbasbasbag69
(g85
g71
NtRp1371
(dp1372
g74
(dp1373
sg83
g1342
sg76
(lp1374
g69
(g90
g71
NtRp1375
(dp1376
g74
(dp1377
sg83
g1371
sg76
(lp1378
g69
(g70
g71
NtRp1379
(dp1380
g74
(dp1381
g82
I3
ssg83
g1375
sg76
(lp1382
S'4'
asbasbasbag69
(g85
g71
NtRp1383
(dp1384
g74
(dp1385
sg83
g1342
sg76
(lp1386
g69
(g90
g71
NtRp1387
(dp1388
g74
(dp1389
sg83
g1383
sg76
(lp1390
g69
(g70
g71
NtRp1391
(dp1392
g74
(dp1393
g82
I3
ssg83
g1387
sg76
(lp1394
S'datetime.datetime(2011, 12, 14, 14, 46, 14)'
p1395
asbasbasbag69
(g85
g71
NtRp1396
(dp1397
g74
(dp1398
sg83
g1342
sg76
(lp1399
g69
(g90
g71
NtRp1400
(dp1401
g74
(dp1402
sg83
g1396
sg76
(lp1403
g69
(g70
g71
NtRp1404
(dp1405
g74
(dp1406
g82
I3
ssg83
g1400
sg76
(lp1407
S'stable'
p1408
asbasbasbasbasbasbasbag69
(g85
g71
NtRp1409
(dp1410
g74
(dp1411
sg83
g661
sg76
(lp1412
g69
(g90
g71
NtRp1413
(dp1414
g74
(dp1415
g94
g95
ssg83
g1409
sg76
(lp1416
S'wsgi_errors'
p1417
asbag69
(g90
g71
NtRp1418
(dp1419
g74
(dp1420
g101
g102
ssg83
g1409
sg76
(lp1421
S':'
asbag69
(g90
g71
NtRp1422
(dp1423
g74
(dp1424
sg83
g1409
sg76
(lp1425
g69
(g70
g71
NtRp1426
(dp1427
g74
(dp1428
g82
I4
ssg83
g1422
sg76
(lp1429
S"<open file '<stderr>', mode 'w' at 0x00000000020161E0>"
p1430
asbasbasbag69
(g85
g71
NtRp1431
(dp1432
g74
(dp1433
sg83
g661
sg76
(lp1434
g69
(g90
g71
NtRp1435
(dp1436
g74
(dp1437
g94
g95
ssg83
g1431
sg76
(lp1438
S'wsgi_file_wrapper'
p1439
asbag69
(g90
g71
NtRp1440
(dp1441
g74
(dp1442
g101
g102
ssg83
g1431
sg76
(lp1443
S':'
asbag69
(g90
g71
NtRp1444
(dp1445
g74
(dp1446
sg83
g1431
sg76
(lp1447
g69
(g70
g71
NtRp1448
(dp1449
g74
(dp1450
g82
I4
ssg83
g1444
sg76
(lp1451
S'<class wsgiref.util.FileWrapper at 0x000000000380D828>'
p1452
asbasbasbag69
(g85
g71
NtRp1453
(dp1454
g74
(dp1455
sg83
g661
sg76
(lp1456
g69
(g90
g71
NtRp1457
(dp1458
g74
(dp1459
g94
g95
ssg83
g1453
sg76
(lp1460
S'wsgi_input'
p1461
asbag69
(g90
g71
NtRp1462
(dp1463
g74
(dp1464
g101
g102
ssg83
g1453
sg76
(lp1465
S':'
asbag69
(g90
g71
NtRp1466
(dp1467
g74
(dp1468
sg83
g1453
sg76
(lp1469
g69
(g70
g71
NtRp1470
(dp1471
g74
(dp1472
g82
I4
ssg83
g1466
sg76
(lp1473
S'<socket._fileobject object at 0x0000000009A87E58>'
p1474
asbasbasbag69
(g85
g71
NtRp1475
(dp1476
g74
(dp1477
sg83
g661
sg76
(lp1478
g69
(g90
g71
NtRp1479
(dp1480
g74
(dp1481
g94
g95
ssg83
g1475
sg76
(lp1482
S'wsgi_multiprocess'
p1483
asbag69
(g90
g71
NtRp1484
(dp1485
g74
(dp1486
g101
g102
ssg83
g1475
sg76
(lp1487
S':'
asbag69
(g90
g71
NtRp1488
(dp1489
g74
(dp1490
sg83
g1475
sg76
(lp1491
g69
(g70
g71
NtRp1492
(dp1493
g74
(dp1494
g82
I4
ssg83
g1488
sg76
(lp1495
g112
asbasbasbag69
(g85
g71
NtRp1496
(dp1497
g74
(dp1498
sg83
g661
sg76
(lp1499
g69
(g90
g71
NtRp1500
(dp1501
g74
(dp1502
g94
g95
ssg83
g1496
sg76
(lp1503
S'wsgi_multithread'
p1504
asbag69
(g90
g71
NtRp1505
(dp1506
g74
(dp1507
g101
g102
ssg83
g1496
sg76
(lp1508
S':'
asbag69
(g90
g71
NtRp1509
(dp1510
g74
(dp1511
sg83
g1496
sg76
(lp1512
g69
(g70
g71
NtRp1513
(dp1514
g74
(dp1515
g82
I4
ssg83
g1509
sg76
(lp1516
S'True'
p1517
asbasbasbag69
(g85
g71
NtRp1518
(dp1519
g74
(dp1520
sg83
g661
sg76
(lp1521
g69
(g90
g71
NtRp1522
(dp1523
g74
(dp1524
g94
g95
ssg83
g1518
sg76
(lp1525
S'wsgi_run_once'
p1526
asbag69
(g90
g71
NtRp1527
(dp1528
g74
(dp1529
g101
g102
ssg83
g1518
sg76
(lp1530
S':'
asbag69
(g90
g71
NtRp1531
(dp1532
g74
(dp1533
sg83
g1518
sg76
(lp1534
g69
(g70
g71
NtRp1535
(dp1536
g74
(dp1537
g82
I4
ssg83
g1531
sg76
(lp1538
g112
asbasbasbag69
(g85
g71
NtRp1539
(dp1540
g74
(dp1541
sg83
g661
sg76
(lp1542
g69
(g90
g71
NtRp1543
(dp1544
g74
(dp1545
g94
g95
ssg83
g1539
sg76
(lp1546
S'wsgi_url_scheme'
p1547
asbag69
(g90
g71
NtRp1548
(dp1549
g74
(dp1550
g101
g102
ssg83
g1539
sg76
(lp1551
S':'
asbag69
(g90
g71
NtRp1552
(dp1553
g74
(dp1554
sg83
g1539
sg76
(lp1555
g69
(g70
g71
NtRp1556
(dp1557
g74
(dp1558
g82
I4
ssg83
g1552
sg76
(lp1559
S'http'
p1560
asbasbasbag69
(g85
g71
NtRp1561
(dp1562
g74
(dp1563
sg83
g661
sg76
(lp1564
g69
(g90
g71
NtRp1565
(dp1566
g74
(dp1567
g94
g95
ssg83
g1561
sg76
(lp1568
S'wsgi_version'
p1569
asbag69
(g90
g71
NtRp1570
(dp1571
g74
(dp1572
g101
g102
ssg83
g1561
sg76
(lp1573
S':'
asbag69
(g90
g71
NtRp1574
(dp1575
g74
(dp1576
sg83
g1561
sg76
(lp1577
g69
(g70
g71
NtRp1578
(dp1579
g74
(dp1580
g82
I4
ssg83
g1574
sg76
(lp1581
g69
(g78
g71
NtRp1582
(dp1583
g74
(dp1584
g82
I3
ssg83
Nsg76
(lp1585
g69
(g85
g71
NtRp1586
(dp1587
g74
(dp1588
sg83
g1582
sg76
(lp1589
g69
(g90
g71
NtRp1590
(dp1591
g74
(dp1592
sg83
g1586
sg76
(lp1593
g69
(g70
g71
NtRp1594
(dp1595
g74
(dp1596
g82
I3
ssg83
g1590
sg76
(lp1597
S'1'
asbasbasbag69
(g85
g71
NtRp1598
(dp1599
g74
(dp1600
sg83
g1582
sg76
(lp1601
g69
(g90
g71
NtRp1602
(dp1603
g74
(dp1604
sg83
g1598
sg76
(lp1605
g69
(g70
g71
NtRp1606
(dp1607
g74
(dp1608
g82
I3
ssg83
g1602
sg76
(lp1609
S'0'
asbasbasbasbasbasbasbasbasbasbasbag69
(g85
g71
NtRp1610
(dp1611
g74
(dp1612
sg83
g79
sg76
(lp1613
g69
(g90
g71
NtRp1614
(dp1615
g74
(dp1616
g94
g95
ssg83
g1610
sg76
(lp1617
S'extension'
p1618
asbag69
(g90
g71
NtRp1619
(dp1620
g74
(dp1621
g101
g102
ssg83
g1610
sg76
(lp1622
S':'
asbag69
(g90
g71
NtRp1623
(dp1624
g74
(dp1625
sg83
g1610
sg76
(lp1626
g69
(g70
g71
NtRp1627
(dp1628
g74
(dp1629
g82
I5
ssg83
g1623
sg76
(lp1630
S'html'
p1631
asbasbasbag69
(g85
g71
NtRp1632
(dp1633
g74
(dp1634
sg83
g79
sg76
(lp1635
g69
(g90
g71
NtRp1636
(dp1637
g74
(dp1638
g94
g95
ssg83
g1632
sg76
(lp1639
S'folder'
p1640
asbag69
(g90
g71
NtRp1641
(dp1642
g74
(dp1643
g101
g102
ssg83
g1632
sg76
(lp1644
S':'
asbag69
(g90
g71
NtRp1645
(dp1646
g74
(dp1647
sg83
g1632
sg76
(lp1648
g69
(g70
g71
NtRp1649
(dp1650
g74
(dp1651
g82
I5
ssg83
g1645
sg76
(lp1652
S'C:\\Users\\mellinja\\Documents\\SC2Tracker\\SC2TourneyTracker\\web2py\\applications\\welcome\\'
p1653
asbasbasbag69
(g85
g71
NtRp1654
(dp1655
g74
(dp1656
sg83
g79
sg76
(lp1657
g69
(g90
g71
NtRp1658
(dp1659
g74
(dp1660
g94
g95
ssg83
g1654
sg76
(lp1661
S'function'
p1662
asbag69
(g90
g71
NtRp1663
(dp1664
g74
(dp1665
g101
g102
ssg83
g1654
sg76
(lp1666
S':'
asbag69
(g90
g71
NtRp1667
(dp1668
g74
(dp1669
sg83
g1654
sg76
(lp1670
g69
(g70
g71
NtRp1671
(dp1672
g74
(dp1673
g82
I5
ssg83
g1667
sg76
(lp1674
S'show'
p1675
asbasbasbag69
(g85
g71
NtRp1676
(dp1677
g74
(dp1678
sg83
g79
sg76
(lp1679
g69
(g90
g71
NtRp1680
(dp1681
g74
(dp1682
g94
g95
ssg83
g1676
sg76
(lp1683
S'get_vars'
p1684
asbag69
(g90
g71
NtRp1685
(dp1686
g74
(dp1687
g101
g102
ssg83
g1676
sg76
(lp1688
S':'
asbag69
(g90
g71
NtRp1689
(dp1690
g74
(dp1691
sg83
g1676
sg76
(lp1692
g69
(g70
g71
NtRp1693
(dp1694
g74
(dp1695
g82
I5
ssg83
g1689
sg76
(lp1696
g69
(g78
g71
NtRp1697
(dp1698
g74
(dp1699
g82
I4
ssg83
Nsg76
(lp1700
sbasbasbasbag69
(g85
g71
NtRp1701
(dp1702
g74
(dp1703
sg83
g79
sg76
(lp1704
g69
(g90
g71
NtRp1705
(dp1706
g74
(dp1707
g94
g95
ssg83
g1701
sg76
(lp1708
S'global_settings'
p1709
asbag69
(g90
g71
NtRp1710
(dp1711
g74
(dp1712
g101
g102
ssg83
g1701
sg76
(lp1713
S':'
asbag69
(g90
g71
NtRp1714
(dp1715
g74
(dp1716
sg83
g1701
sg76
(lp1717
g69
(g70
g71
NtRp1718
(dp1719
g74
(dp1720
g82
I5
ssg83
g1714
sg76
(lp1721
g69
(g78
g71
NtRp1722
(dp1723
g74
(dp1724
g82
I4
ssg83
Nsg76
(lp1725
g69
(g85
g71
NtRp1726
(dp1727
g74
(dp1728
sg83
g1722
sg76
(lp1729
g69
(g90
g71
NtRp1730
(dp1731
g74
(dp1732
g94
g95
ssg83
g1726
sg76
(lp1733
g673
asbag69
(g90
g71
NtRp1734
(dp1735
g74
(dp1736
g101
g102
ssg83
g1726
sg76
(lp1737
S':'
asbag69
(g90
g71
NtRp1738
(dp1739
g74
(dp1740
sg83
g1726
sg76
(lp1741
g69
(g70
g71
NtRp1742
(dp1743
g74
(dp1744
g82
I4
ssg83
g1738
sg76
(lp1745
S"set(['C:\\\\Users\\\\mellinja\\\\Documents\\\\SC2Tracker\\\\SC2TourneyTracker\\\\web2py\\\\applications\\\\welcome\\\\', 'C:\\\\Users\\\\mellinja\\\\Documents\\\\SC2Tracker\\\\SC2TourneyTracker\\\\web2py\\\\applications\\\\admin\\\\'])"
p1746
asbasbasbag69
(g85
g71
NtRp1747
(dp1748
g74
(dp1749
sg83
g1722
sg76
(lp1750
g69
(g90
g71
NtRp1751
(dp1752
g74
(dp1753
g94
g95
ssg83
g1747
sg76
(lp1754
g695
asbag69
(g90
g71
NtRp1755
(dp1756
g74
(dp1757
g101
g102
ssg83
g1747
sg76
(lp1758
S':'
asbag69
(g90
g71
NtRp1759
(dp1760
g74
(dp1761
sg83
g1747
sg76
(lp1762
g69
(g70
g71
NtRp1763
(dp1764
g74
(dp1765
g82
I4
ssg83
g1759
sg76
(lp1766
g708
asbasbasbag69
(g85
g71
NtRp1767
(dp1768
g74
(dp1769
sg83
g1722
sg76
(lp1770
g69
(g90
g71
NtRp1771
(dp1772
g74
(dp1773
g94
g95
ssg83
g1767
sg76
(lp1774
g717
asbag69
(g90
g71
NtRp1775
(dp1776
g74
(dp1777
g101
g102
ssg83
g1767
sg76
(lp1778
S':'
asbag69
(g90
g71
NtRp1779
(dp1780
g74
(dp1781
sg83
g1767
sg76
(lp1782
g69
(g70
g71
NtRp1783
(dp1784
g74
(dp1785
g82
I4
ssg83
g1779
sg76
(lp1786
g69
(g78
g71
NtRp1787
(dp1788
g74
(dp1789
g82
I3
ssg83
Nsg76
(lp1790
sbasbasbasbag69
(g85
g71
NtRp1791
(dp1792
g74
(dp1793
sg83
g1722
sg76
(lp1794
g69
(g90
g71
NtRp1795
(dp1796
g74
(dp1797
g94
g95
ssg83
g1791
sg76
(lp1798
g742
asbag69
(g90
g71
NtRp1799
(dp1800
g74
(dp1801
g101
g102
ssg83
g1791
sg76
(lp1802
S':'
asbag69
(g90
g71
NtRp1803
(dp1804
g74
(dp1805
sg83
g1791
sg76
(lp1806
g69
(g70
g71
NtRp1807
(dp1808
g74
(dp1809
g82
I4
ssg83
g1803
sg76
(lp1810
S"<Values at 0x391d5c8: {'verbose': False, 'ip': '127.0.0.1', 'shutdown_timeout': 5, 'taskbar': False, 'nocron': False, 'pid_filename': 'httpserver.pid', 'maxthreads': None, 'softcron': False, 'server_name': 'mellinja-PC', 'bpython': False, 'nogui': False, 'port': 8000, 'extcron': False, 'debuglevel': 30, 'test': None, 'folder': 'C:\\\\Users\\\\mellinja\\\\Documents\\\\SC2Tracker\\\\SC2TourneyTracker\\\\web2py', 'config': '', 'import_models': False, 'winservice': '', 'shell': None, 'run': '', 'log_filename': 'httpserver.log', 'args': [''], 'socket_timeout': 1, 'ssl_ca_certificate': None, 'scheduler': None, 'profiler_filename': None, 'ssl_private_key': '', 'password': '<ask>', 'request_queue_size': 5, 'ssl_certificate': '', 'cronjob': False, 'numthreads': None, 'quiet': False, 'interfaces': None, 'minthreads': None, 'timeout': 10, 'plain': False, 'nobanner': False}>"
p1811
asbasbasbag69
(g85
g71
NtRp1812
(dp1813
g74
(dp1814
sg83
g1722
sg76
(lp1815
g69
(g90
g71
NtRp1816
(dp1817
g74
(dp1818
g94
g95
ssg83
g1812
sg76
(lp1819
g764
asbag69
(g90
g71
NtRp1820
(dp1821
g74
(dp1822
g101
g102
ssg83
g1812
sg76
(lp1823
S':'
asbag69
(g90
g71
NtRp1824
(dp1825
g74
(dp1826
sg83
g1812
sg76
(lp1827
g69
(g70
g71
NtRp1828
(dp1829
g74
(dp1830
g82
I4
ssg83
g1824
sg76
(lp1831
S'set([])'
p1832
asbasbasbag69
(g85
g71
NtRp1833
(dp1834
g74
(dp1835
sg83
g1722
sg76
(lp1836
g69
(g90
g71
NtRp1837
(dp1838
g74
(dp1839
g94
g95
ssg83
g1833
sg76
(lp1840
g786
asbag69
(g90
g71
NtRp1841
(dp1842
g74
(dp1843
g101
g102
ssg83
g1833
sg76
(lp1844
S':'
asbag69
(g90
g71
NtRp1845
(dp1846
g74
(dp1847
sg83
g1833
sg76
(lp1848
g69
(g70
g71
NtRp1849
(dp1850
g74
(dp1851
g82
I4
ssg83
g1845
sg76
(lp1852
g112
asbasbasbag69
(g85
g71
NtRp1853
(dp1854
g74
(dp1855
sg83
g1722
sg76
(lp1856
g69
(g90
g71
NtRp1857
(dp1858
g74
(dp1859
g94
g95
ssg83
g1853
sg76
(lp1860
g807
asbag69
(g90
g71
NtRp1861
(dp1862
g74
(dp1863
g101
g102
ssg83
g1853
sg76
(lp1864
S':'
asbag69
(g90
g71
NtRp1865
(dp1866
g74
(dp1867
sg83
g1853
sg76
(lp1868
g69
(g70
g71
NtRp1869
(dp1870
g74
(dp1871
g82
I4
ssg83
g1865
sg76
(lp1872
g820
asbasbasbag69
(g85
g71
NtRp1873
(dp1874
g74
(dp1875
sg83
g1722
sg76
(lp1876
g69
(g90
g71
NtRp1877
(dp1878
g74
(dp1879
g94
g95
ssg83
g1873
sg76
(lp1880
g1027
asbag69
(g90
g71
NtRp1881
(dp1882
g74
(dp1883
g101
g102
ssg83
g1873
sg76
(lp1884
S':'
asbag69
(g90
g71
NtRp1885
(dp1886
g74
(dp1887
sg83
g1873
sg76
(lp1888
g69
(g70
g71
NtRp1889
(dp1890
g74
(dp1891
g82
I4
ssg83
g1885
sg76
(lp1892
g112
asbasbasbag69
(g85
g71
NtRp1893
(dp1894
g74
(dp1895
sg83
g1722
sg76
(lp1896
g69
(g90
g71
NtRp1897
(dp1898
g74
(dp1899
g94
g95
ssg83
g1893
sg76
(lp1900
g1048
asbag69
(g90
g71
NtRp1901
(dp1902
g74
(dp1903
g101
g102
ssg83
g1893
sg76
(lp1904
S':'
asbag69
(g90
g71
NtRp1905
(dp1906
g74
(dp1907
sg83
g1893
sg76
(lp1908
g69
(g70
g71
NtRp1909
(dp1910
g74
(dp1911
g82
I4
ssg83
g1905
sg76
(lp1912
g112
asbasbasbag69
(g85
g71
NtRp1913
(dp1914
g74
(dp1915
sg83
g1722
sg76
(lp1916
g69
(g90
g71
NtRp1917
(dp1918
g74
(dp1919
g94
g95
ssg83
g1913
sg76
(lp1920
g1286
asbag69
(g90
g71
NtRp1921
(dp1922
g74
(dp1923
g101
g102
ssg83
g1913
sg76
(lp1924
S':'
asbag69
(g90
g71
NtRp1925
(dp1926
g74
(dp1927
sg83
g1913
sg76
(lp1928
g69
(g70
g71
NtRp1929
(dp1930
g74
(dp1931
g82
I4
ssg83
g1925
sg76
(lp1932
g1299
asbasbasbag69
(g85
g71
NtRp1933
(dp1934
g74
(dp1935
sg83
g1722
sg76
(lp1936
g69
(g90
g71
NtRp1937
(dp1938
g74
(dp1939
g94
g95
ssg83
g1933
sg76
(lp1940
g1329
asbag69
(g90
g71
NtRp1941
(dp1942
g74
(dp1943
g101
g102
ssg83
g1933
sg76
(lp1944
S':'
asbag69
(g90
g71
NtRp1945
(dp1946
g74
(dp1947
sg83
g1933
sg76
(lp1948
g69
(g70
g71
NtRp1949
(dp1950
g74
(dp1951
g82
I4
ssg83
g1945
sg76
(lp1952
g69
(g78
g71
NtRp1953
(dp1954
g74
(dp1955
g82
I3
ssg83
Nsg76
(lp1956
g69
(g85
g71
NtRp1957
(dp1958
g74
(dp1959
sg83
g1953
sg76
(lp1960
g69
(g90
g71
NtRp1961
(dp1962
g74
(dp1963
sg83
g1957
sg76
(lp1964
g69
(g70
g71
NtRp1965
(dp1966
g74
(dp1967
g82
I3
ssg83
g1961
sg76
(lp1968
S'1'
asbasbasbag69
(g85
g71
NtRp1969
(dp1970
g74
(dp1971
sg83
g1953
sg76
(lp1972
g69
(g90
g71
NtRp1973
(dp1974
g74
(dp1975
sg83
g1969
sg76
(lp1976
g69
(g70
g71
NtRp1977
(dp1978
g74
(dp1979
g82
I3
ssg83
g1973
sg76
(lp1980
S'99'
p1981
asbasbasbag69
(g85
g71
NtRp1982
(dp1983
g74
(dp1984
sg83
g1953
sg76
(lp1985
g69
(g90
g71
NtRp1986
(dp1987
g74
(dp1988
sg83
g1982
sg76
(lp1989
g69
(g70
g71
NtRp1990
(dp1991
g74
(dp1992
g82
I3
ssg83
g1986
sg76
(lp1993
S'4'
asbasbasbag69
(g85
g71
NtRp1994
(dp1995
g74
(dp1996
sg83
g1953
sg76
(lp1997
g69
(g90
g71
NtRp1998
(dp1999
g74
(dp2000
sg83
g1994
sg76
(lp2001
g69
(g70
g71
NtRp2002
(dp2003
g74
(dp2004
g82
I3
ssg83
g1998
sg76
(lp2005
S'datetime.datetime(2011, 12, 14, 14, 46, 14)'
p2006
asbasbasbag69
(g85
g71
NtRp2007
(dp2008
g74
(dp2009
sg83
g1953
sg76
(lp2010
g69
(g90
g71
NtRp2011
(dp2012
g74
(dp2013
sg83
g2007
sg76
(lp2014
g69
(g70
g71
NtRp2015
(dp2016
g74
(dp2017
g82
I3
ssg83
g2011
sg76
(lp2018
g1408
asbasbasbasbasbasbasbasbasbasbasbag69
(g85
g71
NtRp2019
(dp2020
g74
(dp2021
sg83
g79
sg76
(lp2022
g69
(g90
g71
NtRp2023
(dp2024
g74
(dp2025
g94
g95
ssg83
g2019
sg76
(lp2026
S'is_https'
p2027
asbag69
(g90
g71
NtRp2028
(dp2029
g74
(dp2030
g101
g102
ssg83
g2019
sg76
(lp2031
S':'
asbag69
(g90
g71
NtRp2032
(dp2033
g74
(dp2034
sg83
g2019
sg76
(lp2035
g69
(g70
g71
NtRp2036
(dp2037
g74
(dp2038
g82
I5
ssg83
g2032
sg76
(lp2039
g112
asbasbasbag69
(g85
g71
NtRp2040
(dp2041
g74
(dp2042
sg83
g79
sg76
(lp2043
g69
(g90
g71
NtRp2044
(dp2045
g74
(dp2046
g94
g95
ssg83
g2040
sg76
(lp2047
S'is_local'
p2048
asbag69
(g90
g71
NtRp2049
(dp2050
g74
(dp2051
g101
g102
ssg83
g2040
sg76
(lp2052
S':'
asbag69
(g90
g71
NtRp2053
(dp2054
g74
(dp2055
sg83
g2040
sg76
(lp2056
g69
(g70
g71
NtRp2057
(dp2058
g74
(dp2059
g82
I5
ssg83
g2053
sg76
(lp2060
g1517
asbasbasbag69
(g85
g71
NtRp2061
(dp2062
g74
(dp2063
sg83
g79
sg76
(lp2064
g69
(g90
g71
NtRp2065
(dp2066
g74
(dp2067
g94
g95
ssg83
g2061
sg76
(lp2068
S'is_restful'
p2069
asbag69
(g90
g71
NtRp2070
(dp2071
g74
(dp2072
g101
g102
ssg83
g2061
sg76
(lp2073
S':'
asbag69
(g90
g71
NtRp2074
(dp2075
g74
(dp2076
sg83
g2061
sg76
(lp2077
g69
(g70
g71
NtRp2078
(dp2079
g74
(dp2080
g82
I5
ssg83
g2074
sg76
(lp2081
g112
asbasbasbag69
(g85
g71
NtRp2082
(dp2083
g74
(dp2084
sg83
g79
sg76
(lp2085
g69
(g90
g71
NtRp2086
(dp2087
g74
(dp2088
g94
g95
ssg83
g2082
sg76
(lp2089
S'now'
p2090
asbag69
(g90
g71
NtRp2091
(dp2092
g74
(dp2093
g101
g102
ssg83
g2082
sg76
(lp2094
S':'
asbag69
(g90
g71
NtRp2095
(dp2096
g74
(dp2097
sg83
g2082
sg76
(lp2098
g69
(g70
g71
NtRp2099
(dp2100
g74
(dp2101
g82
I5
ssg83
g2095
sg76
(lp2102
S'datetime.datetime(2012, 2, 9, 12, 34, 37, 719000)'
p2103
asbasbasbag69
(g85
g71
NtRp2104
(dp2105
g74
(dp2106
sg83
g79
sg76
(lp2107
g69
(g90
g71
NtRp2108
(dp2109
g74
(dp2110
g94
g95
ssg83
g2104
sg76
(lp2111
S'post_vars'
p2112
asbag69
(g90
g71
NtRp2113
(dp2114
g74
(dp2115
g101
g102
ssg83
g2104
sg76
(lp2116
S':'
asbag69
(g90
g71
NtRp2117
(dp2118
g74
(dp2119
sg83
g2104
sg76
(lp2120
g69
(g70
g71
NtRp2121
(dp2122
g74
(dp2123
g82
I5
ssg83
g2117
sg76
(lp2124
g69
(g78
g71
NtRp2125
(dp2126
g74
(dp2127
g82
I4
ssg83
Nsg76
(lp2128
sbasbasbasbag69
(g85
g71
NtRp2129
(dp2130
g74
(dp2131
sg83
g79
sg76
(lp2132
g69
(g90
g71
NtRp2133
(dp2134
g74
(dp2135
g94
g95
ssg83
g2129
sg76
(lp2136
S'raw_args'
p2137
asbag69
(g90
g71
NtRp2138
(dp2139
g74
(dp2140
g101
g102
ssg83
g2129
sg76
(lp2141
S':'
asbag69
(g90
g71
NtRp2142
(dp2143
g74
(dp2144
sg83
g2129
sg76
(lp2145
g69
(g70
g71
NtRp2146
(dp2147
g74
(dp2148
g82
I5
ssg83
g2142
sg76
(lp2149
S'7'
asbasbasbag69
(g85
g71
NtRp2150
(dp2151
g74
(dp2152
sg83
g79
sg76
(lp2153
g69
(g90
g71
NtRp2154
(dp2155
g74
(dp2156
g94
g95
ssg83
g2150
sg76
(lp2157
S'url'
p2158
asbag69
(g90
g71
NtRp2159
(dp2160
g74
(dp2161
g101
g102
ssg83
g2150
sg76
(lp2162
S':'
asbag69
(g90
g71
NtRp2163
(dp2164
g74
(dp2165
sg83
g2150
sg76
(lp2166
g69
(g70
g71
NtRp2167
(dp2168
g74
(dp2169
g82
I5
ssg83
g2163
sg76
(lp2170
S'/welcome/tournament/show/7'
p2171
asbasbasbag69
(g85
g71
NtRp2172
(dp2173
g74
(dp2174
sg83
g79
sg76
(lp2175
g69
(g90
g71
NtRp2176
(dp2177
g74
(dp2178
g94
g95
ssg83
g2172
sg76
(lp2179
S'utcnow'
p2180
asbag69
(g90
g71
NtRp2181
(dp2182
g74
(dp2183
g101
g102
ssg83
g2172
sg76
(lp2184
S':'
asbag69
(g90
g71
NtRp2185
(dp2186
g74
(dp2187
sg83
g2172
sg76
(lp2188
g69
(g70
g71
NtRp2189
(dp2190
g74
(dp2191
g82
I5
ssg83
g2185
sg76
(lp2192
S'datetime.datetime(2012, 2, 9, 17, 34, 37, 719000)'
p2193
asbasbasbag69
(g85
g71
NtRp2194
(dp2195
g74
(dp2196
sg83
g79
sg76
(lp2197
g69
(g90
g71
NtRp2198
(dp2199
g74
(dp2200
g94
g95
ssg83
g2194
sg76
(lp2201
S'uuid'
p2202
asbag69
(g90
g71
NtRp2203
(dp2204
g74
(dp2205
g101
g102
ssg83
g2194
sg76
(lp2206
S':'
asbag69
(g90
g71
NtRp2207
(dp2208
g74
(dp2209
sg83
g2194
sg76
(lp2210
g69
(g70
g71
NtRp2211
(dp2212
g74
(dp2213
g82
I5
ssg83
g2207
sg76
(lp2214
S'welcome/127.0.0.1.2012-02-09.12-34-37.85f1dcc8-0ca6-4ab7-b339-33b1389a67d8'
p2215
asbasbasbag69
(g85
g71
NtRp2216
(dp2217
g74
(dp2218
sg83
g79
sg76
(lp2219
g69
(g90
g71
NtRp2220
(dp2221
g74
(dp2222
g94
g95
ssg83
g2216
sg76
(lp2223
S'vars'
p2224
asbag69
(g90
g71
NtRp2225
(dp2226
g74
(dp2227
g101
g102
ssg83
g2216
sg76
(lp2228
S':'
asbag69
(g90
g71
NtRp2229
(dp2230
g74
(dp2231
sg83
g2216
sg76
(lp2232
g69
(g70
g71
NtRp2233
(dp2234
g74
(dp2235
g82
I5
ssg83
g2229
sg76
(lp2236
g69
(g78
g71
NtRp2237
(dp2238
g74
(dp2239
g82
I4
ssg83
Nsg76
(lp2240
sbasbasbasbag69
(g85
g71
NtRp2241
(dp2242
g74
(dp2243
sg83
g79
sg76
(lp2244
g69
(g90
g71
NtRp2245
(dp2246
g74
(dp2247
g94
g95
ssg83
g2241
sg76
(lp2248
S'wsgi'
p2249
asbag69
(g90
g71
NtRp2250
(dp2251
g74
(dp2252
g101
g102
ssg83
g2241
sg76
(lp2253
S':'
asbag69
(g90
g71
NtRp2254
(dp2255
g74
(dp2256
sg83
g2241
sg76
(lp2257
g69
(g70
g71
NtRp2258
(dp2259
g74
(dp2260
g82
I5
ssg83
g2254
sg76
(lp2261
g69
(g78
g71
NtRp2262
(dp2263
g74
(dp2264
g82
I4
ssg83
Nsg76
(lp2265
g69
(g85
g71
NtRp2266
(dp2267
g74
(dp2268
sg83
g2262
sg76
(lp2269
g69
(g90
g71
NtRp2270
(dp2271
g74
(dp2272
g94
g95
ssg83
g2266
sg76
(lp2273
S'environ'
p2274
asbag69
(g90
g71
NtRp2275
(dp2276
g74
(dp2277
g101
g102
ssg83
g2266
sg76
(lp2278
S':'
asbag69
(g90
g71
NtRp2279
(dp2280
g74
(dp2281
sg83
g2266
sg76
(lp2282
g69
(g70
g71
NtRp2283
(dp2284
g74
(dp2285
g82
I4
ssg83
g2279
sg76
(lp2286
g69
(g78
g71
NtRp2287
(dp2288
g74
(dp2289
g82
I3
ssg83
Nsg76
(lp2290
g69
(g85
g71
NtRp2291
(dp2292
g74
(dp2293
sg83
g2287
sg76
(lp2294
g69
(g90
g71
NtRp2295
(dp2296
g74
(dp2297
g94
g95
ssg83
g2291
sg76
(lp2298
S'HTTP_ACCEPT'
p2299
asbag69
(g90
g71
NtRp2300
(dp2301
g74
(dp2302
g101
g102
ssg83
g2291
sg76
(lp2303
S':'
asbag69
(g90
g71
NtRp2304
(dp2305
g74
(dp2306
sg83
g2291
sg76
(lp2307
g69
(g70
g71
NtRp2308
(dp2309
g74
(dp2310
g82
I3
ssg83
g2304
sg76
(lp2311
g842
asbasbasbag69
(g85
g71
NtRp2312
(dp2313
g74
(dp2314
sg83
g2287
sg76
(lp2315
g69
(g90
g71
NtRp2316
(dp2317
g74
(dp2318
g94
g95
ssg83
g2312
sg76
(lp2319
S'HTTP_ACCEPT_CHARSET'
p2320
asbag69
(g90
g71
NtRp2321
(dp2322
g74
(dp2323
g101
g102
ssg83
g2312
sg76
(lp2324
S':'
asbag69
(g90
g71
NtRp2325
(dp2326
g74
(dp2327
sg83
g2312
sg76
(lp2328
g69
(g70
g71
NtRp2329
(dp2330
g74
(dp2331
g82
I3
ssg83
g2325
sg76
(lp2332
g864
asbasbasbag69
(g85
g71
NtRp2333
(dp2334
g74
(dp2335
sg83
g2287
sg76
(lp2336
g69
(g90
g71
NtRp2337
(dp2338
g74
(dp2339
g94
g95
ssg83
g2333
sg76
(lp2340
S'HTTP_ACCEPT_ENCODING'
p2341
asbag69
(g90
g71
NtRp2342
(dp2343
g74
(dp2344
g101
g102
ssg83
g2333
sg76
(lp2345
S':'
asbag69
(g90
g71
NtRp2346
(dp2347
g74
(dp2348
sg83
g2333
sg76
(lp2349
g69
(g70
g71
NtRp2350
(dp2351
g74
(dp2352
g82
I3
ssg83
g2346
sg76
(lp2353
g886
asbasbasbag69
(g85
g71
NtRp2354
(dp2355
g74
(dp2356
sg83
g2287
sg76
(lp2357
g69
(g90
g71
NtRp2358
(dp2359
g74
(dp2360
g94
g95
ssg83
g2354
sg76
(lp2361
S'HTTP_ACCEPT_LANGUAGE'
p2362
asbag69
(g90
g71
NtRp2363
(dp2364
g74
(dp2365
g101
g102
ssg83
g2354
sg76
(lp2366
S':'
asbag69
(g90
g71
NtRp2367
(dp2368
g74
(dp2369
sg83
g2354
sg76
(lp2370
g69
(g70
g71
NtRp2371
(dp2372
g74
(dp2373
g82
I3
ssg83
g2367
sg76
(lp2374
g908
asbasbasbag69
(g85
g71
NtRp2375
(dp2376
g74
(dp2377
sg83
g2287
sg76
(lp2378
g69
(g90
g71
NtRp2379
(dp2380
g74
(dp2381
g94
g95
ssg83
g2375
sg76
(lp2382
S'HTTP_CONNECTION'
p2383
asbag69
(g90
g71
NtRp2384
(dp2385
g74
(dp2386
g101
g102
ssg83
g2375
sg76
(lp2387
S':'
asbag69
(g90
g71
NtRp2388
(dp2389
g74
(dp2390
sg83
g2375
sg76
(lp2391
g69
(g70
g71
NtRp2392
(dp2393
g74
(dp2394
g82
I3
ssg83
g2388
sg76
(lp2395
g930
asbasbasbag69
(g85
g71
NtRp2396
(dp2397
g74
(dp2398
sg83
g2287
sg76
(lp2399
g69
(g90
g71
NtRp2400
(dp2401
g74
(dp2402
g94
g95
ssg83
g2396
sg76
(lp2403
S'HTTP_COOKIE'
p2404
asbag69
(g90
g71
NtRp2405
(dp2406
g74
(dp2407
g101
g102
ssg83
g2396
sg76
(lp2408
S':'
asbag69
(g90
g71
NtRp2409
(dp2410
g74
(dp2411
sg83
g2396
sg76
(lp2412
g69
(g70
g71
NtRp2413
(dp2414
g74
(dp2415
g82
I3
ssg83
g2409
sg76
(lp2416
g952
asbasbasbag69
(g85
g71
NtRp2417
(dp2418
g74
(dp2419
sg83
g2287
sg76
(lp2420
g69
(g90
g71
NtRp2421
(dp2422
g74
(dp2423
g94
g95
ssg83
g2417
sg76
(lp2424
S'HTTP_HOST'
p2425
asbag69
(g90
g71
NtRp2426
(dp2427
g74
(dp2428
g101
g102
ssg83
g2417
sg76
(lp2429
S':'
asbag69
(g90
g71
NtRp2430
(dp2431
g74
(dp2432
sg83
g2417
sg76
(lp2433
g69
(g70
g71
NtRp2434
(dp2435
g74
(dp2436
g82
I3
ssg83
g2430
sg76
(lp2437
g974
asbasbasbag69
(g85
g71
NtRp2438
(dp2439
g74
(dp2440
sg83
g2287
sg76
(lp2441
g69
(g90
g71
NtRp2442
(dp2443
g74
(dp2444
g94
g95
ssg83
g2438
sg76
(lp2445
S'HTTP_REFERER'
p2446
asbag69
(g90
g71
NtRp2447
(dp2448
g74
(dp2449
g101
g102
ssg83
g2438
sg76
(lp2450
S':'
asbag69
(g90
g71
NtRp2451
(dp2452
g74
(dp2453
sg83
g2438
sg76
(lp2454
g69
(g70
g71
NtRp2455
(dp2456
g74
(dp2457
g82
I3
ssg83
g2451
sg76
(lp2458
g996
asbasbasbag69
(g85
g71
NtRp2459
(dp2460
g74
(dp2461
sg83
g2287
sg76
(lp2462
g69
(g90
g71
NtRp2463
(dp2464
g74
(dp2465
g94
g95
ssg83
g2459
sg76
(lp2466
S'HTTP_USER_AGENT'
p2467
asbag69
(g90
g71
NtRp2468
(dp2469
g74
(dp2470
g101
g102
ssg83
g2459
sg76
(lp2471
S':'
asbag69
(g90
g71
NtRp2472
(dp2473
g74
(dp2474
sg83
g2459
sg76
(lp2475
g69
(g70
g71
NtRp2476
(dp2477
g74
(dp2478
g82
I3
ssg83
g2472
sg76
(lp2479
g1018
asbasbasbag69
(g85
g71
NtRp2480
(dp2481
g74
(dp2482
sg83
g2287
sg76
(lp2483
g69
(g90
g71
NtRp2484
(dp2485
g74
(dp2486
g94
g95
ssg83
g2480
sg76
(lp2487
S'PATH_INFO'
p2488
asbag69
(g90
g71
NtRp2489
(dp2490
g74
(dp2491
g101
g102
ssg83
g2480
sg76
(lp2492
S':'
asbag69
(g90
g71
NtRp2493
(dp2494
g74
(dp2495
sg83
g2480
sg76
(lp2496
g69
(g70
g71
NtRp2497
(dp2498
g74
(dp2499
g82
I3
ssg83
g2493
sg76
(lp2500
g1082
asbasbasbag69
(g85
g71
NtRp2501
(dp2502
g74
(dp2503
sg83
g2287
sg76
(lp2504
g69
(g90
g71
NtRp2505
(dp2506
g74
(dp2507
g94
g95
ssg83
g2501
sg76
(lp2508
S'QUERY_STRING'
p2509
asbag69
(g90
g71
NtRp2510
(dp2511
g74
(dp2512
g101
g102
ssg83
g2501
sg76
(lp2513
S':'
asbag69
(g90
g71
NtRp2514
(dp2515
g74
(dp2516
sg83
g2501
sg76
(lp2517
g69
(g70
g71
NtRp2518
(dp2519
g74
(dp2520
g82
I3
ssg83
g2514
sg76
(lp2521
S''
asbasbasbag69
(g85
g71
NtRp2522
(dp2523
g74
(dp2524
sg83
g2287
sg76
(lp2525
g69
(g90
g71
NtRp2526
(dp2527
g74
(dp2528
g94
g95
ssg83
g2522
sg76
(lp2529
S'REMOTE_ADDR'
p2530
asbag69
(g90
g71
NtRp2531
(dp2532
g74
(dp2533
g101
g102
ssg83
g2522
sg76
(lp2534
S':'
asbag69
(g90
g71
NtRp2535
(dp2536
g74
(dp2537
sg83
g2522
sg76
(lp2538
g69
(g70
g71
NtRp2539
(dp2540
g74
(dp2541
g82
I3
ssg83
g2535
sg76
(lp2542
g214
asbasbasbag69
(g85
g71
NtRp2543
(dp2544
g74
(dp2545
sg83
g2287
sg76
(lp2546
g69
(g90
g71
NtRp2547
(dp2548
g74
(dp2549
g94
g95
ssg83
g2543
sg76
(lp2550
S'REMOTE_PORT'
p2551
asbag69
(g90
g71
NtRp2552
(dp2553
g74
(dp2554
g101
g102
ssg83
g2543
sg76
(lp2555
S':'
asbag69
(g90
g71
NtRp2556
(dp2557
g74
(dp2558
sg83
g2543
sg76
(lp2559
g69
(g70
g71
NtRp2560
(dp2561
g74
(dp2562
g82
I3
ssg83
g2556
sg76
(lp2563
g1146
asbasbasbag69
(g85
g71
NtRp2564
(dp2565
g74
(dp2566
sg83
g2287
sg76
(lp2567
g69
(g90
g71
NtRp2568
(dp2569
g74
(dp2570
g94
g95
ssg83
g2564
sg76
(lp2571
S'REQUEST_METHOD'
p2572
asbag69
(g90
g71
NtRp2573
(dp2574
g74
(dp2575
g101
g102
ssg83
g2564
sg76
(lp2576
S':'
asbag69
(g90
g71
NtRp2577
(dp2578
g74
(dp2579
sg83
g2564
sg76
(lp2580
g69
(g70
g71
NtRp2581
(dp2582
g74
(dp2583
g82
I3
ssg83
g2577
sg76
(lp2584
g1168
asbasbasbag69
(g85
g71
NtRp2585
(dp2586
g74
(dp2587
sg83
g2287
sg76
(lp2588
g69
(g90
g71
NtRp2589
(dp2590
g74
(dp2591
g94
g95
ssg83
g2585
sg76
(lp2592
S'SCRIPT_NAME'
p2593
asbag69
(g90
g71
NtRp2594
(dp2595
g74
(dp2596
g101
g102
ssg83
g2585
sg76
(lp2597
S':'
asbag69
(g90
g71
NtRp2598
(dp2599
g74
(dp2600
sg83
g2585
sg76
(lp2601
g69
(g70
g71
NtRp2602
(dp2603
g74
(dp2604
g82
I3
ssg83
g2598
sg76
(lp2605
S''
asbasbasbag69
(g85
g71
NtRp2606
(dp2607
g74
(dp2608
sg83
g2287
sg76
(lp2609
g69
(g90
g71
NtRp2610
(dp2611
g74
(dp2612
g94
g95
ssg83
g2606
sg76
(lp2613
S'SERVER_NAME'
p2614
asbag69
(g90
g71
NtRp2615
(dp2616
g74
(dp2617
g101
g102
ssg83
g2606
sg76
(lp2618
S':'
asbag69
(g90
g71
NtRp2619
(dp2620
g74
(dp2621
sg83
g2606
sg76
(lp2622
g69
(g70
g71
NtRp2623
(dp2624
g74
(dp2625
g82
I3
ssg83
g2619
sg76
(lp2626
g1211
asbasbasbag69
(g85
g71
NtRp2627
(dp2628
g74
(dp2629
sg83
g2287
sg76
(lp2630
g69
(g90
g71
NtRp2631
(dp2632
g74
(dp2633
g94
g95
ssg83
g2627
sg76
(lp2634
S'SERVER_PORT'
p2635
asbag69
(g90
g71
NtRp2636
(dp2637
g74
(dp2638
g101
g102
ssg83
g2627
sg76
(lp2639
S':'
asbag69
(g90
g71
NtRp2640
(dp2641
g74
(dp2642
sg83
g2627
sg76
(lp2643
g69
(g70
g71
NtRp2644
(dp2645
g74
(dp2646
g82
I3
ssg83
g2640
sg76
(lp2647
g1233
asbasbasbag69
(g85
g71
NtRp2648
(dp2649
g74
(dp2650
sg83
g2287
sg76
(lp2651
g69
(g90
g71
NtRp2652
(dp2653
g74
(dp2654
g94
g95
ssg83
g2648
sg76
(lp2655
S'SERVER_PROTOCOL'
p2656
asbag69
(g90
g71
NtRp2657
(dp2658
g74
(dp2659
g101
g102
ssg83
g2648
sg76
(lp2660
S':'
asbag69
(g90
g71
NtRp2661
(dp2662
g74
(dp2663
sg83
g2648
sg76
(lp2664
g69
(g70
g71
NtRp2665
(dp2666
g74
(dp2667
g82
I3
ssg83
g2661
sg76
(lp2668
g1255
asbasbasbag69
(g85
g71
NtRp2669
(dp2670
g74
(dp2671
sg83
g2287
sg76
(lp2672
g69
(g90
g71
NtRp2673
(dp2674
g74
(dp2675
g94
g95
ssg83
g2669
sg76
(lp2676
S'SERVER_SOFTWARE'
p2677
asbag69
(g90
g71
NtRp2678
(dp2679
g74
(dp2680
g101
g102
ssg83
g2669
sg76
(lp2681
S':'
asbag69
(g90
g71
NtRp2682
(dp2683
g74
(dp2684
sg83
g2669
sg76
(lp2685
g69
(g70
g71
NtRp2686
(dp2687
g74
(dp2688
g82
I3
ssg83
g2682
sg76
(lp2689
g1277
asbasbasbag69
(g85
g71
NtRp2690
(dp2691
g74
(dp2692
sg83
g2287
sg76
(lp2693
g69
(g90
g71
NtRp2694
(dp2695
g74
(dp2696
g94
g95
ssg83
g2690
sg76
(lp2697
S'wsgi.errors'
p2698
asbag69
(g90
g71
NtRp2699
(dp2700
g74
(dp2701
g101
g102
ssg83
g2690
sg76
(lp2702
S':'
asbag69
(g90
g71
NtRp2703
(dp2704
g74
(dp2705
sg83
g2690
sg76
(lp2706
g69
(g70
g71
NtRp2707
(dp2708
g74
(dp2709
g82
I3
ssg83
g2703
sg76
(lp2710
S"<open file '<stderr>', mode 'w' at 0x00000000020161E0>"
p2711
asbasbasbag69
(g85
g71
NtRp2712
(dp2713
g74
(dp2714
sg83
g2287
sg76
(lp2715
g69
(g90
g71
NtRp2716
(dp2717
g74
(dp2718
g94
g95
ssg83
g2712
sg76
(lp2719
S'wsgi.file_wrapper'
p2720
asbag69
(g90
g71
NtRp2721
(dp2722
g74
(dp2723
g101
g102
ssg83
g2712
sg76
(lp2724
S':'
asbag69
(g90
g71
NtRp2725
(dp2726
g74
(dp2727
sg83
g2712
sg76
(lp2728
g69
(g70
g71
NtRp2729
(dp2730
g74
(dp2731
g82
I3
ssg83
g2725
sg76
(lp2732
S'<class wsgiref.util.FileWrapper at 0x000000000380D828>'
p2733
asbasbasbag69
(g85
g71
NtRp2734
(dp2735
g74
(dp2736
sg83
g2287
sg76
(lp2737
g69
(g90
g71
NtRp2738
(dp2739
g74
(dp2740
g94
g95
ssg83
g2734
sg76
(lp2741
S'wsgi.input'
p2742
asbag69
(g90
g71
NtRp2743
(dp2744
g74
(dp2745
g101
g102
ssg83
g2734
sg76
(lp2746
S':'
asbag69
(g90
g71
NtRp2747
(dp2748
g74
(dp2749
sg83
g2734
sg76
(lp2750
g69
(g70
g71
NtRp2751
(dp2752
g74
(dp2753
g82
I3
ssg83
g2747
sg76
(lp2754
S'<cStringIO.StringO object at 0x000000000789E880>'
p2755
asbasbasbag69
(g85
g71
NtRp2756
(dp2757
g74
(dp2758
sg83
g2287
sg76
(lp2759
g69
(g90
g71
NtRp2760
(dp2761
g74
(dp2762
g94
g95
ssg83
g2756
sg76
(lp2763
S'wsgi.multiprocess'
p2764
asbag69
(g90
g71
NtRp2765
(dp2766
g74
(dp2767
g101
g102
ssg83
g2756
sg76
(lp2768
S':'
asbag69
(g90
g71
NtRp2769
(dp2770
g74
(dp2771
sg83
g2756
sg76
(lp2772
g69
(g70
g71
NtRp2773
(dp2774
g74
(dp2775
g82
I3
ssg83
g2769
sg76
(lp2776
g112
asbasbasbag69
(g85
g71
NtRp2777
(dp2778
g74
(dp2779
sg83
g2287
sg76
(lp2780
g69
(g90
g71
NtRp2781
(dp2782
g74
(dp2783
g94
g95
ssg83
g2777
sg76
(lp2784
S'wsgi.multithread'
p2785
asbag69
(g90
g71
NtRp2786
(dp2787
g74
(dp2788
g101
g102
ssg83
g2777
sg76
(lp2789
S':'
asbag69
(g90
g71
NtRp2790
(dp2791
g74
(dp2792
sg83
g2777
sg76
(lp2793
g69
(g70
g71
NtRp2794
(dp2795
g74
(dp2796
g82
I3
ssg83
g2790
sg76
(lp2797
g1517
asbasbasbag69
(g85
g71
NtRp2798
(dp2799
g74
(dp2800
sg83
g2287
sg76
(lp2801
g69
(g90
g71
NtRp2802
(dp2803
g74
(dp2804
g94
g95
ssg83
g2798
sg76
(lp2805
S'wsgi.run_once'
p2806
asbag69
(g90
g71
NtRp2807
(dp2808
g74
(dp2809
g101
g102
ssg83
g2798
sg76
(lp2810
S':'
asbag69
(g90
g71
NtRp2811
(dp2812
g74
(dp2813
sg83
g2798
sg76
(lp2814
g69
(g70
g71
NtRp2815
(dp2816
g74
(dp2817
g82
I3
ssg83
g2811
sg76
(lp2818
g112
asbasbasbag69
(g85
g71
NtRp2819
(dp2820
g74
(dp2821
sg83
g2287
sg76
(lp2822
g69
(g90
g71
NtRp2823
(dp2824
g74
(dp2825
g94
g95
ssg83
g2819
sg76
(lp2826
S'wsgi.url_scheme'
p2827
asbag69
(g90
g71
NtRp2828
(dp2829
g74
(dp2830
g101
g102
ssg83
g2819
sg76
(lp2831
S':'
asbag69
(g90
g71
NtRp2832
(dp2833
g74
(dp2834
sg83
g2819
sg76
(lp2835
g69
(g70
g71
NtRp2836
(dp2837
g74
(dp2838
g82
I3
ssg83
g2832
sg76
(lp2839
g1560
asbasbasbag69
(g85
g71
NtRp2840
(dp2841
g74
(dp2842
sg83
g2287
sg76
(lp2843
g69
(g90
g71
NtRp2844
(dp2845
g74
(dp2846
g94
g95
ssg83
g2840
sg76
(lp2847
S'wsgi.version'
p2848
asbag69
(g90
g71
NtRp2849
(dp2850
g74
(dp2851
g101
g102
ssg83
g2840
sg76
(lp2852
S':'
asbag69
(g90
g71
NtRp2853
(dp2854
g74
(dp2855
sg83
g2840
sg76
(lp2856
g69
(g70
g71
NtRp2857
(dp2858
g74
(dp2859
g82
I3
ssg83
g2853
sg76
(lp2860
S'1'
asbasbasbasbasbasbasbasbasbasbasbasbasbsS'frames'
p2861
(lp2862
(dp2863
S'file'
p2864
S'C:\\Users\\mellinja\\Documents\\SC2Tracker\\SC2TourneyTracker\\web2py\\gluon\\restricted.py'
p2865
sS'dump'
p2866
(dp2867
S'code'
p2868
S'r"response.write(\'<!DOCTYPE html>\\r\\n<!-- pauliris...write(\'\\r\\n</body>\\r\\n</html>\\r\\n\', escape=False)"'
p2869
sS'layer'
p2870
S"r'C:\\Users\\mellinja\\Documents\\SC2Tracker\\SC2Tourne...y\\applications\\welcome\\views\\tournament/show.html'"
p2871
sS'global compile2'
p2872
S'<function compile2>'
p2873
sS'ccode'
p2874
S'undefined'
p2875
ssS'lnum'
p2876
I203
sS'lines'
p2877
(dp2878
I198
S"    environment['__file__'] = layer"
p2879
sI199
S'    try:'
p2880
sI200
S'        if type(code) == types.CodeType:'
p2881
sI201
S'            ccode = code'
p2882
sI202
S'        else:'
p2883
sI203
S'            ccode = compile2(code,layer)'
p2884
sI204
S'        exec ccode in environment'
p2885
sI205
S'    except HTTP:'
p2886
sI206
S'        raise'
p2887
sI207
S'    except RestrictedError:'
p2888
ssS'call'
p2889
S'(code=r"response.write(\'<!DOCTYPE html>\\r\\n<!-- pauliris...write(\'\\r\\n</body>\\r\\n</html>\\r\\n\', escape=False)", environment={\'A\': <class \'gluon.html.A\'>, \'Auth\': <class \'gluon.tools.Auth\'>, \'B\': <class \'gluon.html.B\'>, \'BEAUTIFY\': <class \'gluon.html.BEAUTIFY\'>, \'BODY\': <class \'gluon.html.BODY\'>, \'BR\': <class \'gluon.html.BR\'>, \'BUTTON\': <class \'gluon.html.BUTTON\'>, \'CAT\': <class \'gluon.html.CAT\'>, \'CENTER\': <class \'gluon.html.CENTER\'>, \'CLEANUP\': <class \'gluon.validators.CLEANUP\'>, ...}, layer=r\'C:\\Users\\mellinja\\Documents\\SC2Tracker\\SC2Tourne...y\\applications\\welcome\\views\\tournament/show.html\')'
p2890
sS'func'
p2891
S'restricted'
p2892
sa(dp2893
g2864
S'C:\\Users\\mellinja\\Documents\\SC2Tracker\\SC2TourneyTracker\\web2py\\gluon\\restricted.py'
p2894
sg2866
(dp2895
S'builtincompile'
p2896
S'<built-in function compile>'
p2897
sS'code'
p2898
S'r"response.write(\'<!DOCTYPE html>\\r\\n<!-- pauliris...write(\'\\r\\n</body>\\r\\n</html>\\r\\n\', escape=False)"'
p2899
sS'code.rstrip'
p2900
S'<built-in method rstrip of str object>'
p2901
sS').replace'
p2902
g2875
sS'layer'
p2903
S"r'C:\\Users\\mellinja\\Documents\\SC2Tracker\\SC2Tourne...y\\applications\\welcome\\views\\tournament/show.html'"
p2904
ssg2876
I189
sg2877
(dp2905
I192
S'    """'
p2906
sI193
S'    runs code in environment and returns the output. if an exception occurs'
p2907
sI184
S''
sI185
S'def compile2(code,layer):'
p2908
sI186
S'    """'
p2909
sI187
S"    The +'\\n' is necessary else compile fails when code ends in a comment."
p2910
sI188
S'    """'
p2911
sI189
S"    return compile(code.rstrip().replace('\\r\\n','\\n')+'\\n', layer, 'exec')"
p2912
sI190
S''
sI191
S"def restricted(code, environment=None, layer='Unknown'):"
p2913
ssg2889
S'(code=r"response.write(\'<!DOCTYPE html>\\r\\n<!-- pauliris...write(\'\\r\\n</body>\\r\\n</html>\\r\\n\', escape=False)", layer=r\'C:\\Users\\mellinja\\Documents\\SC2Tracker\\SC2Tourne...y\\applications\\welcome\\views\\tournament/show.html\')'
p2914
sg2891
S'compile2'
p2915
sasS'pyver'
p2916
S'Python 2.7.2: C:\\Python27\\python.exe'
p2917
sS'session'
p2918
g69
(g70
g71
NtRp2919
(dp2920
g74
(dp2921
sg76
(lp2922
g69
(g78
g71
NtRp2923
(dp2924
g74
(dp2925
g82
I5
ssg83
Nsg76
(lp2926
g69
(g85
g71
NtRp2927
(dp2928
g74
(dp2929
sg83
g2923
sg76
(lp2930
g69
(g90
g71
NtRp2931
(dp2932
g74
(dp2933
g94
g95
ssg83
g2927
sg76
(lp2934
S'auth'
p2935
asbag69
(g90
g71
NtRp2936
(dp2937
g74
(dp2938
g101
g102
ssg83
g2927
sg76
(lp2939
S':'
asbag69
(g90
g71
NtRp2940
(dp2941
g74
(dp2942
sg83
g2927
sg76
(lp2943
g69
(g70
g71
NtRp2944
(dp2945
g74
(dp2946
g82
I5
ssg83
g2940
sg76
(lp2947
g69
(g78
g71
NtRp2948
(dp2949
g74
(dp2950
g82
I4
ssg83
Nsg76
(lp2951
g69
(g85
g71
NtRp2952
(dp2953
g74
(dp2954
sg83
g2948
sg76
(lp2955
g69
(g90
g71
NtRp2956
(dp2957
g74
(dp2958
g94
g95
ssg83
g2952
sg76
(lp2959
S'expiration'
p2960
asbag69
(g90
g71
NtRp2961
(dp2962
g74
(dp2963
g101
g102
ssg83
g2952
sg76
(lp2964
S':'
asbag69
(g90
g71
NtRp2965
(dp2966
g74
(dp2967
sg83
g2952
sg76
(lp2968
g69
(g70
g71
NtRp2969
(dp2970
g74
(dp2971
g82
I4
ssg83
g2965
sg76
(lp2972
S'2592000'
p2973
asbasbasbag69
(g85
g71
NtRp2974
(dp2975
g74
(dp2976
sg83
g2948
sg76
(lp2977
g69
(g90
g71
NtRp2978
(dp2979
g74
(dp2980
g94
g95
ssg83
g2974
sg76
(lp2981
S'hmac_key'
p2982
asbag69
(g90
g71
NtRp2983
(dp2984
g74
(dp2985
g101
g102
ssg83
g2974
sg76
(lp2986
S':'
asbag69
(g90
g71
NtRp2987
(dp2988
g74
(dp2989
sg83
g2974
sg76
(lp2990
g69
(g70
g71
NtRp2991
(dp2992
g74
(dp2993
g82
I4
ssg83
g2987
sg76
(lp2994
S'a77794c6-9cc2-46ea-80d7-a81f32dd8bbb'
p2995
asbasbasbag69
(g85
g71
NtRp2996
(dp2997
g74
(dp2998
sg83
g2948
sg76
(lp2999
g69
(g90
g71
NtRp3000
(dp3001
g74
(dp3002
g94
g95
ssg83
g2996
sg76
(lp3003
S'last_visit'
p3004
asbag69
(g90
g71
NtRp3005
(dp3006
g74
(dp3007
g101
g102
ssg83
g2996
sg76
(lp3008
S':'
asbag69
(g90
g71
NtRp3009
(dp3010
g74
(dp3011
sg83
g2996
sg76
(lp3012
g69
(g70
g71
NtRp3013
(dp3014
g74
(dp3015
g82
I4
ssg83
g3009
sg76
(lp3016
S'datetime.datetime(2012, 2, 9, 12, 8, 52, 902000)'
p3017
asbasbasbag69
(g85
g71
NtRp3018
(dp3019
g74
(dp3020
sg83
g2948
sg76
(lp3021
g69
(g90
g71
NtRp3022
(dp3023
g74
(dp3024
g94
g95
ssg83
g3018
sg76
(lp3025
S'remember'
p3026
asbag69
(g90
g71
NtRp3027
(dp3028
g74
(dp3029
g101
g102
ssg83
g3018
sg76
(lp3030
S':'
asbag69
(g90
g71
NtRp3031
(dp3032
g74
(dp3033
sg83
g3018
sg76
(lp3034
g69
(g70
g71
NtRp3035
(dp3036
g74
(dp3037
g82
I4
ssg83
g3031
sg76
(lp3038
g112
asbasbasbag69
(g85
g71
NtRp3039
(dp3040
g74
(dp3041
sg83
g2948
sg76
(lp3042
g69
(g90
g71
NtRp3043
(dp3044
g74
(dp3045
g94
g95
ssg83
g3039
sg76
(lp3046
S'user'
p3047
asbag69
(g90
g71
NtRp3048
(dp3049
g74
(dp3050
g101
g102
ssg83
g3039
sg76
(lp3051
S':'
asbag69
(g90
g71
NtRp3052
(dp3053
g74
(dp3054
sg83
g3039
sg76
(lp3055
g69
(g70
g71
NtRp3056
(dp3057
g74
(dp3058
g82
I4
ssg83
g3052
sg76
(lp3059
g69
(g78
g71
NtRp3060
(dp3061
g74
(dp3062
g82
I3
ssg83
Nsg76
(lp3063
g69
(g85
g71
NtRp3064
(dp3065
g74
(dp3066
sg83
g3060
sg76
(lp3067
g69
(g90
g71
NtRp3068
(dp3069
g74
(dp3070
g94
g95
ssg83
g3064
sg76
(lp3071
S'email'
p3072
asbag69
(g90
g71
NtRp3073
(dp3074
g74
(dp3075
g101
g102
ssg83
g3064
sg76
(lp3076
S':'
asbag69
(g90
g71
NtRp3077
(dp3078
g74
(dp3079
sg83
g3064
sg76
(lp3080
g69
(g70
g71
NtRp3081
(dp3082
g74
(dp3083
g82
I3
ssg83
g3077
sg76
(lp3084
S'mellinja@gmail.com'
p3085
asbasbasbag69
(g85
g71
NtRp3086
(dp3087
g74
(dp3088
sg83
g3060
sg76
(lp3089
g69
(g90
g71
NtRp3090
(dp3091
g74
(dp3092
g94
g95
ssg83
g3086
sg76
(lp3093
S'first_name'
p3094
asbag69
(g90
g71
NtRp3095
(dp3096
g74
(dp3097
g101
g102
ssg83
g3086
sg76
(lp3098
S':'
asbag69
(g90
g71
NtRp3099
(dp3100
g74
(dp3101
sg83
g3086
sg76
(lp3102
g69
(g70
g71
NtRp3103
(dp3104
g74
(dp3105
g82
I3
ssg83
g3099
sg76
(lp3106
S'Jackson'
p3107
asbasbasbag69
(g85
g71
NtRp3108
(dp3109
g74
(dp3110
sg83
g3060
sg76
(lp3111
g69
(g90
g71
NtRp3112
(dp3113
g74
(dp3114
g94
g95
ssg83
g3108
sg76
(lp3115
S'id'
p3116
asbag69
(g90
g71
NtRp3117
(dp3118
g74
(dp3119
g101
g102
ssg83
g3108
sg76
(lp3120
S':'
asbag69
(g90
g71
NtRp3121
(dp3122
g74
(dp3123
sg83
g3108
sg76
(lp3124
g69
(g70
g71
NtRp3125
(dp3126
g74
(dp3127
g82
I3
ssg83
g3121
sg76
(lp3128
S'3'
asbasbasbag69
(g85
g71
NtRp3129
(dp3130
g74
(dp3131
sg83
g3060
sg76
(lp3132
g69
(g90
g71
NtRp3133
(dp3134
g74
(dp3135
g94
g95
ssg83
g3129
sg76
(lp3136
S'last_name'
p3137
asbag69
(g90
g71
NtRp3138
(dp3139
g74
(dp3140
g101
g102
ssg83
g3129
sg76
(lp3141
S':'
asbag69
(g90
g71
NtRp3142
(dp3143
g74
(dp3144
sg83
g3129
sg76
(lp3145
g69
(g70
g71
NtRp3146
(dp3147
g74
(dp3148
g82
I3
ssg83
g3142
sg76
(lp3149
S'Melling'
p3150
asbasbasbag69
(g85
g71
NtRp3151
(dp3152
g74
(dp3153
sg83
g3060
sg76
(lp3154
g69
(g90
g71
NtRp3155
(dp3156
g74
(dp3157
g94
g95
ssg83
g3151
sg76
(lp3158
S'password'
p3159
asbag69
(g90
g71
NtRp3160
(dp3161
g74
(dp3162
g101
g102
ssg83
g3151
sg76
(lp3163
S':'
asbag69
(g90
g71
NtRp3164
(dp3165
g74
(dp3166
sg83
g3151
sg76
(lp3167
g69
(g70
g71
NtRp3168
(dp3169
g74
(dp3170
g82
I3
ssg83
g3164
sg76
(lp3171
S'98beeff9538312abb10179bd86e0a5a2'
p3172
asbasbasbag69
(g85
g71
NtRp3173
(dp3174
g74
(dp3175
sg83
g3060
sg76
(lp3176
g69
(g90
g71
NtRp3177
(dp3178
g74
(dp3179
g94
g95
ssg83
g3173
sg76
(lp3180
S'registration_id'
p3181
asbag69
(g90
g71
NtRp3182
(dp3183
g74
(dp3184
g101
g102
ssg83
g3173
sg76
(lp3185
S':'
asbag69
(g90
g71
NtRp3186
(dp3187
g74
(dp3188
sg83
g3173
sg76
(lp3189
g69
(g70
g71
NtRp3190
(dp3191
g74
(dp3192
g82
I3
ssg83
g3186
sg76
(lp3193
S''
asbasbasbag69
(g85
g71
NtRp3194
(dp3195
g74
(dp3196
sg83
g3060
sg76
(lp3197
g69
(g90
g71
NtRp3198
(dp3199
g74
(dp3200
g94
g95
ssg83
g3194
sg76
(lp3201
S'registration_key'
p3202
asbag69
(g90
g71
NtRp3203
(dp3204
g74
(dp3205
g101
g102
ssg83
g3194
sg76
(lp3206
S':'
asbag69
(g90
g71
NtRp3207
(dp3208
g74
(dp3209
sg83
g3194
sg76
(lp3210
g69
(g70
g71
NtRp3211
(dp3212
g74
(dp3213
g82
I3
ssg83
g3207
sg76
(lp3214
S''
asbasbasbag69
(g85
g71
NtRp3215
(dp3216
g74
(dp3217
sg83
g3060
sg76
(lp3218
g69
(g90
g71
NtRp3219
(dp3220
g74
(dp3221
g94
g95
ssg83
g3215
sg76
(lp3222
S'reset_password_key'
p3223
asbag69
(g90
g71
NtRp3224
(dp3225
g74
(dp3226
g101
g102
ssg83
g3215
sg76
(lp3227
S':'
asbag69
(g90
g71
NtRp3228
(dp3229
g74
(dp3230
sg83
g3215
sg76
(lp3231
g69
(g70
g71
NtRp3232
(dp3233
g74
(dp3234
g82
I3
ssg83
g3228
sg76
(lp3235
S'1327597193-2590f763-191b-469c-bc47-fc293ee83460'
p3236
asbasbasbasbasbasbasbasbasbasbasbasbasbsS'etype'
p3237
S"<type 'exceptions.SyntaxError'>"
p3238
sS'date'
p3239
S'Thu Feb 09 12:34:37 2012'
p3240
sS'response'
p3241
g69
(g70
g71
NtRp3242
(dp3243
g74
(dp3244
sg76
(lp3245
g69
(g78
g71
NtRp3246
(dp3247
g74
(dp3248
g82
I5
ssg83
Nsg76
(lp3249
g69
(g85
g71
NtRp3250
(dp3251
g74
(dp3252
sg83
g3246
sg76
(lp3253
g69
(g90
g71
NtRp3254
(dp3255
g74
(dp3256
g94
g95
ssg83
g3250
sg76
(lp3257
g179
asbag69
(g90
g71
NtRp3258
(dp3259
g74
(dp3260
g101
g102
ssg83
g3250
sg76
(lp3261
S':'
asbag69
(g90
g71
NtRp3262
(dp3263
g74
(dp3264
sg83
g3250
sg76
(lp3265
g69
(g70
g71
NtRp3266
(dp3267
g74
(dp3268
g82
I5
ssg83
g3262
sg76
(lp3269
S'<cStringIO.StringO object at 0x00000000079F7570>'
p3270
asbasbasbag69
(g85
g71
NtRp3271
(dp3272
g74
(dp3273
sg83
g3246
sg76
(lp3274
g69
(g90
g71
NtRp3275
(dp3276
g74
(dp3277
g94
g95
ssg83
g3271
sg76
(lp3278
g245
asbag69
(g90
g71
NtRp3279
(dp3280
g74
(dp3281
g101
g102
ssg83
g3271
sg76
(lp3282
S':'
asbag69
(g90
g71
NtRp3283
(dp3284
g74
(dp3285
sg83
g3271
sg76
(lp3286
g69
(g70
g71
NtRp3287
(dp3288
g74
(dp3289
g82
I5
ssg83
g3283
sg76
(lp3290
g69
(g78
g71
NtRp3291
(dp3292
g74
(dp3293
g82
I4
ssg83
Nsg76
(lp3294
g69
(g85
g71
NtRp3295
(dp3296
g74
(dp3297
sg83
g3291
sg76
(lp3298
g69
(g90
g71
NtRp3299
(dp3300
g74
(dp3301
g94
g95
ssg83
g3295
sg76
(lp3302
S'session_id_welcome'
p3303
asbag69
(g90
g71
NtRp3304
(dp3305
g74
(dp3306
g101
g102
ssg83
g3295
sg76
(lp3307
S':'
asbag69
(g90
g71
NtRp3308
(dp3309
g74
(dp3310
sg83
g3295
sg76
(lp3311
g69
(g70
g71
NtRp3312
(dp3313
g74
(dp3314
g82
I4
ssg83
g3308
sg76
(lp3315
g69
(g78
g71
NtRp3316
(dp3317
g74
(dp3318
g82
I3
ssg83
Nsg76
(lp3319
g69
(g85
g71
NtRp3320
(dp3321
g74
(dp3322
sg83
g3316
sg76
(lp3323
g69
(g90
g71
NtRp3324
(dp3325
g74
(dp3326
g94
g95
ssg83
g3320
sg76
(lp3327
g295
asbag69
(g90
g71
NtRp3328
(dp3329
g74
(dp3330
g101
g102
ssg83
g3320
sg76
(lp3331
S':'
asbag69
(g90
g71
NtRp3332
(dp3333
g74
(dp3334
sg83
g3320
sg76
(lp3335
g69
(g70
g71
NtRp3336
(dp3337
g74
(dp3338
g82
I3
ssg83
g3332
sg76
(lp3339
S''
asbasbasbag69
(g85
g71
NtRp3340
(dp3341
g74
(dp3342
sg83
g3316
sg76
(lp3343
g69
(g90
g71
NtRp3344
(dp3345
g74
(dp3346
g94
g95
ssg83
g3340
sg76
(lp3347
g316
asbag69
(g90
g71
NtRp3348
(dp3349
g74
(dp3350
g101
g102
ssg83
g3340
sg76
(lp3351
S':'
asbag69
(g90
g71
NtRp3352
(dp3353
g74
(dp3354
sg83
g3340
sg76
(lp3355
g69
(g70
g71
NtRp3356
(dp3357
g74
(dp3358
g82
I3
ssg83
g3352
sg76
(lp3359
S''
asbasbasbag69
(g85
g71
NtRp3360
(dp3361
g74
(dp3362
sg83
g3316
sg76
(lp3363
g69
(g90
g71
NtRp3364
(dp3365
g74
(dp3366
g94
g95
ssg83
g3360
sg76
(lp3367
g337
asbag69
(g90
g71
NtRp3368
(dp3369
g74
(dp3370
g101
g102
ssg83
g3360
sg76
(lp3371
S':'
asbag69
(g90
g71
NtRp3372
(dp3373
g74
(dp3374
sg83
g3360
sg76
(lp3375
g69
(g70
g71
NtRp3376
(dp3377
g74
(dp3378
g82
I3
ssg83
g3372
sg76
(lp3379
S''
asbasbasbag69
(g85
g71
NtRp3380
(dp3381
g74
(dp3382
sg83
g3316
sg76
(lp3383
g69
(g90
g71
NtRp3384
(dp3385
g74
(dp3386
g94
g95
ssg83
g3380
sg76
(lp3387
g358
asbag69
(g90
g71
NtRp3388
(dp3389
g74
(dp3390
g101
g102
ssg83
g3380
sg76
(lp3391
S':'
asbag69
(g90
g71
NtRp3392
(dp3393
g74
(dp3394
sg83
g3380
sg76
(lp3395
g69
(g70
g71
NtRp3396
(dp3397
g74
(dp3398
g82
I3
ssg83
g3392
sg76
(lp3399
S''
asbasbasbag69
(g85
g71
NtRp3400
(dp3401
g74
(dp3402
sg83
g3316
sg76
(lp3403
g69
(g90
g71
NtRp3404
(dp3405
g74
(dp3406
g94
g95
ssg83
g3400
sg76
(lp3407
g379
asbag69
(g90
g71
NtRp3408
(dp3409
g74
(dp3410
g101
g102
ssg83
g3400
sg76
(lp3411
S':'
asbag69
(g90
g71
NtRp3412
(dp3413
g74
(dp3414
sg83
g3400
sg76
(lp3415
g69
(g70
g71
NtRp3416
(dp3417
g74
(dp3418
g82
I3
ssg83
g3412
sg76
(lp3419
S''
asbasbasbag69
(g85
g71
NtRp3420
(dp3421
g74
(dp3422
sg83
g3316
sg76
(lp3423
g69
(g90
g71
NtRp3424
(dp3425
g74
(dp3426
g94
g95
ssg83
g3420
sg76
(lp3427
g400
asbag69
(g90
g71
NtRp3428
(dp3429
g74
(dp3430
g101
g102
ssg83
g3420
sg76
(lp3431
S':'
asbag69
(g90
g71
NtRp3432
(dp3433
g74
(dp3434
sg83
g3420
sg76
(lp3435
g69
(g70
g71
NtRp3436
(dp3437
g74
(dp3438
g82
I3
ssg83
g3432
sg76
(lp3439
S'/'
asbasbasbag69
(g85
g71
NtRp3440
(dp3441
g74
(dp3442
sg83
g3316
sg76
(lp3443
g69
(g90
g71
NtRp3444
(dp3445
g74
(dp3446
g94
g95
ssg83
g3440
sg76
(lp3447
g421
asbag69
(g90
g71
NtRp3448
(dp3449
g74
(dp3450
g101
g102
ssg83
g3440
sg76
(lp3451
S':'
asbag69
(g90
g71
NtRp3452
(dp3453
g74
(dp3454
sg83
g3440
sg76
(lp3455
g69
(g70
g71
NtRp3456
(dp3457
g74
(dp3458
g82
I3
ssg83
g3452
sg76
(lp3459
S''
asbasbasbag69
(g85
g71
NtRp3460
(dp3461
g74
(dp3462
sg83
g3316
sg76
(lp3463
g69
(g90
g71
NtRp3464
(dp3465
g74
(dp3466
g94
g95
ssg83
g3460
sg76
(lp3467
g442
asbag69
(g90
g71
NtRp3468
(dp3469
g74
(dp3470
g101
g102
ssg83
g3460
sg76
(lp3471
S':'
asbag69
(g90
g71
NtRp3472
(dp3473
g74
(dp3474
sg83
g3460
sg76
(lp3475
g69
(g70
g71
NtRp3476
(dp3477
g74
(dp3478
g82
I3
ssg83
g3472
sg76
(lp3479
S''
asbasbasbasbasbasbasbasbasbasbasbag69
(g85
g71
NtRp3480
(dp3481
g74
(dp3482
sg83
g3246
sg76
(lp3483
g69
(g90
g71
NtRp3484
(dp3485
g74
(dp3486
g94
g95
ssg83
g3480
sg76
(lp3487
S'files'
p3488
asbag69
(g90
g71
NtRp3489
(dp3490
g74
(dp3491
g101
g102
ssg83
g3480
sg76
(lp3492
S':'
asbag69
(g90
g71
NtRp3493
(dp3494
g74
(dp3495
sg83
g3480
sg76
(lp3496
g69
(g70
g71
NtRp3497
(dp3498
g74
(dp3499
g82
I5
ssg83
g3493
sg76
(lp3500
g69
(g78
g71
NtRp3501
(dp3502
g74
(dp3503
g82
I4
ssg83
Nsg76
(lp3504
sbasbasbasbag69
(g85
g71
NtRp3505
(dp3506
g74
(dp3507
sg83
g3246
sg76
(lp3508
g69
(g90
g71
NtRp3509
(dp3510
g74
(dp3511
g94
g95
ssg83
g3505
sg76
(lp3512
S'flash'
p3513
asbag69
(g90
g71
NtRp3514
(dp3515
g74
(dp3516
g101
g102
ssg83
g3505
sg76
(lp3517
S':'
asbag69
(g90
g71
NtRp3518
(dp3519
g74
(dp3520
sg83
g3505
sg76
(lp3521
g69
(g70
g71
NtRp3522
(dp3523
g74
(dp3524
g82
I5
ssg83
g3518
sg76
(lp3525
S''
asbasbasbag69
(g85
g71
NtRp3526
(dp3527
g74
(dp3528
sg83
g3246
sg76
(lp3529
g69
(g90
g71
NtRp3530
(dp3531
g74
(dp3532
g94
g95
ssg83
g3526
sg76
(lp3533
S'generic_patterns'
p3534
asbag69
(g90
g71
NtRp3535
(dp3536
g74
(dp3537
g101
g102
ssg83
g3526
sg76
(lp3538
S':'
asbag69
(g90
g71
NtRp3539
(dp3540
g74
(dp3541
sg83
g3526
sg76
(lp3542
g69
(g70
g71
NtRp3543
(dp3544
g74
(dp3545
g82
I5
ssg83
g3539
sg76
(lp3546
g69
(g78
g71
NtRp3547
(dp3548
g74
(dp3549
g82
I4
ssg83
Nsg76
(lp3550
g69
(g85
g71
NtRp3551
(dp3552
g74
(dp3553
sg83
g3547
sg76
(lp3554
g69
(g90
g71
NtRp3555
(dp3556
g74
(dp3557
sg83
g3551
sg76
(lp3558
g69
(g70
g71
NtRp3559
(dp3560
g74
(dp3561
g82
I4
ssg83
g3555
sg76
(lp3562
S'*'
asbasbasbasbasbasbasbag69
(g85
g71
NtRp3563
(dp3564
g74
(dp3565
sg83
g3246
sg76
(lp3566
g69
(g90
g71
NtRp3567
(dp3568
g74
(dp3569
g94
g95
ssg83
g3563
sg76
(lp3570
S'headers'
p3571
asbag69
(g90
g71
NtRp3572
(dp3573
g74
(dp3574
g101
g102
ssg83
g3563
sg76
(lp3575
S':'
asbag69
(g90
g71
NtRp3576
(dp3577
g74
(dp3578
sg83
g3563
sg76
(lp3579
g69
(g70
g71
NtRp3580
(dp3581
g74
(dp3582
g82
I5
ssg83
g3576
sg76
(lp3583
g69
(g78
g71
NtRp3584
(dp3585
g74
(dp3586
g82
I4
ssg83
Nsg76
(lp3587
g69
(g85
g71
NtRp3588
(dp3589
g74
(dp3590
sg83
g3584
sg76
(lp3591
g69
(g90
g71
NtRp3592
(dp3593
g74
(dp3594
g94
g95
ssg83
g3588
sg76
(lp3595
S'Cache-Control'
p3596
asbag69
(g90
g71
NtRp3597
(dp3598
g74
(dp3599
g101
g102
ssg83
g3588
sg76
(lp3600
S':'
asbag69
(g90
g71
NtRp3601
(dp3602
g74
(dp3603
sg83
g3588
sg76
(lp3604
g69
(g70
g71
NtRp3605
(dp3606
g74
(dp3607
g82
I4
ssg83
g3601
sg76
(lp3608
S'no-store, no-cache, must-revalidate, post-check=0, pre-check=0'
p3609
asbasbasbag69
(g85
g71
NtRp3610
(dp3611
g74
(dp3612
sg83
g3584
sg76
(lp3613
g69
(g90
g71
NtRp3614
(dp3615
g74
(dp3616
g94
g95
ssg83
g3610
sg76
(lp3617
S'Content-Type'
p3618
asbag69
(g90
g71
NtRp3619
(dp3620
g74
(dp3621
g101
g102
ssg83
g3610
sg76
(lp3622
S':'
asbag69
(g90
g71
NtRp3623
(dp3624
g74
(dp3625
sg83
g3610
sg76
(lp3626
g69
(g70
g71
NtRp3627
(dp3628
g74
(dp3629
g82
I4
ssg83
g3623
sg76
(lp3630
S'text/html; charset=utf-8'
p3631
asbasbasbag69
(g85
g71
NtRp3632
(dp3633
g74
(dp3634
sg83
g3584
sg76
(lp3635
g69
(g90
g71
NtRp3636
(dp3637
g74
(dp3638
g94
g95
ssg83
g3632
sg76
(lp3639
S'Expires'
p3640
asbag69
(g90
g71
NtRp3641
(dp3642
g74
(dp3643
g101
g102
ssg83
g3632
sg76
(lp3644
S':'
asbag69
(g90
g71
NtRp3645
(dp3646
g74
(dp3647
sg83
g3632
sg76
(lp3648
g69
(g70
g71
NtRp3649
(dp3650
g74
(dp3651
g82
I4
ssg83
g3645
sg76
(lp3652
S'Thu, 09 Feb 2012 17:34:37 GMT'
p3653
asbasbasbag69
(g85
g71
NtRp3654
(dp3655
g74
(dp3656
sg83
g3584
sg76
(lp3657
g69
(g90
g71
NtRp3658
(dp3659
g74
(dp3660
g94
g95
ssg83
g3654
sg76
(lp3661
S'Pragma'
p3662
asbag69
(g90
g71
NtRp3663
(dp3664
g74
(dp3665
g101
g102
ssg83
g3654
sg76
(lp3666
S':'
asbag69
(g90
g71
NtRp3667
(dp3668
g74
(dp3669
sg83
g3654
sg76
(lp3670
g69
(g70
g71
NtRp3671
(dp3672
g74
(dp3673
g82
I4
ssg83
g3667
sg76
(lp3674
S'no-cache'
p3675
asbasbasbag69
(g85
g71
NtRp3676
(dp3677
g74
(dp3678
sg83
g3584
sg76
(lp3679
g69
(g90
g71
NtRp3680
(dp3681
g74
(dp3682
g94
g95
ssg83
g3676
sg76
(lp3683
S'X-Powered-By'
p3684
asbag69
(g90
g71
NtRp3685
(dp3686
g74
(dp3687
g101
g102
ssg83
g3676
sg76
(lp3688
S':'
asbag69
(g90
g71
NtRp3689
(dp3690
g74
(dp3691
sg83
g3676
sg76
(lp3692
g69
(g70
g71
NtRp3693
(dp3694
g74
(dp3695
g82
I4
ssg83
g3689
sg76
(lp3696
S'web2py'
p3697
asbasbasbasbasbasbasbag69
(g85
g71
NtRp3698
(dp3699
g74
(dp3700
sg83
g3246
sg76
(lp3701
g69
(g90
g71
NtRp3702
(dp3703
g74
(dp3704
g94
g95
ssg83
g3698
sg76
(lp3705
S'menu'
p3706
asbag69
(g90
g71
NtRp3707
(dp3708
g74
(dp3709
g101
g102
ssg83
g3698
sg76
(lp3710
S':'
asbag69
(g90
g71
NtRp3711
(dp3712
g74
(dp3713
sg83
g3698
sg76
(lp3714
g69
(g70
g71
NtRp3715
(dp3716
g74
(dp3717
g82
I5
ssg83
g3711
sg76
(lp3718
g69
(g78
g71
NtRp3719
(dp3720
g74
(dp3721
g82
I4
ssg83
Nsg76
(lp3722
g69
(g85
g71
NtRp3723
(dp3724
g74
(dp3725
sg83
g3719
sg76
(lp3726
g69
(g90
g71
NtRp3727
(dp3728
g74
(dp3729
sg83
g3723
sg76
(lp3730
g69
(g70
g71
NtRp3731
(dp3732
g74
(dp3733
g82
I4
ssg83
g3727
sg76
(lp3734
g69
(g78
g71
NtRp3735
(dp3736
g74
(dp3737
g82
I3
ssg83
Nsg76
(lp3738
g69
(g85
g71
NtRp3739
(dp3740
g74
(dp3741
sg83
g3735
sg76
(lp3742
g69
(g90
g71
NtRp3743
(dp3744
g74
(dp3745
sg83
g3739
sg76
(lp3746
g69
(g70
g71
NtRp3747
(dp3748
g74
(dp3749
g82
I3
ssg83
g3743
sg76
(lp3750
cgluon.languages
lazyT_unpickle
p3751
(S't\x04\x00\x00\x00Home'
tRp3752
asbasbasbag69
(g85
g71
NtRp3753
(dp3754
g74
(dp3755
sg83
g3735
sg76
(lp3756
g69
(g90
g71
NtRp3757
(dp3758
g74
(dp3759
sg83
g3753
sg76
(lp3760
g69
(g70
g71
NtRp3761
(dp3762
g74
(dp3763
g82
I3
ssg83
g3757
sg76
(lp3764
g112
asbasbasbag69
(g85
g71
NtRp3765
(dp3766
g74
(dp3767
sg83
g3735
sg76
(lp3768
g69
(g90
g71
NtRp3769
(dp3770
g74
(dp3771
sg83
g3765
sg76
(lp3772
g69
(g70
g71
NtRp3773
(dp3774
g74
(dp3775
g82
I3
ssg83
g3769
sg76
(lp3776
S'/welcome/default/index'
p3777
asbasbasbag69
(g85
g71
NtRp3778
(dp3779
g74
(dp3780
sg83
g3735
sg76
(lp3781
g69
(g90
g71
NtRp3782
(dp3783
g74
(dp3784
sg83
g3778
sg76
(lp3785
g69
(g70
g71
NtRp3786
(dp3787
g74
(dp3788
g82
I3
ssg83
g3782
sg76
(lp3789
g69
(g78
g71
NtRp3790
(dp3791
g74
(dp3792
g82
I2
ssg83
Nsg76
(lp3793
sbasbasbasbasbasbasbasbasbasbasbasbag69
(g85
g71
NtRp3794
(dp3795
g74
(dp3796
sg83
g3246
sg76
(lp3797
g69
(g90
g71
NtRp3798
(dp3799
g74
(dp3800
g94
g95
ssg83
g3794
sg76
(lp3801
S'meta'
p3802
asbag69
(g90
g71
NtRp3803
(dp3804
g74
(dp3805
g101
g102
ssg83
g3794
sg76
(lp3806
S':'
asbag69
(g90
g71
NtRp3807
(dp3808
g74
(dp3809
sg83
g3794
sg76
(lp3810
g69
(g70
g71
NtRp3811
(dp3812
g74
(dp3813
g82
I5
ssg83
g3807
sg76
(lp3814
g69
(g78
g71
NtRp3815
(dp3816
g74
(dp3817
g82
I4
ssg83
Nsg76
(lp3818
g69
(g85
g71
NtRp3819
(dp3820
g74
(dp3821
sg83
g3815
sg76
(lp3822
g69
(g90
g71
NtRp3823
(dp3824
g74
(dp3825
g94
g95
ssg83
g3819
sg76
(lp3826
S'author'
p3827
asbag69
(g90
g71
NtRp3828
(dp3829
g74
(dp3830
g101
g102
ssg83
g3819
sg76
(lp3831
S':'
asbag69
(g90
g71
NtRp3832
(dp3833
g74
(dp3834
sg83
g3819
sg76
(lp3835
g69
(g70
g71
NtRp3836
(dp3837
g74
(dp3838
g82
I4
ssg83
g3832
sg76
(lp3839
S'Your Name <you@example.com>'
p3840
asbasbasbag69
(g85
g71
NtRp3841
(dp3842
g74
(dp3843
sg83
g3815
sg76
(lp3844
g69
(g90
g71
NtRp3845
(dp3846
g74
(dp3847
g94
g95
ssg83
g3841
sg76
(lp3848
S'copyright'
p3849
asbag69
(g90
g71
NtRp3850
(dp3851
g74
(dp3852
g101
g102
ssg83
g3841
sg76
(lp3853
S':'
asbag69
(g90
g71
NtRp3854
(dp3855
g74
(dp3856
sg83
g3841
sg76
(lp3857
g69
(g70
g71
NtRp3858
(dp3859
g74
(dp3860
g82
I4
ssg83
g3854
sg76
(lp3861
S'Copyright 2011'
p3862
asbasbasbag69
(g85
g71
NtRp3863
(dp3864
g74
(dp3865
sg83
g3815
sg76
(lp3866
g69
(g90
g71
NtRp3867
(dp3868
g74
(dp3869
g94
g95
ssg83
g3863
sg76
(lp3870
S'description'
p3871
asbag69
(g90
g71
NtRp3872
(dp3873
g74
(dp3874
g101
g102
ssg83
g3863
sg76
(lp3875
S':'
asbag69
(g90
g71
NtRp3876
(dp3877
g74
(dp3878
sg83
g3863
sg76
(lp3879
g69
(g70
g71
NtRp3880
(dp3881
g74
(dp3882
g82
I4
ssg83
g3876
sg76
(lp3883
S'a cool new app'
p3884
asbasbasbag69
(g85
g71
NtRp3885
(dp3886
g74
(dp3887
sg83
g3815
sg76
(lp3888
g69
(g90
g71
NtRp3889
(dp3890
g74
(dp3891
g94
g95
ssg83
g3885
sg76
(lp3892
S'generator'
p3893
asbag69
(g90
g71
NtRp3894
(dp3895
g74
(dp3896
g101
g102
ssg83
g3885
sg76
(lp3897
S':'
asbag69
(g90
g71
NtRp3898
(dp3899
g74
(dp3900
sg83
g3885
sg76
(lp3901
g69
(g70
g71
NtRp3902
(dp3903
g74
(dp3904
g82
I4
ssg83
g3898
sg76
(lp3905
S'Web2py Web Framework'
p3906
asbasbasbag69
(g85
g71
NtRp3907
(dp3908
g74
(dp3909
sg83
g3815
sg76
(lp3910
g69
(g90
g71
NtRp3911
(dp3912
g74
(dp3913
g94
g95
ssg83
g3907
sg76
(lp3914
S'keywords'
p3915
asbag69
(g90
g71
NtRp3916
(dp3917
g74
(dp3918
g101
g102
ssg83
g3907
sg76
(lp3919
S':'
asbag69
(g90
g71
NtRp3920
(dp3921
g74
(dp3922
sg83
g3907
sg76
(lp3923
g69
(g70
g71
NtRp3924
(dp3925
g74
(dp3926
g82
I4
ssg83
g3920
sg76
(lp3927
S'web2py, python, framework'
p3928
asbasbasbasbasbasbasbag69
(g85
g71
NtRp3929
(dp3930
g74
(dp3931
sg83
g3246
sg76
(lp3932
g69
(g90
g71
NtRp3933
(dp3934
g74
(dp3935
g94
g95
ssg83
g3929
sg76
(lp3936
S'postprocessing'
p3937
asbag69
(g90
g71
NtRp3938
(dp3939
g74
(dp3940
g101
g102
ssg83
g3929
sg76
(lp3941
S':'
asbag69
(g90
g71
NtRp3942
(dp3943
g74
(dp3944
sg83
g3929
sg76
(lp3945
g69
(g70
g71
NtRp3946
(dp3947
g74
(dp3948
g82
I5
ssg83
g3942
sg76
(lp3949
g69
(g78
g71
NtRp3950
(dp3951
g74
(dp3952
g82
I4
ssg83
Nsg76
(lp3953
sbasbasbasbag69
(g85
g71
NtRp3954
(dp3955
g74
(dp3956
sg83
g3246
sg76
(lp3957
g69
(g90
g71
NtRp3958
(dp3959
g74
(dp3960
g94
g95
ssg83
g3954
sg76
(lp3961
S'session_file'
p3962
asbag69
(g90
g71
NtRp3963
(dp3964
g74
(dp3965
g101
g102
ssg83
g3954
sg76
(lp3966
S':'
asbag69
(g90
g71
NtRp3967
(dp3968
g74
(dp3969
sg83
g3954
sg76
(lp3970
g69
(g70
g71
NtRp3971
(dp3972
g74
(dp3973
g82
I5
ssg83
g3967
sg76
(lp3974
S"<open file 'C:\\Users\\mellinja\\Documents\\SC2Tracker\\SC2TourneyTracker\\web2py\\applications\\welcome\\sessions\\127.0.0.1-3577bb45-b3be-4c0f-be7b-edc2ad5f937c', mode 'rb+' at 0x0000000009D9C6F0>"
p3975
asbasbasbag69
(g85
g71
NtRp3976
(dp3977
g74
(dp3978
sg83
g3246
sg76
(lp3979
g69
(g90
g71
NtRp3980
(dp3981
g74
(dp3982
g94
g95
ssg83
g3976
sg76
(lp3983
S'session_filename'
p3984
asbag69
(g90
g71
NtRp3985
(dp3986
g74
(dp3987
g101
g102
ssg83
g3976
sg76
(lp3988
S':'
asbag69
(g90
g71
NtRp3989
(dp3990
g74
(dp3991
sg83
g3976
sg76
(lp3992
g69
(g70
g71
NtRp3993
(dp3994
g74
(dp3995
g82
I5
ssg83
g3989
sg76
(lp3996
S'C:\\Users\\mellinja\\Documents\\SC2Tracker\\SC2TourneyTracker\\web2py\\applications\\welcome\\sessions\\127.0.0.1-3577bb45-b3be-4c0f-be7b-edc2ad5f937c'
p3997
asbasbasbag69
(g85
g71
NtRp3998
(dp3999
g74
(dp4000
sg83
g3246
sg76
(lp4001
g69
(g90
g71
NtRp4002
(dp4003
g74
(dp4004
g94
g95
ssg83
g3998
sg76
(lp4005
S'session_id'
p4006
asbag69
(g90
g71
NtRp4007
(dp4008
g74
(dp4009
g101
g102
ssg83
g3998
sg76
(lp4010
S':'
asbag69
(g90
g71
NtRp4011
(dp4012
g74
(dp4013
sg83
g3998
sg76
(lp4014
g69
(g70
g71
NtRp4015
(dp4016
g74
(dp4017
g82
I5
ssg83
g4011
sg76
(lp4018
S'127.0.0.1-3577bb45-b3be-4c0f-be7b-edc2ad5f937c'
p4019
asbasbasbag69
(g85
g71
NtRp4020
(dp4021
g74
(dp4022
sg83
g3246
sg76
(lp4023
g69
(g90
g71
NtRp4024
(dp4025
g74
(dp4026
g94
g95
ssg83
g4020
sg76
(lp4027
S'session_id_name'
p4028
asbag69
(g90
g71
NtRp4029
(dp4030
g74
(dp4031
g101
g102
ssg83
g4020
sg76
(lp4032
S':'
asbag69
(g90
g71
NtRp4033
(dp4034
g74
(dp4035
sg83
g4020
sg76
(lp4036
g69
(g70
g71
NtRp4037
(dp4038
g74
(dp4039
g82
I5
ssg83
g4033
sg76
(lp4040
g3303
asbasbasbag69
(g85
g71
NtRp4041
(dp4042
g74
(dp4043
sg83
g3246
sg76
(lp4044
g69
(g90
g71
NtRp4045
(dp4046
g74
(dp4047
g94
g95
ssg83
g4041
sg76
(lp4048
S'session_locked'
p4049
asbag69
(g90
g71
NtRp4050
(dp4051
g74
(dp4052
g101
g102
ssg83
g4041
sg76
(lp4053
S':'
asbag69
(g90
g71
NtRp4054
(dp4055
g74
(dp4056
sg83
g4041
sg76
(lp4057
g69
(g70
g71
NtRp4058
(dp4059
g74
(dp4060
g82
I5
ssg83
g4054
sg76
(lp4061
g1517
asbasbasbag69
(g85
g71
NtRp4062
(dp4063
g74
(dp4064
sg83
g3246
sg76
(lp4065
g69
(g90
g71
NtRp4066
(dp4067
g74
(dp4068
g94
g95
ssg83
g4062
sg76
(lp4069
S'session_new'
p4070
asbag69
(g90
g71
NtRp4071
(dp4072
g74
(dp4073
g101
g102
ssg83
g4062
sg76
(lp4074
S':'
asbag69
(g90
g71
NtRp4075
(dp4076
g74
(dp4077
sg83
g4062
sg76
(lp4078
g69
(g70
g71
NtRp4079
(dp4080
g74
(dp4081
g82
I5
ssg83
g4075
sg76
(lp4082
g112
asbasbasbag69
(g85
g71
NtRp4083
(dp4084
g74
(dp4085
sg83
g3246
sg76
(lp4086
g69
(g90
g71
NtRp4087
(dp4088
g74
(dp4089
g94
g95
ssg83
g4083
sg76
(lp4090
S'status'
p4091
asbag69
(g90
g71
NtRp4092
(dp4093
g74
(dp4094
g101
g102
ssg83
g4083
sg76
(lp4095
S':'
asbag69
(g90
g71
NtRp4096
(dp4097
g74
(dp4098
sg83
g4083
sg76
(lp4099
g69
(g70
g71
NtRp4100
(dp4101
g74
(dp4102
g82
I5
ssg83
g4096
sg76
(lp4103
S'200'
p4104
asbasbasbag69
(g85
g71
NtRp4105
(dp4106
g74
(dp4107
sg83
g3246
sg76
(lp4108
g69
(g90
g71
NtRp4109
(dp4110
g74
(dp4111
g94
g95
ssg83
g4105
sg76
(lp4112
S'subtitle'
p4113
asbag69
(g90
g71
NtRp4114
(dp4115
g74
(dp4116
g101
g102
ssg83
g4105
sg76
(lp4117
S':'
asbag69
(g90
g71
NtRp4118
(dp4119
g74
(dp4120
sg83
g4105
sg76
(lp4121
g69
(g70
g71
NtRp4122
(dp4123
g74
(dp4124
g82
I5
ssg83
g4118
sg76
(lp4125
g3751
(S's2\x00\x00\x00Starcraft II Custom Tournament Tracker Version 0.1'
tRp4126
asbasbasbag69
(g85
g71
NtRp4127
(dp4128
g74
(dp4129
sg83
g3246
sg76
(lp4130
g69
(g90
g71
NtRp4131
(dp4132
g74
(dp4133
g94
g95
ssg83
g4127
sg76
(lp4134
S'title'
p4135
asbag69
(g90
g71
NtRp4136
(dp4137
g74
(dp4138
g101
g102
ssg83
g4127
sg76
(lp4139
S':'
asbag69
(g90
g71
NtRp4140
(dp4141
g74
(dp4142
sg83
g4127
sg76
(lp4143
g69
(g70
g71
NtRp4144
(dp4145
g74
(dp4146
g82
I5
ssg83
g4140
sg76
(lp4147
S'SC2CTT v0.1'
p4148
asbasbasbag69
(g85
g71
NtRp4149
(dp4150
g74
(dp4151
sg83
g3246
sg76
(lp4152
g69
(g90
g71
NtRp4153
(dp4154
g74
(dp4155
g94
g95
ssg83
g4149
sg76
(lp4156
g2202
asbag69
(g90
g71
NtRp4157
(dp4158
g74
(dp4159
g101
g102
ssg83
g4149
sg76
(lp4160
S':'
asbag69
(g90
g71
NtRp4161
(dp4162
g74
(dp4163
sg83
g4149
sg76
(lp4164
g69
(g70
g71
NtRp4165
(dp4166
g74
(dp4167
g82
I5
ssg83
g4161
sg76
(lp4168
g2215
asbasbasbag69
(g85
g71
NtRp4169
(dp4170
g74
(dp4171
sg83
g3246
sg76
(lp4172
g69
(g90
g71
NtRp4173
(dp4174
g74
(dp4175
g94
g95
ssg83
g4169
sg76
(lp4176
S'view'
p4177
asbag69
(g90
g71
NtRp4178
(dp4179
g74
(dp4180
g101
g102
ssg83
g4169
sg76
(lp4181
S':'
asbag69
(g90
g71
NtRp4182
(dp4183
g74
(dp4184
sg83
g4169
sg76
(lp4185
g69
(g70
g71
NtRp4186
(dp4187
g74
(dp4188
g82
I5
ssg83
g4182
sg76
(lp4189
S'tournament/show.html'
p4190
asbasbasbasbasbsS'locals'
p4191
(dp4192
g4
S"r'C:\\Users\\mellinja\\Documents\\SC2Tracker\\SC2Tourne...y\\applications\\welcome\\views\\tournament/show.html'"
p4193
sg6
S'r"response.write(\'<!DOCTYPE html>\\r\\n<!-- pauliris...write(\'\\r\\n</body>\\r\\n</html>\\r\\n\', escape=False)"'
p4194
sssS'traceback'
p4195
S'Traceback (most recent call last):\n  File "C:\\Users\\mellinja\\Documents\\SC2Tracker\\SC2TourneyTracker\\web2py\\gluon\\restricted.py", line 203, in restricted\n    ccode = compile2(code,layer)\n  File "C:\\Users\\mellinja\\Documents\\SC2Tracker\\SC2TourneyTracker\\web2py\\gluon\\restricted.py", line 189, in compile2\n    return compile(code.rstrip().replace(\'\\r\\n\',\'\\n\')+\'\\n\', layer, \'exec\')\n  File "C:\\Users\\mellinja\\Documents\\SC2Tracker\\SC2TourneyTracker\\web2py\\applications\\welcome\\views\\tournament/show.html", line 80\n    if message != ""\n                   ^\nSyntaxError: invalid syntax\n'
p4196
s.