(dp1
S'output'
p2
S"<type 'exceptions.SyntaxError'> invalid syntax (game/index.html, line 79)"
p3
sS'layer'
p4
S'C:\\Users\\mellinja\\Documents\\SC2Tracker\\SC2TourneyTracker\\web2py\\applications\\welcome\\views\\game/index.html'
p5
sS'code'
p6
S'response.write(\'<!DOCTYPE html>\\r\\n<!-- paulirish.com/2008/conditional-stylesheets-vs-css-hacks-answer-neither/ -->\\r\\n<!--[if lt IE 7]><html class="ie ie6 ie-lte9 ie-lte8 ie-lte7 no-js" lang="\', escape=False)\nresponse.write(T.accepted_language or \'en\')\nresponse.write(\'"> <![endif]-->\\r\\n<!--[if IE 7]><html class="ie ie7 ie-lte9 ie-lte8 ie-lte7 no-js" lang="\', escape=False)\nresponse.write(T.accepted_language or \'en\')\nresponse.write(\'"> <![endif]-->\\r\\n<!--[if IE 8]><html class="ie ie8 ie-lte9 ie-lte8 no-js" lang="\', escape=False)\nresponse.write(T.accepted_language or \'en\')\nresponse.write(\'"> <![endif]-->\\r\\n<!--[if IE 9]><html class="ie9 ie-lte9 no-js" lang="\', escape=False)\nresponse.write(T.accepted_language or \'en\')\nresponse.write(\'"> <![endif]-->\\r\\n<!--[if (gt IE 9)|!(IE)]><!--> <html class="no-js" lang="\', escape=False)\nresponse.write(T.accepted_language or \'en\')\nresponse.write(\'"> <!--<![endif]-->\\r\\n<head>\\r\\n  <meta charset="utf-8" />\\r\\n  <!-- www.phpied.com/conditional-comments-block-downloads/ -->\\r\\n  <!-- Always force latest IE rendering engine\\r\\n       (even in intranet) & Chrome Frame\\r\\n       Remove this if you use the .htaccess -->\\r\\n  <!--[if IE]>\\r\\n    <meta http-equiv="X-UA-Compatible" content="IE=edge\', escape=False)\nresponse.write(not request.is_local and \',chrome=1\' or \'\')\nresponse.write(\'">\\r\\n  <![endif]-->\\r\\n  \\r\\n  <title>\', escape=False)\nresponse.write(response.title or request.application)\nresponse.write(\'</title>\\r\\n  \\r\\n  <!-- http://dev.w3.org/html5/markup/meta.name.html -->\\r\\n  <meta name="application-name" content="\', escape=False)\nresponse.write(request.application)\nresponse.write(\'" />\\r\\n  \\r\\n  <!-- Speaking of Google, don\\\'t forget to set your site up:\\r\\n       http://google.com/webmasters -->\\r\\n  <meta name="google-site-verification" content="" />\\r\\n\\r\\n  <!--  Mobile Viewport Fix\\r\\n      j.mp/mobileviewport & davidbcalhoun.com/2010/viewport-metatag\\r\\n      device-width: Occupy full width of the screen in its current orientation\\r\\n      initial-scale = 1.0 retains dimensions instead of zooming out if page height > device height\\r\\n      user-scalable = yes allows the user to zoom in -->\\r\\n  <meta name="viewport" content="width=device-width, initial-scale=1.0, user-scalable=yes">\\r\\n  \\r\\n  <!-- Place favicon.ico and apple-touch-icon.png in the root of your domain and delete these references -->\\r\\n  <link rel="shortcut icon" href="\', escape=False)\nresponse.write(URL(\'static\',\'favicon.ico\'))\nresponse.write(\'" type="image/x-icon">\\r\\n  <link rel="apple-touch-icon" href="\', escape=False)\nresponse.write(URL(\'static\',\'favicon.png\'))\nresponse.write(\'">\\r\\n\\r\\n  <!-- All JavaScript at the bottom, except for Modernizr which enables \\r\\n       HTML5 elements & feature detects -->\\r\\n  <script src="\', escape=False)\nresponse.write(URL(\'static\',\'js/modernizr.custom.js\'))\nresponse.write(\'"></script>  \\r\\n\\r\\n  <!-- include stylesheets -->\\r\\n  \', escape=False)\nresponse.files.append(URL(\'static\',\'css/skeleton.css\'))\nresponse.files.append(URL(\'static\',\'css/web2py.css\'))\nresponse.files.append(URL(\'static\',\'css/superfish.css\'))\nresponse.files.append(URL(\'static\',\'js/superfish.js\'))\nresponse.write(\'\\r\\n\\r\\n  \', escape=False)\nresponse.write(\'<script type="text/javascript"><!--\\r\\n    // These variables are used by the web2py_ajax_init function in web2py_ajax.js (which is loaded below).\\r\\n    var w2p_ajax_confirm_message = "\', escape=False)\nresponse.write(T(\'Are you sure you want to delete this object?\'))\nresponse.write(\'";\\r\\n    var w2p_ajax_date_format = "\', escape=False)\nresponse.write(T(\'%Y-%m-%d\'))\nresponse.write(\'";\\r\\n    var w2p_ajax_datetime_format = "\', escape=False)\nresponse.write(T(\'%Y-%m-%d %H:%M:%S\'))\nresponse.write(\'";\\r\\n    //--></script>\\r\\n\', escape=False)\nresponse.files.insert(0,URL(\'static\',\'js/jquery.js\'))\nresponse.files.insert(1,URL(\'static\',\'css/calendar.css\'))\nresponse.files.insert(2,URL(\'static\',\'js/calendar.js\'))\nresponse.files.insert(3,URL(\'static\',\'js/web2py.js\'))\nresponse.include_meta()\nresponse.include_files()\nresponse.write(\'\\r\\n\', escape=False)\nresponse.write(\'\\r\\n\\r\\n  <script type="text/javascript">\\r\\n    jQuery(function(){ jQuery(\\\'ul.sf-menu\\\').supersubs({minWidth:12,maxWidth:30,extraWidth:3}).superfish(); });\\r\\n  </script>\\r\\n\\r\\n  \', escape=False)\n# using sidebars need to know what sidebar you want to use\nleft_sidebar_enabled = globals().get(\'left_sidebar_enabled\',False)\nright_sidebar_enabled = globals().get(\'right_sidebar_enabled\',False)\nmiddle_columns = {0:\'sixteen\',1:\'twelve\',2:\'eight\'}[\n(left_sidebar_enabled and 1 or 0)+(right_sidebar_enabled and 1 or 0)]\nresponse.write(\'\\r\\n\\r\\n  <!-- uncomment here to load jquery-ui\\r\\n  <link rel="stylesheet" href="http://ajax.googleapis.com/ajax/libs/jqueryui/1.8.16/themes/base/jquery-ui.css" type="text/css" media="all" />\\r\\n  <script src="http://ajax.googleapis.com/ajax/libs/jqueryui/1.8.16/jquery-ui.min.js" type="text/javascript"></script>\\r\\n  uncomment to load jquery-ui //-->\\r\\n</head>\\r\\n<body>\\r\\n  <div class="wrapper"><!-- for sticky footer -->\\r\\n  \\r\\n    <div class="topbar">\\r\\n      <div class="container">    \\r\\n        <div class="sixteen columns">\\r\\n          <div id="navbar">\', escape=False)\nresponse.write(\'auth\' in globals() and auth.navbar(separators=(\' \',\' | \',\'\')))\nresponse.write(\'</div>\\r\\n          \', escape=False)\nis_mobile=request.user_agent().is_mobile\nresponse.write(\'\\r\\n          <div id="menu">\', escape=False)\nresponse.write(MENU(response.menu, _class=\'mobile-menu\' if is_mobile else \'sf-menu\',mobile=is_mobile))\nresponse.write(\'\\r\\n          </div>\\r\\n        </div>\\r\\n      </div>\\r\\n    </div><!-- topbar -->\\r\\n    \\r\\n    <div class="flash">\', escape=False)\nresponse.write(response.flash or \'\')\nresponse.write(\'</div>\\r\\n    \\r\\n    <div class="header">\\r\\n      <div class="container">         \\r\\n        <div class="sixteen columns">\\r\\n          <h1 class="remove-bottom" style="margin-top: .5em;">\\r\\n          \', escape=False)\nresponse.write(response.title or request.application)\nresponse.write(\'\\r\\n          </h1>\\r\\n          <h5>\', escape=False)\nresponse.write(response.subtitle or \'\')\nresponse.write(\'</h5>\\r\\n        </div>\\r\\n        <div class="sixteen columns">\\r\\n          <div class="statusbar clearfix">\\r\\n\\t\\t  \\r\\n            \', escape=False)\nresponse.write(\'\\r\\n            <div class="breadcrumbs">\', escape=False)\nresponse.write(request.function.replace(\'_\', \' \').title())\nresponse.write(\'</div>\\r\\n            \', escape=False)\nresponse.write(\'\\r\\n\\t\\t  \\r\\n            <!-- AddToAny BEGIN -->\\r\\n            <!--<div style="float:right; padding-top: .25em;" class="a2a_kit a2a_default_style">\\r\\n            <a class="a2a_dd" href="http://www.addtoany.com/share_save">Share</a></div>\\r\\n            <script type="text/javascript" src="http://static.addtoany.com/menu/page.js"></script>-->\\r\\n            <!-- AddToAny END -->\\r\\n          </div>\\r\\n        </div>\\r\\n      </div>\\r\\n    </div>\\r\\n\\r\\n    <div class="main">\\r\\n      <div class="container">                 \\r\\n        \', escape=False)\nif left_sidebar_enabled:\n    response.write(\'\\r\\n        <div class="four columns left-sidebar">\\r\\n          \', escape=False)\n    response.write(\'\\r\\n          <h3>Left Sidebar</h3>\\r\\n          <p></p>\\r\\n          \', escape=False)\n    response.write(\'\\r\\n        </div>\\r\\n        \', escape=False)\n    pass\nresponse.write(\'\\r\\n        \\r\\n        <div class="\', escape=False)\nresponse.write(middle_columns)\nresponse.write(\' columns center">\\r\\n          \', escape=False)\nresponse.write(\'\\r\\n          \', escape=False)\nresponse.write(\'\\r\\n<h1>These are the games you need to play</h1>\\r\\n<table>\\r\\n\', escape=False)\nfor g in games:\n    response.write(\'<tr><td>\', escape=False)\n    response.write("vs. " + str(db.executesql("SELECT p.InGameName from Player p, Game_to_Players g WHERE g.GID = " + str(g) + "AND g.PID = p.ID AND g.PID = " +pid))\n    response.write(\'</td></tr></li>\', escape=False)\n    pass\nresponse.write(\'\\r\\n</table>\\r\\n\', escape=False)\nresponse.write(\'\\r\\n          \', escape=False)\nresponse.write(\'\\r\\n        </div>\\r\\n        \\r\\n        \', escape=False)\nif right_sidebar_enabled:\n    response.write(\'\\r\\n        <div class="four columns">\\r\\n          \', escape=False)\n    response.write(\'\\r\\n          <h3>Right Sidebar</h3>\\r\\n          <p></p>\\r\\n          \', escape=False)\n    response.write(\'\\r\\n        </div>    \\r\\n        \', escape=False)\n    pass\nresponse.write(\'\\r\\n        \\r\\n      </div><!-- container -->\\r\\n    </div><!-- main -->\\r\\n    \\r\\n    <div class="push"></div>\\r\\n  </div><!-- wrapper -->\\r\\n\\r\\n  <div class="footer">\\r\\n    <div class="container">    \\r\\n      <div class="sixteen columns">\\r\\n        \', escape=False)\nresponse.write(\' <!-- this is default footer -->\\r\\n        <div class="footer-content clearfix">\\r\\n          <div class="copyright">\\r\\n\\t\\t\\t  \', escape=False)\nresponse.write(T(\'Copyright\'))\nresponse.write(\' &#169; 2012 <br />\\r\\n\\t\\t\\t  Kyle Cheung, Simon Liang, Jackson Melling\\r\\n\\t\\t  </div>\\r\\n          <div style="float: right;">\\r\\n            <a href="http://www.web2py.com/">\\r\\n            <img style="padding-bottom: 0;" src="\', escape=False)\nresponse.write(URL(\'static\',\'images/poweredby.png\'))\nresponse.write(\'"/>\\r\\n            </a>\\r\\n          </div>\\r\\n        </div>\\r\\n        \', escape=False)\nresponse.write(\' \\r\\n      </div>\\r\\n    </div><!-- container -->\\r\\n  </div><!-- footer -->\\r\\n  \\r\\n  <!--[if lt IE 7 ]>\\r\\n    <script src="\', escape=False)\nresponse.write(URL(\'static\',\'js/dd_belatedpng.js\'))\nresponse.write(\'"></script>\\r\\n    <script> DD_belatedPNG.fix(\\\'img, .png_bg\\\'); //fix any <img> or .png_bg background-images </script>\\r\\n    <![endif]-->\\r\\n  \', escape=False)\nif response.google_analytics_id:\n    response.write(\'<script type="text/javascript"> var _gaq = _gaq || []; _gaq.push([\\\'_setAccount\\\', \\\'\', escape=False)\n    response.write(response.google_analytics_id)\n    response.write("\']); _gaq.push([\'_trackPageview\']); (function() { var ga = document.createElement(\'script\'); ga.type = \'text/javascript\'; ga.async = true; ga.src = (\'https:\' == document.location.protocol ? \'https://ssl\' : \'http://www\') + \'.google-analytics.com/ga.js\'; var s = document.getElementsByTagName(\'script\')[0]; s.parentNode.insertBefore(ga, s); })(); </script> ", escape=False)\n    pass\nresponse.write(\'\\r\\n</body>\\r\\n</html>\\r\\n\', escape=False)'
p7
sS'snapshot'
p8
(dp9
S'exception'
p10
(dp11
S'__getslice__'
p12
S"<method-wrapper '__getslice__' of exceptions.SyntaxError object>"
p13
sS'text'
p14
S'"    response.write(\'</td></tr></li>\', escape=False)\\n"'
p15
sS'__str__'
p16
S"<method-wrapper '__str__' of exceptions.SyntaxError object>"
p17
sS'__reduce__'
p18
S'<built-in method __reduce__ of exceptions.SyntaxError object>'
p19
sS'__dict__'
p20
S'{}'
p21
sS'__sizeof__'
p22
S'<built-in method __sizeof__ of exceptions.SyntaxError object>'
p23
sS'__init__'
p24
S"<method-wrapper '__init__' of exceptions.SyntaxError object>"
p25
sS'__setattr__'
p26
S"<method-wrapper '__setattr__' of exceptions.SyntaxError object>"
p27
sS'__reduce_ex__'
p28
S'<built-in method __reduce_ex__ of exceptions.SyntaxError object>'
p29
sS'__new__'
p30
S'<built-in method __new__ of type object>'
p31
sS'__format__'
p32
S'<built-in method __format__ of exceptions.SyntaxError object>'
p33
sS'__class__'
p34
S"<type 'exceptions.SyntaxError'>"
p35
sS'filename'
p36
S"r'C:\\Users\\mellinja\\Documents\\SC2Tracker\\SC2Tourne...web2py\\applications\\welcome\\views\\game/index.html'"
p37
sS'lineno'
p38
S'79'
p39
sS'msg'
p40
S"'invalid syntax'"
p41
sS'__doc__'
p42
S"'Invalid syntax.'"
p43
sS'__getitem__'
p44
S"<method-wrapper '__getitem__' of exceptions.SyntaxError object>"
p45
sS'__setstate__'
p46
S'<built-in method __setstate__ of exceptions.SyntaxError object>'
p47
sS'__getattribute__'
p48
S"<method-wrapper '__getattribute__' of exceptions.SyntaxError object>"
p49
sS'print_file_and_line'
p50
S'None'
p51
sS'args'
p52
S'(\'invalid syntax\', (r\'C:\\Users\\mellinja\\Documents\\SC2Tracker\\SC2Tourne...web2py\\applications\\welcome\\views\\game/index.html\', 79, 12, "    response.write(\'</td></tr></li>\', escape=False)\\n"))'
p53
sS'__subclasshook__'
p54
S'<built-in method __subclasshook__ of type object>'
p55
sS'offset'
p56
S'12'
p57
sS'__unicode__'
p58
S'<built-in method __unicode__ of exceptions.SyntaxError object>'
p59
sS'__delattr__'
p60
S"<method-wrapper '__delattr__' of exceptions.SyntaxError object>"
p61
sS'__repr__'
p62
S"<method-wrapper '__repr__' of exceptions.SyntaxError object>"
p63
sS'__hash__'
p64
S"<method-wrapper '__hash__' of exceptions.SyntaxError object>"
p65
ssS'evalue'
p66
S'invalid syntax (game/index.html, line 79)'
p67
sS'request'
p68
ccopy_reg
_reconstructor
p69
(cgluon.html
BEAUTIFY
p70
c__builtin__
object
p71
NtRp72
(dp73
S'attributes'
p74
(dp75
sS'components'
p76
(lp77
g69
(cgluon.html
TABLE
p78
g71
NtRp79
(dp80
g74
(dp81
S'level'
p82
I5
ssS'parent'
p83
Nsg76
(lp84
g69
(cgluon.html
TR
p85
g71
NtRp86
(dp87
g74
(dp88
sg83
g79
sg76
(lp89
g69
(cgluon.html
TD
p90
g71
NtRp91
(dp92
g74
(dp93
S'_style'
p94
S'font-weight:bold;vertical-align:top'
p95
ssg83
g86
sg76
(lp96
S'ajax'
p97
asbag69
(g90
g71
NtRp98
(dp99
g74
(dp100
S'_valign'
p101
S'top'
p102
ssg83
g86
sg76
(lp103
S':'
asbag69
(g90
g71
NtRp104
(dp105
g74
(dp106
sg83
g86
sg76
(lp107
g69
(g70
g71
NtRp108
(dp109
g74
(dp110
g82
I5
ssg83
g104
sg76
(lp111
S'False'
p112
asbasbasbag69
(g85
g71
NtRp113
(dp114
g74
(dp115
sg83
g79
sg76
(lp116
g69
(g90
g71
NtRp117
(dp118
g74
(dp119
g94
g95
ssg83
g113
sg76
(lp120
S'application'
p121
asbag69
(g90
g71
NtRp122
(dp123
g74
(dp124
g101
g102
ssg83
g113
sg76
(lp125
S':'
asbag69
(g90
g71
NtRp126
(dp127
g74
(dp128
sg83
g113
sg76
(lp129
g69
(g70
g71
NtRp130
(dp131
g74
(dp132
g82
I5
ssg83
g126
sg76
(lp133
S'welcome'
p134
asbasbasbag69
(g85
g71
NtRp135
(dp136
g74
(dp137
sg83
g79
sg76
(lp138
g69
(g90
g71
NtRp139
(dp140
g74
(dp141
g94
g95
ssg83
g135
sg76
(lp142
g52
asbag69
(g90
g71
NtRp143
(dp144
g74
(dp145
g101
g102
ssg83
g135
sg76
(lp146
S':'
asbag69
(g90
g71
NtRp147
(dp148
g74
(dp149
sg83
g135
sg76
(lp150
g69
(g70
g71
NtRp151
(dp152
g74
(dp153
g82
I5
ssg83
g147
sg76
(lp154
g69
(g78
g71
NtRp155
(dp156
g74
(dp157
g82
I4
ssg83
Nsg76
(lp158
sbasbasbasbag69
(g85
g71
NtRp159
(dp160
g74
(dp161
sg83
g79
sg76
(lp162
g69
(g90
g71
NtRp163
(dp164
g74
(dp165
g94
g95
ssg83
g159
sg76
(lp166
S'body'
p167
asbag69
(g90
g71
NtRp168
(dp169
g74
(dp170
g101
g102
ssg83
g159
sg76
(lp171
S':'
asbag69
(g90
g71
NtRp172
(dp173
g74
(dp174
sg83
g159
sg76
(lp175
g69
(g70
g71
NtRp176
(dp177
g74
(dp178
g82
I5
ssg83
g172
sg76
(lp179
S'<cStringIO.StringO object at 0x00000000073B95A8>'
p180
asbasbasbag69
(g85
g71
NtRp181
(dp182
g74
(dp183
sg83
g79
sg76
(lp184
g69
(g90
g71
NtRp185
(dp186
g74
(dp187
g94
g95
ssg83
g181
sg76
(lp188
S'client'
p189
asbag69
(g90
g71
NtRp190
(dp191
g74
(dp192
g101
g102
ssg83
g181
sg76
(lp193
S':'
asbag69
(g90
g71
NtRp194
(dp195
g74
(dp196
sg83
g181
sg76
(lp197
g69
(g70
g71
NtRp198
(dp199
g74
(dp200
g82
I5
ssg83
g194
sg76
(lp201
S'127.0.0.1'
p202
asbasbasbag69
(g85
g71
NtRp203
(dp204
g74
(dp205
sg83
g79
sg76
(lp206
g69
(g90
g71
NtRp207
(dp208
g74
(dp209
g94
g95
ssg83
g203
sg76
(lp210
S'controller'
p211
asbag69
(g90
g71
NtRp212
(dp213
g74
(dp214
g101
g102
ssg83
g203
sg76
(lp215
S':'
asbag69
(g90
g71
NtRp216
(dp217
g74
(dp218
sg83
g203
sg76
(lp219
g69
(g70
g71
NtRp220
(dp221
g74
(dp222
g82
I5
ssg83
g216
sg76
(lp223
S'game'
p224
asbasbasbag69
(g85
g71
NtRp225
(dp226
g74
(dp227
sg83
g79
sg76
(lp228
g69
(g90
g71
NtRp229
(dp230
g74
(dp231
g94
g95
ssg83
g225
sg76
(lp232
S'cookies'
p233
asbag69
(g90
g71
NtRp234
(dp235
g74
(dp236
g101
g102
ssg83
g225
sg76
(lp237
S':'
asbag69
(g90
g71
NtRp238
(dp239
g74
(dp240
sg83
g225
sg76
(lp241
g69
(g70
g71
NtRp242
(dp243
g74
(dp244
g82
I5
ssg83
g238
sg76
(lp245
g69
(g78
g71
NtRp246
(dp247
g74
(dp248
g82
I4
ssg83
Nsg76
(lp249
g69
(g85
g71
NtRp250
(dp251
g74
(dp252
sg83
g246
sg76
(lp253
g69
(g90
g71
NtRp254
(dp255
g74
(dp256
g94
g95
ssg83
g250
sg76
(lp257
S'session_id_admin'
p258
asbag69
(g90
g71
NtRp259
(dp260
g74
(dp261
g101
g102
ssg83
g250
sg76
(lp262
S':'
asbag69
(g90
g71
NtRp263
(dp264
g74
(dp265
sg83
g250
sg76
(lp266
g69
(g70
g71
NtRp267
(dp268
g74
(dp269
g82
I4
ssg83
g263
sg76
(lp270
g69
(g78
g71
NtRp271
(dp272
g74
(dp273
g82
I3
ssg83
Nsg76
(lp274
g69
(g85
g71
NtRp275
(dp276
g74
(dp277
sg83
g271
sg76
(lp278
g69
(g90
g71
NtRp279
(dp280
g74
(dp281
g94
g95
ssg83
g275
sg76
(lp282
S'comment'
p283
asbag69
(g90
g71
NtRp284
(dp285
g74
(dp286
g101
g102
ssg83
g275
sg76
(lp287
S':'
asbag69
(g90
g71
NtRp288
(dp289
g74
(dp290
sg83
g275
sg76
(lp291
g69
(g70
g71
NtRp292
(dp293
g74
(dp294
g82
I3
ssg83
g288
sg76
(lp295
S''
asbasbasbag69
(g85
g71
NtRp296
(dp297
g74
(dp298
sg83
g271
sg76
(lp299
g69
(g90
g71
NtRp300
(dp301
g74
(dp302
g94
g95
ssg83
g296
sg76
(lp303
S'domain'
p304
asbag69
(g90
g71
NtRp305
(dp306
g74
(dp307
g101
g102
ssg83
g296
sg76
(lp308
S':'
asbag69
(g90
g71
NtRp309
(dp310
g74
(dp311
sg83
g296
sg76
(lp312
g69
(g70
g71
NtRp313
(dp314
g74
(dp315
g82
I3
ssg83
g309
sg76
(lp316
S''
asbasbasbag69
(g85
g71
NtRp317
(dp318
g74
(dp319
sg83
g271
sg76
(lp320
g69
(g90
g71
NtRp321
(dp322
g74
(dp323
g94
g95
ssg83
g317
sg76
(lp324
S'expires'
p325
asbag69
(g90
g71
NtRp326
(dp327
g74
(dp328
g101
g102
ssg83
g317
sg76
(lp329
S':'
asbag69
(g90
g71
NtRp330
(dp331
g74
(dp332
sg83
g317
sg76
(lp333
g69
(g70
g71
NtRp334
(dp335
g74
(dp336
g82
I3
ssg83
g330
sg76
(lp337
S''
asbasbasbag69
(g85
g71
NtRp338
(dp339
g74
(dp340
sg83
g271
sg76
(lp341
g69
(g90
g71
NtRp342
(dp343
g74
(dp344
g94
g95
ssg83
g338
sg76
(lp345
S'httponly'
p346
asbag69
(g90
g71
NtRp347
(dp348
g74
(dp349
g101
g102
ssg83
g338
sg76
(lp350
S':'
asbag69
(g90
g71
NtRp351
(dp352
g74
(dp353
sg83
g338
sg76
(lp354
g69
(g70
g71
NtRp355
(dp356
g74
(dp357
g82
I3
ssg83
g351
sg76
(lp358
S''
asbasbasbag69
(g85
g71
NtRp359
(dp360
g74
(dp361
sg83
g271
sg76
(lp362
g69
(g90
g71
NtRp363
(dp364
g74
(dp365
g94
g95
ssg83
g359
sg76
(lp366
S'max-age'
p367
asbag69
(g90
g71
NtRp368
(dp369
g74
(dp370
g101
g102
ssg83
g359
sg76
(lp371
S':'
asbag69
(g90
g71
NtRp372
(dp373
g74
(dp374
sg83
g359
sg76
(lp375
g69
(g70
g71
NtRp376
(dp377
g74
(dp378
g82
I3
ssg83
g372
sg76
(lp379
S''
asbasbasbag69
(g85
g71
NtRp380
(dp381
g74
(dp382
sg83
g271
sg76
(lp383
g69
(g90
g71
NtRp384
(dp385
g74
(dp386
g94
g95
ssg83
g380
sg76
(lp387
S'path'
p388
asbag69
(g90
g71
NtRp389
(dp390
g74
(dp391
g101
g102
ssg83
g380
sg76
(lp392
S':'
asbag69
(g90
g71
NtRp393
(dp394
g74
(dp395
sg83
g380
sg76
(lp396
g69
(g70
g71
NtRp397
(dp398
g74
(dp399
g82
I3
ssg83
g393
sg76
(lp400
S''
asbasbasbag69
(g85
g71
NtRp401
(dp402
g74
(dp403
sg83
g271
sg76
(lp404
g69
(g90
g71
NtRp405
(dp406
g74
(dp407
g94
g95
ssg83
g401
sg76
(lp408
S'secure'
p409
asbag69
(g90
g71
NtRp410
(dp411
g74
(dp412
g101
g102
ssg83
g401
sg76
(lp413
S':'
asbag69
(g90
g71
NtRp414
(dp415
g74
(dp416
sg83
g401
sg76
(lp417
g69
(g70
g71
NtRp418
(dp419
g74
(dp420
g82
I3
ssg83
g414
sg76
(lp421
S''
asbasbasbag69
(g85
g71
NtRp422
(dp423
g74
(dp424
sg83
g271
sg76
(lp425
g69
(g90
g71
NtRp426
(dp427
g74
(dp428
g94
g95
ssg83
g422
sg76
(lp429
S'version'
p430
asbag69
(g90
g71
NtRp431
(dp432
g74
(dp433
g101
g102
ssg83
g422
sg76
(lp434
S':'
asbag69
(g90
g71
NtRp435
(dp436
g74
(dp437
sg83
g422
sg76
(lp438
g69
(g70
g71
NtRp439
(dp440
g74
(dp441
g82
I3
ssg83
g435
sg76
(lp442
S''
asbasbasbasbasbasbasbag69
(g85
g71
NtRp443
(dp444
g74
(dp445
sg83
g246
sg76
(lp446
g69
(g90
g71
NtRp447
(dp448
g74
(dp449
g94
g95
ssg83
g443
sg76
(lp450
S'session_id_welcome'
p451
asbag69
(g90
g71
NtRp452
(dp453
g74
(dp454
g101
g102
ssg83
g443
sg76
(lp455
S':'
asbag69
(g90
g71
NtRp456
(dp457
g74
(dp458
sg83
g443
sg76
(lp459
g69
(g70
g71
NtRp460
(dp461
g74
(dp462
g82
I4
ssg83
g456
sg76
(lp463
g69
(g78
g71
NtRp464
(dp465
g74
(dp466
g82
I3
ssg83
Nsg76
(lp467
g69
(g85
g71
NtRp468
(dp469
g74
(dp470
sg83
g464
sg76
(lp471
g69
(g90
g71
NtRp472
(dp473
g74
(dp474
g94
g95
ssg83
g468
sg76
(lp475
g283
asbag69
(g90
g71
NtRp476
(dp477
g74
(dp478
g101
g102
ssg83
g468
sg76
(lp479
S':'
asbag69
(g90
g71
NtRp480
(dp481
g74
(dp482
sg83
g468
sg76
(lp483
g69
(g70
g71
NtRp484
(dp485
g74
(dp486
g82
I3
ssg83
g480
sg76
(lp487
S''
asbasbasbag69
(g85
g71
NtRp488
(dp489
g74
(dp490
sg83
g464
sg76
(lp491
g69
(g90
g71
NtRp492
(dp493
g74
(dp494
g94
g95
ssg83
g488
sg76
(lp495
g304
asbag69
(g90
g71
NtRp496
(dp497
g74
(dp498
g101
g102
ssg83
g488
sg76
(lp499
S':'
asbag69
(g90
g71
NtRp500
(dp501
g74
(dp502
sg83
g488
sg76
(lp503
g69
(g70
g71
NtRp504
(dp505
g74
(dp506
g82
I3
ssg83
g500
sg76
(lp507
S''
asbasbasbag69
(g85
g71
NtRp508
(dp509
g74
(dp510
sg83
g464
sg76
(lp511
g69
(g90
g71
NtRp512
(dp513
g74
(dp514
g94
g95
ssg83
g508
sg76
(lp515
g325
asbag69
(g90
g71
NtRp516
(dp517
g74
(dp518
g101
g102
ssg83
g508
sg76
(lp519
S':'
asbag69
(g90
g71
NtRp520
(dp521
g74
(dp522
sg83
g508
sg76
(lp523
g69
(g70
g71
NtRp524
(dp525
g74
(dp526
g82
I3
ssg83
g520
sg76
(lp527
S''
asbasbasbag69
(g85
g71
NtRp528
(dp529
g74
(dp530
sg83
g464
sg76
(lp531
g69
(g90
g71
NtRp532
(dp533
g74
(dp534
g94
g95
ssg83
g528
sg76
(lp535
g346
asbag69
(g90
g71
NtRp536
(dp537
g74
(dp538
g101
g102
ssg83
g528
sg76
(lp539
S':'
asbag69
(g90
g71
NtRp540
(dp541
g74
(dp542
sg83
g528
sg76
(lp543
g69
(g70
g71
NtRp544
(dp545
g74
(dp546
g82
I3
ssg83
g540
sg76
(lp547
S''
asbasbasbag69
(g85
g71
NtRp548
(dp549
g74
(dp550
sg83
g464
sg76
(lp551
g69
(g90
g71
NtRp552
(dp553
g74
(dp554
g94
g95
ssg83
g548
sg76
(lp555
g367
asbag69
(g90
g71
NtRp556
(dp557
g74
(dp558
g101
g102
ssg83
g548
sg76
(lp559
S':'
asbag69
(g90
g71
NtRp560
(dp561
g74
(dp562
sg83
g548
sg76
(lp563
g69
(g70
g71
NtRp564
(dp565
g74
(dp566
g82
I3
ssg83
g560
sg76
(lp567
S''
asbasbasbag69
(g85
g71
NtRp568
(dp569
g74
(dp570
sg83
g464
sg76
(lp571
g69
(g90
g71
NtRp572
(dp573
g74
(dp574
g94
g95
ssg83
g568
sg76
(lp575
g388
asbag69
(g90
g71
NtRp576
(dp577
g74
(dp578
g101
g102
ssg83
g568
sg76
(lp579
S':'
asbag69
(g90
g71
NtRp580
(dp581
g74
(dp582
sg83
g568
sg76
(lp583
g69
(g70
g71
NtRp584
(dp585
g74
(dp586
g82
I3
ssg83
g580
sg76
(lp587
S''
asbasbasbag69
(g85
g71
NtRp588
(dp589
g74
(dp590
sg83
g464
sg76
(lp591
g69
(g90
g71
NtRp592
(dp593
g74
(dp594
g94
g95
ssg83
g588
sg76
(lp595
g409
asbag69
(g90
g71
NtRp596
(dp597
g74
(dp598
g101
g102
ssg83
g588
sg76
(lp599
S':'
asbag69
(g90
g71
NtRp600
(dp601
g74
(dp602
sg83
g588
sg76
(lp603
g69
(g70
g71
NtRp604
(dp605
g74
(dp606
g82
I3
ssg83
g600
sg76
(lp607
S''
asbasbasbag69
(g85
g71
NtRp608
(dp609
g74
(dp610
sg83
g464
sg76
(lp611
g69
(g90
g71
NtRp612
(dp613
g74
(dp614
g94
g95
ssg83
g608
sg76
(lp615
g430
asbag69
(g90
g71
NtRp616
(dp617
g74
(dp618
g101
g102
ssg83
g608
sg76
(lp619
S':'
asbag69
(g90
g71
NtRp620
(dp621
g74
(dp622
sg83
g608
sg76
(lp623
g69
(g70
g71
NtRp624
(dp625
g74
(dp626
g82
I3
ssg83
g620
sg76
(lp627
S''
asbasbasbasbasbasbasbasbasbasbasbag69
(g85
g71
NtRp628
(dp629
g74
(dp630
sg83
g79
sg76
(lp631
g69
(g90
g71
NtRp632
(dp633
g74
(dp634
g94
g95
ssg83
g628
sg76
(lp635
S'env'
p636
asbag69
(g90
g71
NtRp637
(dp638
g74
(dp639
g101
g102
ssg83
g628
sg76
(lp640
S':'
asbag69
(g90
g71
NtRp641
(dp642
g74
(dp643
sg83
g628
sg76
(lp644
g69
(g70
g71
NtRp645
(dp646
g74
(dp647
g82
I5
ssg83
g641
sg76
(lp648
g69
(g78
g71
NtRp649
(dp650
g74
(dp651
g82
I4
ssg83
Nsg76
(lp652
g69
(g85
g71
NtRp653
(dp654
g74
(dp655
sg83
g649
sg76
(lp656
g69
(g90
g71
NtRp657
(dp658
g74
(dp659
g94
g95
ssg83
g653
sg76
(lp660
S'app_folders'
p661
asbag69
(g90
g71
NtRp662
(dp663
g74
(dp664
g101
g102
ssg83
g653
sg76
(lp665
S':'
asbag69
(g90
g71
NtRp666
(dp667
g74
(dp668
sg83
g653
sg76
(lp669
g69
(g70
g71
NtRp670
(dp671
g74
(dp672
g82
I4
ssg83
g666
sg76
(lp673
S"set(['C:\\\\Users\\\\mellinja\\\\Documents\\\\SC2Tracker\\\\SC2TourneyTracker\\\\web2py\\\\applications\\\\welcome\\\\', 'C:\\\\Users\\\\mellinja\\\\Documents\\\\SC2Tracker\\\\SC2TourneyTracker\\\\web2py\\\\applications\\\\admin\\\\'])"
p674
asbasbasbag69
(g85
g71
NtRp675
(dp676
g74
(dp677
sg83
g649
sg76
(lp678
g69
(g90
g71
NtRp679
(dp680
g74
(dp681
g94
g95
ssg83
g675
sg76
(lp682
S'applications_parent'
p683
asbag69
(g90
g71
NtRp684
(dp685
g74
(dp686
g101
g102
ssg83
g675
sg76
(lp687
S':'
asbag69
(g90
g71
NtRp688
(dp689
g74
(dp690
sg83
g675
sg76
(lp691
g69
(g70
g71
NtRp692
(dp693
g74
(dp694
g82
I4
ssg83
g688
sg76
(lp695
S'C:\\Users\\mellinja\\Documents\\SC2Tracker\\SC2TourneyTracker\\web2py'
p696
asbasbasbag69
(g85
g71
NtRp697
(dp698
g74
(dp699
sg83
g649
sg76
(lp700
g69
(g90
g71
NtRp701
(dp702
g74
(dp703
g94
g95
ssg83
g697
sg76
(lp704
S'cmd_args'
p705
asbag69
(g90
g71
NtRp706
(dp707
g74
(dp708
g101
g102
ssg83
g697
sg76
(lp709
S':'
asbag69
(g90
g71
NtRp710
(dp711
g74
(dp712
sg83
g697
sg76
(lp713
g69
(g70
g71
NtRp714
(dp715
g74
(dp716
g82
I4
ssg83
g710
sg76
(lp717
g69
(g78
g71
NtRp718
(dp719
g74
(dp720
g82
I3
ssg83
Nsg76
(lp721
sbasbasbasbag69
(g85
g71
NtRp722
(dp723
g74
(dp724
sg83
g649
sg76
(lp725
g69
(g90
g71
NtRp726
(dp727
g74
(dp728
g94
g95
ssg83
g722
sg76
(lp729
S'cmd_options'
p730
asbag69
(g90
g71
NtRp731
(dp732
g74
(dp733
g101
g102
ssg83
g722
sg76
(lp734
S':'
asbag69
(g90
g71
NtRp735
(dp736
g74
(dp737
sg83
g722
sg76
(lp738
g69
(g70
g71
NtRp739
(dp740
g74
(dp741
g82
I4
ssg83
g735
sg76
(lp742
S"<Values at 0x39ed5c8: {'verbose': False, 'ip': '127.0.0.1', 'shutdown_timeout': 5, 'taskbar': False, 'nocron': False, 'pid_filename': 'httpserver.pid', 'maxthreads': None, 'softcron': False, 'server_name': 'mellinja-PC', 'bpython': False, 'nogui': False, 'port': 8000, 'extcron': False, 'debuglevel': 30, 'test': None, 'folder': 'C:\\\\Users\\\\mellinja\\\\Documents\\\\SC2Tracker\\\\SC2TourneyTracker\\\\web2py', 'config': '', 'import_models': False, 'winservice': '', 'shell': None, 'run': '', 'log_filename': 'httpserver.log', 'args': [''], 'socket_timeout': 1, 'ssl_ca_certificate': None, 'scheduler': None, 'profiler_filename': None, 'ssl_private_key': '', 'password': '<ask>', 'request_queue_size': 5, 'ssl_certificate': '', 'cronjob': False, 'numthreads': None, 'quiet': False, 'interfaces': None, 'minthreads': None, 'timeout': 10, 'plain': False, 'nobanner': False}>"
p743
asbasbasbag69
(g85
g71
NtRp744
(dp745
g74
(dp746
sg83
g649
sg76
(lp747
g69
(g90
g71
NtRp748
(dp749
g74
(dp750
g94
g95
ssg83
g744
sg76
(lp751
S'db_sessions'
p752
asbag69
(g90
g71
NtRp753
(dp754
g74
(dp755
g101
g102
ssg83
g744
sg76
(lp756
S':'
asbag69
(g90
g71
NtRp757
(dp758
g74
(dp759
sg83
g744
sg76
(lp760
g69
(g70
g71
NtRp761
(dp762
g74
(dp763
g82
I4
ssg83
g757
sg76
(lp764
S'set([])'
p765
asbasbasbag69
(g85
g71
NtRp766
(dp767
g74
(dp768
sg83
g649
sg76
(lp769
g69
(g90
g71
NtRp770
(dp771
g74
(dp772
g94
g95
ssg83
g766
sg76
(lp773
S'debugging'
p774
asbag69
(g90
g71
NtRp775
(dp776
g74
(dp777
g101
g102
ssg83
g766
sg76
(lp778
S':'
asbag69
(g90
g71
NtRp779
(dp780
g74
(dp781
sg83
g766
sg76
(lp782
g69
(g70
g71
NtRp783
(dp784
g74
(dp785
g82
I4
ssg83
g779
sg76
(lp786
g112
asbasbasbag69
(g85
g71
NtRp787
(dp788
g74
(dp789
sg83
g649
sg76
(lp790
g69
(g90
g71
NtRp791
(dp792
g74
(dp793
g94
g95
ssg83
g787
sg76
(lp794
S'gluon_parent'
p795
asbag69
(g90
g71
NtRp796
(dp797
g74
(dp798
g101
g102
ssg83
g787
sg76
(lp799
S':'
asbag69
(g90
g71
NtRp800
(dp801
g74
(dp802
sg83
g787
sg76
(lp803
g69
(g70
g71
NtRp804
(dp805
g74
(dp806
g82
I4
ssg83
g800
sg76
(lp807
S'C:\\Users\\mellinja\\Documents\\SC2Tracker\\SC2TourneyTracker\\web2py'
p808
asbasbasbag69
(g85
g71
NtRp809
(dp810
g74
(dp811
sg83
g649
sg76
(lp812
g69
(g90
g71
NtRp813
(dp814
g74
(dp815
g94
g95
ssg83
g809
sg76
(lp816
S'http_accept'
p817
asbag69
(g90
g71
NtRp818
(dp819
g74
(dp820
g101
g102
ssg83
g809
sg76
(lp821
S':'
asbag69
(g90
g71
NtRp822
(dp823
g74
(dp824
sg83
g809
sg76
(lp825
g69
(g70
g71
NtRp826
(dp827
g74
(dp828
g82
I4
ssg83
g822
sg76
(lp829
S'text/html,application/xhtml+xml,application/xml;q=0.9,*/*;q=0.8'
p830
asbasbasbag69
(g85
g71
NtRp831
(dp832
g74
(dp833
sg83
g649
sg76
(lp834
g69
(g90
g71
NtRp835
(dp836
g74
(dp837
g94
g95
ssg83
g831
sg76
(lp838
S'http_accept_charset'
p839
asbag69
(g90
g71
NtRp840
(dp841
g74
(dp842
g101
g102
ssg83
g831
sg76
(lp843
S':'
asbag69
(g90
g71
NtRp844
(dp845
g74
(dp846
sg83
g831
sg76
(lp847
g69
(g70
g71
NtRp848
(dp849
g74
(dp850
g82
I4
ssg83
g844
sg76
(lp851
S'ISO-8859-1,utf-8;q=0.7,*;q=0.3'
p852
asbasbasbag69
(g85
g71
NtRp853
(dp854
g74
(dp855
sg83
g649
sg76
(lp856
g69
(g90
g71
NtRp857
(dp858
g74
(dp859
g94
g95
ssg83
g853
sg76
(lp860
S'http_accept_encoding'
p861
asbag69
(g90
g71
NtRp862
(dp863
g74
(dp864
g101
g102
ssg83
g853
sg76
(lp865
S':'
asbag69
(g90
g71
NtRp866
(dp867
g74
(dp868
sg83
g853
sg76
(lp869
g69
(g70
g71
NtRp870
(dp871
g74
(dp872
g82
I4
ssg83
g866
sg76
(lp873
S'gzip,deflate,sdch'
p874
asbasbasbag69
(g85
g71
NtRp875
(dp876
g74
(dp877
sg83
g649
sg76
(lp878
g69
(g90
g71
NtRp879
(dp880
g74
(dp881
g94
g95
ssg83
g875
sg76
(lp882
S'http_accept_language'
p883
asbag69
(g90
g71
NtRp884
(dp885
g74
(dp886
g101
g102
ssg83
g875
sg76
(lp887
S':'
asbag69
(g90
g71
NtRp888
(dp889
g74
(dp890
sg83
g875
sg76
(lp891
g69
(g70
g71
NtRp892
(dp893
g74
(dp894
g82
I4
ssg83
g888
sg76
(lp895
S'en-US,en;q=0.8'
p896
asbasbasbag69
(g85
g71
NtRp897
(dp898
g74
(dp899
sg83
g649
sg76
(lp900
g69
(g90
g71
NtRp901
(dp902
g74
(dp903
g94
g95
ssg83
g897
sg76
(lp904
S'http_connection'
p905
asbag69
(g90
g71
NtRp906
(dp907
g74
(dp908
g101
g102
ssg83
g897
sg76
(lp909
S':'
asbag69
(g90
g71
NtRp910
(dp911
g74
(dp912
sg83
g897
sg76
(lp913
g69
(g70
g71
NtRp914
(dp915
g74
(dp916
g82
I4
ssg83
g910
sg76
(lp917
S'keep-alive'
p918
asbasbasbag69
(g85
g71
NtRp919
(dp920
g74
(dp921
sg83
g649
sg76
(lp922
g69
(g90
g71
NtRp923
(dp924
g74
(dp925
g94
g95
ssg83
g919
sg76
(lp926
S'http_cookie'
p927
asbag69
(g90
g71
NtRp928
(dp929
g74
(dp930
g101
g102
ssg83
g919
sg76
(lp931
S':'
asbag69
(g90
g71
NtRp932
(dp933
g74
(dp934
sg83
g919
sg76
(lp935
g69
(g70
g71
NtRp936
(dp937
g74
(dp938
g82
I4
ssg83
g932
sg76
(lp939
S'session_id_admin=127.0.0.1-16380d61-f32c-4784-b95b-ebb38f311746; session_id_welcome=127.0.0.1-96bc28df-1611-4f37-8178-a0bc78308874'
p940
asbasbasbag69
(g85
g71
NtRp941
(dp942
g74
(dp943
sg83
g649
sg76
(lp944
g69
(g90
g71
NtRp945
(dp946
g74
(dp947
g94
g95
ssg83
g941
sg76
(lp948
S'http_host'
p949
asbag69
(g90
g71
NtRp950
(dp951
g74
(dp952
g101
g102
ssg83
g941
sg76
(lp953
S':'
asbag69
(g90
g71
NtRp954
(dp955
g74
(dp956
sg83
g941
sg76
(lp957
g69
(g70
g71
NtRp958
(dp959
g74
(dp960
g82
I4
ssg83
g954
sg76
(lp961
S'127.0.0.1:8000'
p962
asbasbasbag69
(g85
g71
NtRp963
(dp964
g74
(dp965
sg83
g649
sg76
(lp966
g69
(g90
g71
NtRp967
(dp968
g74
(dp969
g94
g95
ssg83
g963
sg76
(lp970
S'http_referer'
p971
asbag69
(g90
g71
NtRp972
(dp973
g74
(dp974
g101
g102
ssg83
g963
sg76
(lp975
S':'
asbag69
(g90
g71
NtRp976
(dp977
g74
(dp978
sg83
g963
sg76
(lp979
g69
(g70
g71
NtRp980
(dp981
g74
(dp982
g82
I4
ssg83
g976
sg76
(lp983
S'http://127.0.0.1:8000/welcome/default/index'
p984
asbasbasbag69
(g85
g71
NtRp985
(dp986
g74
(dp987
sg83
g649
sg76
(lp988
g69
(g90
g71
NtRp989
(dp990
g74
(dp991
g94
g95
ssg83
g985
sg76
(lp992
S'http_user_agent'
p993
asbag69
(g90
g71
NtRp994
(dp995
g74
(dp996
g101
g102
ssg83
g985
sg76
(lp997
S':'
asbag69
(g90
g71
NtRp998
(dp999
g74
(dp1000
sg83
g985
sg76
(lp1001
g69
(g70
g71
NtRp1002
(dp1003
g74
(dp1004
g82
I4
ssg83
g998
sg76
(lp1005
S'Mozilla/5.0 (Windows NT 6.1; WOW64) AppleWebKit/535.7 (KHTML, like Gecko) Chrome/16.0.912.77 Safari/535.7'
p1006
asbasbasbag69
(g85
g71
NtRp1007
(dp1008
g74
(dp1009
sg83
g649
sg76
(lp1010
g69
(g90
g71
NtRp1011
(dp1012
g74
(dp1013
g94
g95
ssg83
g1007
sg76
(lp1014
S'is_jython'
p1015
asbag69
(g90
g71
NtRp1016
(dp1017
g74
(dp1018
g101
g102
ssg83
g1007
sg76
(lp1019
S':'
asbag69
(g90
g71
NtRp1020
(dp1021
g74
(dp1022
sg83
g1007
sg76
(lp1023
g69
(g70
g71
NtRp1024
(dp1025
g74
(dp1026
g82
I4
ssg83
g1020
sg76
(lp1027
g112
asbasbasbag69
(g85
g71
NtRp1028
(dp1029
g74
(dp1030
sg83
g649
sg76
(lp1031
g69
(g90
g71
NtRp1032
(dp1033
g74
(dp1034
g94
g95
ssg83
g1028
sg76
(lp1035
S'is_pypy'
p1036
asbag69
(g90
g71
NtRp1037
(dp1038
g74
(dp1039
g101
g102
ssg83
g1028
sg76
(lp1040
S':'
asbag69
(g90
g71
NtRp1041
(dp1042
g74
(dp1043
sg83
g1028
sg76
(lp1044
g69
(g70
g71
NtRp1045
(dp1046
g74
(dp1047
g82
I4
ssg83
g1041
sg76
(lp1048
g112
asbasbasbag69
(g85
g71
NtRp1049
(dp1050
g74
(dp1051
sg83
g649
sg76
(lp1052
g69
(g90
g71
NtRp1053
(dp1054
g74
(dp1055
g94
g95
ssg83
g1049
sg76
(lp1056
S'path_info'
p1057
asbag69
(g90
g71
NtRp1058
(dp1059
g74
(dp1060
g101
g102
ssg83
g1049
sg76
(lp1061
S':'
asbag69
(g90
g71
NtRp1062
(dp1063
g74
(dp1064
sg83
g1049
sg76
(lp1065
g69
(g70
g71
NtRp1066
(dp1067
g74
(dp1068
g82
I4
ssg83
g1062
sg76
(lp1069
S'/welcome/game/index'
p1070
asbasbasbag69
(g85
g71
NtRp1071
(dp1072
g74
(dp1073
sg83
g649
sg76
(lp1074
g69
(g90
g71
NtRp1075
(dp1076
g74
(dp1077
g94
g95
ssg83
g1071
sg76
(lp1078
S'query_string'
p1079
asbag69
(g90
g71
NtRp1080
(dp1081
g74
(dp1082
g101
g102
ssg83
g1071
sg76
(lp1083
S':'
asbag69
(g90
g71
NtRp1084
(dp1085
g74
(dp1086
sg83
g1071
sg76
(lp1087
g69
(g70
g71
NtRp1088
(dp1089
g74
(dp1090
g82
I4
ssg83
g1084
sg76
(lp1091
S''
asbasbasbag69
(g85
g71
NtRp1092
(dp1093
g74
(dp1094
sg83
g649
sg76
(lp1095
g69
(g90
g71
NtRp1096
(dp1097
g74
(dp1098
g94
g95
ssg83
g1092
sg76
(lp1099
S'remote_addr'
p1100
asbag69
(g90
g71
NtRp1101
(dp1102
g74
(dp1103
g101
g102
ssg83
g1092
sg76
(lp1104
S':'
asbag69
(g90
g71
NtRp1105
(dp1106
g74
(dp1107
sg83
g1092
sg76
(lp1108
g69
(g70
g71
NtRp1109
(dp1110
g74
(dp1111
g82
I4
ssg83
g1105
sg76
(lp1112
g202
asbasbasbag69
(g85
g71
NtRp1113
(dp1114
g74
(dp1115
sg83
g649
sg76
(lp1116
g69
(g90
g71
NtRp1117
(dp1118
g74
(dp1119
g94
g95
ssg83
g1113
sg76
(lp1120
S'remote_port'
p1121
asbag69
(g90
g71
NtRp1122
(dp1123
g74
(dp1124
g101
g102
ssg83
g1113
sg76
(lp1125
S':'
asbag69
(g90
g71
NtRp1126
(dp1127
g74
(dp1128
sg83
g1113
sg76
(lp1129
g69
(g70
g71
NtRp1130
(dp1131
g74
(dp1132
g82
I4
ssg83
g1126
sg76
(lp1133
S'49795'
p1134
asbasbasbag69
(g85
g71
NtRp1135
(dp1136
g74
(dp1137
sg83
g649
sg76
(lp1138
g69
(g90
g71
NtRp1139
(dp1140
g74
(dp1141
g94
g95
ssg83
g1135
sg76
(lp1142
S'request_method'
p1143
asbag69
(g90
g71
NtRp1144
(dp1145
g74
(dp1146
g101
g102
ssg83
g1135
sg76
(lp1147
S':'
asbag69
(g90
g71
NtRp1148
(dp1149
g74
(dp1150
sg83
g1135
sg76
(lp1151
g69
(g70
g71
NtRp1152
(dp1153
g74
(dp1154
g82
I4
ssg83
g1148
sg76
(lp1155
S'GET'
p1156
asbasbasbag69
(g85
g71
NtRp1157
(dp1158
g74
(dp1159
sg83
g649
sg76
(lp1160
g69
(g90
g71
NtRp1161
(dp1162
g74
(dp1163
g94
g95
ssg83
g1157
sg76
(lp1164
S'script_name'
p1165
asbag69
(g90
g71
NtRp1166
(dp1167
g74
(dp1168
g101
g102
ssg83
g1157
sg76
(lp1169
S':'
asbag69
(g90
g71
NtRp1170
(dp1171
g74
(dp1172
sg83
g1157
sg76
(lp1173
g69
(g70
g71
NtRp1174
(dp1175
g74
(dp1176
g82
I4
ssg83
g1170
sg76
(lp1177
S''
asbasbasbag69
(g85
g71
NtRp1178
(dp1179
g74
(dp1180
sg83
g649
sg76
(lp1181
g69
(g90
g71
NtRp1182
(dp1183
g74
(dp1184
g94
g95
ssg83
g1178
sg76
(lp1185
S'server_name'
p1186
asbag69
(g90
g71
NtRp1187
(dp1188
g74
(dp1189
g101
g102
ssg83
g1178
sg76
(lp1190
S':'
asbag69
(g90
g71
NtRp1191
(dp1192
g74
(dp1193
sg83
g1178
sg76
(lp1194
g69
(g70
g71
NtRp1195
(dp1196
g74
(dp1197
g82
I4
ssg83
g1191
sg76
(lp1198
S'mellinja-PC'
p1199
asbasbasbag69
(g85
g71
NtRp1200
(dp1201
g74
(dp1202
sg83
g649
sg76
(lp1203
g69
(g90
g71
NtRp1204
(dp1205
g74
(dp1206
g94
g95
ssg83
g1200
sg76
(lp1207
S'server_port'
p1208
asbag69
(g90
g71
NtRp1209
(dp1210
g74
(dp1211
g101
g102
ssg83
g1200
sg76
(lp1212
S':'
asbag69
(g90
g71
NtRp1213
(dp1214
g74
(dp1215
sg83
g1200
sg76
(lp1216
g69
(g70
g71
NtRp1217
(dp1218
g74
(dp1219
g82
I4
ssg83
g1213
sg76
(lp1220
S'8000'
p1221
asbasbasbag69
(g85
g71
NtRp1222
(dp1223
g74
(dp1224
sg83
g649
sg76
(lp1225
g69
(g90
g71
NtRp1226
(dp1227
g74
(dp1228
g94
g95
ssg83
g1222
sg76
(lp1229
S'server_protocol'
p1230
asbag69
(g90
g71
NtRp1231
(dp1232
g74
(dp1233
g101
g102
ssg83
g1222
sg76
(lp1234
S':'
asbag69
(g90
g71
NtRp1235
(dp1236
g74
(dp1237
sg83
g1222
sg76
(lp1238
g69
(g70
g71
NtRp1239
(dp1240
g74
(dp1241
g82
I4
ssg83
g1235
sg76
(lp1242
S'HTTP/1.1'
p1243
asbasbasbag69
(g85
g71
NtRp1244
(dp1245
g74
(dp1246
sg83
g649
sg76
(lp1247
g69
(g90
g71
NtRp1248
(dp1249
g74
(dp1250
g94
g95
ssg83
g1244
sg76
(lp1251
S'server_software'
p1252
asbag69
(g90
g71
NtRp1253
(dp1254
g74
(dp1255
g101
g102
ssg83
g1244
sg76
(lp1256
S':'
asbag69
(g90
g71
NtRp1257
(dp1258
g74
(dp1259
sg83
g1244
sg76
(lp1260
g69
(g70
g71
NtRp1261
(dp1262
g74
(dp1263
g82
I4
ssg83
g1257
sg76
(lp1264
S'Rocket 1.2.4'
p1265
asbasbasbag69
(g85
g71
NtRp1266
(dp1267
g74
(dp1268
sg83
g649
sg76
(lp1269
g69
(g90
g71
NtRp1270
(dp1271
g74
(dp1272
g94
g95
ssg83
g1266
sg76
(lp1273
S'web2py_crontype'
p1274
asbag69
(g90
g71
NtRp1275
(dp1276
g74
(dp1277
g101
g102
ssg83
g1266
sg76
(lp1278
S':'
asbag69
(g90
g71
NtRp1279
(dp1280
g74
(dp1281
sg83
g1266
sg76
(lp1282
g69
(g70
g71
NtRp1283
(dp1284
g74
(dp1285
g82
I4
ssg83
g1279
sg76
(lp1286
S'hard'
p1287
asbasbasbag69
(g85
g71
NtRp1288
(dp1289
g74
(dp1290
sg83
g649
sg76
(lp1291
g69
(g90
g71
NtRp1292
(dp1293
g74
(dp1294
g94
g95
ssg83
g1288
sg76
(lp1295
S'web2py_path'
p1296
asbag69
(g90
g71
NtRp1297
(dp1298
g74
(dp1299
g101
g102
ssg83
g1288
sg76
(lp1300
S':'
asbag69
(g90
g71
NtRp1301
(dp1302
g74
(dp1303
sg83
g1288
sg76
(lp1304
g69
(g70
g71
NtRp1305
(dp1306
g74
(dp1307
g82
I4
ssg83
g1301
sg76
(lp1308
g696
asbasbasbag69
(g85
g71
NtRp1309
(dp1310
g74
(dp1311
sg83
g649
sg76
(lp1312
g69
(g90
g71
NtRp1313
(dp1314
g74
(dp1315
g94
g95
ssg83
g1309
sg76
(lp1316
S'web2py_version'
p1317
asbag69
(g90
g71
NtRp1318
(dp1319
g74
(dp1320
g101
g102
ssg83
g1309
sg76
(lp1321
S':'
asbag69
(g90
g71
NtRp1322
(dp1323
g74
(dp1324
sg83
g1309
sg76
(lp1325
g69
(g70
g71
NtRp1326
(dp1327
g74
(dp1328
g82
I4
ssg83
g1322
sg76
(lp1329
g69
(g78
g71
NtRp1330
(dp1331
g74
(dp1332
g82
I3
ssg83
Nsg76
(lp1333
g69
(g85
g71
NtRp1334
(dp1335
g74
(dp1336
sg83
g1330
sg76
(lp1337
g69
(g90
g71
NtRp1338
(dp1339
g74
(dp1340
sg83
g1334
sg76
(lp1341
g69
(g70
g71
NtRp1342
(dp1343
g74
(dp1344
g82
I3
ssg83
g1338
sg76
(lp1345
S'1'
asbasbasbag69
(g85
g71
NtRp1346
(dp1347
g74
(dp1348
sg83
g1330
sg76
(lp1349
g69
(g90
g71
NtRp1350
(dp1351
g74
(dp1352
sg83
g1346
sg76
(lp1353
g69
(g70
g71
NtRp1354
(dp1355
g74
(dp1356
g82
I3
ssg83
g1350
sg76
(lp1357
S'99'
p1358
asbasbasbag69
(g85
g71
NtRp1359
(dp1360
g74
(dp1361
sg83
g1330
sg76
(lp1362
g69
(g90
g71
NtRp1363
(dp1364
g74
(dp1365
sg83
g1359
sg76
(lp1366
g69
(g70
g71
NtRp1367
(dp1368
g74
(dp1369
g82
I3
ssg83
g1363
sg76
(lp1370
S'4'
asbasbasbag69
(g85
g71
NtRp1371
(dp1372
g74
(dp1373
sg83
g1330
sg76
(lp1374
g69
(g90
g71
NtRp1375
(dp1376
g74
(dp1377
sg83
g1371
sg76
(lp1378
g69
(g70
g71
NtRp1379
(dp1380
g74
(dp1381
g82
I3
ssg83
g1375
sg76
(lp1382
S'datetime.datetime(2011, 12, 14, 14, 46, 14)'
p1383
asbasbasbag69
(g85
g71
NtRp1384
(dp1385
g74
(dp1386
sg83
g1330
sg76
(lp1387
g69
(g90
g71
NtRp1388
(dp1389
g74
(dp1390
sg83
g1384
sg76
(lp1391
g69
(g70
g71
NtRp1392
(dp1393
g74
(dp1394
g82
I3
ssg83
g1388
sg76
(lp1395
S'stable'
p1396
asbasbasbasbasbasbasbag69
(g85
g71
NtRp1397
(dp1398
g74
(dp1399
sg83
g649
sg76
(lp1400
g69
(g90
g71
NtRp1401
(dp1402
g74
(dp1403
g94
g95
ssg83
g1397
sg76
(lp1404
S'wsgi_errors'
p1405
asbag69
(g90
g71
NtRp1406
(dp1407
g74
(dp1408
g101
g102
ssg83
g1397
sg76
(lp1409
S':'
asbag69
(g90
g71
NtRp1410
(dp1411
g74
(dp1412
sg83
g1397
sg76
(lp1413
g69
(g70
g71
NtRp1414
(dp1415
g74
(dp1416
g82
I4
ssg83
g1410
sg76
(lp1417
S"<open file '<stderr>', mode 'w' at 0x0000000001F661E0>"
p1418
asbasbasbag69
(g85
g71
NtRp1419
(dp1420
g74
(dp1421
sg83
g649
sg76
(lp1422
g69
(g90
g71
NtRp1423
(dp1424
g74
(dp1425
g94
g95
ssg83
g1419
sg76
(lp1426
S'wsgi_file_wrapper'
p1427
asbag69
(g90
g71
NtRp1428
(dp1429
g74
(dp1430
g101
g102
ssg83
g1419
sg76
(lp1431
S':'
asbag69
(g90
g71
NtRp1432
(dp1433
g74
(dp1434
sg83
g1419
sg76
(lp1435
g69
(g70
g71
NtRp1436
(dp1437
g74
(dp1438
g82
I4
ssg83
g1432
sg76
(lp1439
S'<class wsgiref.util.FileWrapper at 0x00000000038DD828>'
p1440
asbasbasbag69
(g85
g71
NtRp1441
(dp1442
g74
(dp1443
sg83
g649
sg76
(lp1444
g69
(g90
g71
NtRp1445
(dp1446
g74
(dp1447
g94
g95
ssg83
g1441
sg76
(lp1448
S'wsgi_input'
p1449
asbag69
(g90
g71
NtRp1450
(dp1451
g74
(dp1452
g101
g102
ssg83
g1441
sg76
(lp1453
S':'
asbag69
(g90
g71
NtRp1454
(dp1455
g74
(dp1456
sg83
g1441
sg76
(lp1457
g69
(g70
g71
NtRp1458
(dp1459
g74
(dp1460
g82
I4
ssg83
g1454
sg76
(lp1461
S'<socket._fileobject object at 0x0000000006F9FB88>'
p1462
asbasbasbag69
(g85
g71
NtRp1463
(dp1464
g74
(dp1465
sg83
g649
sg76
(lp1466
g69
(g90
g71
NtRp1467
(dp1468
g74
(dp1469
g94
g95
ssg83
g1463
sg76
(lp1470
S'wsgi_multiprocess'
p1471
asbag69
(g90
g71
NtRp1472
(dp1473
g74
(dp1474
g101
g102
ssg83
g1463
sg76
(lp1475
S':'
asbag69
(g90
g71
NtRp1476
(dp1477
g74
(dp1478
sg83
g1463
sg76
(lp1479
g69
(g70
g71
NtRp1480
(dp1481
g74
(dp1482
g82
I4
ssg83
g1476
sg76
(lp1483
g112
asbasbasbag69
(g85
g71
NtRp1484
(dp1485
g74
(dp1486
sg83
g649
sg76
(lp1487
g69
(g90
g71
NtRp1488
(dp1489
g74
(dp1490
g94
g95
ssg83
g1484
sg76
(lp1491
S'wsgi_multithread'
p1492
asbag69
(g90
g71
NtRp1493
(dp1494
g74
(dp1495
g101
g102
ssg83
g1484
sg76
(lp1496
S':'
asbag69
(g90
g71
NtRp1497
(dp1498
g74
(dp1499
sg83
g1484
sg76
(lp1500
g69
(g70
g71
NtRp1501
(dp1502
g74
(dp1503
g82
I4
ssg83
g1497
sg76
(lp1504
S'True'
p1505
asbasbasbag69
(g85
g71
NtRp1506
(dp1507
g74
(dp1508
sg83
g649
sg76
(lp1509
g69
(g90
g71
NtRp1510
(dp1511
g74
(dp1512
g94
g95
ssg83
g1506
sg76
(lp1513
S'wsgi_run_once'
p1514
asbag69
(g90
g71
NtRp1515
(dp1516
g74
(dp1517
g101
g102
ssg83
g1506
sg76
(lp1518
S':'
asbag69
(g90
g71
NtRp1519
(dp1520
g74
(dp1521
sg83
g1506
sg76
(lp1522
g69
(g70
g71
NtRp1523
(dp1524
g74
(dp1525
g82
I4
ssg83
g1519
sg76
(lp1526
g112
asbasbasbag69
(g85
g71
NtRp1527
(dp1528
g74
(dp1529
sg83
g649
sg76
(lp1530
g69
(g90
g71
NtRp1531
(dp1532
g74
(dp1533
g94
g95
ssg83
g1527
sg76
(lp1534
S'wsgi_url_scheme'
p1535
asbag69
(g90
g71
NtRp1536
(dp1537
g74
(dp1538
g101
g102
ssg83
g1527
sg76
(lp1539
S':'
asbag69
(g90
g71
NtRp1540
(dp1541
g74
(dp1542
sg83
g1527
sg76
(lp1543
g69
(g70
g71
NtRp1544
(dp1545
g74
(dp1546
g82
I4
ssg83
g1540
sg76
(lp1547
S'http'
p1548
asbasbasbag69
(g85
g71
NtRp1549
(dp1550
g74
(dp1551
sg83
g649
sg76
(lp1552
g69
(g90
g71
NtRp1553
(dp1554
g74
(dp1555
g94
g95
ssg83
g1549
sg76
(lp1556
S'wsgi_version'
p1557
asbag69
(g90
g71
NtRp1558
(dp1559
g74
(dp1560
g101
g102
ssg83
g1549
sg76
(lp1561
S':'
asbag69
(g90
g71
NtRp1562
(dp1563
g74
(dp1564
sg83
g1549
sg76
(lp1565
g69
(g70
g71
NtRp1566
(dp1567
g74
(dp1568
g82
I4
ssg83
g1562
sg76
(lp1569
g69
(g78
g71
NtRp1570
(dp1571
g74
(dp1572
g82
I3
ssg83
Nsg76
(lp1573
g69
(g85
g71
NtRp1574
(dp1575
g74
(dp1576
sg83
g1570
sg76
(lp1577
g69
(g90
g71
NtRp1578
(dp1579
g74
(dp1580
sg83
g1574
sg76
(lp1581
g69
(g70
g71
NtRp1582
(dp1583
g74
(dp1584
g82
I3
ssg83
g1578
sg76
(lp1585
S'1'
asbasbasbag69
(g85
g71
NtRp1586
(dp1587
g74
(dp1588
sg83
g1570
sg76
(lp1589
g69
(g90
g71
NtRp1590
(dp1591
g74
(dp1592
sg83
g1586
sg76
(lp1593
g69
(g70
g71
NtRp1594
(dp1595
g74
(dp1596
g82
I3
ssg83
g1590
sg76
(lp1597
S'0'
asbasbasbasbasbasbasbasbasbasbasbag69
(g85
g71
NtRp1598
(dp1599
g74
(dp1600
sg83
g79
sg76
(lp1601
g69
(g90
g71
NtRp1602
(dp1603
g74
(dp1604
g94
g95
ssg83
g1598
sg76
(lp1605
S'extension'
p1606
asbag69
(g90
g71
NtRp1607
(dp1608
g74
(dp1609
g101
g102
ssg83
g1598
sg76
(lp1610
S':'
asbag69
(g90
g71
NtRp1611
(dp1612
g74
(dp1613
sg83
g1598
sg76
(lp1614
g69
(g70
g71
NtRp1615
(dp1616
g74
(dp1617
g82
I5
ssg83
g1611
sg76
(lp1618
S'html'
p1619
asbasbasbag69
(g85
g71
NtRp1620
(dp1621
g74
(dp1622
sg83
g79
sg76
(lp1623
g69
(g90
g71
NtRp1624
(dp1625
g74
(dp1626
g94
g95
ssg83
g1620
sg76
(lp1627
S'folder'
p1628
asbag69
(g90
g71
NtRp1629
(dp1630
g74
(dp1631
g101
g102
ssg83
g1620
sg76
(lp1632
S':'
asbag69
(g90
g71
NtRp1633
(dp1634
g74
(dp1635
sg83
g1620
sg76
(lp1636
g69
(g70
g71
NtRp1637
(dp1638
g74
(dp1639
g82
I5
ssg83
g1633
sg76
(lp1640
S'C:\\Users\\mellinja\\Documents\\SC2Tracker\\SC2TourneyTracker\\web2py\\applications\\welcome\\'
p1641
asbasbasbag69
(g85
g71
NtRp1642
(dp1643
g74
(dp1644
sg83
g79
sg76
(lp1645
g69
(g90
g71
NtRp1646
(dp1647
g74
(dp1648
g94
g95
ssg83
g1642
sg76
(lp1649
S'function'
p1650
asbag69
(g90
g71
NtRp1651
(dp1652
g74
(dp1653
g101
g102
ssg83
g1642
sg76
(lp1654
S':'
asbag69
(g90
g71
NtRp1655
(dp1656
g74
(dp1657
sg83
g1642
sg76
(lp1658
g69
(g70
g71
NtRp1659
(dp1660
g74
(dp1661
g82
I5
ssg83
g1655
sg76
(lp1662
S'index'
p1663
asbasbasbag69
(g85
g71
NtRp1664
(dp1665
g74
(dp1666
sg83
g79
sg76
(lp1667
g69
(g90
g71
NtRp1668
(dp1669
g74
(dp1670
g94
g95
ssg83
g1664
sg76
(lp1671
S'get_vars'
p1672
asbag69
(g90
g71
NtRp1673
(dp1674
g74
(dp1675
g101
g102
ssg83
g1664
sg76
(lp1676
S':'
asbag69
(g90
g71
NtRp1677
(dp1678
g74
(dp1679
sg83
g1664
sg76
(lp1680
g69
(g70
g71
NtRp1681
(dp1682
g74
(dp1683
g82
I5
ssg83
g1677
sg76
(lp1684
g69
(g78
g71
NtRp1685
(dp1686
g74
(dp1687
g82
I4
ssg83
Nsg76
(lp1688
sbasbasbasbag69
(g85
g71
NtRp1689
(dp1690
g74
(dp1691
sg83
g79
sg76
(lp1692
g69
(g90
g71
NtRp1693
(dp1694
g74
(dp1695
g94
g95
ssg83
g1689
sg76
(lp1696
S'global_settings'
p1697
asbag69
(g90
g71
NtRp1698
(dp1699
g74
(dp1700
g101
g102
ssg83
g1689
sg76
(lp1701
S':'
asbag69
(g90
g71
NtRp1702
(dp1703
g74
(dp1704
sg83
g1689
sg76
(lp1705
g69
(g70
g71
NtRp1706
(dp1707
g74
(dp1708
g82
I5
ssg83
g1702
sg76
(lp1709
g69
(g78
g71
NtRp1710
(dp1711
g74
(dp1712
g82
I4
ssg83
Nsg76
(lp1713
g69
(g85
g71
NtRp1714
(dp1715
g74
(dp1716
sg83
g1710
sg76
(lp1717
g69
(g90
g71
NtRp1718
(dp1719
g74
(dp1720
g94
g95
ssg83
g1714
sg76
(lp1721
g661
asbag69
(g90
g71
NtRp1722
(dp1723
g74
(dp1724
g101
g102
ssg83
g1714
sg76
(lp1725
S':'
asbag69
(g90
g71
NtRp1726
(dp1727
g74
(dp1728
sg83
g1714
sg76
(lp1729
g69
(g70
g71
NtRp1730
(dp1731
g74
(dp1732
g82
I4
ssg83
g1726
sg76
(lp1733
S"set(['C:\\\\Users\\\\mellinja\\\\Documents\\\\SC2Tracker\\\\SC2TourneyTracker\\\\web2py\\\\applications\\\\welcome\\\\', 'C:\\\\Users\\\\mellinja\\\\Documents\\\\SC2Tracker\\\\SC2TourneyTracker\\\\web2py\\\\applications\\\\admin\\\\'])"
p1734
asbasbasbag69
(g85
g71
NtRp1735
(dp1736
g74
(dp1737
sg83
g1710
sg76
(lp1738
g69
(g90
g71
NtRp1739
(dp1740
g74
(dp1741
g94
g95
ssg83
g1735
sg76
(lp1742
g683
asbag69
(g90
g71
NtRp1743
(dp1744
g74
(dp1745
g101
g102
ssg83
g1735
sg76
(lp1746
S':'
asbag69
(g90
g71
NtRp1747
(dp1748
g74
(dp1749
sg83
g1735
sg76
(lp1750
g69
(g70
g71
NtRp1751
(dp1752
g74
(dp1753
g82
I4
ssg83
g1747
sg76
(lp1754
g696
asbasbasbag69
(g85
g71
NtRp1755
(dp1756
g74
(dp1757
sg83
g1710
sg76
(lp1758
g69
(g90
g71
NtRp1759
(dp1760
g74
(dp1761
g94
g95
ssg83
g1755
sg76
(lp1762
g705
asbag69
(g90
g71
NtRp1763
(dp1764
g74
(dp1765
g101
g102
ssg83
g1755
sg76
(lp1766
S':'
asbag69
(g90
g71
NtRp1767
(dp1768
g74
(dp1769
sg83
g1755
sg76
(lp1770
g69
(g70
g71
NtRp1771
(dp1772
g74
(dp1773
g82
I4
ssg83
g1767
sg76
(lp1774
g69
(g78
g71
NtRp1775
(dp1776
g74
(dp1777
g82
I3
ssg83
Nsg76
(lp1778
sbasbasbasbag69
(g85
g71
NtRp1779
(dp1780
g74
(dp1781
sg83
g1710
sg76
(lp1782
g69
(g90
g71
NtRp1783
(dp1784
g74
(dp1785
g94
g95
ssg83
g1779
sg76
(lp1786
g730
asbag69
(g90
g71
NtRp1787
(dp1788
g74
(dp1789
g101
g102
ssg83
g1779
sg76
(lp1790
S':'
asbag69
(g90
g71
NtRp1791
(dp1792
g74
(dp1793
sg83
g1779
sg76
(lp1794
g69
(g70
g71
NtRp1795
(dp1796
g74
(dp1797
g82
I4
ssg83
g1791
sg76
(lp1798
S"<Values at 0x39ed5c8: {'verbose': False, 'ip': '127.0.0.1', 'shutdown_timeout': 5, 'taskbar': False, 'nocron': False, 'pid_filename': 'httpserver.pid', 'maxthreads': None, 'softcron': False, 'server_name': 'mellinja-PC', 'bpython': False, 'nogui': False, 'port': 8000, 'extcron': False, 'debuglevel': 30, 'test': None, 'folder': 'C:\\\\Users\\\\mellinja\\\\Documents\\\\SC2Tracker\\\\SC2TourneyTracker\\\\web2py', 'config': '', 'import_models': False, 'winservice': '', 'shell': None, 'run': '', 'log_filename': 'httpserver.log', 'args': [''], 'socket_timeout': 1, 'ssl_ca_certificate': None, 'scheduler': None, 'profiler_filename': None, 'ssl_private_key': '', 'password': '<ask>', 'request_queue_size': 5, 'ssl_certificate': '', 'cronjob': False, 'numthreads': None, 'quiet': False, 'interfaces': None, 'minthreads': None, 'timeout': 10, 'plain': False, 'nobanner': False}>"
p1799
asbasbasbag69
(g85
g71
NtRp1800
(dp1801
g74
(dp1802
sg83
g1710
sg76
(lp1803
g69
(g90
g71
NtRp1804
(dp1805
g74
(dp1806
g94
g95
ssg83
g1800
sg76
(lp1807
g752
asbag69
(g90
g71
NtRp1808
(dp1809
g74
(dp1810
g101
g102
ssg83
g1800
sg76
(lp1811
S':'
asbag69
(g90
g71
NtRp1812
(dp1813
g74
(dp1814
sg83
g1800
sg76
(lp1815
g69
(g70
g71
NtRp1816
(dp1817
g74
(dp1818
g82
I4
ssg83
g1812
sg76
(lp1819
S'set([])'
p1820
asbasbasbag69
(g85
g71
NtRp1821
(dp1822
g74
(dp1823
sg83
g1710
sg76
(lp1824
g69
(g90
g71
NtRp1825
(dp1826
g74
(dp1827
g94
g95
ssg83
g1821
sg76
(lp1828
g774
asbag69
(g90
g71
NtRp1829
(dp1830
g74
(dp1831
g101
g102
ssg83
g1821
sg76
(lp1832
S':'
asbag69
(g90
g71
NtRp1833
(dp1834
g74
(dp1835
sg83
g1821
sg76
(lp1836
g69
(g70
g71
NtRp1837
(dp1838
g74
(dp1839
g82
I4
ssg83
g1833
sg76
(lp1840
g112
asbasbasbag69
(g85
g71
NtRp1841
(dp1842
g74
(dp1843
sg83
g1710
sg76
(lp1844
g69
(g90
g71
NtRp1845
(dp1846
g74
(dp1847
g94
g95
ssg83
g1841
sg76
(lp1848
g795
asbag69
(g90
g71
NtRp1849
(dp1850
g74
(dp1851
g101
g102
ssg83
g1841
sg76
(lp1852
S':'
asbag69
(g90
g71
NtRp1853
(dp1854
g74
(dp1855
sg83
g1841
sg76
(lp1856
g69
(g70
g71
NtRp1857
(dp1858
g74
(dp1859
g82
I4
ssg83
g1853
sg76
(lp1860
g808
asbasbasbag69
(g85
g71
NtRp1861
(dp1862
g74
(dp1863
sg83
g1710
sg76
(lp1864
g69
(g90
g71
NtRp1865
(dp1866
g74
(dp1867
g94
g95
ssg83
g1861
sg76
(lp1868
g1015
asbag69
(g90
g71
NtRp1869
(dp1870
g74
(dp1871
g101
g102
ssg83
g1861
sg76
(lp1872
S':'
asbag69
(g90
g71
NtRp1873
(dp1874
g74
(dp1875
sg83
g1861
sg76
(lp1876
g69
(g70
g71
NtRp1877
(dp1878
g74
(dp1879
g82
I4
ssg83
g1873
sg76
(lp1880
g112
asbasbasbag69
(g85
g71
NtRp1881
(dp1882
g74
(dp1883
sg83
g1710
sg76
(lp1884
g69
(g90
g71
NtRp1885
(dp1886
g74
(dp1887
g94
g95
ssg83
g1881
sg76
(lp1888
g1036
asbag69
(g90
g71
NtRp1889
(dp1890
g74
(dp1891
g101
g102
ssg83
g1881
sg76
(lp1892
S':'
asbag69
(g90
g71
NtRp1893
(dp1894
g74
(dp1895
sg83
g1881
sg76
(lp1896
g69
(g70
g71
NtRp1897
(dp1898
g74
(dp1899
g82
I4
ssg83
g1893
sg76
(lp1900
g112
asbasbasbag69
(g85
g71
NtRp1901
(dp1902
g74
(dp1903
sg83
g1710
sg76
(lp1904
g69
(g90
g71
NtRp1905
(dp1906
g74
(dp1907
g94
g95
ssg83
g1901
sg76
(lp1908
g1274
asbag69
(g90
g71
NtRp1909
(dp1910
g74
(dp1911
g101
g102
ssg83
g1901
sg76
(lp1912
S':'
asbag69
(g90
g71
NtRp1913
(dp1914
g74
(dp1915
sg83
g1901
sg76
(lp1916
g69
(g70
g71
NtRp1917
(dp1918
g74
(dp1919
g82
I4
ssg83
g1913
sg76
(lp1920
g1287
asbasbasbag69
(g85
g71
NtRp1921
(dp1922
g74
(dp1923
sg83
g1710
sg76
(lp1924
g69
(g90
g71
NtRp1925
(dp1926
g74
(dp1927
g94
g95
ssg83
g1921
sg76
(lp1928
g1317
asbag69
(g90
g71
NtRp1929
(dp1930
g74
(dp1931
g101
g102
ssg83
g1921
sg76
(lp1932
S':'
asbag69
(g90
g71
NtRp1933
(dp1934
g74
(dp1935
sg83
g1921
sg76
(lp1936
g69
(g70
g71
NtRp1937
(dp1938
g74
(dp1939
g82
I4
ssg83
g1933
sg76
(lp1940
g69
(g78
g71
NtRp1941
(dp1942
g74
(dp1943
g82
I3
ssg83
Nsg76
(lp1944
g69
(g85
g71
NtRp1945
(dp1946
g74
(dp1947
sg83
g1941
sg76
(lp1948
g69
(g90
g71
NtRp1949
(dp1950
g74
(dp1951
sg83
g1945
sg76
(lp1952
g69
(g70
g71
NtRp1953
(dp1954
g74
(dp1955
g82
I3
ssg83
g1949
sg76
(lp1956
S'1'
asbasbasbag69
(g85
g71
NtRp1957
(dp1958
g74
(dp1959
sg83
g1941
sg76
(lp1960
g69
(g90
g71
NtRp1961
(dp1962
g74
(dp1963
sg83
g1957
sg76
(lp1964
g69
(g70
g71
NtRp1965
(dp1966
g74
(dp1967
g82
I3
ssg83
g1961
sg76
(lp1968
S'99'
p1969
asbasbasbag69
(g85
g71
NtRp1970
(dp1971
g74
(dp1972
sg83
g1941
sg76
(lp1973
g69
(g90
g71
NtRp1974
(dp1975
g74
(dp1976
sg83
g1970
sg76
(lp1977
g69
(g70
g71
NtRp1978
(dp1979
g74
(dp1980
g82
I3
ssg83
g1974
sg76
(lp1981
S'4'
asbasbasbag69
(g85
g71
NtRp1982
(dp1983
g74
(dp1984
sg83
g1941
sg76
(lp1985
g69
(g90
g71
NtRp1986
(dp1987
g74
(dp1988
sg83
g1982
sg76
(lp1989
g69
(g70
g71
NtRp1990
(dp1991
g74
(dp1992
g82
I3
ssg83
g1986
sg76
(lp1993
S'datetime.datetime(2011, 12, 14, 14, 46, 14)'
p1994
asbasbasbag69
(g85
g71
NtRp1995
(dp1996
g74
(dp1997
sg83
g1941
sg76
(lp1998
g69
(g90
g71
NtRp1999
(dp2000
g74
(dp2001
sg83
g1995
sg76
(lp2002
g69
(g70
g71
NtRp2003
(dp2004
g74
(dp2005
g82
I3
ssg83
g1999
sg76
(lp2006
g1396
asbasbasbasbasbasbasbasbasbasbasbag69
(g85
g71
NtRp2007
(dp2008
g74
(dp2009
sg83
g79
sg76
(lp2010
g69
(g90
g71
NtRp2011
(dp2012
g74
(dp2013
g94
g95
ssg83
g2007
sg76
(lp2014
S'is_https'
p2015
asbag69
(g90
g71
NtRp2016
(dp2017
g74
(dp2018
g101
g102
ssg83
g2007
sg76
(lp2019
S':'
asbag69
(g90
g71
NtRp2020
(dp2021
g74
(dp2022
sg83
g2007
sg76
(lp2023
g69
(g70
g71
NtRp2024
(dp2025
g74
(dp2026
g82
I5
ssg83
g2020
sg76
(lp2027
g112
asbasbasbag69
(g85
g71
NtRp2028
(dp2029
g74
(dp2030
sg83
g79
sg76
(lp2031
g69
(g90
g71
NtRp2032
(dp2033
g74
(dp2034
g94
g95
ssg83
g2028
sg76
(lp2035
S'is_local'
p2036
asbag69
(g90
g71
NtRp2037
(dp2038
g74
(dp2039
g101
g102
ssg83
g2028
sg76
(lp2040
S':'
asbag69
(g90
g71
NtRp2041
(dp2042
g74
(dp2043
sg83
g2028
sg76
(lp2044
g69
(g70
g71
NtRp2045
(dp2046
g74
(dp2047
g82
I5
ssg83
g2041
sg76
(lp2048
g1505
asbasbasbag69
(g85
g71
NtRp2049
(dp2050
g74
(dp2051
sg83
g79
sg76
(lp2052
g69
(g90
g71
NtRp2053
(dp2054
g74
(dp2055
g94
g95
ssg83
g2049
sg76
(lp2056
S'is_restful'
p2057
asbag69
(g90
g71
NtRp2058
(dp2059
g74
(dp2060
g101
g102
ssg83
g2049
sg76
(lp2061
S':'
asbag69
(g90
g71
NtRp2062
(dp2063
g74
(dp2064
sg83
g2049
sg76
(lp2065
g69
(g70
g71
NtRp2066
(dp2067
g74
(dp2068
g82
I5
ssg83
g2062
sg76
(lp2069
g112
asbasbasbag69
(g85
g71
NtRp2070
(dp2071
g74
(dp2072
sg83
g79
sg76
(lp2073
g69
(g90
g71
NtRp2074
(dp2075
g74
(dp2076
g94
g95
ssg83
g2070
sg76
(lp2077
S'now'
p2078
asbag69
(g90
g71
NtRp2079
(dp2080
g74
(dp2081
g101
g102
ssg83
g2070
sg76
(lp2082
S':'
asbag69
(g90
g71
NtRp2083
(dp2084
g74
(dp2085
sg83
g2070
sg76
(lp2086
g69
(g70
g71
NtRp2087
(dp2088
g74
(dp2089
g82
I5
ssg83
g2083
sg76
(lp2090
S'datetime.datetime(2012, 2, 12, 19, 36, 0, 418000)'
p2091
asbasbasbag69
(g85
g71
NtRp2092
(dp2093
g74
(dp2094
sg83
g79
sg76
(lp2095
g69
(g90
g71
NtRp2096
(dp2097
g74
(dp2098
g94
g95
ssg83
g2092
sg76
(lp2099
S'post_vars'
p2100
asbag69
(g90
g71
NtRp2101
(dp2102
g74
(dp2103
g101
g102
ssg83
g2092
sg76
(lp2104
S':'
asbag69
(g90
g71
NtRp2105
(dp2106
g74
(dp2107
sg83
g2092
sg76
(lp2108
g69
(g70
g71
NtRp2109
(dp2110
g74
(dp2111
g82
I5
ssg83
g2105
sg76
(lp2112
g69
(g78
g71
NtRp2113
(dp2114
g74
(dp2115
g82
I4
ssg83
Nsg76
(lp2116
sbasbasbasbag69
(g85
g71
NtRp2117
(dp2118
g74
(dp2119
sg83
g79
sg76
(lp2120
g69
(g90
g71
NtRp2121
(dp2122
g74
(dp2123
g94
g95
ssg83
g2117
sg76
(lp2124
S'url'
p2125
asbag69
(g90
g71
NtRp2126
(dp2127
g74
(dp2128
g101
g102
ssg83
g2117
sg76
(lp2129
S':'
asbag69
(g90
g71
NtRp2130
(dp2131
g74
(dp2132
sg83
g2117
sg76
(lp2133
g69
(g70
g71
NtRp2134
(dp2135
g74
(dp2136
g82
I5
ssg83
g2130
sg76
(lp2137
S'/welcome/game/index'
p2138
asbasbasbag69
(g85
g71
NtRp2139
(dp2140
g74
(dp2141
sg83
g79
sg76
(lp2142
g69
(g90
g71
NtRp2143
(dp2144
g74
(dp2145
g94
g95
ssg83
g2139
sg76
(lp2146
S'utcnow'
p2147
asbag69
(g90
g71
NtRp2148
(dp2149
g74
(dp2150
g101
g102
ssg83
g2139
sg76
(lp2151
S':'
asbag69
(g90
g71
NtRp2152
(dp2153
g74
(dp2154
sg83
g2139
sg76
(lp2155
g69
(g70
g71
NtRp2156
(dp2157
g74
(dp2158
g82
I5
ssg83
g2152
sg76
(lp2159
S'datetime.datetime(2012, 2, 13, 0, 36, 0, 418000)'
p2160
asbasbasbag69
(g85
g71
NtRp2161
(dp2162
g74
(dp2163
sg83
g79
sg76
(lp2164
g69
(g90
g71
NtRp2165
(dp2166
g74
(dp2167
g94
g95
ssg83
g2161
sg76
(lp2168
S'uuid'
p2169
asbag69
(g90
g71
NtRp2170
(dp2171
g74
(dp2172
g101
g102
ssg83
g2161
sg76
(lp2173
S':'
asbag69
(g90
g71
NtRp2174
(dp2175
g74
(dp2176
sg83
g2161
sg76
(lp2177
g69
(g70
g71
NtRp2178
(dp2179
g74
(dp2180
g82
I5
ssg83
g2174
sg76
(lp2181
S'welcome/127.0.0.1.2012-02-12.19-36-00.60aa9010-53de-4109-b2a8-8822973e4ecd'
p2182
asbasbasbag69
(g85
g71
NtRp2183
(dp2184
g74
(dp2185
sg83
g79
sg76
(lp2186
g69
(g90
g71
NtRp2187
(dp2188
g74
(dp2189
g94
g95
ssg83
g2183
sg76
(lp2190
S'vars'
p2191
asbag69
(g90
g71
NtRp2192
(dp2193
g74
(dp2194
g101
g102
ssg83
g2183
sg76
(lp2195
S':'
asbag69
(g90
g71
NtRp2196
(dp2197
g74
(dp2198
sg83
g2183
sg76
(lp2199
g69
(g70
g71
NtRp2200
(dp2201
g74
(dp2202
g82
I5
ssg83
g2196
sg76
(lp2203
g69
(g78
g71
NtRp2204
(dp2205
g74
(dp2206
g82
I4
ssg83
Nsg76
(lp2207
sbasbasbasbag69
(g85
g71
NtRp2208
(dp2209
g74
(dp2210
sg83
g79
sg76
(lp2211
g69
(g90
g71
NtRp2212
(dp2213
g74
(dp2214
g94
g95
ssg83
g2208
sg76
(lp2215
S'wsgi'
p2216
asbag69
(g90
g71
NtRp2217
(dp2218
g74
(dp2219
g101
g102
ssg83
g2208
sg76
(lp2220
S':'
asbag69
(g90
g71
NtRp2221
(dp2222
g74
(dp2223
sg83
g2208
sg76
(lp2224
g69
(g70
g71
NtRp2225
(dp2226
g74
(dp2227
g82
I5
ssg83
g2221
sg76
(lp2228
g69
(g78
g71
NtRp2229
(dp2230
g74
(dp2231
g82
I4
ssg83
Nsg76
(lp2232
g69
(g85
g71
NtRp2233
(dp2234
g74
(dp2235
sg83
g2229
sg76
(lp2236
g69
(g90
g71
NtRp2237
(dp2238
g74
(dp2239
g94
g95
ssg83
g2233
sg76
(lp2240
S'environ'
p2241
asbag69
(g90
g71
NtRp2242
(dp2243
g74
(dp2244
g101
g102
ssg83
g2233
sg76
(lp2245
S':'
asbag69
(g90
g71
NtRp2246
(dp2247
g74
(dp2248
sg83
g2233
sg76
(lp2249
g69
(g70
g71
NtRp2250
(dp2251
g74
(dp2252
g82
I4
ssg83
g2246
sg76
(lp2253
g69
(g78
g71
NtRp2254
(dp2255
g74
(dp2256
g82
I3
ssg83
Nsg76
(lp2257
g69
(g85
g71
NtRp2258
(dp2259
g74
(dp2260
sg83
g2254
sg76
(lp2261
g69
(g90
g71
NtRp2262
(dp2263
g74
(dp2264
g94
g95
ssg83
g2258
sg76
(lp2265
S'HTTP_ACCEPT'
p2266
asbag69
(g90
g71
NtRp2267
(dp2268
g74
(dp2269
g101
g102
ssg83
g2258
sg76
(lp2270
S':'
asbag69
(g90
g71
NtRp2271
(dp2272
g74
(dp2273
sg83
g2258
sg76
(lp2274
g69
(g70
g71
NtRp2275
(dp2276
g74
(dp2277
g82
I3
ssg83
g2271
sg76
(lp2278
g830
asbasbasbag69
(g85
g71
NtRp2279
(dp2280
g74
(dp2281
sg83
g2254
sg76
(lp2282
g69
(g90
g71
NtRp2283
(dp2284
g74
(dp2285
g94
g95
ssg83
g2279
sg76
(lp2286
S'HTTP_ACCEPT_CHARSET'
p2287
asbag69
(g90
g71
NtRp2288
(dp2289
g74
(dp2290
g101
g102
ssg83
g2279
sg76
(lp2291
S':'
asbag69
(g90
g71
NtRp2292
(dp2293
g74
(dp2294
sg83
g2279
sg76
(lp2295
g69
(g70
g71
NtRp2296
(dp2297
g74
(dp2298
g82
I3
ssg83
g2292
sg76
(lp2299
g852
asbasbasbag69
(g85
g71
NtRp2300
(dp2301
g74
(dp2302
sg83
g2254
sg76
(lp2303
g69
(g90
g71
NtRp2304
(dp2305
g74
(dp2306
g94
g95
ssg83
g2300
sg76
(lp2307
S'HTTP_ACCEPT_ENCODING'
p2308
asbag69
(g90
g71
NtRp2309
(dp2310
g74
(dp2311
g101
g102
ssg83
g2300
sg76
(lp2312
S':'
asbag69
(g90
g71
NtRp2313
(dp2314
g74
(dp2315
sg83
g2300
sg76
(lp2316
g69
(g70
g71
NtRp2317
(dp2318
g74
(dp2319
g82
I3
ssg83
g2313
sg76
(lp2320
g874
asbasbasbag69
(g85
g71
NtRp2321
(dp2322
g74
(dp2323
sg83
g2254
sg76
(lp2324
g69
(g90
g71
NtRp2325
(dp2326
g74
(dp2327
g94
g95
ssg83
g2321
sg76
(lp2328
S'HTTP_ACCEPT_LANGUAGE'
p2329
asbag69
(g90
g71
NtRp2330
(dp2331
g74
(dp2332
g101
g102
ssg83
g2321
sg76
(lp2333
S':'
asbag69
(g90
g71
NtRp2334
(dp2335
g74
(dp2336
sg83
g2321
sg76
(lp2337
g69
(g70
g71
NtRp2338
(dp2339
g74
(dp2340
g82
I3
ssg83
g2334
sg76
(lp2341
g896
asbasbasbag69
(g85
g71
NtRp2342
(dp2343
g74
(dp2344
sg83
g2254
sg76
(lp2345
g69
(g90
g71
NtRp2346
(dp2347
g74
(dp2348
g94
g95
ssg83
g2342
sg76
(lp2349
S'HTTP_CONNECTION'
p2350
asbag69
(g90
g71
NtRp2351
(dp2352
g74
(dp2353
g101
g102
ssg83
g2342
sg76
(lp2354
S':'
asbag69
(g90
g71
NtRp2355
(dp2356
g74
(dp2357
sg83
g2342
sg76
(lp2358
g69
(g70
g71
NtRp2359
(dp2360
g74
(dp2361
g82
I3
ssg83
g2355
sg76
(lp2362
g918
asbasbasbag69
(g85
g71
NtRp2363
(dp2364
g74
(dp2365
sg83
g2254
sg76
(lp2366
g69
(g90
g71
NtRp2367
(dp2368
g74
(dp2369
g94
g95
ssg83
g2363
sg76
(lp2370
S'HTTP_COOKIE'
p2371
asbag69
(g90
g71
NtRp2372
(dp2373
g74
(dp2374
g101
g102
ssg83
g2363
sg76
(lp2375
S':'
asbag69
(g90
g71
NtRp2376
(dp2377
g74
(dp2378
sg83
g2363
sg76
(lp2379
g69
(g70
g71
NtRp2380
(dp2381
g74
(dp2382
g82
I3
ssg83
g2376
sg76
(lp2383
g940
asbasbasbag69
(g85
g71
NtRp2384
(dp2385
g74
(dp2386
sg83
g2254
sg76
(lp2387
g69
(g90
g71
NtRp2388
(dp2389
g74
(dp2390
g94
g95
ssg83
g2384
sg76
(lp2391
S'HTTP_HOST'
p2392
asbag69
(g90
g71
NtRp2393
(dp2394
g74
(dp2395
g101
g102
ssg83
g2384
sg76
(lp2396
S':'
asbag69
(g90
g71
NtRp2397
(dp2398
g74
(dp2399
sg83
g2384
sg76
(lp2400
g69
(g70
g71
NtRp2401
(dp2402
g74
(dp2403
g82
I3
ssg83
g2397
sg76
(lp2404
g962
asbasbasbag69
(g85
g71
NtRp2405
(dp2406
g74
(dp2407
sg83
g2254
sg76
(lp2408
g69
(g90
g71
NtRp2409
(dp2410
g74
(dp2411
g94
g95
ssg83
g2405
sg76
(lp2412
S'HTTP_REFERER'
p2413
asbag69
(g90
g71
NtRp2414
(dp2415
g74
(dp2416
g101
g102
ssg83
g2405
sg76
(lp2417
S':'
asbag69
(g90
g71
NtRp2418
(dp2419
g74
(dp2420
sg83
g2405
sg76
(lp2421
g69
(g70
g71
NtRp2422
(dp2423
g74
(dp2424
g82
I3
ssg83
g2418
sg76
(lp2425
g984
asbasbasbag69
(g85
g71
NtRp2426
(dp2427
g74
(dp2428
sg83
g2254
sg76
(lp2429
g69
(g90
g71
NtRp2430
(dp2431
g74
(dp2432
g94
g95
ssg83
g2426
sg76
(lp2433
S'HTTP_USER_AGENT'
p2434
asbag69
(g90
g71
NtRp2435
(dp2436
g74
(dp2437
g101
g102
ssg83
g2426
sg76
(lp2438
S':'
asbag69
(g90
g71
NtRp2439
(dp2440
g74
(dp2441
sg83
g2426
sg76
(lp2442
g69
(g70
g71
NtRp2443
(dp2444
g74
(dp2445
g82
I3
ssg83
g2439
sg76
(lp2446
g1006
asbasbasbag69
(g85
g71
NtRp2447
(dp2448
g74
(dp2449
sg83
g2254
sg76
(lp2450
g69
(g90
g71
NtRp2451
(dp2452
g74
(dp2453
g94
g95
ssg83
g2447
sg76
(lp2454
S'PATH_INFO'
p2455
asbag69
(g90
g71
NtRp2456
(dp2457
g74
(dp2458
g101
g102
ssg83
g2447
sg76
(lp2459
S':'
asbag69
(g90
g71
NtRp2460
(dp2461
g74
(dp2462
sg83
g2447
sg76
(lp2463
g69
(g70
g71
NtRp2464
(dp2465
g74
(dp2466
g82
I3
ssg83
g2460
sg76
(lp2467
g1070
asbasbasbag69
(g85
g71
NtRp2468
(dp2469
g74
(dp2470
sg83
g2254
sg76
(lp2471
g69
(g90
g71
NtRp2472
(dp2473
g74
(dp2474
g94
g95
ssg83
g2468
sg76
(lp2475
S'QUERY_STRING'
p2476
asbag69
(g90
g71
NtRp2477
(dp2478
g74
(dp2479
g101
g102
ssg83
g2468
sg76
(lp2480
S':'
asbag69
(g90
g71
NtRp2481
(dp2482
g74
(dp2483
sg83
g2468
sg76
(lp2484
g69
(g70
g71
NtRp2485
(dp2486
g74
(dp2487
g82
I3
ssg83
g2481
sg76
(lp2488
S''
asbasbasbag69
(g85
g71
NtRp2489
(dp2490
g74
(dp2491
sg83
g2254
sg76
(lp2492
g69
(g90
g71
NtRp2493
(dp2494
g74
(dp2495
g94
g95
ssg83
g2489
sg76
(lp2496
S'REMOTE_ADDR'
p2497
asbag69
(g90
g71
NtRp2498
(dp2499
g74
(dp2500
g101
g102
ssg83
g2489
sg76
(lp2501
S':'
asbag69
(g90
g71
NtRp2502
(dp2503
g74
(dp2504
sg83
g2489
sg76
(lp2505
g69
(g70
g71
NtRp2506
(dp2507
g74
(dp2508
g82
I3
ssg83
g2502
sg76
(lp2509
g202
asbasbasbag69
(g85
g71
NtRp2510
(dp2511
g74
(dp2512
sg83
g2254
sg76
(lp2513
g69
(g90
g71
NtRp2514
(dp2515
g74
(dp2516
g94
g95
ssg83
g2510
sg76
(lp2517
S'REMOTE_PORT'
p2518
asbag69
(g90
g71
NtRp2519
(dp2520
g74
(dp2521
g101
g102
ssg83
g2510
sg76
(lp2522
S':'
asbag69
(g90
g71
NtRp2523
(dp2524
g74
(dp2525
sg83
g2510
sg76
(lp2526
g69
(g70
g71
NtRp2527
(dp2528
g74
(dp2529
g82
I3
ssg83
g2523
sg76
(lp2530
g1134
asbasbasbag69
(g85
g71
NtRp2531
(dp2532
g74
(dp2533
sg83
g2254
sg76
(lp2534
g69
(g90
g71
NtRp2535
(dp2536
g74
(dp2537
g94
g95
ssg83
g2531
sg76
(lp2538
S'REQUEST_METHOD'
p2539
asbag69
(g90
g71
NtRp2540
(dp2541
g74
(dp2542
g101
g102
ssg83
g2531
sg76
(lp2543
S':'
asbag69
(g90
g71
NtRp2544
(dp2545
g74
(dp2546
sg83
g2531
sg76
(lp2547
g69
(g70
g71
NtRp2548
(dp2549
g74
(dp2550
g82
I3
ssg83
g2544
sg76
(lp2551
g1156
asbasbasbag69
(g85
g71
NtRp2552
(dp2553
g74
(dp2554
sg83
g2254
sg76
(lp2555
g69
(g90
g71
NtRp2556
(dp2557
g74
(dp2558
g94
g95
ssg83
g2552
sg76
(lp2559
S'SCRIPT_NAME'
p2560
asbag69
(g90
g71
NtRp2561
(dp2562
g74
(dp2563
g101
g102
ssg83
g2552
sg76
(lp2564
S':'
asbag69
(g90
g71
NtRp2565
(dp2566
g74
(dp2567
sg83
g2552
sg76
(lp2568
g69
(g70
g71
NtRp2569
(dp2570
g74
(dp2571
g82
I3
ssg83
g2565
sg76
(lp2572
S''
asbasbasbag69
(g85
g71
NtRp2573
(dp2574
g74
(dp2575
sg83
g2254
sg76
(lp2576
g69
(g90
g71
NtRp2577
(dp2578
g74
(dp2579
g94
g95
ssg83
g2573
sg76
(lp2580
S'SERVER_NAME'
p2581
asbag69
(g90
g71
NtRp2582
(dp2583
g74
(dp2584
g101
g102
ssg83
g2573
sg76
(lp2585
S':'
asbag69
(g90
g71
NtRp2586
(dp2587
g74
(dp2588
sg83
g2573
sg76
(lp2589
g69
(g70
g71
NtRp2590
(dp2591
g74
(dp2592
g82
I3
ssg83
g2586
sg76
(lp2593
g1199
asbasbasbag69
(g85
g71
NtRp2594
(dp2595
g74
(dp2596
sg83
g2254
sg76
(lp2597
g69
(g90
g71
NtRp2598
(dp2599
g74
(dp2600
g94
g95
ssg83
g2594
sg76
(lp2601
S'SERVER_PORT'
p2602
asbag69
(g90
g71
NtRp2603
(dp2604
g74
(dp2605
g101
g102
ssg83
g2594
sg76
(lp2606
S':'
asbag69
(g90
g71
NtRp2607
(dp2608
g74
(dp2609
sg83
g2594
sg76
(lp2610
g69
(g70
g71
NtRp2611
(dp2612
g74
(dp2613
g82
I3
ssg83
g2607
sg76
(lp2614
g1221
asbasbasbag69
(g85
g71
NtRp2615
(dp2616
g74
(dp2617
sg83
g2254
sg76
(lp2618
g69
(g90
g71
NtRp2619
(dp2620
g74
(dp2621
g94
g95
ssg83
g2615
sg76
(lp2622
S'SERVER_PROTOCOL'
p2623
asbag69
(g90
g71
NtRp2624
(dp2625
g74
(dp2626
g101
g102
ssg83
g2615
sg76
(lp2627
S':'
asbag69
(g90
g71
NtRp2628
(dp2629
g74
(dp2630
sg83
g2615
sg76
(lp2631
g69
(g70
g71
NtRp2632
(dp2633
g74
(dp2634
g82
I3
ssg83
g2628
sg76
(lp2635
g1243
asbasbasbag69
(g85
g71
NtRp2636
(dp2637
g74
(dp2638
sg83
g2254
sg76
(lp2639
g69
(g90
g71
NtRp2640
(dp2641
g74
(dp2642
g94
g95
ssg83
g2636
sg76
(lp2643
S'SERVER_SOFTWARE'
p2644
asbag69
(g90
g71
NtRp2645
(dp2646
g74
(dp2647
g101
g102
ssg83
g2636
sg76
(lp2648
S':'
asbag69
(g90
g71
NtRp2649
(dp2650
g74
(dp2651
sg83
g2636
sg76
(lp2652
g69
(g70
g71
NtRp2653
(dp2654
g74
(dp2655
g82
I3
ssg83
g2649
sg76
(lp2656
g1265
asbasbasbag69
(g85
g71
NtRp2657
(dp2658
g74
(dp2659
sg83
g2254
sg76
(lp2660
g69
(g90
g71
NtRp2661
(dp2662
g74
(dp2663
g94
g95
ssg83
g2657
sg76
(lp2664
S'wsgi.errors'
p2665
asbag69
(g90
g71
NtRp2666
(dp2667
g74
(dp2668
g101
g102
ssg83
g2657
sg76
(lp2669
S':'
asbag69
(g90
g71
NtRp2670
(dp2671
g74
(dp2672
sg83
g2657
sg76
(lp2673
g69
(g70
g71
NtRp2674
(dp2675
g74
(dp2676
g82
I3
ssg83
g2670
sg76
(lp2677
S"<open file '<stderr>', mode 'w' at 0x0000000001F661E0>"
p2678
asbasbasbag69
(g85
g71
NtRp2679
(dp2680
g74
(dp2681
sg83
g2254
sg76
(lp2682
g69
(g90
g71
NtRp2683
(dp2684
g74
(dp2685
g94
g95
ssg83
g2679
sg76
(lp2686
S'wsgi.file_wrapper'
p2687
asbag69
(g90
g71
NtRp2688
(dp2689
g74
(dp2690
g101
g102
ssg83
g2679
sg76
(lp2691
S':'
asbag69
(g90
g71
NtRp2692
(dp2693
g74
(dp2694
sg83
g2679
sg76
(lp2695
g69
(g70
g71
NtRp2696
(dp2697
g74
(dp2698
g82
I3
ssg83
g2692
sg76
(lp2699
S'<class wsgiref.util.FileWrapper at 0x00000000038DD828>'
p2700
asbasbasbag69
(g85
g71
NtRp2701
(dp2702
g74
(dp2703
sg83
g2254
sg76
(lp2704
g69
(g90
g71
NtRp2705
(dp2706
g74
(dp2707
g94
g95
ssg83
g2701
sg76
(lp2708
S'wsgi.input'
p2709
asbag69
(g90
g71
NtRp2710
(dp2711
g74
(dp2712
g101
g102
ssg83
g2701
sg76
(lp2713
S':'
asbag69
(g90
g71
NtRp2714
(dp2715
g74
(dp2716
sg83
g2701
sg76
(lp2717
g69
(g70
g71
NtRp2718
(dp2719
g74
(dp2720
g82
I3
ssg83
g2714
sg76
(lp2721
S'<cStringIO.StringO object at 0x00000000073B95A8>'
p2722
asbasbasbag69
(g85
g71
NtRp2723
(dp2724
g74
(dp2725
sg83
g2254
sg76
(lp2726
g69
(g90
g71
NtRp2727
(dp2728
g74
(dp2729
g94
g95
ssg83
g2723
sg76
(lp2730
S'wsgi.multiprocess'
p2731
asbag69
(g90
g71
NtRp2732
(dp2733
g74
(dp2734
g101
g102
ssg83
g2723
sg76
(lp2735
S':'
asbag69
(g90
g71
NtRp2736
(dp2737
g74
(dp2738
sg83
g2723
sg76
(lp2739
g69
(g70
g71
NtRp2740
(dp2741
g74
(dp2742
g82
I3
ssg83
g2736
sg76
(lp2743
g112
asbasbasbag69
(g85
g71
NtRp2744
(dp2745
g74
(dp2746
sg83
g2254
sg76
(lp2747
g69
(g90
g71
NtRp2748
(dp2749
g74
(dp2750
g94
g95
ssg83
g2744
sg76
(lp2751
S'wsgi.multithread'
p2752
asbag69
(g90
g71
NtRp2753
(dp2754
g74
(dp2755
g101
g102
ssg83
g2744
sg76
(lp2756
S':'
asbag69
(g90
g71
NtRp2757
(dp2758
g74
(dp2759
sg83
g2744
sg76
(lp2760
g69
(g70
g71
NtRp2761
(dp2762
g74
(dp2763
g82
I3
ssg83
g2757
sg76
(lp2764
g1505
asbasbasbag69
(g85
g71
NtRp2765
(dp2766
g74
(dp2767
sg83
g2254
sg76
(lp2768
g69
(g90
g71
NtRp2769
(dp2770
g74
(dp2771
g94
g95
ssg83
g2765
sg76
(lp2772
S'wsgi.run_once'
p2773
asbag69
(g90
g71
NtRp2774
(dp2775
g74
(dp2776
g101
g102
ssg83
g2765
sg76
(lp2777
S':'
asbag69
(g90
g71
NtRp2778
(dp2779
g74
(dp2780
sg83
g2765
sg76
(lp2781
g69
(g70
g71
NtRp2782
(dp2783
g74
(dp2784
g82
I3
ssg83
g2778
sg76
(lp2785
g112
asbasbasbag69
(g85
g71
NtRp2786
(dp2787
g74
(dp2788
sg83
g2254
sg76
(lp2789
g69
(g90
g71
NtRp2790
(dp2791
g74
(dp2792
g94
g95
ssg83
g2786
sg76
(lp2793
S'wsgi.url_scheme'
p2794
asbag69
(g90
g71
NtRp2795
(dp2796
g74
(dp2797
g101
g102
ssg83
g2786
sg76
(lp2798
S':'
asbag69
(g90
g71
NtRp2799
(dp2800
g74
(dp2801
sg83
g2786
sg76
(lp2802
g69
(g70
g71
NtRp2803
(dp2804
g74
(dp2805
g82
I3
ssg83
g2799
sg76
(lp2806
g1548
asbasbasbag69
(g85
g71
NtRp2807
(dp2808
g74
(dp2809
sg83
g2254
sg76
(lp2810
g69
(g90
g71
NtRp2811
(dp2812
g74
(dp2813
g94
g95
ssg83
g2807
sg76
(lp2814
S'wsgi.version'
p2815
asbag69
(g90
g71
NtRp2816
(dp2817
g74
(dp2818
g101
g102
ssg83
g2807
sg76
(lp2819
S':'
asbag69
(g90
g71
NtRp2820
(dp2821
g74
(dp2822
sg83
g2807
sg76
(lp2823
g69
(g70
g71
NtRp2824
(dp2825
g74
(dp2826
g82
I3
ssg83
g2820
sg76
(lp2827
S'1'
asbasbasbasbasbasbasbasbasbasbasbasbasbsS'frames'
p2828
(lp2829
(dp2830
S'file'
p2831
S'C:\\Users\\mellinja\\Documents\\SC2Tracker\\SC2TourneyTracker\\web2py\\gluon\\restricted.py'
p2832
sS'dump'
p2833
(dp2834
S'code'
p2835
S'r"response.write(\'<!DOCTYPE html>\\r\\n<!-- pauliris...write(\'\\r\\n</body>\\r\\n</html>\\r\\n\', escape=False)"'
p2836
sS'layer'
p2837
S"r'C:\\Users\\mellinja\\Documents\\SC2Tracker\\SC2Tourne...web2py\\applications\\welcome\\views\\game/index.html'"
p2838
sS'global compile2'
p2839
S'<function compile2>'
p2840
sS'ccode'
p2841
S'undefined'
p2842
ssS'lnum'
p2843
I203
sS'lines'
p2844
(dp2845
I198
S"    environment['__file__'] = layer"
p2846
sI199
S'    try:'
p2847
sI200
S'        if type(code) == types.CodeType:'
p2848
sI201
S'            ccode = code'
p2849
sI202
S'        else:'
p2850
sI203
S'            ccode = compile2(code,layer)'
p2851
sI204
S'        exec ccode in environment'
p2852
sI205
S'    except HTTP:'
p2853
sI206
S'        raise'
p2854
sI207
S'    except RestrictedError:'
p2855
ssS'call'
p2856
S'(code=r"response.write(\'<!DOCTYPE html>\\r\\n<!-- pauliris...write(\'\\r\\n</body>\\r\\n</html>\\r\\n\', escape=False)", environment={\'A\': <class \'gluon.html.A\'>, \'Auth\': <class \'gluon.tools.Auth\'>, \'B\': <class \'gluon.html.B\'>, \'BEAUTIFY\': <class \'gluon.html.BEAUTIFY\'>, \'BODY\': <class \'gluon.html.BODY\'>, \'BR\': <class \'gluon.html.BR\'>, \'BUTTON\': <class \'gluon.html.BUTTON\'>, \'CAT\': <class \'gluon.html.CAT\'>, \'CENTER\': <class \'gluon.html.CENTER\'>, \'CLEANUP\': <class \'gluon.validators.CLEANUP\'>, ...}, layer=r\'C:\\Users\\mellinja\\Documents\\SC2Tracker\\SC2Tourne...web2py\\applications\\welcome\\views\\game/index.html\')'
p2857
sS'func'
p2858
S'restricted'
p2859
sa(dp2860
g2831
S'C:\\Users\\mellinja\\Documents\\SC2Tracker\\SC2TourneyTracker\\web2py\\gluon\\restricted.py'
p2861
sg2833
(dp2862
S'builtincompile'
p2863
S'<built-in function compile>'
p2864
sS'code'
p2865
S'r"response.write(\'<!DOCTYPE html>\\r\\n<!-- pauliris...write(\'\\r\\n</body>\\r\\n</html>\\r\\n\', escape=False)"'
p2866
sS'code.rstrip'
p2867
S'<built-in method rstrip of str object>'
p2868
sS').replace'
p2869
g2842
sS'layer'
p2870
S"r'C:\\Users\\mellinja\\Documents\\SC2Tracker\\SC2Tourne...web2py\\applications\\welcome\\views\\game/index.html'"
p2871
ssg2843
I189
sg2844
(dp2872
I192
S'    """'
p2873
sI193
S'    runs code in environment and returns the output. if an exception occurs'
p2874
sI184
S''
sI185
S'def compile2(code,layer):'
p2875
sI186
S'    """'
p2876
sI187
S"    The +'\\n' is necessary else compile fails when code ends in a comment."
p2877
sI188
S'    """'
p2878
sI189
S"    return compile(code.rstrip().replace('\\r\\n','\\n')+'\\n', layer, 'exec')"
p2879
sI190
S''
sI191
S"def restricted(code, environment=None, layer='Unknown'):"
p2880
ssg2856
S'(code=r"response.write(\'<!DOCTYPE html>\\r\\n<!-- pauliris...write(\'\\r\\n</body>\\r\\n</html>\\r\\n\', escape=False)", layer=r\'C:\\Users\\mellinja\\Documents\\SC2Tracker\\SC2Tourne...web2py\\applications\\welcome\\views\\game/index.html\')'
p2881
sg2858
S'compile2'
p2882
sasS'pyver'
p2883
S'Python 2.7.2: C:\\Python27\\python.exe'
p2884
sS'session'
p2885
g69
(g70
g71
NtRp2886
(dp2887
g74
(dp2888
sg76
(lp2889
g69
(g78
g71
NtRp2890
(dp2891
g74
(dp2892
g82
I5
ssg83
Nsg76
(lp2893
g69
(g85
g71
NtRp2894
(dp2895
g74
(dp2896
sg83
g2890
sg76
(lp2897
g69
(g90
g71
NtRp2898
(dp2899
g74
(dp2900
g94
g95
ssg83
g2894
sg76
(lp2901
S'auth'
p2902
asbag69
(g90
g71
NtRp2903
(dp2904
g74
(dp2905
g101
g102
ssg83
g2894
sg76
(lp2906
S':'
asbag69
(g90
g71
NtRp2907
(dp2908
g74
(dp2909
sg83
g2894
sg76
(lp2910
g69
(g70
g71
NtRp2911
(dp2912
g74
(dp2913
g82
I5
ssg83
g2907
sg76
(lp2914
g69
(g78
g71
NtRp2915
(dp2916
g74
(dp2917
g82
I4
ssg83
Nsg76
(lp2918
g69
(g85
g71
NtRp2919
(dp2920
g74
(dp2921
sg83
g2915
sg76
(lp2922
g69
(g90
g71
NtRp2923
(dp2924
g74
(dp2925
g94
g95
ssg83
g2919
sg76
(lp2926
S'expiration'
p2927
asbag69
(g90
g71
NtRp2928
(dp2929
g74
(dp2930
g101
g102
ssg83
g2919
sg76
(lp2931
S':'
asbag69
(g90
g71
NtRp2932
(dp2933
g74
(dp2934
sg83
g2919
sg76
(lp2935
g69
(g70
g71
NtRp2936
(dp2937
g74
(dp2938
g82
I4
ssg83
g2932
sg76
(lp2939
S'2592000'
p2940
asbasbasbag69
(g85
g71
NtRp2941
(dp2942
g74
(dp2943
sg83
g2915
sg76
(lp2944
g69
(g90
g71
NtRp2945
(dp2946
g74
(dp2947
g94
g95
ssg83
g2941
sg76
(lp2948
S'hmac_key'
p2949
asbag69
(g90
g71
NtRp2950
(dp2951
g74
(dp2952
g101
g102
ssg83
g2941
sg76
(lp2953
S':'
asbag69
(g90
g71
NtRp2954
(dp2955
g74
(dp2956
sg83
g2941
sg76
(lp2957
g69
(g70
g71
NtRp2958
(dp2959
g74
(dp2960
g82
I4
ssg83
g2954
sg76
(lp2961
S'dbaaae73-bc91-46e7-b29c-07bf37584d4f'
p2962
asbasbasbag69
(g85
g71
NtRp2963
(dp2964
g74
(dp2965
sg83
g2915
sg76
(lp2966
g69
(g90
g71
NtRp2967
(dp2968
g74
(dp2969
g94
g95
ssg83
g2963
sg76
(lp2970
S'last_visit'
p2971
asbag69
(g90
g71
NtRp2972
(dp2973
g74
(dp2974
g101
g102
ssg83
g2963
sg76
(lp2975
S':'
asbag69
(g90
g71
NtRp2976
(dp2977
g74
(dp2978
sg83
g2963
sg76
(lp2979
g69
(g70
g71
NtRp2980
(dp2981
g74
(dp2982
g82
I4
ssg83
g2976
sg76
(lp2983
S'datetime.datetime(2012, 2, 12, 19, 17, 7, 122000)'
p2984
asbasbasbag69
(g85
g71
NtRp2985
(dp2986
g74
(dp2987
sg83
g2915
sg76
(lp2988
g69
(g90
g71
NtRp2989
(dp2990
g74
(dp2991
g94
g95
ssg83
g2985
sg76
(lp2992
S'remember'
p2993
asbag69
(g90
g71
NtRp2994
(dp2995
g74
(dp2996
g101
g102
ssg83
g2985
sg76
(lp2997
S':'
asbag69
(g90
g71
NtRp2998
(dp2999
g74
(dp3000
sg83
g2985
sg76
(lp3001
g69
(g70
g71
NtRp3002
(dp3003
g74
(dp3004
g82
I4
ssg83
g2998
sg76
(lp3005
g112
asbasbasbag69
(g85
g71
NtRp3006
(dp3007
g74
(dp3008
sg83
g2915
sg76
(lp3009
g69
(g90
g71
NtRp3010
(dp3011
g74
(dp3012
g94
g95
ssg83
g3006
sg76
(lp3013
S'user'
p3014
asbag69
(g90
g71
NtRp3015
(dp3016
g74
(dp3017
g101
g102
ssg83
g3006
sg76
(lp3018
S':'
asbag69
(g90
g71
NtRp3019
(dp3020
g74
(dp3021
sg83
g3006
sg76
(lp3022
g69
(g70
g71
NtRp3023
(dp3024
g74
(dp3025
g82
I4
ssg83
g3019
sg76
(lp3026
g69
(g78
g71
NtRp3027
(dp3028
g74
(dp3029
g82
I3
ssg83
Nsg76
(lp3030
g69
(g85
g71
NtRp3031
(dp3032
g74
(dp3033
sg83
g3027
sg76
(lp3034
g69
(g90
g71
NtRp3035
(dp3036
g74
(dp3037
g94
g95
ssg83
g3031
sg76
(lp3038
S'email'
p3039
asbag69
(g90
g71
NtRp3040
(dp3041
g74
(dp3042
g101
g102
ssg83
g3031
sg76
(lp3043
S':'
asbag69
(g90
g71
NtRp3044
(dp3045
g74
(dp3046
sg83
g3031
sg76
(lp3047
g69
(g70
g71
NtRp3048
(dp3049
g74
(dp3050
g82
I3
ssg83
g3044
sg76
(lp3051
S'mellinja@gmail.com'
p3052
asbasbasbag69
(g85
g71
NtRp3053
(dp3054
g74
(dp3055
sg83
g3027
sg76
(lp3056
g69
(g90
g71
NtRp3057
(dp3058
g74
(dp3059
g94
g95
ssg83
g3053
sg76
(lp3060
S'first_name'
p3061
asbag69
(g90
g71
NtRp3062
(dp3063
g74
(dp3064
g101
g102
ssg83
g3053
sg76
(lp3065
S':'
asbag69
(g90
g71
NtRp3066
(dp3067
g74
(dp3068
sg83
g3053
sg76
(lp3069
g69
(g70
g71
NtRp3070
(dp3071
g74
(dp3072
g82
I3
ssg83
g3066
sg76
(lp3073
S'Jackson'
p3074
asbasbasbag69
(g85
g71
NtRp3075
(dp3076
g74
(dp3077
sg83
g3027
sg76
(lp3078
g69
(g90
g71
NtRp3079
(dp3080
g74
(dp3081
g94
g95
ssg83
g3075
sg76
(lp3082
S'id'
p3083
asbag69
(g90
g71
NtRp3084
(dp3085
g74
(dp3086
g101
g102
ssg83
g3075
sg76
(lp3087
S':'
asbag69
(g90
g71
NtRp3088
(dp3089
g74
(dp3090
sg83
g3075
sg76
(lp3091
g69
(g70
g71
NtRp3092
(dp3093
g74
(dp3094
g82
I3
ssg83
g3088
sg76
(lp3095
S'3'
asbasbasbag69
(g85
g71
NtRp3096
(dp3097
g74
(dp3098
sg83
g3027
sg76
(lp3099
g69
(g90
g71
NtRp3100
(dp3101
g74
(dp3102
g94
g95
ssg83
g3096
sg76
(lp3103
S'last_name'
p3104
asbag69
(g90
g71
NtRp3105
(dp3106
g74
(dp3107
g101
g102
ssg83
g3096
sg76
(lp3108
S':'
asbag69
(g90
g71
NtRp3109
(dp3110
g74
(dp3111
sg83
g3096
sg76
(lp3112
g69
(g70
g71
NtRp3113
(dp3114
g74
(dp3115
g82
I3
ssg83
g3109
sg76
(lp3116
S'Melling'
p3117
asbasbasbag69
(g85
g71
NtRp3118
(dp3119
g74
(dp3120
sg83
g3027
sg76
(lp3121
g69
(g90
g71
NtRp3122
(dp3123
g74
(dp3124
g94
g95
ssg83
g3118
sg76
(lp3125
S'password'
p3126
asbag69
(g90
g71
NtRp3127
(dp3128
g74
(dp3129
g101
g102
ssg83
g3118
sg76
(lp3130
S':'
asbag69
(g90
g71
NtRp3131
(dp3132
g74
(dp3133
sg83
g3118
sg76
(lp3134
g69
(g70
g71
NtRp3135
(dp3136
g74
(dp3137
g82
I3
ssg83
g3131
sg76
(lp3138
S'98beeff9538312abb10179bd86e0a5a2'
p3139
asbasbasbag69
(g85
g71
NtRp3140
(dp3141
g74
(dp3142
sg83
g3027
sg76
(lp3143
g69
(g90
g71
NtRp3144
(dp3145
g74
(dp3146
g94
g95
ssg83
g3140
sg76
(lp3147
S'registration_id'
p3148
asbag69
(g90
g71
NtRp3149
(dp3150
g74
(dp3151
g101
g102
ssg83
g3140
sg76
(lp3152
S':'
asbag69
(g90
g71
NtRp3153
(dp3154
g74
(dp3155
sg83
g3140
sg76
(lp3156
g69
(g70
g71
NtRp3157
(dp3158
g74
(dp3159
g82
I3
ssg83
g3153
sg76
(lp3160
S''
asbasbasbag69
(g85
g71
NtRp3161
(dp3162
g74
(dp3163
sg83
g3027
sg76
(lp3164
g69
(g90
g71
NtRp3165
(dp3166
g74
(dp3167
g94
g95
ssg83
g3161
sg76
(lp3168
S'registration_key'
p3169
asbag69
(g90
g71
NtRp3170
(dp3171
g74
(dp3172
g101
g102
ssg83
g3161
sg76
(lp3173
S':'
asbag69
(g90
g71
NtRp3174
(dp3175
g74
(dp3176
sg83
g3161
sg76
(lp3177
g69
(g70
g71
NtRp3178
(dp3179
g74
(dp3180
g82
I3
ssg83
g3174
sg76
(lp3181
S''
asbasbasbag69
(g85
g71
NtRp3182
(dp3183
g74
(dp3184
sg83
g3027
sg76
(lp3185
g69
(g90
g71
NtRp3186
(dp3187
g74
(dp3188
g94
g95
ssg83
g3182
sg76
(lp3189
S'reset_password_key'
p3190
asbag69
(g90
g71
NtRp3191
(dp3192
g74
(dp3193
g101
g102
ssg83
g3182
sg76
(lp3194
S':'
asbag69
(g90
g71
NtRp3195
(dp3196
g74
(dp3197
sg83
g3182
sg76
(lp3198
g69
(g70
g71
NtRp3199
(dp3200
g74
(dp3201
g82
I3
ssg83
g3195
sg76
(lp3202
S'1327597193-2590f763-191b-469c-bc47-fc293ee83460'
p3203
asbasbasbasbasbasbasbasbasbasbasbasbasbsS'etype'
p3204
S"<type 'exceptions.SyntaxError'>"
p3205
sS'date'
p3206
S'Sun Feb 12 19:36:00 2012'
p3207
sS'response'
p3208
g69
(g70
g71
NtRp3209
(dp3210
g74
(dp3211
sg76
(lp3212
g69
(g78
g71
NtRp3213
(dp3214
g74
(dp3215
g82
I5
ssg83
Nsg76
(lp3216
g69
(g85
g71
NtRp3217
(dp3218
g74
(dp3219
sg83
g3213
sg76
(lp3220
g69
(g90
g71
NtRp3221
(dp3222
g74
(dp3223
g94
g95
ssg83
g3217
sg76
(lp3224
g167
asbag69
(g90
g71
NtRp3225
(dp3226
g74
(dp3227
g101
g102
ssg83
g3217
sg76
(lp3228
S':'
asbag69
(g90
g71
NtRp3229
(dp3230
g74
(dp3231
sg83
g3217
sg76
(lp3232
g69
(g70
g71
NtRp3233
(dp3234
g74
(dp3235
g82
I5
ssg83
g3229
sg76
(lp3236
S'<cStringIO.StringO object at 0x000000000758F618>'
p3237
asbasbasbag69
(g85
g71
NtRp3238
(dp3239
g74
(dp3240
sg83
g3213
sg76
(lp3241
g69
(g90
g71
NtRp3242
(dp3243
g74
(dp3244
g94
g95
ssg83
g3238
sg76
(lp3245
g233
asbag69
(g90
g71
NtRp3246
(dp3247
g74
(dp3248
g101
g102
ssg83
g3238
sg76
(lp3249
S':'
asbag69
(g90
g71
NtRp3250
(dp3251
g74
(dp3252
sg83
g3238
sg76
(lp3253
g69
(g70
g71
NtRp3254
(dp3255
g74
(dp3256
g82
I5
ssg83
g3250
sg76
(lp3257
g69
(g78
g71
NtRp3258
(dp3259
g74
(dp3260
g82
I4
ssg83
Nsg76
(lp3261
g69
(g85
g71
NtRp3262
(dp3263
g74
(dp3264
sg83
g3258
sg76
(lp3265
g69
(g90
g71
NtRp3266
(dp3267
g74
(dp3268
g94
g95
ssg83
g3262
sg76
(lp3269
S'session_id_welcome'
p3270
asbag69
(g90
g71
NtRp3271
(dp3272
g74
(dp3273
g101
g102
ssg83
g3262
sg76
(lp3274
S':'
asbag69
(g90
g71
NtRp3275
(dp3276
g74
(dp3277
sg83
g3262
sg76
(lp3278
g69
(g70
g71
NtRp3279
(dp3280
g74
(dp3281
g82
I4
ssg83
g3275
sg76
(lp3282
g69
(g78
g71
NtRp3283
(dp3284
g74
(dp3285
g82
I3
ssg83
Nsg76
(lp3286
g69
(g85
g71
NtRp3287
(dp3288
g74
(dp3289
sg83
g3283
sg76
(lp3290
g69
(g90
g71
NtRp3291
(dp3292
g74
(dp3293
g94
g95
ssg83
g3287
sg76
(lp3294
g283
asbag69
(g90
g71
NtRp3295
(dp3296
g74
(dp3297
g101
g102
ssg83
g3287
sg76
(lp3298
S':'
asbag69
(g90
g71
NtRp3299
(dp3300
g74
(dp3301
sg83
g3287
sg76
(lp3302
g69
(g70
g71
NtRp3303
(dp3304
g74
(dp3305
g82
I3
ssg83
g3299
sg76
(lp3306
S''
asbasbasbag69
(g85
g71
NtRp3307
(dp3308
g74
(dp3309
sg83
g3283
sg76
(lp3310
g69
(g90
g71
NtRp3311
(dp3312
g74
(dp3313
g94
g95
ssg83
g3307
sg76
(lp3314
g304
asbag69
(g90
g71
NtRp3315
(dp3316
g74
(dp3317
g101
g102
ssg83
g3307
sg76
(lp3318
S':'
asbag69
(g90
g71
NtRp3319
(dp3320
g74
(dp3321
sg83
g3307
sg76
(lp3322
g69
(g70
g71
NtRp3323
(dp3324
g74
(dp3325
g82
I3
ssg83
g3319
sg76
(lp3326
S''
asbasbasbag69
(g85
g71
NtRp3327
(dp3328
g74
(dp3329
sg83
g3283
sg76
(lp3330
g69
(g90
g71
NtRp3331
(dp3332
g74
(dp3333
g94
g95
ssg83
g3327
sg76
(lp3334
g325
asbag69
(g90
g71
NtRp3335
(dp3336
g74
(dp3337
g101
g102
ssg83
g3327
sg76
(lp3338
S':'
asbag69
(g90
g71
NtRp3339
(dp3340
g74
(dp3341
sg83
g3327
sg76
(lp3342
g69
(g70
g71
NtRp3343
(dp3344
g74
(dp3345
g82
I3
ssg83
g3339
sg76
(lp3346
S''
asbasbasbag69
(g85
g71
NtRp3347
(dp3348
g74
(dp3349
sg83
g3283
sg76
(lp3350
g69
(g90
g71
NtRp3351
(dp3352
g74
(dp3353
g94
g95
ssg83
g3347
sg76
(lp3354
g346
asbag69
(g90
g71
NtRp3355
(dp3356
g74
(dp3357
g101
g102
ssg83
g3347
sg76
(lp3358
S':'
asbag69
(g90
g71
NtRp3359
(dp3360
g74
(dp3361
sg83
g3347
sg76
(lp3362
g69
(g70
g71
NtRp3363
(dp3364
g74
(dp3365
g82
I3
ssg83
g3359
sg76
(lp3366
S''
asbasbasbag69
(g85
g71
NtRp3367
(dp3368
g74
(dp3369
sg83
g3283
sg76
(lp3370
g69
(g90
g71
NtRp3371
(dp3372
g74
(dp3373
g94
g95
ssg83
g3367
sg76
(lp3374
g367
asbag69
(g90
g71
NtRp3375
(dp3376
g74
(dp3377
g101
g102
ssg83
g3367
sg76
(lp3378
S':'
asbag69
(g90
g71
NtRp3379
(dp3380
g74
(dp3381
sg83
g3367
sg76
(lp3382
g69
(g70
g71
NtRp3383
(dp3384
g74
(dp3385
g82
I3
ssg83
g3379
sg76
(lp3386
S''
asbasbasbag69
(g85
g71
NtRp3387
(dp3388
g74
(dp3389
sg83
g3283
sg76
(lp3390
g69
(g90
g71
NtRp3391
(dp3392
g74
(dp3393
g94
g95
ssg83
g3387
sg76
(lp3394
g388
asbag69
(g90
g71
NtRp3395
(dp3396
g74
(dp3397
g101
g102
ssg83
g3387
sg76
(lp3398
S':'
asbag69
(g90
g71
NtRp3399
(dp3400
g74
(dp3401
sg83
g3387
sg76
(lp3402
g69
(g70
g71
NtRp3403
(dp3404
g74
(dp3405
g82
I3
ssg83
g3399
sg76
(lp3406
S'/'
asbasbasbag69
(g85
g71
NtRp3407
(dp3408
g74
(dp3409
sg83
g3283
sg76
(lp3410
g69
(g90
g71
NtRp3411
(dp3412
g74
(dp3413
g94
g95
ssg83
g3407
sg76
(lp3414
g409
asbag69
(g90
g71
NtRp3415
(dp3416
g74
(dp3417
g101
g102
ssg83
g3407
sg76
(lp3418
S':'
asbag69
(g90
g71
NtRp3419
(dp3420
g74
(dp3421
sg83
g3407
sg76
(lp3422
g69
(g70
g71
NtRp3423
(dp3424
g74
(dp3425
g82
I3
ssg83
g3419
sg76
(lp3426
S''
asbasbasbag69
(g85
g71
NtRp3427
(dp3428
g74
(dp3429
sg83
g3283
sg76
(lp3430
g69
(g90
g71
NtRp3431
(dp3432
g74
(dp3433
g94
g95
ssg83
g3427
sg76
(lp3434
g430
asbag69
(g90
g71
NtRp3435
(dp3436
g74
(dp3437
g101
g102
ssg83
g3427
sg76
(lp3438
S':'
asbag69
(g90
g71
NtRp3439
(dp3440
g74
(dp3441
sg83
g3427
sg76
(lp3442
g69
(g70
g71
NtRp3443
(dp3444
g74
(dp3445
g82
I3
ssg83
g3439
sg76
(lp3446
S''
asbasbasbasbasbasbasbasbasbasbasbag69
(g85
g71
NtRp3447
(dp3448
g74
(dp3449
sg83
g3213
sg76
(lp3450
g69
(g90
g71
NtRp3451
(dp3452
g74
(dp3453
g94
g95
ssg83
g3447
sg76
(lp3454
S'files'
p3455
asbag69
(g90
g71
NtRp3456
(dp3457
g74
(dp3458
g101
g102
ssg83
g3447
sg76
(lp3459
S':'
asbag69
(g90
g71
NtRp3460
(dp3461
g74
(dp3462
sg83
g3447
sg76
(lp3463
g69
(g70
g71
NtRp3464
(dp3465
g74
(dp3466
g82
I5
ssg83
g3460
sg76
(lp3467
g69
(g78
g71
NtRp3468
(dp3469
g74
(dp3470
g82
I4
ssg83
Nsg76
(lp3471
sbasbasbasbag69
(g85
g71
NtRp3472
(dp3473
g74
(dp3474
sg83
g3213
sg76
(lp3475
g69
(g90
g71
NtRp3476
(dp3477
g74
(dp3478
g94
g95
ssg83
g3472
sg76
(lp3479
S'flash'
p3480
asbag69
(g90
g71
NtRp3481
(dp3482
g74
(dp3483
g101
g102
ssg83
g3472
sg76
(lp3484
S':'
asbag69
(g90
g71
NtRp3485
(dp3486
g74
(dp3487
sg83
g3472
sg76
(lp3488
g69
(g70
g71
NtRp3489
(dp3490
g74
(dp3491
g82
I5
ssg83
g3485
sg76
(lp3492
S''
asbasbasbag69
(g85
g71
NtRp3493
(dp3494
g74
(dp3495
sg83
g3213
sg76
(lp3496
g69
(g90
g71
NtRp3497
(dp3498
g74
(dp3499
g94
g95
ssg83
g3493
sg76
(lp3500
S'generic_patterns'
p3501
asbag69
(g90
g71
NtRp3502
(dp3503
g74
(dp3504
g101
g102
ssg83
g3493
sg76
(lp3505
S':'
asbag69
(g90
g71
NtRp3506
(dp3507
g74
(dp3508
sg83
g3493
sg76
(lp3509
g69
(g70
g71
NtRp3510
(dp3511
g74
(dp3512
g82
I5
ssg83
g3506
sg76
(lp3513
g69
(g78
g71
NtRp3514
(dp3515
g74
(dp3516
g82
I4
ssg83
Nsg76
(lp3517
g69
(g85
g71
NtRp3518
(dp3519
g74
(dp3520
sg83
g3514
sg76
(lp3521
g69
(g90
g71
NtRp3522
(dp3523
g74
(dp3524
sg83
g3518
sg76
(lp3525
g69
(g70
g71
NtRp3526
(dp3527
g74
(dp3528
g82
I4
ssg83
g3522
sg76
(lp3529
S'*'
asbasbasbasbasbasbasbag69
(g85
g71
NtRp3530
(dp3531
g74
(dp3532
sg83
g3213
sg76
(lp3533
g69
(g90
g71
NtRp3534
(dp3535
g74
(dp3536
g94
g95
ssg83
g3530
sg76
(lp3537
S'headers'
p3538
asbag69
(g90
g71
NtRp3539
(dp3540
g74
(dp3541
g101
g102
ssg83
g3530
sg76
(lp3542
S':'
asbag69
(g90
g71
NtRp3543
(dp3544
g74
(dp3545
sg83
g3530
sg76
(lp3546
g69
(g70
g71
NtRp3547
(dp3548
g74
(dp3549
g82
I5
ssg83
g3543
sg76
(lp3550
g69
(g78
g71
NtRp3551
(dp3552
g74
(dp3553
g82
I4
ssg83
Nsg76
(lp3554
g69
(g85
g71
NtRp3555
(dp3556
g74
(dp3557
sg83
g3551
sg76
(lp3558
g69
(g90
g71
NtRp3559
(dp3560
g74
(dp3561
g94
g95
ssg83
g3555
sg76
(lp3562
S'Cache-Control'
p3563
asbag69
(g90
g71
NtRp3564
(dp3565
g74
(dp3566
g101
g102
ssg83
g3555
sg76
(lp3567
S':'
asbag69
(g90
g71
NtRp3568
(dp3569
g74
(dp3570
sg83
g3555
sg76
(lp3571
g69
(g70
g71
NtRp3572
(dp3573
g74
(dp3574
g82
I4
ssg83
g3568
sg76
(lp3575
S'no-store, no-cache, must-revalidate, post-check=0, pre-check=0'
p3576
asbasbasbag69
(g85
g71
NtRp3577
(dp3578
g74
(dp3579
sg83
g3551
sg76
(lp3580
g69
(g90
g71
NtRp3581
(dp3582
g74
(dp3583
g94
g95
ssg83
g3577
sg76
(lp3584
S'Content-Type'
p3585
asbag69
(g90
g71
NtRp3586
(dp3587
g74
(dp3588
g101
g102
ssg83
g3577
sg76
(lp3589
S':'
asbag69
(g90
g71
NtRp3590
(dp3591
g74
(dp3592
sg83
g3577
sg76
(lp3593
g69
(g70
g71
NtRp3594
(dp3595
g74
(dp3596
g82
I4
ssg83
g3590
sg76
(lp3597
S'text/html; charset=utf-8'
p3598
asbasbasbag69
(g85
g71
NtRp3599
(dp3600
g74
(dp3601
sg83
g3551
sg76
(lp3602
g69
(g90
g71
NtRp3603
(dp3604
g74
(dp3605
g94
g95
ssg83
g3599
sg76
(lp3606
S'Expires'
p3607
asbag69
(g90
g71
NtRp3608
(dp3609
g74
(dp3610
g101
g102
ssg83
g3599
sg76
(lp3611
S':'
asbag69
(g90
g71
NtRp3612
(dp3613
g74
(dp3614
sg83
g3599
sg76
(lp3615
g69
(g70
g71
NtRp3616
(dp3617
g74
(dp3618
g82
I4
ssg83
g3612
sg76
(lp3619
S'Mon, 13 Feb 2012 00:36:00 GMT'
p3620
asbasbasbag69
(g85
g71
NtRp3621
(dp3622
g74
(dp3623
sg83
g3551
sg76
(lp3624
g69
(g90
g71
NtRp3625
(dp3626
g74
(dp3627
g94
g95
ssg83
g3621
sg76
(lp3628
S'Pragma'
p3629
asbag69
(g90
g71
NtRp3630
(dp3631
g74
(dp3632
g101
g102
ssg83
g3621
sg76
(lp3633
S':'
asbag69
(g90
g71
NtRp3634
(dp3635
g74
(dp3636
sg83
g3621
sg76
(lp3637
g69
(g70
g71
NtRp3638
(dp3639
g74
(dp3640
g82
I4
ssg83
g3634
sg76
(lp3641
S'no-cache'
p3642
asbasbasbag69
(g85
g71
NtRp3643
(dp3644
g74
(dp3645
sg83
g3551
sg76
(lp3646
g69
(g90
g71
NtRp3647
(dp3648
g74
(dp3649
g94
g95
ssg83
g3643
sg76
(lp3650
S'X-Powered-By'
p3651
asbag69
(g90
g71
NtRp3652
(dp3653
g74
(dp3654
g101
g102
ssg83
g3643
sg76
(lp3655
S':'
asbag69
(g90
g71
NtRp3656
(dp3657
g74
(dp3658
sg83
g3643
sg76
(lp3659
g69
(g70
g71
NtRp3660
(dp3661
g74
(dp3662
g82
I4
ssg83
g3656
sg76
(lp3663
S'web2py'
p3664
asbasbasbasbasbasbasbag69
(g85
g71
NtRp3665
(dp3666
g74
(dp3667
sg83
g3213
sg76
(lp3668
g69
(g90
g71
NtRp3669
(dp3670
g74
(dp3671
g94
g95
ssg83
g3665
sg76
(lp3672
S'menu'
p3673
asbag69
(g90
g71
NtRp3674
(dp3675
g74
(dp3676
g101
g102
ssg83
g3665
sg76
(lp3677
S':'
asbag69
(g90
g71
NtRp3678
(dp3679
g74
(dp3680
sg83
g3665
sg76
(lp3681
g69
(g70
g71
NtRp3682
(dp3683
g74
(dp3684
g82
I5
ssg83
g3678
sg76
(lp3685
g69
(g78
g71
NtRp3686
(dp3687
g74
(dp3688
g82
I4
ssg83
Nsg76
(lp3689
g69
(g85
g71
NtRp3690
(dp3691
g74
(dp3692
sg83
g3686
sg76
(lp3693
g69
(g90
g71
NtRp3694
(dp3695
g74
(dp3696
sg83
g3690
sg76
(lp3697
g69
(g70
g71
NtRp3698
(dp3699
g74
(dp3700
g82
I4
ssg83
g3694
sg76
(lp3701
g69
(g78
g71
NtRp3702
(dp3703
g74
(dp3704
g82
I3
ssg83
Nsg76
(lp3705
g69
(g85
g71
NtRp3706
(dp3707
g74
(dp3708
sg83
g3702
sg76
(lp3709
g69
(g90
g71
NtRp3710
(dp3711
g74
(dp3712
sg83
g3706
sg76
(lp3713
g69
(g70
g71
NtRp3714
(dp3715
g74
(dp3716
g82
I3
ssg83
g3710
sg76
(lp3717
cgluon.languages
lazyT_unpickle
p3718
(S't\x04\x00\x00\x00Home'
tRp3719
asbasbasbag69
(g85
g71
NtRp3720
(dp3721
g74
(dp3722
sg83
g3702
sg76
(lp3723
g69
(g90
g71
NtRp3724
(dp3725
g74
(dp3726
sg83
g3720
sg76
(lp3727
g69
(g70
g71
NtRp3728
(dp3729
g74
(dp3730
g82
I3
ssg83
g3724
sg76
(lp3731
g112
asbasbasbag69
(g85
g71
NtRp3732
(dp3733
g74
(dp3734
sg83
g3702
sg76
(lp3735
g69
(g90
g71
NtRp3736
(dp3737
g74
(dp3738
sg83
g3732
sg76
(lp3739
g69
(g70
g71
NtRp3740
(dp3741
g74
(dp3742
g82
I3
ssg83
g3736
sg76
(lp3743
S'/welcome/default/index'
p3744
asbasbasbag69
(g85
g71
NtRp3745
(dp3746
g74
(dp3747
sg83
g3702
sg76
(lp3748
g69
(g90
g71
NtRp3749
(dp3750
g74
(dp3751
sg83
g3745
sg76
(lp3752
g69
(g70
g71
NtRp3753
(dp3754
g74
(dp3755
g82
I3
ssg83
g3749
sg76
(lp3756
g69
(g78
g71
NtRp3757
(dp3758
g74
(dp3759
g82
I2
ssg83
Nsg76
(lp3760
sbasbasbasbasbasbasbasbasbasbasbasbag69
(g85
g71
NtRp3761
(dp3762
g74
(dp3763
sg83
g3213
sg76
(lp3764
g69
(g90
g71
NtRp3765
(dp3766
g74
(dp3767
g94
g95
ssg83
g3761
sg76
(lp3768
S'meta'
p3769
asbag69
(g90
g71
NtRp3770
(dp3771
g74
(dp3772
g101
g102
ssg83
g3761
sg76
(lp3773
S':'
asbag69
(g90
g71
NtRp3774
(dp3775
g74
(dp3776
sg83
g3761
sg76
(lp3777
g69
(g70
g71
NtRp3778
(dp3779
g74
(dp3780
g82
I5
ssg83
g3774
sg76
(lp3781
g69
(g78
g71
NtRp3782
(dp3783
g74
(dp3784
g82
I4
ssg83
Nsg76
(lp3785
g69
(g85
g71
NtRp3786
(dp3787
g74
(dp3788
sg83
g3782
sg76
(lp3789
g69
(g90
g71
NtRp3790
(dp3791
g74
(dp3792
g94
g95
ssg83
g3786
sg76
(lp3793
S'author'
p3794
asbag69
(g90
g71
NtRp3795
(dp3796
g74
(dp3797
g101
g102
ssg83
g3786
sg76
(lp3798
S':'
asbag69
(g90
g71
NtRp3799
(dp3800
g74
(dp3801
sg83
g3786
sg76
(lp3802
g69
(g70
g71
NtRp3803
(dp3804
g74
(dp3805
g82
I4
ssg83
g3799
sg76
(lp3806
S'Your Name <you@example.com>'
p3807
asbasbasbag69
(g85
g71
NtRp3808
(dp3809
g74
(dp3810
sg83
g3782
sg76
(lp3811
g69
(g90
g71
NtRp3812
(dp3813
g74
(dp3814
g94
g95
ssg83
g3808
sg76
(lp3815
S'copyright'
p3816
asbag69
(g90
g71
NtRp3817
(dp3818
g74
(dp3819
g101
g102
ssg83
g3808
sg76
(lp3820
S':'
asbag69
(g90
g71
NtRp3821
(dp3822
g74
(dp3823
sg83
g3808
sg76
(lp3824
g69
(g70
g71
NtRp3825
(dp3826
g74
(dp3827
g82
I4
ssg83
g3821
sg76
(lp3828
S'Copyright 2011'
p3829
asbasbasbag69
(g85
g71
NtRp3830
(dp3831
g74
(dp3832
sg83
g3782
sg76
(lp3833
g69
(g90
g71
NtRp3834
(dp3835
g74
(dp3836
g94
g95
ssg83
g3830
sg76
(lp3837
S'description'
p3838
asbag69
(g90
g71
NtRp3839
(dp3840
g74
(dp3841
g101
g102
ssg83
g3830
sg76
(lp3842
S':'
asbag69
(g90
g71
NtRp3843
(dp3844
g74
(dp3845
sg83
g3830
sg76
(lp3846
g69
(g70
g71
NtRp3847
(dp3848
g74
(dp3849
g82
I4
ssg83
g3843
sg76
(lp3850
S'a cool new app'
p3851
asbasbasbag69
(g85
g71
NtRp3852
(dp3853
g74
(dp3854
sg83
g3782
sg76
(lp3855
g69
(g90
g71
NtRp3856
(dp3857
g74
(dp3858
g94
g95
ssg83
g3852
sg76
(lp3859
S'generator'
p3860
asbag69
(g90
g71
NtRp3861
(dp3862
g74
(dp3863
g101
g102
ssg83
g3852
sg76
(lp3864
S':'
asbag69
(g90
g71
NtRp3865
(dp3866
g74
(dp3867
sg83
g3852
sg76
(lp3868
g69
(g70
g71
NtRp3869
(dp3870
g74
(dp3871
g82
I4
ssg83
g3865
sg76
(lp3872
S'Web2py Web Framework'
p3873
asbasbasbag69
(g85
g71
NtRp3874
(dp3875
g74
(dp3876
sg83
g3782
sg76
(lp3877
g69
(g90
g71
NtRp3878
(dp3879
g74
(dp3880
g94
g95
ssg83
g3874
sg76
(lp3881
S'keywords'
p3882
asbag69
(g90
g71
NtRp3883
(dp3884
g74
(dp3885
g101
g102
ssg83
g3874
sg76
(lp3886
S':'
asbag69
(g90
g71
NtRp3887
(dp3888
g74
(dp3889
sg83
g3874
sg76
(lp3890
g69
(g70
g71
NtRp3891
(dp3892
g74
(dp3893
g82
I4
ssg83
g3887
sg76
(lp3894
S'web2py, python, framework'
p3895
asbasbasbasbasbasbasbag69
(g85
g71
NtRp3896
(dp3897
g74
(dp3898
sg83
g3213
sg76
(lp3899
g69
(g90
g71
NtRp3900
(dp3901
g74
(dp3902
g94
g95
ssg83
g3896
sg76
(lp3903
S'postprocessing'
p3904
asbag69
(g90
g71
NtRp3905
(dp3906
g74
(dp3907
g101
g102
ssg83
g3896
sg76
(lp3908
S':'
asbag69
(g90
g71
NtRp3909
(dp3910
g74
(dp3911
sg83
g3896
sg76
(lp3912
g69
(g70
g71
NtRp3913
(dp3914
g74
(dp3915
g82
I5
ssg83
g3909
sg76
(lp3916
g69
(g78
g71
NtRp3917
(dp3918
g74
(dp3919
g82
I4
ssg83
Nsg76
(lp3920
sbasbasbasbag69
(g85
g71
NtRp3921
(dp3922
g74
(dp3923
sg83
g3213
sg76
(lp3924
g69
(g90
g71
NtRp3925
(dp3926
g74
(dp3927
g94
g95
ssg83
g3921
sg76
(lp3928
S'session_file'
p3929
asbag69
(g90
g71
NtRp3930
(dp3931
g74
(dp3932
g101
g102
ssg83
g3921
sg76
(lp3933
S':'
asbag69
(g90
g71
NtRp3934
(dp3935
g74
(dp3936
sg83
g3921
sg76
(lp3937
g69
(g70
g71
NtRp3938
(dp3939
g74
(dp3940
g82
I5
ssg83
g3934
sg76
(lp3941
S"<open file 'C:\\Users\\mellinja\\Documents\\SC2Tracker\\SC2TourneyTracker\\web2py\\applications\\welcome\\sessions\\127.0.0.1-96bc28df-1611-4f37-8178-a0bc78308874', mode 'rb+' at 0x00000000070DCF60>"
p3942
asbasbasbag69
(g85
g71
NtRp3943
(dp3944
g74
(dp3945
sg83
g3213
sg76
(lp3946
g69
(g90
g71
NtRp3947
(dp3948
g74
(dp3949
g94
g95
ssg83
g3943
sg76
(lp3950
S'session_filename'
p3951
asbag69
(g90
g71
NtRp3952
(dp3953
g74
(dp3954
g101
g102
ssg83
g3943
sg76
(lp3955
S':'
asbag69
(g90
g71
NtRp3956
(dp3957
g74
(dp3958
sg83
g3943
sg76
(lp3959
g69
(g70
g71
NtRp3960
(dp3961
g74
(dp3962
g82
I5
ssg83
g3956
sg76
(lp3963
S'C:\\Users\\mellinja\\Documents\\SC2Tracker\\SC2TourneyTracker\\web2py\\applications\\welcome\\sessions\\127.0.0.1-96bc28df-1611-4f37-8178-a0bc78308874'
p3964
asbasbasbag69
(g85
g71
NtRp3965
(dp3966
g74
(dp3967
sg83
g3213
sg76
(lp3968
g69
(g90
g71
NtRp3969
(dp3970
g74
(dp3971
g94
g95
ssg83
g3965
sg76
(lp3972
S'session_id'
p3973
asbag69
(g90
g71
NtRp3974
(dp3975
g74
(dp3976
g101
g102
ssg83
g3965
sg76
(lp3977
S':'
asbag69
(g90
g71
NtRp3978
(dp3979
g74
(dp3980
sg83
g3965
sg76
(lp3981
g69
(g70
g71
NtRp3982
(dp3983
g74
(dp3984
g82
I5
ssg83
g3978
sg76
(lp3985
S'127.0.0.1-96bc28df-1611-4f37-8178-a0bc78308874'
p3986
asbasbasbag69
(g85
g71
NtRp3987
(dp3988
g74
(dp3989
sg83
g3213
sg76
(lp3990
g69
(g90
g71
NtRp3991
(dp3992
g74
(dp3993
g94
g95
ssg83
g3987
sg76
(lp3994
S'session_id_name'
p3995
asbag69
(g90
g71
NtRp3996
(dp3997
g74
(dp3998
g101
g102
ssg83
g3987
sg76
(lp3999
S':'
asbag69
(g90
g71
NtRp4000
(dp4001
g74
(dp4002
sg83
g3987
sg76
(lp4003
g69
(g70
g71
NtRp4004
(dp4005
g74
(dp4006
g82
I5
ssg83
g4000
sg76
(lp4007
g3270
asbasbasbag69
(g85
g71
NtRp4008
(dp4009
g74
(dp4010
sg83
g3213
sg76
(lp4011
g69
(g90
g71
NtRp4012
(dp4013
g74
(dp4014
g94
g95
ssg83
g4008
sg76
(lp4015
S'session_locked'
p4016
asbag69
(g90
g71
NtRp4017
(dp4018
g74
(dp4019
g101
g102
ssg83
g4008
sg76
(lp4020
S':'
asbag69
(g90
g71
NtRp4021
(dp4022
g74
(dp4023
sg83
g4008
sg76
(lp4024
g69
(g70
g71
NtRp4025
(dp4026
g74
(dp4027
g82
I5
ssg83
g4021
sg76
(lp4028
g1505
asbasbasbag69
(g85
g71
NtRp4029
(dp4030
g74
(dp4031
sg83
g3213
sg76
(lp4032
g69
(g90
g71
NtRp4033
(dp4034
g74
(dp4035
g94
g95
ssg83
g4029
sg76
(lp4036
S'session_new'
p4037
asbag69
(g90
g71
NtRp4038
(dp4039
g74
(dp4040
g101
g102
ssg83
g4029
sg76
(lp4041
S':'
asbag69
(g90
g71
NtRp4042
(dp4043
g74
(dp4044
sg83
g4029
sg76
(lp4045
g69
(g70
g71
NtRp4046
(dp4047
g74
(dp4048
g82
I5
ssg83
g4042
sg76
(lp4049
g112
asbasbasbag69
(g85
g71
NtRp4050
(dp4051
g74
(dp4052
sg83
g3213
sg76
(lp4053
g69
(g90
g71
NtRp4054
(dp4055
g74
(dp4056
g94
g95
ssg83
g4050
sg76
(lp4057
S'status'
p4058
asbag69
(g90
g71
NtRp4059
(dp4060
g74
(dp4061
g101
g102
ssg83
g4050
sg76
(lp4062
S':'
asbag69
(g90
g71
NtRp4063
(dp4064
g74
(dp4065
sg83
g4050
sg76
(lp4066
g69
(g70
g71
NtRp4067
(dp4068
g74
(dp4069
g82
I5
ssg83
g4063
sg76
(lp4070
S'200'
p4071
asbasbasbag69
(g85
g71
NtRp4072
(dp4073
g74
(dp4074
sg83
g3213
sg76
(lp4075
g69
(g90
g71
NtRp4076
(dp4077
g74
(dp4078
g94
g95
ssg83
g4072
sg76
(lp4079
S'subtitle'
p4080
asbag69
(g90
g71
NtRp4081
(dp4082
g74
(dp4083
g101
g102
ssg83
g4072
sg76
(lp4084
S':'
asbag69
(g90
g71
NtRp4085
(dp4086
g74
(dp4087
sg83
g4072
sg76
(lp4088
g69
(g70
g71
NtRp4089
(dp4090
g74
(dp4091
g82
I5
ssg83
g4085
sg76
(lp4092
g3718
(S's2\x00\x00\x00Starcraft II Custom Tournament Tracker Version 0.1'
tRp4093
asbasbasbag69
(g85
g71
NtRp4094
(dp4095
g74
(dp4096
sg83
g3213
sg76
(lp4097
g69
(g90
g71
NtRp4098
(dp4099
g74
(dp4100
g94
g95
ssg83
g4094
sg76
(lp4101
S'title'
p4102
asbag69
(g90
g71
NtRp4103
(dp4104
g74
(dp4105
g101
g102
ssg83
g4094
sg76
(lp4106
S':'
asbag69
(g90
g71
NtRp4107
(dp4108
g74
(dp4109
sg83
g4094
sg76
(lp4110
g69
(g70
g71
NtRp4111
(dp4112
g74
(dp4113
g82
I5
ssg83
g4107
sg76
(lp4114
S'SC2CTT v0.1'
p4115
asbasbasbag69
(g85
g71
NtRp4116
(dp4117
g74
(dp4118
sg83
g3213
sg76
(lp4119
g69
(g90
g71
NtRp4120
(dp4121
g74
(dp4122
g94
g95
ssg83
g4116
sg76
(lp4123
g2169
asbag69
(g90
g71
NtRp4124
(dp4125
g74
(dp4126
g101
g102
ssg83
g4116
sg76
(lp4127
S':'
asbag69
(g90
g71
NtRp4128
(dp4129
g74
(dp4130
sg83
g4116
sg76
(lp4131
g69
(g70
g71
NtRp4132
(dp4133
g74
(dp4134
g82
I5
ssg83
g4128
sg76
(lp4135
g2182
asbasbasbag69
(g85
g71
NtRp4136
(dp4137
g74
(dp4138
sg83
g3213
sg76
(lp4139
g69
(g90
g71
NtRp4140
(dp4141
g74
(dp4142
g94
g95
ssg83
g4136
sg76
(lp4143
S'view'
p4144
asbag69
(g90
g71
NtRp4145
(dp4146
g74
(dp4147
g101
g102
ssg83
g4136
sg76
(lp4148
S':'
asbag69
(g90
g71
NtRp4149
(dp4150
g74
(dp4151
sg83
g4136
sg76
(lp4152
g69
(g70
g71
NtRp4153
(dp4154
g74
(dp4155
g82
I5
ssg83
g4149
sg76
(lp4156
S'game/index.html'
p4157
asbasbasbasbasbsS'locals'
p4158
(dp4159
g4
S"r'C:\\Users\\mellinja\\Documents\\SC2Tracker\\SC2Tourne...web2py\\applications\\welcome\\views\\game/index.html'"
p4160
sg6
S'r"response.write(\'<!DOCTYPE html>\\r\\n<!-- pauliris...write(\'\\r\\n</body>\\r\\n</html>\\r\\n\', escape=False)"'
p4161
sssS'traceback'
p4162
S'Traceback (most recent call last):\n  File "C:\\Users\\mellinja\\Documents\\SC2Tracker\\SC2TourneyTracker\\web2py\\gluon\\restricted.py", line 203, in restricted\n    ccode = compile2(code,layer)\n  File "C:\\Users\\mellinja\\Documents\\SC2Tracker\\SC2TourneyTracker\\web2py\\gluon\\restricted.py", line 189, in compile2\n    return compile(code.rstrip().replace(\'\\r\\n\',\'\\n\')+\'\\n\', layer, \'exec\')\n  File "C:\\Users\\mellinja\\Documents\\SC2Tracker\\SC2TourneyTracker\\web2py\\applications\\welcome\\views\\game/index.html", line 79\n    response.write(\'</td></tr></li>\', escape=False)\n           ^\nSyntaxError: invalid syntax\n'
p4163
s.