(dp1
S'output'
p2
S'<class \'pyodbc.ProgrammingError\'> (\'42000\', "[42000] [Microsoft][ODBC SQL Server Driver][SQL Server]Incorrect syntax near \',\'. (102) (SQLExecDirectW)")'
p3
sS'layer'
p4
S'C:\\Users\\mellinja\\Documents\\SC2Tracker\\SC2Tracker2\\web2py\\applications\\welcome\\views\\map_pool/show.html'
p5
sS'code'
p6
S'response.write(\'<!DOCTYPE html>\\r\\n<!-- paulirish.com/2008/conditional-stylesheets-vs-css-hacks-answer-neither/ -->\\r\\n<!--[if lt IE 7]><html class="ie ie6 ie-lte9 ie-lte8 ie-lte7 no-js" lang="\', escape=False)\nresponse.write(T.accepted_language or \'en\')\nresponse.write(\'"> <![endif]-->\\r\\n<!--[if IE 7]><html class="ie ie7 ie-lte9 ie-lte8 ie-lte7 no-js" lang="\', escape=False)\nresponse.write(T.accepted_language or \'en\')\nresponse.write(\'"> <![endif]-->\\r\\n<!--[if IE 8]><html class="ie ie8 ie-lte9 ie-lte8 no-js" lang="\', escape=False)\nresponse.write(T.accepted_language or \'en\')\nresponse.write(\'"> <![endif]-->\\r\\n<!--[if IE 9]><html class="ie9 ie-lte9 no-js" lang="\', escape=False)\nresponse.write(T.accepted_language or \'en\')\nresponse.write(\'"> <![endif]-->\\r\\n<!--[if (gt IE 9)|!(IE)]><!--> <html class="no-js" lang="\', escape=False)\nresponse.write(T.accepted_language or \'en\')\nresponse.write(\'"> <!--<![endif]-->\\r\\n<head>\\r\\n  <meta charset="utf-8" />\\r\\n  <!-- www.phpied.com/conditional-comments-block-downloads/ -->\\r\\n  <!-- Always force latest IE rendering engine\\r\\n       (even in intranet) & Chrome Frame\\r\\n       Remove this if you use the .htaccess -->\\r\\n  <!--[if IE]>\\r\\n    <meta http-equiv="X-UA-Compatible" content="IE=edge\', escape=False)\nresponse.write(not request.is_local and \',chrome=1\' or \'\')\nresponse.write(\'">\\r\\n  <![endif]-->\\r\\n  \\r\\n  <title>\', escape=False)\nresponse.write(response.title or request.application)\nresponse.write(\'</title>\\r\\n  \\r\\n  <!-- http://dev.w3.org/html5/markup/meta.name.html -->\\r\\n  <meta name="application-name" content="\', escape=False)\nresponse.write(request.application)\nresponse.write(\'" />\\r\\n  \\r\\n  <!-- Speaking of Google, don\\\'t forget to set your site up:\\r\\n       http://google.com/webmasters -->\\r\\n  <meta name="google-site-verification" content="" />\\r\\n\\r\\n  <!--  Mobile Viewport Fix\\r\\n      j.mp/mobileviewport & davidbcalhoun.com/2010/viewport-metatag\\r\\n      device-width: Occupy full width of the screen in its current orientation\\r\\n      initial-scale = 1.0 retains dimensions instead of zooming out if page height > device height\\r\\n      user-scalable = yes allows the user to zoom in -->\\r\\n  <meta name="viewport" content="width=device-width, initial-scale=1.0, user-scalable=yes">\\r\\n  \\r\\n  <!-- Place favicon.ico and apple-touch-icon.png in the root of your domain and delete these references -->\\r\\n  <link rel="shortcut icon" href="\', escape=False)\nresponse.write(URL(\'static\',\'favicon.ico\'))\nresponse.write(\'" type="image/x-icon">\\r\\n  <link rel="apple-touch-icon" href="\', escape=False)\nresponse.write(URL(\'static\',\'favicon.png\'))\nresponse.write(\'">\\r\\n\\r\\n  <!-- All JavaScript at the bottom, except for Modernizr which enables \\r\\n       HTML5 elements & feature detects -->\\r\\n  <script src="\', escape=False)\nresponse.write(URL(\'static\',\'js/modernizr.custom.js\'))\nresponse.write(\'"></script>  \\r\\n\\r\\n  <!-- include stylesheets -->\\r\\n  \', escape=False)\nresponse.files.append(URL(\'static\',\'css/skeleton.css\'))\nresponse.files.append(URL(\'static\',\'css/web2py.css\'))\nresponse.files.append(URL(\'static\',\'css/superfish.css\'))\nresponse.files.append(URL(\'static\',\'js/superfish.js\'))\nresponse.write(\'\\r\\n\\r\\n  \', escape=False)\nresponse.write(\'<script type="text/javascript"><!--\\r\\n    // These variables are used by the web2py_ajax_init function in web2py_ajax.js (which is loaded below).\\r\\n    var w2p_ajax_confirm_message = "\', escape=False)\nresponse.write(T(\'Are you sure you want to delete this object?\'))\nresponse.write(\'";\\r\\n    var w2p_ajax_date_format = "\', escape=False)\nresponse.write(T(\'%Y-%m-%d\'))\nresponse.write(\'";\\r\\n    var w2p_ajax_datetime_format = "\', escape=False)\nresponse.write(T(\'%Y-%m-%d %H:%M:%S\'))\nresponse.write(\'";\\r\\n    //--></script>\\r\\n\', escape=False)\nresponse.files.insert(0,URL(\'static\',\'js/jquery.js\'))\nresponse.files.insert(1,URL(\'static\',\'css/calendar.css\'))\nresponse.files.insert(2,URL(\'static\',\'js/calendar.js\'))\nresponse.files.insert(3,URL(\'static\',\'js/web2py.js\'))\nresponse.include_meta()\nresponse.include_files()\nresponse.write(\'\\r\\n\', escape=False)\nresponse.write(\'\\r\\n\\r\\n  <script type="text/javascript">\\r\\n    jQuery(function(){ jQuery(\\\'ul.sf-menu\\\').supersubs({minWidth:12,maxWidth:30,extraWidth:3}).superfish(); });\\r\\n  </script>\\r\\n\\r\\n  \', escape=False)\n# using sidebars need to know what sidebar you want to use\nleft_sidebar_enabled = globals().get(\'left_sidebar_enabled\',False)\nright_sidebar_enabled = globals().get(\'right_sidebar_enabled\',False)\nmiddle_columns = {0:\'sixteen\',1:\'twelve\',2:\'eight\'}[\n(left_sidebar_enabled and 1 or 0)+(right_sidebar_enabled and 1 or 0)]\nresponse.write(\'\\r\\n\\r\\n  <!-- uncomment here to load jquery-ui\\r\\n  <link rel="stylesheet" href="http://ajax.googleapis.com/ajax/libs/jqueryui/1.8.16/themes/base/jquery-ui.css" type="text/css" media="all" />\\r\\n  <script src="http://ajax.googleapis.com/ajax/libs/jqueryui/1.8.16/jquery-ui.min.js" type="text/javascript"></script>\\r\\n  uncomment to load jquery-ui //-->\\r\\n</head>\\r\\n<body>\\r\\n  <div class="wrapper"><!-- for sticky footer -->\\r\\n  \\r\\n    <div class="topbar">\\r\\n      <div class="container">    \\r\\n        <div class="sixteen columns">\\r\\n          <div id="navbar">\', escape=False)\nresponse.write(\'auth\' in globals() and auth.navbar(separators=(\' \',\' | \',\'\')))\nresponse.write(\'</div>\\r\\n          \', escape=False)\nis_mobile=request.user_agent().is_mobile\nresponse.write(\'\\r\\n          <div id="menu">\', escape=False)\nresponse.write(MENU(response.menu, _class=\'mobile-menu\' if is_mobile else \'sf-menu\',mobile=is_mobile))\nresponse.write(\'\\r\\n          </div>\\r\\n        </div>\\r\\n      </div>\\r\\n    </div><!-- topbar -->\\r\\n    \\r\\n    <div class="flash">\', escape=False)\nresponse.write(response.flash or \'\')\nresponse.write(\'</div>\\r\\n    \\r\\n    <div class="header">\\r\\n      <div class="container">         \\r\\n        <div class="sixteen columns">\\r\\n          <h1 class="remove-bottom" style="margin-top: .5em;">\\r\\n          \', escape=False)\nresponse.write(response.title or request.application)\nresponse.write(\'\\r\\n          </h1>\\r\\n          <h5>\', escape=False)\nresponse.write(response.subtitle or \'\')\nresponse.write(\'</h5>\\r\\n        </div>\\r\\n        <div class="sixteen columns">\\r\\n          <div class="statusbar clearfix">\\r\\n\\t\\t  \\r\\n            \', escape=False)\nresponse.write(\'\\r\\n            <div class="breadcrumbs">\', escape=False)\nresponse.write(request.function.replace(\'_\', \' \').title())\nresponse.write(\'</div>\\r\\n            \', escape=False)\nresponse.write(\'\\r\\n\\t\\t  \\r\\n            <!-- AddToAny BEGIN -->\\r\\n            <!--<div style="float:right; padding-top: .25em;" class="a2a_kit a2a_default_style">\\r\\n            <a class="a2a_dd" href="http://www.addtoany.com/share_save">Share</a></div>\\r\\n            <script type="text/javascript" src="http://static.addtoany.com/menu/page.js"></script>-->\\r\\n            <!-- AddToAny END -->\\r\\n          </div>\\r\\n        </div>\\r\\n      </div>\\r\\n    </div>\\r\\n\\r\\n    <div class="main">\\r\\n      <div class="container">                 \\r\\n        \', escape=False)\nif left_sidebar_enabled:\n    response.write(\'\\r\\n        <div class="four columns left-sidebar">\\r\\n          \', escape=False)\n    response.write(\'\\r\\n          <h3>Left Sidebar</h3>\\r\\n          <p></p>\\r\\n          \', escape=False)\n    response.write(\'\\r\\n        </div>\\r\\n        \', escape=False)\n    pass\nresponse.write(\'\\r\\n        \\r\\n        <div class="\', escape=False)\nresponse.write(middle_columns)\nresponse.write(\' columns center">\\r\\n          \', escape=False)\nresponse.write(\'\\r\\n          \', escape=False)\nresponse.write(\'\\r\\n<h2>\', escape=False)\nresponse.write(T("These are the maps in " + db.executesql("SELECT Name from Map_pool WHERE ID = " + str(poolID))[0][0]))\nresponse.write(\'</h2>\\r\\n<table>\\r\\n\', escape=False)\nfor mapID in mapIDs:\n    response.write(\'<tr><td>\', escape=False)\n    db.executesql("SELECT Name FROM Map WHERE ID = " + str(mapID))\n    response.write(\'</td><td>\', escape=False)\n    db.executesql("SELECT Type FROM Map WHERE ID = " + str(mapID))\n    response.write(\'</td></tr>\', escape=False)\n    pass\nresponse.write(\'\\r\\n</table>\\r\\n\', escape=False)\nresponse.write(\'\\r\\n          \', escape=False)\nresponse.write(\'\\r\\n        </div>\\r\\n        \\r\\n        \', escape=False)\nif right_sidebar_enabled:\n    response.write(\'\\r\\n        <div class="four columns">\\r\\n          \', escape=False)\n    response.write(\'\\r\\n          <h3>Right Sidebar</h3>\\r\\n          <p></p>\\r\\n          \', escape=False)\n    response.write(\'\\r\\n        </div>    \\r\\n        \', escape=False)\n    pass\nresponse.write(\'\\r\\n        \\r\\n      </div><!-- container -->\\r\\n    </div><!-- main -->\\r\\n    \\r\\n    <div class="push"></div>\\r\\n  </div><!-- wrapper -->\\r\\n\\r\\n  <div class="footer">\\r\\n    <div class="container">    \\r\\n      <div class="sixteen columns">\\r\\n        \', escape=False)\nresponse.write(\' <!-- this is default footer -->\\r\\n        <div class="footer-content clearfix">\\r\\n          <div class="copyright">\\r\\n\\t\\t\\t  \', escape=False)\nresponse.write(T(\'Copyright\'))\nresponse.write(\' &#169; 2012 <br />\\r\\n\\t\\t\\t  Kyle Cheung, Simon Liang, Jackson Melling\\r\\n\\t\\t  </div>\\r\\n          <div style="float: right;">\\r\\n            <a href="http://www.web2py.com/">\\r\\n            <img style="padding-bottom: 0;" src="\', escape=False)\nresponse.write(URL(\'static\',\'images/poweredby.png\'))\nresponse.write(\'"/>\\r\\n            </a>\\r\\n          </div>\\r\\n        </div>\\r\\n        \', escape=False)\nresponse.write(\' \\r\\n      </div>\\r\\n    </div><!-- container -->\\r\\n  </div><!-- footer -->\\r\\n  \\r\\n  <!--[if lt IE 7 ]>\\r\\n    <script src="\', escape=False)\nresponse.write(URL(\'static\',\'js/dd_belatedpng.js\'))\nresponse.write(\'"></script>\\r\\n    <script> DD_belatedPNG.fix(\\\'img, .png_bg\\\'); //fix any <img> or .png_bg background-images </script>\\r\\n    <![endif]-->\\r\\n  \', escape=False)\nif response.google_analytics_id:\n    response.write(\'<script type="text/javascript"> var _gaq = _gaq || []; _gaq.push([\\\'_setAccount\\\', \\\'\', escape=False)\n    response.write(response.google_analytics_id)\n    response.write("\']); _gaq.push([\'_trackPageview\']); (function() { var ga = document.createElement(\'script\'); ga.type = \'text/javascript\'; ga.async = true; ga.src = (\'https:\' == document.location.protocol ? \'https://ssl\' : \'http://www\') + \'.google-analytics.com/ga.js\'; var s = document.getElementsByTagName(\'script\')[0]; s.parentNode.insertBefore(ga, s); })(); </script> ", escape=False)\n    pass\nresponse.write(\'\\r\\n</body>\\r\\n</html>\\r\\n\', escape=False)'
p7
sS'snapshot'
p8
(dp9
S'exception'
p10
(dp11
S'__module__'
p12
S"'pyodbc'"
p13
sS'__getslice__'
p14
S"<method-wrapper '__getslice__' of ProgrammingError object>"
p15
sS'__str__'
p16
S"<method-wrapper '__str__' of ProgrammingError object>"
p17
sS'__reduce__'
p18
S'<built-in method __reduce__ of ProgrammingError object>'
p19
sS'__dict__'
p20
S'{}'
p21
sS'__sizeof__'
p22
S'<built-in method __sizeof__ of ProgrammingError object>'
p23
sS'__weakref__'
p24
S'None'
p25
sS'__init__'
p26
S"<method-wrapper '__init__' of ProgrammingError object>"
p27
sS'__setattr__'
p28
S"<method-wrapper '__setattr__' of ProgrammingError object>"
p29
sS'__reduce_ex__'
p30
S'<built-in method __reduce_ex__ of ProgrammingError object>'
p31
sS'__new__'
p32
S'<built-in method __new__ of type object>'
p33
sS'__format__'
p34
S'<built-in method __format__ of ProgrammingError object>'
p35
sS'__class__'
p36
S"<class 'pyodbc.ProgrammingError'>"
p37
sS'__doc__'
p38
S"'Exception raised for programming errors, e.g. ta...ement, wrong number of parameters\\nspecified, etc.'"
p39
sS'__getitem__'
p40
S"<method-wrapper '__getitem__' of ProgrammingError object>"
p41
sS'__setstate__'
p42
S'<built-in method __setstate__ of ProgrammingError object>'
p43
sS'__getattribute__'
p44
S"<method-wrapper '__getattribute__' of ProgrammingError object>"
p45
sS'args'
p46
S'(\'42000\', "[42000] [Microsoft][ODBC SQL Server Driver][SQL ...Incorrect syntax near \',\'. (102) (SQLExecDirectW)")'
p47
sS'__subclasshook__'
p48
S'<built-in method __subclasshook__ of type object>'
p49
sS'__unicode__'
p50
S'<built-in method __unicode__ of ProgrammingError object>'
p51
sS'__delattr__'
p52
S"<method-wrapper '__delattr__' of ProgrammingError object>"
p53
sS'__repr__'
p54
S"<method-wrapper '__repr__' of ProgrammingError object>"
p55
sS'__hash__'
p56
S"<method-wrapper '__hash__' of ProgrammingError object>"
p57
ssS'evalue'
p58
S'(\'42000\', "[42000] [Microsoft][ODBC SQL Server Driver][SQL Server]Incorrect syntax near \',\'. (102) (SQLExecDirectW)")'
p59
sS'request'
p60
ccopy_reg
_reconstructor
p61
(cgluon.html
BEAUTIFY
p62
c__builtin__
object
p63
NtRp64
(dp65
S'attributes'
p66
(dp67
sS'components'
p68
(lp69
g61
(cgluon.html
TABLE
p70
g63
NtRp71
(dp72
g66
(dp73
S'level'
p74
I5
ssS'parent'
p75
Nsg68
(lp76
g61
(cgluon.html
TR
p77
g63
NtRp78
(dp79
g66
(dp80
sg75
g71
sg68
(lp81
g61
(cgluon.html
TD
p82
g63
NtRp83
(dp84
g66
(dp85
S'_style'
p86
S'font-weight:bold;vertical-align:top'
p87
ssg75
g78
sg68
(lp88
S'ajax'
p89
asbag61
(g82
g63
NtRp90
(dp91
g66
(dp92
S'_valign'
p93
S'top'
p94
ssg75
g78
sg68
(lp95
S':'
asbag61
(g82
g63
NtRp96
(dp97
g66
(dp98
sg75
g78
sg68
(lp99
g61
(g62
g63
NtRp100
(dp101
g66
(dp102
g74
I5
ssg75
g96
sg68
(lp103
S'False'
p104
asbasbasbag61
(g77
g63
NtRp105
(dp106
g66
(dp107
sg75
g71
sg68
(lp108
g61
(g82
g63
NtRp109
(dp110
g66
(dp111
g86
g87
ssg75
g105
sg68
(lp112
S'application'
p113
asbag61
(g82
g63
NtRp114
(dp115
g66
(dp116
g93
g94
ssg75
g105
sg68
(lp117
S':'
asbag61
(g82
g63
NtRp118
(dp119
g66
(dp120
sg75
g105
sg68
(lp121
g61
(g62
g63
NtRp122
(dp123
g66
(dp124
g74
I5
ssg75
g118
sg68
(lp125
S'welcome'
p126
asbasbasbag61
(g77
g63
NtRp127
(dp128
g66
(dp129
sg75
g71
sg68
(lp130
g61
(g82
g63
NtRp131
(dp132
g66
(dp133
g86
g87
ssg75
g127
sg68
(lp134
g46
asbag61
(g82
g63
NtRp135
(dp136
g66
(dp137
g93
g94
ssg75
g127
sg68
(lp138
S':'
asbag61
(g82
g63
NtRp139
(dp140
g66
(dp141
sg75
g127
sg68
(lp142
g61
(g62
g63
NtRp143
(dp144
g66
(dp145
g74
I5
ssg75
g139
sg68
(lp146
g61
(g70
g63
NtRp147
(dp148
g66
(dp149
g74
I4
ssg75
Nsg68
(lp150
g61
(g77
g63
NtRp151
(dp152
g66
(dp153
sg75
g147
sg68
(lp154
g61
(g82
g63
NtRp155
(dp156
g66
(dp157
sg75
g151
sg68
(lp158
g61
(g62
g63
NtRp159
(dp160
g66
(dp161
g74
I4
ssg75
g155
sg68
(lp162
S'1'
asbasbasbasbasbasbasbag61
(g77
g63
NtRp163
(dp164
g66
(dp165
sg75
g71
sg68
(lp166
g61
(g82
g63
NtRp167
(dp168
g66
(dp169
g86
g87
ssg75
g163
sg68
(lp170
S'body'
p171
asbag61
(g82
g63
NtRp172
(dp173
g66
(dp174
g93
g94
ssg75
g163
sg68
(lp175
S':'
asbag61
(g82
g63
NtRp176
(dp177
g66
(dp178
sg75
g163
sg68
(lp179
g61
(g62
g63
NtRp180
(dp181
g66
(dp182
g74
I5
ssg75
g176
sg68
(lp183
S'<cStringIO.StringO object at 0x00000000087D7618>'
p184
asbasbasbag61
(g77
g63
NtRp185
(dp186
g66
(dp187
sg75
g71
sg68
(lp188
g61
(g82
g63
NtRp189
(dp190
g66
(dp191
g86
g87
ssg75
g185
sg68
(lp192
S'client'
p193
asbag61
(g82
g63
NtRp194
(dp195
g66
(dp196
g93
g94
ssg75
g185
sg68
(lp197
S':'
asbag61
(g82
g63
NtRp198
(dp199
g66
(dp200
sg75
g185
sg68
(lp201
g61
(g62
g63
NtRp202
(dp203
g66
(dp204
g74
I5
ssg75
g198
sg68
(lp205
S'127.0.0.1'
p206
asbasbasbag61
(g77
g63
NtRp207
(dp208
g66
(dp209
sg75
g71
sg68
(lp210
g61
(g82
g63
NtRp211
(dp212
g66
(dp213
g86
g87
ssg75
g207
sg68
(lp214
S'controller'
p215
asbag61
(g82
g63
NtRp216
(dp217
g66
(dp218
g93
g94
ssg75
g207
sg68
(lp219
S':'
asbag61
(g82
g63
NtRp220
(dp221
g66
(dp222
sg75
g207
sg68
(lp223
g61
(g62
g63
NtRp224
(dp225
g66
(dp226
g74
I5
ssg75
g220
sg68
(lp227
S'map_pool'
p228
asbasbasbag61
(g77
g63
NtRp229
(dp230
g66
(dp231
sg75
g71
sg68
(lp232
g61
(g82
g63
NtRp233
(dp234
g66
(dp235
g86
g87
ssg75
g229
sg68
(lp236
S'cookies'
p237
asbag61
(g82
g63
NtRp238
(dp239
g66
(dp240
g93
g94
ssg75
g229
sg68
(lp241
S':'
asbag61
(g82
g63
NtRp242
(dp243
g66
(dp244
sg75
g229
sg68
(lp245
g61
(g62
g63
NtRp246
(dp247
g66
(dp248
g74
I5
ssg75
g242
sg68
(lp249
g61
(g70
g63
NtRp250
(dp251
g66
(dp252
g74
I4
ssg75
Nsg68
(lp253
g61
(g77
g63
NtRp254
(dp255
g66
(dp256
sg75
g250
sg68
(lp257
g61
(g82
g63
NtRp258
(dp259
g66
(dp260
g86
g87
ssg75
g254
sg68
(lp261
S'session_id_admin'
p262
asbag61
(g82
g63
NtRp263
(dp264
g66
(dp265
g93
g94
ssg75
g254
sg68
(lp266
S':'
asbag61
(g82
g63
NtRp267
(dp268
g66
(dp269
sg75
g254
sg68
(lp270
g61
(g62
g63
NtRp271
(dp272
g66
(dp273
g74
I4
ssg75
g267
sg68
(lp274
g61
(g70
g63
NtRp275
(dp276
g66
(dp277
g74
I3
ssg75
Nsg68
(lp278
g61
(g77
g63
NtRp279
(dp280
g66
(dp281
sg75
g275
sg68
(lp282
g61
(g82
g63
NtRp283
(dp284
g66
(dp285
g86
g87
ssg75
g279
sg68
(lp286
S'comment'
p287
asbag61
(g82
g63
NtRp288
(dp289
g66
(dp290
g93
g94
ssg75
g279
sg68
(lp291
S':'
asbag61
(g82
g63
NtRp292
(dp293
g66
(dp294
sg75
g279
sg68
(lp295
g61
(g62
g63
NtRp296
(dp297
g66
(dp298
g74
I3
ssg75
g292
sg68
(lp299
S''
asbasbasbag61
(g77
g63
NtRp300
(dp301
g66
(dp302
sg75
g275
sg68
(lp303
g61
(g82
g63
NtRp304
(dp305
g66
(dp306
g86
g87
ssg75
g300
sg68
(lp307
S'domain'
p308
asbag61
(g82
g63
NtRp309
(dp310
g66
(dp311
g93
g94
ssg75
g300
sg68
(lp312
S':'
asbag61
(g82
g63
NtRp313
(dp314
g66
(dp315
sg75
g300
sg68
(lp316
g61
(g62
g63
NtRp317
(dp318
g66
(dp319
g74
I3
ssg75
g313
sg68
(lp320
S''
asbasbasbag61
(g77
g63
NtRp321
(dp322
g66
(dp323
sg75
g275
sg68
(lp324
g61
(g82
g63
NtRp325
(dp326
g66
(dp327
g86
g87
ssg75
g321
sg68
(lp328
S'expires'
p329
asbag61
(g82
g63
NtRp330
(dp331
g66
(dp332
g93
g94
ssg75
g321
sg68
(lp333
S':'
asbag61
(g82
g63
NtRp334
(dp335
g66
(dp336
sg75
g321
sg68
(lp337
g61
(g62
g63
NtRp338
(dp339
g66
(dp340
g74
I3
ssg75
g334
sg68
(lp341
S''
asbasbasbag61
(g77
g63
NtRp342
(dp343
g66
(dp344
sg75
g275
sg68
(lp345
g61
(g82
g63
NtRp346
(dp347
g66
(dp348
g86
g87
ssg75
g342
sg68
(lp349
S'httponly'
p350
asbag61
(g82
g63
NtRp351
(dp352
g66
(dp353
g93
g94
ssg75
g342
sg68
(lp354
S':'
asbag61
(g82
g63
NtRp355
(dp356
g66
(dp357
sg75
g342
sg68
(lp358
g61
(g62
g63
NtRp359
(dp360
g66
(dp361
g74
I3
ssg75
g355
sg68
(lp362
S''
asbasbasbag61
(g77
g63
NtRp363
(dp364
g66
(dp365
sg75
g275
sg68
(lp366
g61
(g82
g63
NtRp367
(dp368
g66
(dp369
g86
g87
ssg75
g363
sg68
(lp370
S'max-age'
p371
asbag61
(g82
g63
NtRp372
(dp373
g66
(dp374
g93
g94
ssg75
g363
sg68
(lp375
S':'
asbag61
(g82
g63
NtRp376
(dp377
g66
(dp378
sg75
g363
sg68
(lp379
g61
(g62
g63
NtRp380
(dp381
g66
(dp382
g74
I3
ssg75
g376
sg68
(lp383
S''
asbasbasbag61
(g77
g63
NtRp384
(dp385
g66
(dp386
sg75
g275
sg68
(lp387
g61
(g82
g63
NtRp388
(dp389
g66
(dp390
g86
g87
ssg75
g384
sg68
(lp391
S'path'
p392
asbag61
(g82
g63
NtRp393
(dp394
g66
(dp395
g93
g94
ssg75
g384
sg68
(lp396
S':'
asbag61
(g82
g63
NtRp397
(dp398
g66
(dp399
sg75
g384
sg68
(lp400
g61
(g62
g63
NtRp401
(dp402
g66
(dp403
g74
I3
ssg75
g397
sg68
(lp404
S''
asbasbasbag61
(g77
g63
NtRp405
(dp406
g66
(dp407
sg75
g275
sg68
(lp408
g61
(g82
g63
NtRp409
(dp410
g66
(dp411
g86
g87
ssg75
g405
sg68
(lp412
S'secure'
p413
asbag61
(g82
g63
NtRp414
(dp415
g66
(dp416
g93
g94
ssg75
g405
sg68
(lp417
S':'
asbag61
(g82
g63
NtRp418
(dp419
g66
(dp420
sg75
g405
sg68
(lp421
g61
(g62
g63
NtRp422
(dp423
g66
(dp424
g74
I3
ssg75
g418
sg68
(lp425
S''
asbasbasbag61
(g77
g63
NtRp426
(dp427
g66
(dp428
sg75
g275
sg68
(lp429
g61
(g82
g63
NtRp430
(dp431
g66
(dp432
g86
g87
ssg75
g426
sg68
(lp433
S'version'
p434
asbag61
(g82
g63
NtRp435
(dp436
g66
(dp437
g93
g94
ssg75
g426
sg68
(lp438
S':'
asbag61
(g82
g63
NtRp439
(dp440
g66
(dp441
sg75
g426
sg68
(lp442
g61
(g62
g63
NtRp443
(dp444
g66
(dp445
g74
I3
ssg75
g439
sg68
(lp446
S''
asbasbasbasbasbasbasbag61
(g77
g63
NtRp447
(dp448
g66
(dp449
sg75
g250
sg68
(lp450
g61
(g82
g63
NtRp451
(dp452
g66
(dp453
g86
g87
ssg75
g447
sg68
(lp454
S'session_id_welcome'
p455
asbag61
(g82
g63
NtRp456
(dp457
g66
(dp458
g93
g94
ssg75
g447
sg68
(lp459
S':'
asbag61
(g82
g63
NtRp460
(dp461
g66
(dp462
sg75
g447
sg68
(lp463
g61
(g62
g63
NtRp464
(dp465
g66
(dp466
g74
I4
ssg75
g460
sg68
(lp467
g61
(g70
g63
NtRp468
(dp469
g66
(dp470
g74
I3
ssg75
Nsg68
(lp471
g61
(g77
g63
NtRp472
(dp473
g66
(dp474
sg75
g468
sg68
(lp475
g61
(g82
g63
NtRp476
(dp477
g66
(dp478
g86
g87
ssg75
g472
sg68
(lp479
g287
asbag61
(g82
g63
NtRp480
(dp481
g66
(dp482
g93
g94
ssg75
g472
sg68
(lp483
S':'
asbag61
(g82
g63
NtRp484
(dp485
g66
(dp486
sg75
g472
sg68
(lp487
g61
(g62
g63
NtRp488
(dp489
g66
(dp490
g74
I3
ssg75
g484
sg68
(lp491
S''
asbasbasbag61
(g77
g63
NtRp492
(dp493
g66
(dp494
sg75
g468
sg68
(lp495
g61
(g82
g63
NtRp496
(dp497
g66
(dp498
g86
g87
ssg75
g492
sg68
(lp499
g308
asbag61
(g82
g63
NtRp500
(dp501
g66
(dp502
g93
g94
ssg75
g492
sg68
(lp503
S':'
asbag61
(g82
g63
NtRp504
(dp505
g66
(dp506
sg75
g492
sg68
(lp507
g61
(g62
g63
NtRp508
(dp509
g66
(dp510
g74
I3
ssg75
g504
sg68
(lp511
S''
asbasbasbag61
(g77
g63
NtRp512
(dp513
g66
(dp514
sg75
g468
sg68
(lp515
g61
(g82
g63
NtRp516
(dp517
g66
(dp518
g86
g87
ssg75
g512
sg68
(lp519
g329
asbag61
(g82
g63
NtRp520
(dp521
g66
(dp522
g93
g94
ssg75
g512
sg68
(lp523
S':'
asbag61
(g82
g63
NtRp524
(dp525
g66
(dp526
sg75
g512
sg68
(lp527
g61
(g62
g63
NtRp528
(dp529
g66
(dp530
g74
I3
ssg75
g524
sg68
(lp531
S''
asbasbasbag61
(g77
g63
NtRp532
(dp533
g66
(dp534
sg75
g468
sg68
(lp535
g61
(g82
g63
NtRp536
(dp537
g66
(dp538
g86
g87
ssg75
g532
sg68
(lp539
g350
asbag61
(g82
g63
NtRp540
(dp541
g66
(dp542
g93
g94
ssg75
g532
sg68
(lp543
S':'
asbag61
(g82
g63
NtRp544
(dp545
g66
(dp546
sg75
g532
sg68
(lp547
g61
(g62
g63
NtRp548
(dp549
g66
(dp550
g74
I3
ssg75
g544
sg68
(lp551
S''
asbasbasbag61
(g77
g63
NtRp552
(dp553
g66
(dp554
sg75
g468
sg68
(lp555
g61
(g82
g63
NtRp556
(dp557
g66
(dp558
g86
g87
ssg75
g552
sg68
(lp559
g371
asbag61
(g82
g63
NtRp560
(dp561
g66
(dp562
g93
g94
ssg75
g552
sg68
(lp563
S':'
asbag61
(g82
g63
NtRp564
(dp565
g66
(dp566
sg75
g552
sg68
(lp567
g61
(g62
g63
NtRp568
(dp569
g66
(dp570
g74
I3
ssg75
g564
sg68
(lp571
S''
asbasbasbag61
(g77
g63
NtRp572
(dp573
g66
(dp574
sg75
g468
sg68
(lp575
g61
(g82
g63
NtRp576
(dp577
g66
(dp578
g86
g87
ssg75
g572
sg68
(lp579
g392
asbag61
(g82
g63
NtRp580
(dp581
g66
(dp582
g93
g94
ssg75
g572
sg68
(lp583
S':'
asbag61
(g82
g63
NtRp584
(dp585
g66
(dp586
sg75
g572
sg68
(lp587
g61
(g62
g63
NtRp588
(dp589
g66
(dp590
g74
I3
ssg75
g584
sg68
(lp591
S''
asbasbasbag61
(g77
g63
NtRp592
(dp593
g66
(dp594
sg75
g468
sg68
(lp595
g61
(g82
g63
NtRp596
(dp597
g66
(dp598
g86
g87
ssg75
g592
sg68
(lp599
g413
asbag61
(g82
g63
NtRp600
(dp601
g66
(dp602
g93
g94
ssg75
g592
sg68
(lp603
S':'
asbag61
(g82
g63
NtRp604
(dp605
g66
(dp606
sg75
g592
sg68
(lp607
g61
(g62
g63
NtRp608
(dp609
g66
(dp610
g74
I3
ssg75
g604
sg68
(lp611
S''
asbasbasbag61
(g77
g63
NtRp612
(dp613
g66
(dp614
sg75
g468
sg68
(lp615
g61
(g82
g63
NtRp616
(dp617
g66
(dp618
g86
g87
ssg75
g612
sg68
(lp619
g434
asbag61
(g82
g63
NtRp620
(dp621
g66
(dp622
g93
g94
ssg75
g612
sg68
(lp623
S':'
asbag61
(g82
g63
NtRp624
(dp625
g66
(dp626
sg75
g612
sg68
(lp627
g61
(g62
g63
NtRp628
(dp629
g66
(dp630
g74
I3
ssg75
g624
sg68
(lp631
S''
asbasbasbasbasbasbasbasbasbasbasbag61
(g77
g63
NtRp632
(dp633
g66
(dp634
sg75
g71
sg68
(lp635
g61
(g82
g63
NtRp636
(dp637
g66
(dp638
g86
g87
ssg75
g632
sg68
(lp639
S'env'
p640
asbag61
(g82
g63
NtRp641
(dp642
g66
(dp643
g93
g94
ssg75
g632
sg68
(lp644
S':'
asbag61
(g82
g63
NtRp645
(dp646
g66
(dp647
sg75
g632
sg68
(lp648
g61
(g62
g63
NtRp649
(dp650
g66
(dp651
g74
I5
ssg75
g645
sg68
(lp652
g61
(g70
g63
NtRp653
(dp654
g66
(dp655
g74
I4
ssg75
Nsg68
(lp656
g61
(g77
g63
NtRp657
(dp658
g66
(dp659
sg75
g653
sg68
(lp660
g61
(g82
g63
NtRp661
(dp662
g66
(dp663
g86
g87
ssg75
g657
sg68
(lp664
S'app_folders'
p665
asbag61
(g82
g63
NtRp666
(dp667
g66
(dp668
g93
g94
ssg75
g657
sg68
(lp669
S':'
asbag61
(g82
g63
NtRp670
(dp671
g66
(dp672
sg75
g657
sg68
(lp673
g61
(g62
g63
NtRp674
(dp675
g66
(dp676
g74
I4
ssg75
g670
sg68
(lp677
S"set(['C:\\\\Users\\\\mellinja\\\\Documents\\\\SC2Tracker\\\\SC2Tracker2\\\\web2py\\\\applications\\\\welcome\\\\', 'C:\\\\Users\\\\mellinja\\\\Documents\\\\SC2Tracker\\\\SC2Tracker2\\\\web2py\\\\applications\\\\admin\\\\'])"
p678
asbasbasbag61
(g77
g63
NtRp679
(dp680
g66
(dp681
sg75
g653
sg68
(lp682
g61
(g82
g63
NtRp683
(dp684
g66
(dp685
g86
g87
ssg75
g679
sg68
(lp686
S'applications_parent'
p687
asbag61
(g82
g63
NtRp688
(dp689
g66
(dp690
g93
g94
ssg75
g679
sg68
(lp691
S':'
asbag61
(g82
g63
NtRp692
(dp693
g66
(dp694
sg75
g679
sg68
(lp695
g61
(g62
g63
NtRp696
(dp697
g66
(dp698
g74
I4
ssg75
g692
sg68
(lp699
S'C:\\Users\\mellinja\\Documents\\SC2Tracker\\SC2Tracker2\\web2py'
p700
asbasbasbag61
(g77
g63
NtRp701
(dp702
g66
(dp703
sg75
g653
sg68
(lp704
g61
(g82
g63
NtRp705
(dp706
g66
(dp707
g86
g87
ssg75
g701
sg68
(lp708
S'cmd_args'
p709
asbag61
(g82
g63
NtRp710
(dp711
g66
(dp712
g93
g94
ssg75
g701
sg68
(lp713
S':'
asbag61
(g82
g63
NtRp714
(dp715
g66
(dp716
sg75
g701
sg68
(lp717
g61
(g62
g63
NtRp718
(dp719
g66
(dp720
g74
I4
ssg75
g714
sg68
(lp721
g61
(g70
g63
NtRp722
(dp723
g66
(dp724
g74
I3
ssg75
Nsg68
(lp725
sbasbasbasbag61
(g77
g63
NtRp726
(dp727
g66
(dp728
sg75
g653
sg68
(lp729
g61
(g82
g63
NtRp730
(dp731
g66
(dp732
g86
g87
ssg75
g726
sg68
(lp733
S'cmd_options'
p734
asbag61
(g82
g63
NtRp735
(dp736
g66
(dp737
g93
g94
ssg75
g726
sg68
(lp738
S':'
asbag61
(g82
g63
NtRp739
(dp740
g66
(dp741
sg75
g726
sg68
(lp742
g61
(g62
g63
NtRp743
(dp744
g66
(dp745
g74
I4
ssg75
g739
sg68
(lp746
S"<Values at 0x37e75c8: {'verbose': False, 'ip': '127.0.0.1', 'shutdown_timeout': 5, 'taskbar': False, 'nocron': False, 'pid_filename': 'httpserver.pid', 'maxthreads': None, 'softcron': False, 'server_name': 'mellinja-PC', 'bpython': False, 'nogui': False, 'port': 8000, 'extcron': False, 'debuglevel': 30, 'test': None, 'folder': 'C:\\\\Users\\\\mellinja\\\\Documents\\\\SC2Tracker\\\\SC2Tracker2\\\\web2py', 'config': '', 'import_models': False, 'winservice': '', 'shell': None, 'run': '', 'log_filename': 'httpserver.log', 'args': [''], 'socket_timeout': 1, 'ssl_ca_certificate': None, 'scheduler': None, 'profiler_filename': None, 'ssl_private_key': '', 'password': '<ask>', 'request_queue_size': 5, 'ssl_certificate': '', 'cronjob': False, 'numthreads': None, 'quiet': False, 'interfaces': None, 'minthreads': None, 'timeout': 10, 'plain': False, 'nobanner': False}>"
p747
asbasbasbag61
(g77
g63
NtRp748
(dp749
g66
(dp750
sg75
g653
sg68
(lp751
g61
(g82
g63
NtRp752
(dp753
g66
(dp754
g86
g87
ssg75
g748
sg68
(lp755
S'db_sessions'
p756
asbag61
(g82
g63
NtRp757
(dp758
g66
(dp759
g93
g94
ssg75
g748
sg68
(lp760
S':'
asbag61
(g82
g63
NtRp761
(dp762
g66
(dp763
sg75
g748
sg68
(lp764
g61
(g62
g63
NtRp765
(dp766
g66
(dp767
g74
I4
ssg75
g761
sg68
(lp768
S'set([])'
p769
asbasbasbag61
(g77
g63
NtRp770
(dp771
g66
(dp772
sg75
g653
sg68
(lp773
g61
(g82
g63
NtRp774
(dp775
g66
(dp776
g86
g87
ssg75
g770
sg68
(lp777
S'debugging'
p778
asbag61
(g82
g63
NtRp779
(dp780
g66
(dp781
g93
g94
ssg75
g770
sg68
(lp782
S':'
asbag61
(g82
g63
NtRp783
(dp784
g66
(dp785
sg75
g770
sg68
(lp786
g61
(g62
g63
NtRp787
(dp788
g66
(dp789
g74
I4
ssg75
g783
sg68
(lp790
g104
asbasbasbag61
(g77
g63
NtRp791
(dp792
g66
(dp793
sg75
g653
sg68
(lp794
g61
(g82
g63
NtRp795
(dp796
g66
(dp797
g86
g87
ssg75
g791
sg68
(lp798
S'gluon_parent'
p799
asbag61
(g82
g63
NtRp800
(dp801
g66
(dp802
g93
g94
ssg75
g791
sg68
(lp803
S':'
asbag61
(g82
g63
NtRp804
(dp805
g66
(dp806
sg75
g791
sg68
(lp807
g61
(g62
g63
NtRp808
(dp809
g66
(dp810
g74
I4
ssg75
g804
sg68
(lp811
S'C:\\Users\\mellinja\\Documents\\SC2Tracker\\SC2Tracker2\\web2py'
p812
asbasbasbag61
(g77
g63
NtRp813
(dp814
g66
(dp815
sg75
g653
sg68
(lp816
g61
(g82
g63
NtRp817
(dp818
g66
(dp819
g86
g87
ssg75
g813
sg68
(lp820
S'http_accept'
p821
asbag61
(g82
g63
NtRp822
(dp823
g66
(dp824
g93
g94
ssg75
g813
sg68
(lp825
S':'
asbag61
(g82
g63
NtRp826
(dp827
g66
(dp828
sg75
g813
sg68
(lp829
g61
(g62
g63
NtRp830
(dp831
g66
(dp832
g74
I4
ssg75
g826
sg68
(lp833
S'text/html,application/xhtml+xml,application/xml;q=0.9,*/*;q=0.8'
p834
asbasbasbag61
(g77
g63
NtRp835
(dp836
g66
(dp837
sg75
g653
sg68
(lp838
g61
(g82
g63
NtRp839
(dp840
g66
(dp841
g86
g87
ssg75
g835
sg68
(lp842
S'http_accept_charset'
p843
asbag61
(g82
g63
NtRp844
(dp845
g66
(dp846
g93
g94
ssg75
g835
sg68
(lp847
S':'
asbag61
(g82
g63
NtRp848
(dp849
g66
(dp850
sg75
g835
sg68
(lp851
g61
(g62
g63
NtRp852
(dp853
g66
(dp854
g74
I4
ssg75
g848
sg68
(lp855
S'ISO-8859-1,utf-8;q=0.7,*;q=0.3'
p856
asbasbasbag61
(g77
g63
NtRp857
(dp858
g66
(dp859
sg75
g653
sg68
(lp860
g61
(g82
g63
NtRp861
(dp862
g66
(dp863
g86
g87
ssg75
g857
sg68
(lp864
S'http_accept_encoding'
p865
asbag61
(g82
g63
NtRp866
(dp867
g66
(dp868
g93
g94
ssg75
g857
sg68
(lp869
S':'
asbag61
(g82
g63
NtRp870
(dp871
g66
(dp872
sg75
g857
sg68
(lp873
g61
(g62
g63
NtRp874
(dp875
g66
(dp876
g74
I4
ssg75
g870
sg68
(lp877
S'gzip,deflate,sdch'
p878
asbasbasbag61
(g77
g63
NtRp879
(dp880
g66
(dp881
sg75
g653
sg68
(lp882
g61
(g82
g63
NtRp883
(dp884
g66
(dp885
g86
g87
ssg75
g879
sg68
(lp886
S'http_accept_language'
p887
asbag61
(g82
g63
NtRp888
(dp889
g66
(dp890
g93
g94
ssg75
g879
sg68
(lp891
S':'
asbag61
(g82
g63
NtRp892
(dp893
g66
(dp894
sg75
g879
sg68
(lp895
g61
(g62
g63
NtRp896
(dp897
g66
(dp898
g74
I4
ssg75
g892
sg68
(lp899
S'en-US,en;q=0.8'
p900
asbasbasbag61
(g77
g63
NtRp901
(dp902
g66
(dp903
sg75
g653
sg68
(lp904
g61
(g82
g63
NtRp905
(dp906
g66
(dp907
g86
g87
ssg75
g901
sg68
(lp908
S'http_cache_control'
p909
asbag61
(g82
g63
NtRp910
(dp911
g66
(dp912
g93
g94
ssg75
g901
sg68
(lp913
S':'
asbag61
(g82
g63
NtRp914
(dp915
g66
(dp916
sg75
g901
sg68
(lp917
g61
(g62
g63
NtRp918
(dp919
g66
(dp920
g74
I4
ssg75
g914
sg68
(lp921
S'max-age=0'
p922
asbasbasbag61
(g77
g63
NtRp923
(dp924
g66
(dp925
sg75
g653
sg68
(lp926
g61
(g82
g63
NtRp927
(dp928
g66
(dp929
g86
g87
ssg75
g923
sg68
(lp930
S'http_connection'
p931
asbag61
(g82
g63
NtRp932
(dp933
g66
(dp934
g93
g94
ssg75
g923
sg68
(lp935
S':'
asbag61
(g82
g63
NtRp936
(dp937
g66
(dp938
sg75
g923
sg68
(lp939
g61
(g62
g63
NtRp940
(dp941
g66
(dp942
g74
I4
ssg75
g936
sg68
(lp943
S'keep-alive'
p944
asbasbasbag61
(g77
g63
NtRp945
(dp946
g66
(dp947
sg75
g653
sg68
(lp948
g61
(g82
g63
NtRp949
(dp950
g66
(dp951
g86
g87
ssg75
g945
sg68
(lp952
S'http_cookie'
p953
asbag61
(g82
g63
NtRp954
(dp955
g66
(dp956
g93
g94
ssg75
g945
sg68
(lp957
S':'
asbag61
(g82
g63
NtRp958
(dp959
g66
(dp960
sg75
g945
sg68
(lp961
g61
(g62
g63
NtRp962
(dp963
g66
(dp964
g74
I4
ssg75
g958
sg68
(lp965
S'session_id_welcome=127.0.0.1-971ad393-68d1-4a60-9355-2d6ae717a7af; session_id_admin=127.0.0.1-616ef34d-d9fb-4fe2-a512-9038b4a6dfe9'
p966
asbasbasbag61
(g77
g63
NtRp967
(dp968
g66
(dp969
sg75
g653
sg68
(lp970
g61
(g82
g63
NtRp971
(dp972
g66
(dp973
g86
g87
ssg75
g967
sg68
(lp974
S'http_host'
p975
asbag61
(g82
g63
NtRp976
(dp977
g66
(dp978
g93
g94
ssg75
g967
sg68
(lp979
S':'
asbag61
(g82
g63
NtRp980
(dp981
g66
(dp982
sg75
g967
sg68
(lp983
g61
(g62
g63
NtRp984
(dp985
g66
(dp986
g74
I4
ssg75
g980
sg68
(lp987
S'127.0.0.1:8000'
p988
asbasbasbag61
(g77
g63
NtRp989
(dp990
g66
(dp991
sg75
g653
sg68
(lp992
g61
(g82
g63
NtRp993
(dp994
g66
(dp995
g86
g87
ssg75
g989
sg68
(lp996
S'http_referer'
p997
asbag61
(g82
g63
NtRp998
(dp999
g66
(dp1000
g93
g94
ssg75
g989
sg68
(lp1001
S':'
asbag61
(g82
g63
NtRp1002
(dp1003
g66
(dp1004
sg75
g989
sg68
(lp1005
g61
(g62
g63
NtRp1006
(dp1007
g66
(dp1008
g74
I4
ssg75
g1002
sg68
(lp1009
S'http://127.0.0.1:8000/welcome/map_pool/index'
p1010
asbasbasbag61
(g77
g63
NtRp1011
(dp1012
g66
(dp1013
sg75
g653
sg68
(lp1014
g61
(g82
g63
NtRp1015
(dp1016
g66
(dp1017
g86
g87
ssg75
g1011
sg68
(lp1018
S'http_user_agent'
p1019
asbag61
(g82
g63
NtRp1020
(dp1021
g66
(dp1022
g93
g94
ssg75
g1011
sg68
(lp1023
S':'
asbag61
(g82
g63
NtRp1024
(dp1025
g66
(dp1026
sg75
g1011
sg68
(lp1027
g61
(g62
g63
NtRp1028
(dp1029
g66
(dp1030
g74
I4
ssg75
g1024
sg68
(lp1031
S'Mozilla/5.0 (Windows NT 6.1; WOW64) AppleWebKit/535.7 (KHTML, like Gecko) Chrome/16.0.912.77 Safari/535.7'
p1032
asbasbasbag61
(g77
g63
NtRp1033
(dp1034
g66
(dp1035
sg75
g653
sg68
(lp1036
g61
(g82
g63
NtRp1037
(dp1038
g66
(dp1039
g86
g87
ssg75
g1033
sg68
(lp1040
S'is_jython'
p1041
asbag61
(g82
g63
NtRp1042
(dp1043
g66
(dp1044
g93
g94
ssg75
g1033
sg68
(lp1045
S':'
asbag61
(g82
g63
NtRp1046
(dp1047
g66
(dp1048
sg75
g1033
sg68
(lp1049
g61
(g62
g63
NtRp1050
(dp1051
g66
(dp1052
g74
I4
ssg75
g1046
sg68
(lp1053
g104
asbasbasbag61
(g77
g63
NtRp1054
(dp1055
g66
(dp1056
sg75
g653
sg68
(lp1057
g61
(g82
g63
NtRp1058
(dp1059
g66
(dp1060
g86
g87
ssg75
g1054
sg68
(lp1061
S'is_pypy'
p1062
asbag61
(g82
g63
NtRp1063
(dp1064
g66
(dp1065
g93
g94
ssg75
g1054
sg68
(lp1066
S':'
asbag61
(g82
g63
NtRp1067
(dp1068
g66
(dp1069
sg75
g1054
sg68
(lp1070
g61
(g62
g63
NtRp1071
(dp1072
g66
(dp1073
g74
I4
ssg75
g1067
sg68
(lp1074
g104
asbasbasbag61
(g77
g63
NtRp1075
(dp1076
g66
(dp1077
sg75
g653
sg68
(lp1078
g61
(g82
g63
NtRp1079
(dp1080
g66
(dp1081
g86
g87
ssg75
g1075
sg68
(lp1082
S'path_info'
p1083
asbag61
(g82
g63
NtRp1084
(dp1085
g66
(dp1086
g93
g94
ssg75
g1075
sg68
(lp1087
S':'
asbag61
(g82
g63
NtRp1088
(dp1089
g66
(dp1090
sg75
g1075
sg68
(lp1091
g61
(g62
g63
NtRp1092
(dp1093
g66
(dp1094
g74
I4
ssg75
g1088
sg68
(lp1095
S'/welcome/map_pool/show/1'
p1096
asbasbasbag61
(g77
g63
NtRp1097
(dp1098
g66
(dp1099
sg75
g653
sg68
(lp1100
g61
(g82
g63
NtRp1101
(dp1102
g66
(dp1103
g86
g87
ssg75
g1097
sg68
(lp1104
S'query_string'
p1105
asbag61
(g82
g63
NtRp1106
(dp1107
g66
(dp1108
g93
g94
ssg75
g1097
sg68
(lp1109
S':'
asbag61
(g82
g63
NtRp1110
(dp1111
g66
(dp1112
sg75
g1097
sg68
(lp1113
g61
(g62
g63
NtRp1114
(dp1115
g66
(dp1116
g74
I4
ssg75
g1110
sg68
(lp1117
S''
asbasbasbag61
(g77
g63
NtRp1118
(dp1119
g66
(dp1120
sg75
g653
sg68
(lp1121
g61
(g82
g63
NtRp1122
(dp1123
g66
(dp1124
g86
g87
ssg75
g1118
sg68
(lp1125
S'remote_addr'
p1126
asbag61
(g82
g63
NtRp1127
(dp1128
g66
(dp1129
g93
g94
ssg75
g1118
sg68
(lp1130
S':'
asbag61
(g82
g63
NtRp1131
(dp1132
g66
(dp1133
sg75
g1118
sg68
(lp1134
g61
(g62
g63
NtRp1135
(dp1136
g66
(dp1137
g74
I4
ssg75
g1131
sg68
(lp1138
g206
asbasbasbag61
(g77
g63
NtRp1139
(dp1140
g66
(dp1141
sg75
g653
sg68
(lp1142
g61
(g82
g63
NtRp1143
(dp1144
g66
(dp1145
g86
g87
ssg75
g1139
sg68
(lp1146
S'remote_port'
p1147
asbag61
(g82
g63
NtRp1148
(dp1149
g66
(dp1150
g93
g94
ssg75
g1139
sg68
(lp1151
S':'
asbag61
(g82
g63
NtRp1152
(dp1153
g66
(dp1154
sg75
g1139
sg68
(lp1155
g61
(g62
g63
NtRp1156
(dp1157
g66
(dp1158
g74
I4
ssg75
g1152
sg68
(lp1159
S'57403'
p1160
asbasbasbag61
(g77
g63
NtRp1161
(dp1162
g66
(dp1163
sg75
g653
sg68
(lp1164
g61
(g82
g63
NtRp1165
(dp1166
g66
(dp1167
g86
g87
ssg75
g1161
sg68
(lp1168
S'request_method'
p1169
asbag61
(g82
g63
NtRp1170
(dp1171
g66
(dp1172
g93
g94
ssg75
g1161
sg68
(lp1173
S':'
asbag61
(g82
g63
NtRp1174
(dp1175
g66
(dp1176
sg75
g1161
sg68
(lp1177
g61
(g62
g63
NtRp1178
(dp1179
g66
(dp1180
g74
I4
ssg75
g1174
sg68
(lp1181
S'GET'
p1182
asbasbasbag61
(g77
g63
NtRp1183
(dp1184
g66
(dp1185
sg75
g653
sg68
(lp1186
g61
(g82
g63
NtRp1187
(dp1188
g66
(dp1189
g86
g87
ssg75
g1183
sg68
(lp1190
S'script_name'
p1191
asbag61
(g82
g63
NtRp1192
(dp1193
g66
(dp1194
g93
g94
ssg75
g1183
sg68
(lp1195
S':'
asbag61
(g82
g63
NtRp1196
(dp1197
g66
(dp1198
sg75
g1183
sg68
(lp1199
g61
(g62
g63
NtRp1200
(dp1201
g66
(dp1202
g74
I4
ssg75
g1196
sg68
(lp1203
S''
asbasbasbag61
(g77
g63
NtRp1204
(dp1205
g66
(dp1206
sg75
g653
sg68
(lp1207
g61
(g82
g63
NtRp1208
(dp1209
g66
(dp1210
g86
g87
ssg75
g1204
sg68
(lp1211
S'server_name'
p1212
asbag61
(g82
g63
NtRp1213
(dp1214
g66
(dp1215
g93
g94
ssg75
g1204
sg68
(lp1216
S':'
asbag61
(g82
g63
NtRp1217
(dp1218
g66
(dp1219
sg75
g1204
sg68
(lp1220
g61
(g62
g63
NtRp1221
(dp1222
g66
(dp1223
g74
I4
ssg75
g1217
sg68
(lp1224
S'mellinja-PC'
p1225
asbasbasbag61
(g77
g63
NtRp1226
(dp1227
g66
(dp1228
sg75
g653
sg68
(lp1229
g61
(g82
g63
NtRp1230
(dp1231
g66
(dp1232
g86
g87
ssg75
g1226
sg68
(lp1233
S'server_port'
p1234
asbag61
(g82
g63
NtRp1235
(dp1236
g66
(dp1237
g93
g94
ssg75
g1226
sg68
(lp1238
S':'
asbag61
(g82
g63
NtRp1239
(dp1240
g66
(dp1241
sg75
g1226
sg68
(lp1242
g61
(g62
g63
NtRp1243
(dp1244
g66
(dp1245
g74
I4
ssg75
g1239
sg68
(lp1246
S'8000'
p1247
asbasbasbag61
(g77
g63
NtRp1248
(dp1249
g66
(dp1250
sg75
g653
sg68
(lp1251
g61
(g82
g63
NtRp1252
(dp1253
g66
(dp1254
g86
g87
ssg75
g1248
sg68
(lp1255
S'server_protocol'
p1256
asbag61
(g82
g63
NtRp1257
(dp1258
g66
(dp1259
g93
g94
ssg75
g1248
sg68
(lp1260
S':'
asbag61
(g82
g63
NtRp1261
(dp1262
g66
(dp1263
sg75
g1248
sg68
(lp1264
g61
(g62
g63
NtRp1265
(dp1266
g66
(dp1267
g74
I4
ssg75
g1261
sg68
(lp1268
S'HTTP/1.1'
p1269
asbasbasbag61
(g77
g63
NtRp1270
(dp1271
g66
(dp1272
sg75
g653
sg68
(lp1273
g61
(g82
g63
NtRp1274
(dp1275
g66
(dp1276
g86
g87
ssg75
g1270
sg68
(lp1277
S'server_software'
p1278
asbag61
(g82
g63
NtRp1279
(dp1280
g66
(dp1281
g93
g94
ssg75
g1270
sg68
(lp1282
S':'
asbag61
(g82
g63
NtRp1283
(dp1284
g66
(dp1285
sg75
g1270
sg68
(lp1286
g61
(g62
g63
NtRp1287
(dp1288
g66
(dp1289
g74
I4
ssg75
g1283
sg68
(lp1290
S'Rocket 1.2.4'
p1291
asbasbasbag61
(g77
g63
NtRp1292
(dp1293
g66
(dp1294
sg75
g653
sg68
(lp1295
g61
(g82
g63
NtRp1296
(dp1297
g66
(dp1298
g86
g87
ssg75
g1292
sg68
(lp1299
S'web2py_crontype'
p1300
asbag61
(g82
g63
NtRp1301
(dp1302
g66
(dp1303
g93
g94
ssg75
g1292
sg68
(lp1304
S':'
asbag61
(g82
g63
NtRp1305
(dp1306
g66
(dp1307
sg75
g1292
sg68
(lp1308
g61
(g62
g63
NtRp1309
(dp1310
g66
(dp1311
g74
I4
ssg75
g1305
sg68
(lp1312
S'hard'
p1313
asbasbasbag61
(g77
g63
NtRp1314
(dp1315
g66
(dp1316
sg75
g653
sg68
(lp1317
g61
(g82
g63
NtRp1318
(dp1319
g66
(dp1320
g86
g87
ssg75
g1314
sg68
(lp1321
S'web2py_path'
p1322
asbag61
(g82
g63
NtRp1323
(dp1324
g66
(dp1325
g93
g94
ssg75
g1314
sg68
(lp1326
S':'
asbag61
(g82
g63
NtRp1327
(dp1328
g66
(dp1329
sg75
g1314
sg68
(lp1330
g61
(g62
g63
NtRp1331
(dp1332
g66
(dp1333
g74
I4
ssg75
g1327
sg68
(lp1334
g700
asbasbasbag61
(g77
g63
NtRp1335
(dp1336
g66
(dp1337
sg75
g653
sg68
(lp1338
g61
(g82
g63
NtRp1339
(dp1340
g66
(dp1341
g86
g87
ssg75
g1335
sg68
(lp1342
S'web2py_version'
p1343
asbag61
(g82
g63
NtRp1344
(dp1345
g66
(dp1346
g93
g94
ssg75
g1335
sg68
(lp1347
S':'
asbag61
(g82
g63
NtRp1348
(dp1349
g66
(dp1350
sg75
g1335
sg68
(lp1351
g61
(g62
g63
NtRp1352
(dp1353
g66
(dp1354
g74
I4
ssg75
g1348
sg68
(lp1355
g61
(g70
g63
NtRp1356
(dp1357
g66
(dp1358
g74
I3
ssg75
Nsg68
(lp1359
g61
(g77
g63
NtRp1360
(dp1361
g66
(dp1362
sg75
g1356
sg68
(lp1363
g61
(g82
g63
NtRp1364
(dp1365
g66
(dp1366
sg75
g1360
sg68
(lp1367
g61
(g62
g63
NtRp1368
(dp1369
g66
(dp1370
g74
I3
ssg75
g1364
sg68
(lp1371
S'1'
asbasbasbag61
(g77
g63
NtRp1372
(dp1373
g66
(dp1374
sg75
g1356
sg68
(lp1375
g61
(g82
g63
NtRp1376
(dp1377
g66
(dp1378
sg75
g1372
sg68
(lp1379
g61
(g62
g63
NtRp1380
(dp1381
g66
(dp1382
g74
I3
ssg75
g1376
sg68
(lp1383
S'99'
p1384
asbasbasbag61
(g77
g63
NtRp1385
(dp1386
g66
(dp1387
sg75
g1356
sg68
(lp1388
g61
(g82
g63
NtRp1389
(dp1390
g66
(dp1391
sg75
g1385
sg68
(lp1392
g61
(g62
g63
NtRp1393
(dp1394
g66
(dp1395
g74
I3
ssg75
g1389
sg68
(lp1396
S'4'
asbasbasbag61
(g77
g63
NtRp1397
(dp1398
g66
(dp1399
sg75
g1356
sg68
(lp1400
g61
(g82
g63
NtRp1401
(dp1402
g66
(dp1403
sg75
g1397
sg68
(lp1404
g61
(g62
g63
NtRp1405
(dp1406
g66
(dp1407
g74
I3
ssg75
g1401
sg68
(lp1408
S'datetime.datetime(2011, 12, 14, 14, 46, 14)'
p1409
asbasbasbag61
(g77
g63
NtRp1410
(dp1411
g66
(dp1412
sg75
g1356
sg68
(lp1413
g61
(g82
g63
NtRp1414
(dp1415
g66
(dp1416
sg75
g1410
sg68
(lp1417
g61
(g62
g63
NtRp1418
(dp1419
g66
(dp1420
g74
I3
ssg75
g1414
sg68
(lp1421
S'stable'
p1422
asbasbasbasbasbasbasbag61
(g77
g63
NtRp1423
(dp1424
g66
(dp1425
sg75
g653
sg68
(lp1426
g61
(g82
g63
NtRp1427
(dp1428
g66
(dp1429
g86
g87
ssg75
g1423
sg68
(lp1430
S'wsgi_errors'
p1431
asbag61
(g82
g63
NtRp1432
(dp1433
g66
(dp1434
g93
g94
ssg75
g1423
sg68
(lp1435
S':'
asbag61
(g82
g63
NtRp1436
(dp1437
g66
(dp1438
sg75
g1423
sg68
(lp1439
g61
(g62
g63
NtRp1440
(dp1441
g66
(dp1442
g74
I4
ssg75
g1436
sg68
(lp1443
S"<open file '<stderr>', mode 'w' at 0x0000000001DB61E0>"
p1444
asbasbasbag61
(g77
g63
NtRp1445
(dp1446
g66
(dp1447
sg75
g653
sg68
(lp1448
g61
(g82
g63
NtRp1449
(dp1450
g66
(dp1451
g86
g87
ssg75
g1445
sg68
(lp1452
S'wsgi_file_wrapper'
p1453
asbag61
(g82
g63
NtRp1454
(dp1455
g66
(dp1456
g93
g94
ssg75
g1445
sg68
(lp1457
S':'
asbag61
(g82
g63
NtRp1458
(dp1459
g66
(dp1460
sg75
g1445
sg68
(lp1461
g61
(g62
g63
NtRp1462
(dp1463
g66
(dp1464
g74
I4
ssg75
g1458
sg68
(lp1465
S'<class wsgiref.util.FileWrapper at 0x00000000036DC948>'
p1466
asbasbasbag61
(g77
g63
NtRp1467
(dp1468
g66
(dp1469
sg75
g653
sg68
(lp1470
g61
(g82
g63
NtRp1471
(dp1472
g66
(dp1473
g86
g87
ssg75
g1467
sg68
(lp1474
S'wsgi_input'
p1475
asbag61
(g82
g63
NtRp1476
(dp1477
g66
(dp1478
g93
g94
ssg75
g1467
sg68
(lp1479
S':'
asbag61
(g82
g63
NtRp1480
(dp1481
g66
(dp1482
sg75
g1467
sg68
(lp1483
g61
(g62
g63
NtRp1484
(dp1485
g66
(dp1486
g74
I4
ssg75
g1480
sg68
(lp1487
S'<socket._fileobject object at 0x000000000824D8B8>'
p1488
asbasbasbag61
(g77
g63
NtRp1489
(dp1490
g66
(dp1491
sg75
g653
sg68
(lp1492
g61
(g82
g63
NtRp1493
(dp1494
g66
(dp1495
g86
g87
ssg75
g1489
sg68
(lp1496
S'wsgi_multiprocess'
p1497
asbag61
(g82
g63
NtRp1498
(dp1499
g66
(dp1500
g93
g94
ssg75
g1489
sg68
(lp1501
S':'
asbag61
(g82
g63
NtRp1502
(dp1503
g66
(dp1504
sg75
g1489
sg68
(lp1505
g61
(g62
g63
NtRp1506
(dp1507
g66
(dp1508
g74
I4
ssg75
g1502
sg68
(lp1509
g104
asbasbasbag61
(g77
g63
NtRp1510
(dp1511
g66
(dp1512
sg75
g653
sg68
(lp1513
g61
(g82
g63
NtRp1514
(dp1515
g66
(dp1516
g86
g87
ssg75
g1510
sg68
(lp1517
S'wsgi_multithread'
p1518
asbag61
(g82
g63
NtRp1519
(dp1520
g66
(dp1521
g93
g94
ssg75
g1510
sg68
(lp1522
S':'
asbag61
(g82
g63
NtRp1523
(dp1524
g66
(dp1525
sg75
g1510
sg68
(lp1526
g61
(g62
g63
NtRp1527
(dp1528
g66
(dp1529
g74
I4
ssg75
g1523
sg68
(lp1530
S'True'
p1531
asbasbasbag61
(g77
g63
NtRp1532
(dp1533
g66
(dp1534
sg75
g653
sg68
(lp1535
g61
(g82
g63
NtRp1536
(dp1537
g66
(dp1538
g86
g87
ssg75
g1532
sg68
(lp1539
S'wsgi_run_once'
p1540
asbag61
(g82
g63
NtRp1541
(dp1542
g66
(dp1543
g93
g94
ssg75
g1532
sg68
(lp1544
S':'
asbag61
(g82
g63
NtRp1545
(dp1546
g66
(dp1547
sg75
g1532
sg68
(lp1548
g61
(g62
g63
NtRp1549
(dp1550
g66
(dp1551
g74
I4
ssg75
g1545
sg68
(lp1552
g104
asbasbasbag61
(g77
g63
NtRp1553
(dp1554
g66
(dp1555
sg75
g653
sg68
(lp1556
g61
(g82
g63
NtRp1557
(dp1558
g66
(dp1559
g86
g87
ssg75
g1553
sg68
(lp1560
S'wsgi_url_scheme'
p1561
asbag61
(g82
g63
NtRp1562
(dp1563
g66
(dp1564
g93
g94
ssg75
g1553
sg68
(lp1565
S':'
asbag61
(g82
g63
NtRp1566
(dp1567
g66
(dp1568
sg75
g1553
sg68
(lp1569
g61
(g62
g63
NtRp1570
(dp1571
g66
(dp1572
g74
I4
ssg75
g1566
sg68
(lp1573
S'http'
p1574
asbasbasbag61
(g77
g63
NtRp1575
(dp1576
g66
(dp1577
sg75
g653
sg68
(lp1578
g61
(g82
g63
NtRp1579
(dp1580
g66
(dp1581
g86
g87
ssg75
g1575
sg68
(lp1582
S'wsgi_version'
p1583
asbag61
(g82
g63
NtRp1584
(dp1585
g66
(dp1586
g93
g94
ssg75
g1575
sg68
(lp1587
S':'
asbag61
(g82
g63
NtRp1588
(dp1589
g66
(dp1590
sg75
g1575
sg68
(lp1591
g61
(g62
g63
NtRp1592
(dp1593
g66
(dp1594
g74
I4
ssg75
g1588
sg68
(lp1595
g61
(g70
g63
NtRp1596
(dp1597
g66
(dp1598
g74
I3
ssg75
Nsg68
(lp1599
g61
(g77
g63
NtRp1600
(dp1601
g66
(dp1602
sg75
g1596
sg68
(lp1603
g61
(g82
g63
NtRp1604
(dp1605
g66
(dp1606
sg75
g1600
sg68
(lp1607
g61
(g62
g63
NtRp1608
(dp1609
g66
(dp1610
g74
I3
ssg75
g1604
sg68
(lp1611
S'1'
asbasbasbag61
(g77
g63
NtRp1612
(dp1613
g66
(dp1614
sg75
g1596
sg68
(lp1615
g61
(g82
g63
NtRp1616
(dp1617
g66
(dp1618
sg75
g1612
sg68
(lp1619
g61
(g62
g63
NtRp1620
(dp1621
g66
(dp1622
g74
I3
ssg75
g1616
sg68
(lp1623
S'0'
asbasbasbasbasbasbasbasbasbasbasbag61
(g77
g63
NtRp1624
(dp1625
g66
(dp1626
sg75
g71
sg68
(lp1627
g61
(g82
g63
NtRp1628
(dp1629
g66
(dp1630
g86
g87
ssg75
g1624
sg68
(lp1631
S'extension'
p1632
asbag61
(g82
g63
NtRp1633
(dp1634
g66
(dp1635
g93
g94
ssg75
g1624
sg68
(lp1636
S':'
asbag61
(g82
g63
NtRp1637
(dp1638
g66
(dp1639
sg75
g1624
sg68
(lp1640
g61
(g62
g63
NtRp1641
(dp1642
g66
(dp1643
g74
I5
ssg75
g1637
sg68
(lp1644
S'html'
p1645
asbasbasbag61
(g77
g63
NtRp1646
(dp1647
g66
(dp1648
sg75
g71
sg68
(lp1649
g61
(g82
g63
NtRp1650
(dp1651
g66
(dp1652
g86
g87
ssg75
g1646
sg68
(lp1653
S'folder'
p1654
asbag61
(g82
g63
NtRp1655
(dp1656
g66
(dp1657
g93
g94
ssg75
g1646
sg68
(lp1658
S':'
asbag61
(g82
g63
NtRp1659
(dp1660
g66
(dp1661
sg75
g1646
sg68
(lp1662
g61
(g62
g63
NtRp1663
(dp1664
g66
(dp1665
g74
I5
ssg75
g1659
sg68
(lp1666
S'C:\\Users\\mellinja\\Documents\\SC2Tracker\\SC2Tracker2\\web2py\\applications\\welcome\\'
p1667
asbasbasbag61
(g77
g63
NtRp1668
(dp1669
g66
(dp1670
sg75
g71
sg68
(lp1671
g61
(g82
g63
NtRp1672
(dp1673
g66
(dp1674
g86
g87
ssg75
g1668
sg68
(lp1675
S'function'
p1676
asbag61
(g82
g63
NtRp1677
(dp1678
g66
(dp1679
g93
g94
ssg75
g1668
sg68
(lp1680
S':'
asbag61
(g82
g63
NtRp1681
(dp1682
g66
(dp1683
sg75
g1668
sg68
(lp1684
g61
(g62
g63
NtRp1685
(dp1686
g66
(dp1687
g74
I5
ssg75
g1681
sg68
(lp1688
S'show'
p1689
asbasbasbag61
(g77
g63
NtRp1690
(dp1691
g66
(dp1692
sg75
g71
sg68
(lp1693
g61
(g82
g63
NtRp1694
(dp1695
g66
(dp1696
g86
g87
ssg75
g1690
sg68
(lp1697
S'get_vars'
p1698
asbag61
(g82
g63
NtRp1699
(dp1700
g66
(dp1701
g93
g94
ssg75
g1690
sg68
(lp1702
S':'
asbag61
(g82
g63
NtRp1703
(dp1704
g66
(dp1705
sg75
g1690
sg68
(lp1706
g61
(g62
g63
NtRp1707
(dp1708
g66
(dp1709
g74
I5
ssg75
g1703
sg68
(lp1710
g61
(g70
g63
NtRp1711
(dp1712
g66
(dp1713
g74
I4
ssg75
Nsg68
(lp1714
sbasbasbasbag61
(g77
g63
NtRp1715
(dp1716
g66
(dp1717
sg75
g71
sg68
(lp1718
g61
(g82
g63
NtRp1719
(dp1720
g66
(dp1721
g86
g87
ssg75
g1715
sg68
(lp1722
S'global_settings'
p1723
asbag61
(g82
g63
NtRp1724
(dp1725
g66
(dp1726
g93
g94
ssg75
g1715
sg68
(lp1727
S':'
asbag61
(g82
g63
NtRp1728
(dp1729
g66
(dp1730
sg75
g1715
sg68
(lp1731
g61
(g62
g63
NtRp1732
(dp1733
g66
(dp1734
g74
I5
ssg75
g1728
sg68
(lp1735
g61
(g70
g63
NtRp1736
(dp1737
g66
(dp1738
g74
I4
ssg75
Nsg68
(lp1739
g61
(g77
g63
NtRp1740
(dp1741
g66
(dp1742
sg75
g1736
sg68
(lp1743
g61
(g82
g63
NtRp1744
(dp1745
g66
(dp1746
g86
g87
ssg75
g1740
sg68
(lp1747
g665
asbag61
(g82
g63
NtRp1748
(dp1749
g66
(dp1750
g93
g94
ssg75
g1740
sg68
(lp1751
S':'
asbag61
(g82
g63
NtRp1752
(dp1753
g66
(dp1754
sg75
g1740
sg68
(lp1755
g61
(g62
g63
NtRp1756
(dp1757
g66
(dp1758
g74
I4
ssg75
g1752
sg68
(lp1759
S"set(['C:\\\\Users\\\\mellinja\\\\Documents\\\\SC2Tracker\\\\SC2Tracker2\\\\web2py\\\\applications\\\\welcome\\\\', 'C:\\\\Users\\\\mellinja\\\\Documents\\\\SC2Tracker\\\\SC2Tracker2\\\\web2py\\\\applications\\\\admin\\\\'])"
p1760
asbasbasbag61
(g77
g63
NtRp1761
(dp1762
g66
(dp1763
sg75
g1736
sg68
(lp1764
g61
(g82
g63
NtRp1765
(dp1766
g66
(dp1767
g86
g87
ssg75
g1761
sg68
(lp1768
g687
asbag61
(g82
g63
NtRp1769
(dp1770
g66
(dp1771
g93
g94
ssg75
g1761
sg68
(lp1772
S':'
asbag61
(g82
g63
NtRp1773
(dp1774
g66
(dp1775
sg75
g1761
sg68
(lp1776
g61
(g62
g63
NtRp1777
(dp1778
g66
(dp1779
g74
I4
ssg75
g1773
sg68
(lp1780
g700
asbasbasbag61
(g77
g63
NtRp1781
(dp1782
g66
(dp1783
sg75
g1736
sg68
(lp1784
g61
(g82
g63
NtRp1785
(dp1786
g66
(dp1787
g86
g87
ssg75
g1781
sg68
(lp1788
g709
asbag61
(g82
g63
NtRp1789
(dp1790
g66
(dp1791
g93
g94
ssg75
g1781
sg68
(lp1792
S':'
asbag61
(g82
g63
NtRp1793
(dp1794
g66
(dp1795
sg75
g1781
sg68
(lp1796
g61
(g62
g63
NtRp1797
(dp1798
g66
(dp1799
g74
I4
ssg75
g1793
sg68
(lp1800
g61
(g70
g63
NtRp1801
(dp1802
g66
(dp1803
g74
I3
ssg75
Nsg68
(lp1804
sbasbasbasbag61
(g77
g63
NtRp1805
(dp1806
g66
(dp1807
sg75
g1736
sg68
(lp1808
g61
(g82
g63
NtRp1809
(dp1810
g66
(dp1811
g86
g87
ssg75
g1805
sg68
(lp1812
g734
asbag61
(g82
g63
NtRp1813
(dp1814
g66
(dp1815
g93
g94
ssg75
g1805
sg68
(lp1816
S':'
asbag61
(g82
g63
NtRp1817
(dp1818
g66
(dp1819
sg75
g1805
sg68
(lp1820
g61
(g62
g63
NtRp1821
(dp1822
g66
(dp1823
g74
I4
ssg75
g1817
sg68
(lp1824
S"<Values at 0x37e75c8: {'verbose': False, 'ip': '127.0.0.1', 'shutdown_timeout': 5, 'taskbar': False, 'nocron': False, 'pid_filename': 'httpserver.pid', 'maxthreads': None, 'softcron': False, 'server_name': 'mellinja-PC', 'bpython': False, 'nogui': False, 'port': 8000, 'extcron': False, 'debuglevel': 30, 'test': None, 'folder': 'C:\\\\Users\\\\mellinja\\\\Documents\\\\SC2Tracker\\\\SC2Tracker2\\\\web2py', 'config': '', 'import_models': False, 'winservice': '', 'shell': None, 'run': '', 'log_filename': 'httpserver.log', 'args': [''], 'socket_timeout': 1, 'ssl_ca_certificate': None, 'scheduler': None, 'profiler_filename': None, 'ssl_private_key': '', 'password': '<ask>', 'request_queue_size': 5, 'ssl_certificate': '', 'cronjob': False, 'numthreads': None, 'quiet': False, 'interfaces': None, 'minthreads': None, 'timeout': 10, 'plain': False, 'nobanner': False}>"
p1825
asbasbasbag61
(g77
g63
NtRp1826
(dp1827
g66
(dp1828
sg75
g1736
sg68
(lp1829
g61
(g82
g63
NtRp1830
(dp1831
g66
(dp1832
g86
g87
ssg75
g1826
sg68
(lp1833
g756
asbag61
(g82
g63
NtRp1834
(dp1835
g66
(dp1836
g93
g94
ssg75
g1826
sg68
(lp1837
S':'
asbag61
(g82
g63
NtRp1838
(dp1839
g66
(dp1840
sg75
g1826
sg68
(lp1841
g61
(g62
g63
NtRp1842
(dp1843
g66
(dp1844
g74
I4
ssg75
g1838
sg68
(lp1845
S'set([])'
p1846
asbasbasbag61
(g77
g63
NtRp1847
(dp1848
g66
(dp1849
sg75
g1736
sg68
(lp1850
g61
(g82
g63
NtRp1851
(dp1852
g66
(dp1853
g86
g87
ssg75
g1847
sg68
(lp1854
g778
asbag61
(g82
g63
NtRp1855
(dp1856
g66
(dp1857
g93
g94
ssg75
g1847
sg68
(lp1858
S':'
asbag61
(g82
g63
NtRp1859
(dp1860
g66
(dp1861
sg75
g1847
sg68
(lp1862
g61
(g62
g63
NtRp1863
(dp1864
g66
(dp1865
g74
I4
ssg75
g1859
sg68
(lp1866
g104
asbasbasbag61
(g77
g63
NtRp1867
(dp1868
g66
(dp1869
sg75
g1736
sg68
(lp1870
g61
(g82
g63
NtRp1871
(dp1872
g66
(dp1873
g86
g87
ssg75
g1867
sg68
(lp1874
g799
asbag61
(g82
g63
NtRp1875
(dp1876
g66
(dp1877
g93
g94
ssg75
g1867
sg68
(lp1878
S':'
asbag61
(g82
g63
NtRp1879
(dp1880
g66
(dp1881
sg75
g1867
sg68
(lp1882
g61
(g62
g63
NtRp1883
(dp1884
g66
(dp1885
g74
I4
ssg75
g1879
sg68
(lp1886
g812
asbasbasbag61
(g77
g63
NtRp1887
(dp1888
g66
(dp1889
sg75
g1736
sg68
(lp1890
g61
(g82
g63
NtRp1891
(dp1892
g66
(dp1893
g86
g87
ssg75
g1887
sg68
(lp1894
g1041
asbag61
(g82
g63
NtRp1895
(dp1896
g66
(dp1897
g93
g94
ssg75
g1887
sg68
(lp1898
S':'
asbag61
(g82
g63
NtRp1899
(dp1900
g66
(dp1901
sg75
g1887
sg68
(lp1902
g61
(g62
g63
NtRp1903
(dp1904
g66
(dp1905
g74
I4
ssg75
g1899
sg68
(lp1906
g104
asbasbasbag61
(g77
g63
NtRp1907
(dp1908
g66
(dp1909
sg75
g1736
sg68
(lp1910
g61
(g82
g63
NtRp1911
(dp1912
g66
(dp1913
g86
g87
ssg75
g1907
sg68
(lp1914
g1062
asbag61
(g82
g63
NtRp1915
(dp1916
g66
(dp1917
g93
g94
ssg75
g1907
sg68
(lp1918
S':'
asbag61
(g82
g63
NtRp1919
(dp1920
g66
(dp1921
sg75
g1907
sg68
(lp1922
g61
(g62
g63
NtRp1923
(dp1924
g66
(dp1925
g74
I4
ssg75
g1919
sg68
(lp1926
g104
asbasbasbag61
(g77
g63
NtRp1927
(dp1928
g66
(dp1929
sg75
g1736
sg68
(lp1930
g61
(g82
g63
NtRp1931
(dp1932
g66
(dp1933
g86
g87
ssg75
g1927
sg68
(lp1934
g1300
asbag61
(g82
g63
NtRp1935
(dp1936
g66
(dp1937
g93
g94
ssg75
g1927
sg68
(lp1938
S':'
asbag61
(g82
g63
NtRp1939
(dp1940
g66
(dp1941
sg75
g1927
sg68
(lp1942
g61
(g62
g63
NtRp1943
(dp1944
g66
(dp1945
g74
I4
ssg75
g1939
sg68
(lp1946
g1313
asbasbasbag61
(g77
g63
NtRp1947
(dp1948
g66
(dp1949
sg75
g1736
sg68
(lp1950
g61
(g82
g63
NtRp1951
(dp1952
g66
(dp1953
g86
g87
ssg75
g1947
sg68
(lp1954
g1343
asbag61
(g82
g63
NtRp1955
(dp1956
g66
(dp1957
g93
g94
ssg75
g1947
sg68
(lp1958
S':'
asbag61
(g82
g63
NtRp1959
(dp1960
g66
(dp1961
sg75
g1947
sg68
(lp1962
g61
(g62
g63
NtRp1963
(dp1964
g66
(dp1965
g74
I4
ssg75
g1959
sg68
(lp1966
g61
(g70
g63
NtRp1967
(dp1968
g66
(dp1969
g74
I3
ssg75
Nsg68
(lp1970
g61
(g77
g63
NtRp1971
(dp1972
g66
(dp1973
sg75
g1967
sg68
(lp1974
g61
(g82
g63
NtRp1975
(dp1976
g66
(dp1977
sg75
g1971
sg68
(lp1978
g61
(g62
g63
NtRp1979
(dp1980
g66
(dp1981
g74
I3
ssg75
g1975
sg68
(lp1982
S'1'
asbasbasbag61
(g77
g63
NtRp1983
(dp1984
g66
(dp1985
sg75
g1967
sg68
(lp1986
g61
(g82
g63
NtRp1987
(dp1988
g66
(dp1989
sg75
g1983
sg68
(lp1990
g61
(g62
g63
NtRp1991
(dp1992
g66
(dp1993
g74
I3
ssg75
g1987
sg68
(lp1994
S'99'
p1995
asbasbasbag61
(g77
g63
NtRp1996
(dp1997
g66
(dp1998
sg75
g1967
sg68
(lp1999
g61
(g82
g63
NtRp2000
(dp2001
g66
(dp2002
sg75
g1996
sg68
(lp2003
g61
(g62
g63
NtRp2004
(dp2005
g66
(dp2006
g74
I3
ssg75
g2000
sg68
(lp2007
S'4'
asbasbasbag61
(g77
g63
NtRp2008
(dp2009
g66
(dp2010
sg75
g1967
sg68
(lp2011
g61
(g82
g63
NtRp2012
(dp2013
g66
(dp2014
sg75
g2008
sg68
(lp2015
g61
(g62
g63
NtRp2016
(dp2017
g66
(dp2018
g74
I3
ssg75
g2012
sg68
(lp2019
S'datetime.datetime(2011, 12, 14, 14, 46, 14)'
p2020
asbasbasbag61
(g77
g63
NtRp2021
(dp2022
g66
(dp2023
sg75
g1967
sg68
(lp2024
g61
(g82
g63
NtRp2025
(dp2026
g66
(dp2027
sg75
g2021
sg68
(lp2028
g61
(g62
g63
NtRp2029
(dp2030
g66
(dp2031
g74
I3
ssg75
g2025
sg68
(lp2032
g1422
asbasbasbasbasbasbasbasbasbasbasbag61
(g77
g63
NtRp2033
(dp2034
g66
(dp2035
sg75
g71
sg68
(lp2036
g61
(g82
g63
NtRp2037
(dp2038
g66
(dp2039
g86
g87
ssg75
g2033
sg68
(lp2040
S'is_https'
p2041
asbag61
(g82
g63
NtRp2042
(dp2043
g66
(dp2044
g93
g94
ssg75
g2033
sg68
(lp2045
S':'
asbag61
(g82
g63
NtRp2046
(dp2047
g66
(dp2048
sg75
g2033
sg68
(lp2049
g61
(g62
g63
NtRp2050
(dp2051
g66
(dp2052
g74
I5
ssg75
g2046
sg68
(lp2053
g104
asbasbasbag61
(g77
g63
NtRp2054
(dp2055
g66
(dp2056
sg75
g71
sg68
(lp2057
g61
(g82
g63
NtRp2058
(dp2059
g66
(dp2060
g86
g87
ssg75
g2054
sg68
(lp2061
S'is_local'
p2062
asbag61
(g82
g63
NtRp2063
(dp2064
g66
(dp2065
g93
g94
ssg75
g2054
sg68
(lp2066
S':'
asbag61
(g82
g63
NtRp2067
(dp2068
g66
(dp2069
sg75
g2054
sg68
(lp2070
g61
(g62
g63
NtRp2071
(dp2072
g66
(dp2073
g74
I5
ssg75
g2067
sg68
(lp2074
g1531
asbasbasbag61
(g77
g63
NtRp2075
(dp2076
g66
(dp2077
sg75
g71
sg68
(lp2078
g61
(g82
g63
NtRp2079
(dp2080
g66
(dp2081
g86
g87
ssg75
g2075
sg68
(lp2082
S'is_restful'
p2083
asbag61
(g82
g63
NtRp2084
(dp2085
g66
(dp2086
g93
g94
ssg75
g2075
sg68
(lp2087
S':'
asbag61
(g82
g63
NtRp2088
(dp2089
g66
(dp2090
sg75
g2075
sg68
(lp2091
g61
(g62
g63
NtRp2092
(dp2093
g66
(dp2094
g74
I5
ssg75
g2088
sg68
(lp2095
g104
asbasbasbag61
(g77
g63
NtRp2096
(dp2097
g66
(dp2098
sg75
g71
sg68
(lp2099
g61
(g82
g63
NtRp2100
(dp2101
g66
(dp2102
g86
g87
ssg75
g2096
sg68
(lp2103
S'now'
p2104
asbag61
(g82
g63
NtRp2105
(dp2106
g66
(dp2107
g93
g94
ssg75
g2096
sg68
(lp2108
S':'
asbag61
(g82
g63
NtRp2109
(dp2110
g66
(dp2111
sg75
g2096
sg68
(lp2112
g61
(g62
g63
NtRp2113
(dp2114
g66
(dp2115
g74
I5
ssg75
g2109
sg68
(lp2116
S'datetime.datetime(2012, 2, 13, 18, 16, 17, 532000)'
p2117
asbasbasbag61
(g77
g63
NtRp2118
(dp2119
g66
(dp2120
sg75
g71
sg68
(lp2121
g61
(g82
g63
NtRp2122
(dp2123
g66
(dp2124
g86
g87
ssg75
g2118
sg68
(lp2125
S'post_vars'
p2126
asbag61
(g82
g63
NtRp2127
(dp2128
g66
(dp2129
g93
g94
ssg75
g2118
sg68
(lp2130
S':'
asbag61
(g82
g63
NtRp2131
(dp2132
g66
(dp2133
sg75
g2118
sg68
(lp2134
g61
(g62
g63
NtRp2135
(dp2136
g66
(dp2137
g74
I5
ssg75
g2131
sg68
(lp2138
g61
(g70
g63
NtRp2139
(dp2140
g66
(dp2141
g74
I4
ssg75
Nsg68
(lp2142
sbasbasbasbag61
(g77
g63
NtRp2143
(dp2144
g66
(dp2145
sg75
g71
sg68
(lp2146
g61
(g82
g63
NtRp2147
(dp2148
g66
(dp2149
g86
g87
ssg75
g2143
sg68
(lp2150
S'raw_args'
p2151
asbag61
(g82
g63
NtRp2152
(dp2153
g66
(dp2154
g93
g94
ssg75
g2143
sg68
(lp2155
S':'
asbag61
(g82
g63
NtRp2156
(dp2157
g66
(dp2158
sg75
g2143
sg68
(lp2159
g61
(g62
g63
NtRp2160
(dp2161
g66
(dp2162
g74
I5
ssg75
g2156
sg68
(lp2163
S'1'
asbasbasbag61
(g77
g63
NtRp2164
(dp2165
g66
(dp2166
sg75
g71
sg68
(lp2167
g61
(g82
g63
NtRp2168
(dp2169
g66
(dp2170
g86
g87
ssg75
g2164
sg68
(lp2171
S'url'
p2172
asbag61
(g82
g63
NtRp2173
(dp2174
g66
(dp2175
g93
g94
ssg75
g2164
sg68
(lp2176
S':'
asbag61
(g82
g63
NtRp2177
(dp2178
g66
(dp2179
sg75
g2164
sg68
(lp2180
g61
(g62
g63
NtRp2181
(dp2182
g66
(dp2183
g74
I5
ssg75
g2177
sg68
(lp2184
S'/welcome/map_pool/show/1'
p2185
asbasbasbag61
(g77
g63
NtRp2186
(dp2187
g66
(dp2188
sg75
g71
sg68
(lp2189
g61
(g82
g63
NtRp2190
(dp2191
g66
(dp2192
g86
g87
ssg75
g2186
sg68
(lp2193
S'utcnow'
p2194
asbag61
(g82
g63
NtRp2195
(dp2196
g66
(dp2197
g93
g94
ssg75
g2186
sg68
(lp2198
S':'
asbag61
(g82
g63
NtRp2199
(dp2200
g66
(dp2201
sg75
g2186
sg68
(lp2202
g61
(g62
g63
NtRp2203
(dp2204
g66
(dp2205
g74
I5
ssg75
g2199
sg68
(lp2206
S'datetime.datetime(2012, 2, 13, 23, 16, 17, 532000)'
p2207
asbasbasbag61
(g77
g63
NtRp2208
(dp2209
g66
(dp2210
sg75
g71
sg68
(lp2211
g61
(g82
g63
NtRp2212
(dp2213
g66
(dp2214
g86
g87
ssg75
g2208
sg68
(lp2215
S'uuid'
p2216
asbag61
(g82
g63
NtRp2217
(dp2218
g66
(dp2219
g93
g94
ssg75
g2208
sg68
(lp2220
S':'
asbag61
(g82
g63
NtRp2221
(dp2222
g66
(dp2223
sg75
g2208
sg68
(lp2224
g61
(g62
g63
NtRp2225
(dp2226
g66
(dp2227
g74
I5
ssg75
g2221
sg68
(lp2228
S'welcome/127.0.0.1.2012-02-13.18-16-17.8bc9b8b4-77fc-4a60-ae7b-91025fa6a757'
p2229
asbasbasbag61
(g77
g63
NtRp2230
(dp2231
g66
(dp2232
sg75
g71
sg68
(lp2233
g61
(g82
g63
NtRp2234
(dp2235
g66
(dp2236
g86
g87
ssg75
g2230
sg68
(lp2237
S'vars'
p2238
asbag61
(g82
g63
NtRp2239
(dp2240
g66
(dp2241
g93
g94
ssg75
g2230
sg68
(lp2242
S':'
asbag61
(g82
g63
NtRp2243
(dp2244
g66
(dp2245
sg75
g2230
sg68
(lp2246
g61
(g62
g63
NtRp2247
(dp2248
g66
(dp2249
g74
I5
ssg75
g2243
sg68
(lp2250
g61
(g70
g63
NtRp2251
(dp2252
g66
(dp2253
g74
I4
ssg75
Nsg68
(lp2254
sbasbasbasbag61
(g77
g63
NtRp2255
(dp2256
g66
(dp2257
sg75
g71
sg68
(lp2258
g61
(g82
g63
NtRp2259
(dp2260
g66
(dp2261
g86
g87
ssg75
g2255
sg68
(lp2262
S'wsgi'
p2263
asbag61
(g82
g63
NtRp2264
(dp2265
g66
(dp2266
g93
g94
ssg75
g2255
sg68
(lp2267
S':'
asbag61
(g82
g63
NtRp2268
(dp2269
g66
(dp2270
sg75
g2255
sg68
(lp2271
g61
(g62
g63
NtRp2272
(dp2273
g66
(dp2274
g74
I5
ssg75
g2268
sg68
(lp2275
g61
(g70
g63
NtRp2276
(dp2277
g66
(dp2278
g74
I4
ssg75
Nsg68
(lp2279
g61
(g77
g63
NtRp2280
(dp2281
g66
(dp2282
sg75
g2276
sg68
(lp2283
g61
(g82
g63
NtRp2284
(dp2285
g66
(dp2286
g86
g87
ssg75
g2280
sg68
(lp2287
S'environ'
p2288
asbag61
(g82
g63
NtRp2289
(dp2290
g66
(dp2291
g93
g94
ssg75
g2280
sg68
(lp2292
S':'
asbag61
(g82
g63
NtRp2293
(dp2294
g66
(dp2295
sg75
g2280
sg68
(lp2296
g61
(g62
g63
NtRp2297
(dp2298
g66
(dp2299
g74
I4
ssg75
g2293
sg68
(lp2300
g61
(g70
g63
NtRp2301
(dp2302
g66
(dp2303
g74
I3
ssg75
Nsg68
(lp2304
g61
(g77
g63
NtRp2305
(dp2306
g66
(dp2307
sg75
g2301
sg68
(lp2308
g61
(g82
g63
NtRp2309
(dp2310
g66
(dp2311
g86
g87
ssg75
g2305
sg68
(lp2312
S'HTTP_ACCEPT'
p2313
asbag61
(g82
g63
NtRp2314
(dp2315
g66
(dp2316
g93
g94
ssg75
g2305
sg68
(lp2317
S':'
asbag61
(g82
g63
NtRp2318
(dp2319
g66
(dp2320
sg75
g2305
sg68
(lp2321
g61
(g62
g63
NtRp2322
(dp2323
g66
(dp2324
g74
I3
ssg75
g2318
sg68
(lp2325
g834
asbasbasbag61
(g77
g63
NtRp2326
(dp2327
g66
(dp2328
sg75
g2301
sg68
(lp2329
g61
(g82
g63
NtRp2330
(dp2331
g66
(dp2332
g86
g87
ssg75
g2326
sg68
(lp2333
S'HTTP_ACCEPT_CHARSET'
p2334
asbag61
(g82
g63
NtRp2335
(dp2336
g66
(dp2337
g93
g94
ssg75
g2326
sg68
(lp2338
S':'
asbag61
(g82
g63
NtRp2339
(dp2340
g66
(dp2341
sg75
g2326
sg68
(lp2342
g61
(g62
g63
NtRp2343
(dp2344
g66
(dp2345
g74
I3
ssg75
g2339
sg68
(lp2346
g856
asbasbasbag61
(g77
g63
NtRp2347
(dp2348
g66
(dp2349
sg75
g2301
sg68
(lp2350
g61
(g82
g63
NtRp2351
(dp2352
g66
(dp2353
g86
g87
ssg75
g2347
sg68
(lp2354
S'HTTP_ACCEPT_ENCODING'
p2355
asbag61
(g82
g63
NtRp2356
(dp2357
g66
(dp2358
g93
g94
ssg75
g2347
sg68
(lp2359
S':'
asbag61
(g82
g63
NtRp2360
(dp2361
g66
(dp2362
sg75
g2347
sg68
(lp2363
g61
(g62
g63
NtRp2364
(dp2365
g66
(dp2366
g74
I3
ssg75
g2360
sg68
(lp2367
g878
asbasbasbag61
(g77
g63
NtRp2368
(dp2369
g66
(dp2370
sg75
g2301
sg68
(lp2371
g61
(g82
g63
NtRp2372
(dp2373
g66
(dp2374
g86
g87
ssg75
g2368
sg68
(lp2375
S'HTTP_ACCEPT_LANGUAGE'
p2376
asbag61
(g82
g63
NtRp2377
(dp2378
g66
(dp2379
g93
g94
ssg75
g2368
sg68
(lp2380
S':'
asbag61
(g82
g63
NtRp2381
(dp2382
g66
(dp2383
sg75
g2368
sg68
(lp2384
g61
(g62
g63
NtRp2385
(dp2386
g66
(dp2387
g74
I3
ssg75
g2381
sg68
(lp2388
g900
asbasbasbag61
(g77
g63
NtRp2389
(dp2390
g66
(dp2391
sg75
g2301
sg68
(lp2392
g61
(g82
g63
NtRp2393
(dp2394
g66
(dp2395
g86
g87
ssg75
g2389
sg68
(lp2396
S'HTTP_CACHE_CONTROL'
p2397
asbag61
(g82
g63
NtRp2398
(dp2399
g66
(dp2400
g93
g94
ssg75
g2389
sg68
(lp2401
S':'
asbag61
(g82
g63
NtRp2402
(dp2403
g66
(dp2404
sg75
g2389
sg68
(lp2405
g61
(g62
g63
NtRp2406
(dp2407
g66
(dp2408
g74
I3
ssg75
g2402
sg68
(lp2409
g922
asbasbasbag61
(g77
g63
NtRp2410
(dp2411
g66
(dp2412
sg75
g2301
sg68
(lp2413
g61
(g82
g63
NtRp2414
(dp2415
g66
(dp2416
g86
g87
ssg75
g2410
sg68
(lp2417
S'HTTP_CONNECTION'
p2418
asbag61
(g82
g63
NtRp2419
(dp2420
g66
(dp2421
g93
g94
ssg75
g2410
sg68
(lp2422
S':'
asbag61
(g82
g63
NtRp2423
(dp2424
g66
(dp2425
sg75
g2410
sg68
(lp2426
g61
(g62
g63
NtRp2427
(dp2428
g66
(dp2429
g74
I3
ssg75
g2423
sg68
(lp2430
g944
asbasbasbag61
(g77
g63
NtRp2431
(dp2432
g66
(dp2433
sg75
g2301
sg68
(lp2434
g61
(g82
g63
NtRp2435
(dp2436
g66
(dp2437
g86
g87
ssg75
g2431
sg68
(lp2438
S'HTTP_COOKIE'
p2439
asbag61
(g82
g63
NtRp2440
(dp2441
g66
(dp2442
g93
g94
ssg75
g2431
sg68
(lp2443
S':'
asbag61
(g82
g63
NtRp2444
(dp2445
g66
(dp2446
sg75
g2431
sg68
(lp2447
g61
(g62
g63
NtRp2448
(dp2449
g66
(dp2450
g74
I3
ssg75
g2444
sg68
(lp2451
g966
asbasbasbag61
(g77
g63
NtRp2452
(dp2453
g66
(dp2454
sg75
g2301
sg68
(lp2455
g61
(g82
g63
NtRp2456
(dp2457
g66
(dp2458
g86
g87
ssg75
g2452
sg68
(lp2459
S'HTTP_HOST'
p2460
asbag61
(g82
g63
NtRp2461
(dp2462
g66
(dp2463
g93
g94
ssg75
g2452
sg68
(lp2464
S':'
asbag61
(g82
g63
NtRp2465
(dp2466
g66
(dp2467
sg75
g2452
sg68
(lp2468
g61
(g62
g63
NtRp2469
(dp2470
g66
(dp2471
g74
I3
ssg75
g2465
sg68
(lp2472
g988
asbasbasbag61
(g77
g63
NtRp2473
(dp2474
g66
(dp2475
sg75
g2301
sg68
(lp2476
g61
(g82
g63
NtRp2477
(dp2478
g66
(dp2479
g86
g87
ssg75
g2473
sg68
(lp2480
S'HTTP_REFERER'
p2481
asbag61
(g82
g63
NtRp2482
(dp2483
g66
(dp2484
g93
g94
ssg75
g2473
sg68
(lp2485
S':'
asbag61
(g82
g63
NtRp2486
(dp2487
g66
(dp2488
sg75
g2473
sg68
(lp2489
g61
(g62
g63
NtRp2490
(dp2491
g66
(dp2492
g74
I3
ssg75
g2486
sg68
(lp2493
g1010
asbasbasbag61
(g77
g63
NtRp2494
(dp2495
g66
(dp2496
sg75
g2301
sg68
(lp2497
g61
(g82
g63
NtRp2498
(dp2499
g66
(dp2500
g86
g87
ssg75
g2494
sg68
(lp2501
S'HTTP_USER_AGENT'
p2502
asbag61
(g82
g63
NtRp2503
(dp2504
g66
(dp2505
g93
g94
ssg75
g2494
sg68
(lp2506
S':'
asbag61
(g82
g63
NtRp2507
(dp2508
g66
(dp2509
sg75
g2494
sg68
(lp2510
g61
(g62
g63
NtRp2511
(dp2512
g66
(dp2513
g74
I3
ssg75
g2507
sg68
(lp2514
g1032
asbasbasbag61
(g77
g63
NtRp2515
(dp2516
g66
(dp2517
sg75
g2301
sg68
(lp2518
g61
(g82
g63
NtRp2519
(dp2520
g66
(dp2521
g86
g87
ssg75
g2515
sg68
(lp2522
S'PATH_INFO'
p2523
asbag61
(g82
g63
NtRp2524
(dp2525
g66
(dp2526
g93
g94
ssg75
g2515
sg68
(lp2527
S':'
asbag61
(g82
g63
NtRp2528
(dp2529
g66
(dp2530
sg75
g2515
sg68
(lp2531
g61
(g62
g63
NtRp2532
(dp2533
g66
(dp2534
g74
I3
ssg75
g2528
sg68
(lp2535
g1096
asbasbasbag61
(g77
g63
NtRp2536
(dp2537
g66
(dp2538
sg75
g2301
sg68
(lp2539
g61
(g82
g63
NtRp2540
(dp2541
g66
(dp2542
g86
g87
ssg75
g2536
sg68
(lp2543
S'QUERY_STRING'
p2544
asbag61
(g82
g63
NtRp2545
(dp2546
g66
(dp2547
g93
g94
ssg75
g2536
sg68
(lp2548
S':'
asbag61
(g82
g63
NtRp2549
(dp2550
g66
(dp2551
sg75
g2536
sg68
(lp2552
g61
(g62
g63
NtRp2553
(dp2554
g66
(dp2555
g74
I3
ssg75
g2549
sg68
(lp2556
S''
asbasbasbag61
(g77
g63
NtRp2557
(dp2558
g66
(dp2559
sg75
g2301
sg68
(lp2560
g61
(g82
g63
NtRp2561
(dp2562
g66
(dp2563
g86
g87
ssg75
g2557
sg68
(lp2564
S'REMOTE_ADDR'
p2565
asbag61
(g82
g63
NtRp2566
(dp2567
g66
(dp2568
g93
g94
ssg75
g2557
sg68
(lp2569
S':'
asbag61
(g82
g63
NtRp2570
(dp2571
g66
(dp2572
sg75
g2557
sg68
(lp2573
g61
(g62
g63
NtRp2574
(dp2575
g66
(dp2576
g74
I3
ssg75
g2570
sg68
(lp2577
g206
asbasbasbag61
(g77
g63
NtRp2578
(dp2579
g66
(dp2580
sg75
g2301
sg68
(lp2581
g61
(g82
g63
NtRp2582
(dp2583
g66
(dp2584
g86
g87
ssg75
g2578
sg68
(lp2585
S'REMOTE_PORT'
p2586
asbag61
(g82
g63
NtRp2587
(dp2588
g66
(dp2589
g93
g94
ssg75
g2578
sg68
(lp2590
S':'
asbag61
(g82
g63
NtRp2591
(dp2592
g66
(dp2593
sg75
g2578
sg68
(lp2594
g61
(g62
g63
NtRp2595
(dp2596
g66
(dp2597
g74
I3
ssg75
g2591
sg68
(lp2598
g1160
asbasbasbag61
(g77
g63
NtRp2599
(dp2600
g66
(dp2601
sg75
g2301
sg68
(lp2602
g61
(g82
g63
NtRp2603
(dp2604
g66
(dp2605
g86
g87
ssg75
g2599
sg68
(lp2606
S'REQUEST_METHOD'
p2607
asbag61
(g82
g63
NtRp2608
(dp2609
g66
(dp2610
g93
g94
ssg75
g2599
sg68
(lp2611
S':'
asbag61
(g82
g63
NtRp2612
(dp2613
g66
(dp2614
sg75
g2599
sg68
(lp2615
g61
(g62
g63
NtRp2616
(dp2617
g66
(dp2618
g74
I3
ssg75
g2612
sg68
(lp2619
g1182
asbasbasbag61
(g77
g63
NtRp2620
(dp2621
g66
(dp2622
sg75
g2301
sg68
(lp2623
g61
(g82
g63
NtRp2624
(dp2625
g66
(dp2626
g86
g87
ssg75
g2620
sg68
(lp2627
S'SCRIPT_NAME'
p2628
asbag61
(g82
g63
NtRp2629
(dp2630
g66
(dp2631
g93
g94
ssg75
g2620
sg68
(lp2632
S':'
asbag61
(g82
g63
NtRp2633
(dp2634
g66
(dp2635
sg75
g2620
sg68
(lp2636
g61
(g62
g63
NtRp2637
(dp2638
g66
(dp2639
g74
I3
ssg75
g2633
sg68
(lp2640
S''
asbasbasbag61
(g77
g63
NtRp2641
(dp2642
g66
(dp2643
sg75
g2301
sg68
(lp2644
g61
(g82
g63
NtRp2645
(dp2646
g66
(dp2647
g86
g87
ssg75
g2641
sg68
(lp2648
S'SERVER_NAME'
p2649
asbag61
(g82
g63
NtRp2650
(dp2651
g66
(dp2652
g93
g94
ssg75
g2641
sg68
(lp2653
S':'
asbag61
(g82
g63
NtRp2654
(dp2655
g66
(dp2656
sg75
g2641
sg68
(lp2657
g61
(g62
g63
NtRp2658
(dp2659
g66
(dp2660
g74
I3
ssg75
g2654
sg68
(lp2661
g1225
asbasbasbag61
(g77
g63
NtRp2662
(dp2663
g66
(dp2664
sg75
g2301
sg68
(lp2665
g61
(g82
g63
NtRp2666
(dp2667
g66
(dp2668
g86
g87
ssg75
g2662
sg68
(lp2669
S'SERVER_PORT'
p2670
asbag61
(g82
g63
NtRp2671
(dp2672
g66
(dp2673
g93
g94
ssg75
g2662
sg68
(lp2674
S':'
asbag61
(g82
g63
NtRp2675
(dp2676
g66
(dp2677
sg75
g2662
sg68
(lp2678
g61
(g62
g63
NtRp2679
(dp2680
g66
(dp2681
g74
I3
ssg75
g2675
sg68
(lp2682
g1247
asbasbasbag61
(g77
g63
NtRp2683
(dp2684
g66
(dp2685
sg75
g2301
sg68
(lp2686
g61
(g82
g63
NtRp2687
(dp2688
g66
(dp2689
g86
g87
ssg75
g2683
sg68
(lp2690
S'SERVER_PROTOCOL'
p2691
asbag61
(g82
g63
NtRp2692
(dp2693
g66
(dp2694
g93
g94
ssg75
g2683
sg68
(lp2695
S':'
asbag61
(g82
g63
NtRp2696
(dp2697
g66
(dp2698
sg75
g2683
sg68
(lp2699
g61
(g62
g63
NtRp2700
(dp2701
g66
(dp2702
g74
I3
ssg75
g2696
sg68
(lp2703
g1269
asbasbasbag61
(g77
g63
NtRp2704
(dp2705
g66
(dp2706
sg75
g2301
sg68
(lp2707
g61
(g82
g63
NtRp2708
(dp2709
g66
(dp2710
g86
g87
ssg75
g2704
sg68
(lp2711
S'SERVER_SOFTWARE'
p2712
asbag61
(g82
g63
NtRp2713
(dp2714
g66
(dp2715
g93
g94
ssg75
g2704
sg68
(lp2716
S':'
asbag61
(g82
g63
NtRp2717
(dp2718
g66
(dp2719
sg75
g2704
sg68
(lp2720
g61
(g62
g63
NtRp2721
(dp2722
g66
(dp2723
g74
I3
ssg75
g2717
sg68
(lp2724
g1291
asbasbasbag61
(g77
g63
NtRp2725
(dp2726
g66
(dp2727
sg75
g2301
sg68
(lp2728
g61
(g82
g63
NtRp2729
(dp2730
g66
(dp2731
g86
g87
ssg75
g2725
sg68
(lp2732
S'wsgi.errors'
p2733
asbag61
(g82
g63
NtRp2734
(dp2735
g66
(dp2736
g93
g94
ssg75
g2725
sg68
(lp2737
S':'
asbag61
(g82
g63
NtRp2738
(dp2739
g66
(dp2740
sg75
g2725
sg68
(lp2741
g61
(g62
g63
NtRp2742
(dp2743
g66
(dp2744
g74
I3
ssg75
g2738
sg68
(lp2745
S"<open file '<stderr>', mode 'w' at 0x0000000001DB61E0>"
p2746
asbasbasbag61
(g77
g63
NtRp2747
(dp2748
g66
(dp2749
sg75
g2301
sg68
(lp2750
g61
(g82
g63
NtRp2751
(dp2752
g66
(dp2753
g86
g87
ssg75
g2747
sg68
(lp2754
S'wsgi.file_wrapper'
p2755
asbag61
(g82
g63
NtRp2756
(dp2757
g66
(dp2758
g93
g94
ssg75
g2747
sg68
(lp2759
S':'
asbag61
(g82
g63
NtRp2760
(dp2761
g66
(dp2762
sg75
g2747
sg68
(lp2763
g61
(g62
g63
NtRp2764
(dp2765
g66
(dp2766
g74
I3
ssg75
g2760
sg68
(lp2767
S'<class wsgiref.util.FileWrapper at 0x00000000036DC948>'
p2768
asbasbasbag61
(g77
g63
NtRp2769
(dp2770
g66
(dp2771
sg75
g2301
sg68
(lp2772
g61
(g82
g63
NtRp2773
(dp2774
g66
(dp2775
g86
g87
ssg75
g2769
sg68
(lp2776
S'wsgi.input'
p2777
asbag61
(g82
g63
NtRp2778
(dp2779
g66
(dp2780
g93
g94
ssg75
g2769
sg68
(lp2781
S':'
asbag61
(g82
g63
NtRp2782
(dp2783
g66
(dp2784
sg75
g2769
sg68
(lp2785
g61
(g62
g63
NtRp2786
(dp2787
g66
(dp2788
g74
I3
ssg75
g2782
sg68
(lp2789
S'<cStringIO.StringO object at 0x00000000087D7618>'
p2790
asbasbasbag61
(g77
g63
NtRp2791
(dp2792
g66
(dp2793
sg75
g2301
sg68
(lp2794
g61
(g82
g63
NtRp2795
(dp2796
g66
(dp2797
g86
g87
ssg75
g2791
sg68
(lp2798
S'wsgi.multiprocess'
p2799
asbag61
(g82
g63
NtRp2800
(dp2801
g66
(dp2802
g93
g94
ssg75
g2791
sg68
(lp2803
S':'
asbag61
(g82
g63
NtRp2804
(dp2805
g66
(dp2806
sg75
g2791
sg68
(lp2807
g61
(g62
g63
NtRp2808
(dp2809
g66
(dp2810
g74
I3
ssg75
g2804
sg68
(lp2811
g104
asbasbasbag61
(g77
g63
NtRp2812
(dp2813
g66
(dp2814
sg75
g2301
sg68
(lp2815
g61
(g82
g63
NtRp2816
(dp2817
g66
(dp2818
g86
g87
ssg75
g2812
sg68
(lp2819
S'wsgi.multithread'
p2820
asbag61
(g82
g63
NtRp2821
(dp2822
g66
(dp2823
g93
g94
ssg75
g2812
sg68
(lp2824
S':'
asbag61
(g82
g63
NtRp2825
(dp2826
g66
(dp2827
sg75
g2812
sg68
(lp2828
g61
(g62
g63
NtRp2829
(dp2830
g66
(dp2831
g74
I3
ssg75
g2825
sg68
(lp2832
g1531
asbasbasbag61
(g77
g63
NtRp2833
(dp2834
g66
(dp2835
sg75
g2301
sg68
(lp2836
g61
(g82
g63
NtRp2837
(dp2838
g66
(dp2839
g86
g87
ssg75
g2833
sg68
(lp2840
S'wsgi.run_once'
p2841
asbag61
(g82
g63
NtRp2842
(dp2843
g66
(dp2844
g93
g94
ssg75
g2833
sg68
(lp2845
S':'
asbag61
(g82
g63
NtRp2846
(dp2847
g66
(dp2848
sg75
g2833
sg68
(lp2849
g61
(g62
g63
NtRp2850
(dp2851
g66
(dp2852
g74
I3
ssg75
g2846
sg68
(lp2853
g104
asbasbasbag61
(g77
g63
NtRp2854
(dp2855
g66
(dp2856
sg75
g2301
sg68
(lp2857
g61
(g82
g63
NtRp2858
(dp2859
g66
(dp2860
g86
g87
ssg75
g2854
sg68
(lp2861
S'wsgi.url_scheme'
p2862
asbag61
(g82
g63
NtRp2863
(dp2864
g66
(dp2865
g93
g94
ssg75
g2854
sg68
(lp2866
S':'
asbag61
(g82
g63
NtRp2867
(dp2868
g66
(dp2869
sg75
g2854
sg68
(lp2870
g61
(g62
g63
NtRp2871
(dp2872
g66
(dp2873
g74
I3
ssg75
g2867
sg68
(lp2874
g1574
asbasbasbag61
(g77
g63
NtRp2875
(dp2876
g66
(dp2877
sg75
g2301
sg68
(lp2878
g61
(g82
g63
NtRp2879
(dp2880
g66
(dp2881
g86
g87
ssg75
g2875
sg68
(lp2882
S'wsgi.version'
p2883
asbag61
(g82
g63
NtRp2884
(dp2885
g66
(dp2886
g93
g94
ssg75
g2875
sg68
(lp2887
S':'
asbag61
(g82
g63
NtRp2888
(dp2889
g66
(dp2890
sg75
g2875
sg68
(lp2891
g61
(g62
g63
NtRp2892
(dp2893
g66
(dp2894
g74
I3
ssg75
g2888
sg68
(lp2895
S'1'
asbasbasbasbasbasbasbasbasbasbasbasbasbsS'frames'
p2896
(lp2897
(dp2898
S'file'
p2899
S'C:\\Users\\mellinja\\Documents\\SC2Tracker\\SC2Tracker2\\web2py\\gluon\\restricted.py'
p2900
sS'dump'
p2901
(dp2902
S'environment'
p2903
S"{'A': <class 'gluon.html.A'>, 'Auth': <class 'gluon.tools.Auth'>, 'B': <class 'gluon.html.B'>, 'BEAUTIFY': <class 'gluon.html.BEAUTIFY'>, 'BODY': <class 'gluon.html.BODY'>, 'BR': <class 'gluon.html.BR'>, 'BUTTON': <class 'gluon.html.BUTTON'>, 'CAT': <class 'gluon.html.CAT'>, 'CENTER': <class 'gluon.html.CENTER'>, 'CLEANUP': <class 'gluon.validators.CLEANUP'>, ...}"
p2904
sS'ccode'
p2905
S'<code object <module> at 00000000086D65B0, file ...ations\\welcome\\views\\map_pool/show.html", line 1>'
p2906
ssS'lnum'
p2907
I204
sS'lines'
p2908
(dp2909
I199
S'    try:'
p2910
sI200
S'        if type(code) == types.CodeType:'
p2911
sI201
S'            ccode = code'
p2912
sI202
S'        else:'
p2913
sI203
S'            ccode = compile2(code,layer)'
p2914
sI204
S'        exec ccode in environment'
p2915
sI205
S'    except HTTP:'
p2916
sI206
S'        raise'
p2917
sI207
S'    except RestrictedError:'
p2918
sI208
S'        # do not encapsulate (obfuscate) the original RestrictedError'
p2919
ssS'call'
p2920
S'(code=r"response.write(\'<!DOCTYPE html>\\r\\n<!-- pauliris...write(\'\\r\\n</body>\\r\\n</html>\\r\\n\', escape=False)", environment={\'A\': <class \'gluon.html.A\'>, \'Auth\': <class \'gluon.tools.Auth\'>, \'B\': <class \'gluon.html.B\'>, \'BEAUTIFY\': <class \'gluon.html.BEAUTIFY\'>, \'BODY\': <class \'gluon.html.BODY\'>, \'BR\': <class \'gluon.html.BR\'>, \'BUTTON\': <class \'gluon.html.BUTTON\'>, \'CAT\': <class \'gluon.html.CAT\'>, \'CENTER\': <class \'gluon.html.CENTER\'>, \'CLEANUP\': <class \'gluon.validators.CLEANUP\'>, ...}, layer=r\'C:\\Users\\mellinja\\Documents\\SC2Tracker\\SC2Tracke...2py\\applications\\welcome\\views\\map_pool/show.html\')'
p2921
sS'func'
p2922
S'restricted'
p2923
sa(dp2924
g2899
S'C:\\Users\\mellinja\\Documents\\SC2Tracker\\SC2Tracker2\\web2py\\applications\\welcome\\views\\map_pool\\show.html'
p2925
sg2901
(dp2926
sg2907
I80
sg2908
(dp2927
I71
S'response.write(\'\\r\\n        \\r\\n        <div class="\', escape=False)'
p2928
sI72
S'response.write(middle_columns)'
p2929
sI73
S'response.write(\' columns center">\\r\\n          \', escape=False)'
p2930
sI74
S"response.write('\\r\\n          ', escape=False)"
p2931
sI75
S"response.write('\\r\\n<h2>', escape=False)"
p2932
sI76
S'response.write(T("These are the maps in " + db.executesql("SELECT Name from Map_pool WHERE ID = " + str(poolID))[0][0]))'
p2933
sI77
S"response.write('</h2>\\r\\n<table>\\r\\n', escape=False)"
p2934
sI78
S'for mapID in mapIDs:'
p2935
sI79
S"    response.write('<tr><td>', escape=False)"
p2936
sI80
S'    db.executesql("SELECT Name FROM Map WHERE ID = " + str(mapID))'
p2937
sI81
S"    response.write('</td><td>', escape=False)"
p2938
sI82
S'    db.executesql("SELECT Type FROM Map WHERE ID = " + str(mapID))'
p2939
sI83
S"    response.write('</td></tr>', escape=False)"
p2940
sI84
S'    pass'
p2941
sI85
S"response.write('\\r\\n</table>\\r\\n', escape=False)"
p2942
sI86
S"response.write('\\r\\n          ', escape=False)"
p2943
sI87
S"response.write('\\r\\n        </div>\\r\\n        \\r\\n        ', escape=False)"
p2944
sI88
S'if right_sidebar_enabled:'
p2945
sI89
S'    response.write(\'\\r\\n        <div class="four columns">\\r\\n          \', escape=False)'
p2946
sI90
S"    response.write('\\r\\n          <h3>Right Sidebar</h3>\\r\\n          <p></p>\\r\\n          ', escape=False)"
p2947
ssg2920
S'()'
p2948
sg2922
S'<module>'
p2949
sa(dp2950
g2899
S'C:\\Users\\mellinja\\Documents\\SC2Tracker\\SC2Tracker2\\web2py\\gluon\\dal.py'
p2951
sg2901
(dp2952
S'query'
p2953
S"'SELECT Name FROM Map WHERE ID = (10001, )'"
p2954
sS'self'
p2955
S"<DAL {'auth_event': <Table {'origin': <gluon.dal...gluon.dal.Field object at 0x0000000008248438>}>}>"
p2956
sS'self._adapter'
p2957
S'<gluon.dal.MSSQLAdapter object>'
p2958
sS'self._adapter.execute'
p2959
S'<bound method MSSQLAdapter.execute of <gluon.dal.MSSQLAdapter object>>'
p2960
ssg2907
I5170
sg2908
(dp2961
I5165
S'        --bmeredyk'
p2962
sI5166
S'        """'
p2963
sI5167
S'        if placeholders:'
p2964
sI5168
S'            self._adapter.execute(query, placeholders)'
p2965
sI5169
S'        else:'
p2966
sI5170
S'            self._adapter.execute(query)'
p2967
sI5171
S'        if as_dict:'
p2968
sI5172
S"            if not hasattr(self._adapter.cursor,'description'):"
p2969
sI5173
S'                raise RuntimeError, "database does not support executesql(...,as_dict=True)"'
p2970
sI5174
S'            # Non-DAL legacy db query, converts cursor results to dict.'
p2971
ssg2920
S"(self=<DAL {'auth_event': <Table {'origin': <gluon.dal...gluon.dal.Field object at 0x0000000008248438>}>}>, query='SELECT Name FROM Map WHERE ID = (10001, )', placeholders=None, as_dict=False)"
p2972
sg2922
S'executesql'
p2973
sa(dp2974
g2899
S'C:\\Users\\mellinja\\Documents\\SC2Tracker\\SC2Tracker2\\web2py\\gluon\\dal.py'
p2975
sg2901
(dp2976
S'a'
S"('SELECT Name FROM Map WHERE ID = (10001, )',)"
p2977
sS'self'
p2978
S'<gluon.dal.MSSQLAdapter object>'
p2979
sS'b'
g21
sS'self.log_execute'
p2980
S'<bound method MSSQLAdapter.log_execute of <gluon.dal.MSSQLAdapter object>>'
p2981
ssg2907
I1359
sg2908
(dp2982
I1354
S'        self.db._timings.append((a[0],time.time()-t0))'
p2983
sI1355
S'        del self.db._timings[:-TIMINGSSIZE]'
p2984
sI1356
S'        return ret'
p2985
sI1357
S''
sI1358
S'    def execute(self, *a, **b):'
p2986
sI1359
S'        return self.log_execute(*a, **b)'
p2987
sI1360
S''
sI1361
S'    def represent(self, obj, fieldtype):'
p2988
sI1362
S'        if isinstance(obj, CALLABLETYPES):'
p2989
sI1363
S'            obj = obj()'
p2990
ssg2920
S"(self=<gluon.dal.MSSQLAdapter object>, *a=('SELECT Name FROM Map WHERE ID = (10001, )',), **b={})"
p2991
sg2922
S'execute'
p2992
sa(dp2993
g2899
S'C:\\Users\\mellinja\\Documents\\SC2Tracker\\SC2Tracker2\\web2py\\gluon\\dal.py'
p2994
sg2901
(dp2995
S'a'
S"('SELECT Name FROM Map WHERE ID = (10001, )',)"
p2996
sS'b'
g21
sS'self'
p2997
S'<gluon.dal.MSSQLAdapter object>'
p2998
sS'ret'
p2999
S'undefined'
p3000
sS'self.cursor'
p3001
S'<pyodbc.Cursor object>'
p3002
sS'self.cursor.execute'
p3003
S'<built-in method execute of pyodbc.Cursor object>'
p3004
ssg2907
I1353
sg2908
(dp3005
I1348
S'        self.execute(query)'
p3006
sI1349
S''
sI1350
S'    def log_execute(self, *a, **b):'
p3007
sI1351
S'        self.db._lastsql = a[0]'
p3008
sI1352
S'        t0 = time.time()'
p3009
sI1353
S'        ret = self.cursor.execute(*a, **b)'
p3010
sI1354
S'        self.db._timings.append((a[0],time.time()-t0))'
p3011
sI1355
S'        del self.db._timings[:-TIMINGSSIZE]'
p3012
sI1356
S'        return ret'
p3013
sI1357
S''
ssg2920
S"(self=<gluon.dal.MSSQLAdapter object>, *a=('SELECT Name FROM Map WHERE ID = (10001, )',), **b={})"
p3014
sg2922
S'log_execute'
p3015
sasS'pyver'
p3016
S'Python 2.7.2: C:\\Python27\\python.exe'
p3017
sS'session'
p3018
g61
(g62
g63
NtRp3019
(dp3020
g66
(dp3021
sg68
(lp3022
g61
(g70
g63
NtRp3023
(dp3024
g66
(dp3025
g74
I5
ssg75
Nsg68
(lp3026
g61
(g77
g63
NtRp3027
(dp3028
g66
(dp3029
sg75
g3023
sg68
(lp3030
g61
(g82
g63
NtRp3031
(dp3032
g66
(dp3033
g86
g87
ssg75
g3027
sg68
(lp3034
S'auth'
p3035
asbag61
(g82
g63
NtRp3036
(dp3037
g66
(dp3038
g93
g94
ssg75
g3027
sg68
(lp3039
S':'
asbag61
(g82
g63
NtRp3040
(dp3041
g66
(dp3042
sg75
g3027
sg68
(lp3043
g61
(g62
g63
NtRp3044
(dp3045
g66
(dp3046
g74
I5
ssg75
g3040
sg68
(lp3047
g61
(g70
g63
NtRp3048
(dp3049
g66
(dp3050
g74
I4
ssg75
Nsg68
(lp3051
g61
(g77
g63
NtRp3052
(dp3053
g66
(dp3054
sg75
g3048
sg68
(lp3055
g61
(g82
g63
NtRp3056
(dp3057
g66
(dp3058
g86
g87
ssg75
g3052
sg68
(lp3059
S'expiration'
p3060
asbag61
(g82
g63
NtRp3061
(dp3062
g66
(dp3063
g93
g94
ssg75
g3052
sg68
(lp3064
S':'
asbag61
(g82
g63
NtRp3065
(dp3066
g66
(dp3067
sg75
g3052
sg68
(lp3068
g61
(g62
g63
NtRp3069
(dp3070
g66
(dp3071
g74
I4
ssg75
g3065
sg68
(lp3072
S'2592000'
p3073
asbasbasbag61
(g77
g63
NtRp3074
(dp3075
g66
(dp3076
sg75
g3048
sg68
(lp3077
g61
(g82
g63
NtRp3078
(dp3079
g66
(dp3080
g86
g87
ssg75
g3074
sg68
(lp3081
S'hmac_key'
p3082
asbag61
(g82
g63
NtRp3083
(dp3084
g66
(dp3085
g93
g94
ssg75
g3074
sg68
(lp3086
S':'
asbag61
(g82
g63
NtRp3087
(dp3088
g66
(dp3089
sg75
g3074
sg68
(lp3090
g61
(g62
g63
NtRp3091
(dp3092
g66
(dp3093
g74
I4
ssg75
g3087
sg68
(lp3094
S'a71f6278-c921-48c8-9b42-960b6738cfbd'
p3095
asbasbasbag61
(g77
g63
NtRp3096
(dp3097
g66
(dp3098
sg75
g3048
sg68
(lp3099
g61
(g82
g63
NtRp3100
(dp3101
g66
(dp3102
g86
g87
ssg75
g3096
sg68
(lp3103
S'last_visit'
p3104
asbag61
(g82
g63
NtRp3105
(dp3106
g66
(dp3107
g93
g94
ssg75
g3096
sg68
(lp3108
S':'
asbag61
(g82
g63
NtRp3109
(dp3110
g66
(dp3111
sg75
g3096
sg68
(lp3112
g61
(g62
g63
NtRp3113
(dp3114
g66
(dp3115
g74
I4
ssg75
g3109
sg68
(lp3116
S'datetime.datetime(2012, 2, 13, 17, 53, 14, 371000)'
p3117
asbasbasbag61
(g77
g63
NtRp3118
(dp3119
g66
(dp3120
sg75
g3048
sg68
(lp3121
g61
(g82
g63
NtRp3122
(dp3123
g66
(dp3124
g86
g87
ssg75
g3118
sg68
(lp3125
S'remember'
p3126
asbag61
(g82
g63
NtRp3127
(dp3128
g66
(dp3129
g93
g94
ssg75
g3118
sg68
(lp3130
S':'
asbag61
(g82
g63
NtRp3131
(dp3132
g66
(dp3133
sg75
g3118
sg68
(lp3134
g61
(g62
g63
NtRp3135
(dp3136
g66
(dp3137
g74
I4
ssg75
g3131
sg68
(lp3138
g104
asbasbasbag61
(g77
g63
NtRp3139
(dp3140
g66
(dp3141
sg75
g3048
sg68
(lp3142
g61
(g82
g63
NtRp3143
(dp3144
g66
(dp3145
g86
g87
ssg75
g3139
sg68
(lp3146
S'user'
p3147
asbag61
(g82
g63
NtRp3148
(dp3149
g66
(dp3150
g93
g94
ssg75
g3139
sg68
(lp3151
S':'
asbag61
(g82
g63
NtRp3152
(dp3153
g66
(dp3154
sg75
g3139
sg68
(lp3155
g61
(g62
g63
NtRp3156
(dp3157
g66
(dp3158
g74
I4
ssg75
g3152
sg68
(lp3159
g61
(g70
g63
NtRp3160
(dp3161
g66
(dp3162
g74
I3
ssg75
Nsg68
(lp3163
g61
(g77
g63
NtRp3164
(dp3165
g66
(dp3166
sg75
g3160
sg68
(lp3167
g61
(g82
g63
NtRp3168
(dp3169
g66
(dp3170
g86
g87
ssg75
g3164
sg68
(lp3171
S'email'
p3172
asbag61
(g82
g63
NtRp3173
(dp3174
g66
(dp3175
g93
g94
ssg75
g3164
sg68
(lp3176
S':'
asbag61
(g82
g63
NtRp3177
(dp3178
g66
(dp3179
sg75
g3164
sg68
(lp3180
g61
(g62
g63
NtRp3181
(dp3182
g66
(dp3183
g74
I3
ssg75
g3177
sg68
(lp3184
S'mellinja@gmail.com'
p3185
asbasbasbag61
(g77
g63
NtRp3186
(dp3187
g66
(dp3188
sg75
g3160
sg68
(lp3189
g61
(g82
g63
NtRp3190
(dp3191
g66
(dp3192
g86
g87
ssg75
g3186
sg68
(lp3193
S'first_name'
p3194
asbag61
(g82
g63
NtRp3195
(dp3196
g66
(dp3197
g93
g94
ssg75
g3186
sg68
(lp3198
S':'
asbag61
(g82
g63
NtRp3199
(dp3200
g66
(dp3201
sg75
g3186
sg68
(lp3202
g61
(g62
g63
NtRp3203
(dp3204
g66
(dp3205
g74
I3
ssg75
g3199
sg68
(lp3206
S'Jackson'
p3207
asbasbasbag61
(g77
g63
NtRp3208
(dp3209
g66
(dp3210
sg75
g3160
sg68
(lp3211
g61
(g82
g63
NtRp3212
(dp3213
g66
(dp3214
g86
g87
ssg75
g3208
sg68
(lp3215
S'id'
p3216
asbag61
(g82
g63
NtRp3217
(dp3218
g66
(dp3219
g93
g94
ssg75
g3208
sg68
(lp3220
S':'
asbag61
(g82
g63
NtRp3221
(dp3222
g66
(dp3223
sg75
g3208
sg68
(lp3224
g61
(g62
g63
NtRp3225
(dp3226
g66
(dp3227
g74
I3
ssg75
g3221
sg68
(lp3228
S'3'
asbasbasbag61
(g77
g63
NtRp3229
(dp3230
g66
(dp3231
sg75
g3160
sg68
(lp3232
g61
(g82
g63
NtRp3233
(dp3234
g66
(dp3235
g86
g87
ssg75
g3229
sg68
(lp3236
S'last_name'
p3237
asbag61
(g82
g63
NtRp3238
(dp3239
g66
(dp3240
g93
g94
ssg75
g3229
sg68
(lp3241
S':'
asbag61
(g82
g63
NtRp3242
(dp3243
g66
(dp3244
sg75
g3229
sg68
(lp3245
g61
(g62
g63
NtRp3246
(dp3247
g66
(dp3248
g74
I3
ssg75
g3242
sg68
(lp3249
S'Melling'
p3250
asbasbasbag61
(g77
g63
NtRp3251
(dp3252
g66
(dp3253
sg75
g3160
sg68
(lp3254
g61
(g82
g63
NtRp3255
(dp3256
g66
(dp3257
g86
g87
ssg75
g3251
sg68
(lp3258
S'password'
p3259
asbag61
(g82
g63
NtRp3260
(dp3261
g66
(dp3262
g93
g94
ssg75
g3251
sg68
(lp3263
S':'
asbag61
(g82
g63
NtRp3264
(dp3265
g66
(dp3266
sg75
g3251
sg68
(lp3267
g61
(g62
g63
NtRp3268
(dp3269
g66
(dp3270
g74
I3
ssg75
g3264
sg68
(lp3271
S'98beeff9538312abb10179bd86e0a5a2'
p3272
asbasbasbag61
(g77
g63
NtRp3273
(dp3274
g66
(dp3275
sg75
g3160
sg68
(lp3276
g61
(g82
g63
NtRp3277
(dp3278
g66
(dp3279
g86
g87
ssg75
g3273
sg68
(lp3280
S'registration_id'
p3281
asbag61
(g82
g63
NtRp3282
(dp3283
g66
(dp3284
g93
g94
ssg75
g3273
sg68
(lp3285
S':'
asbag61
(g82
g63
NtRp3286
(dp3287
g66
(dp3288
sg75
g3273
sg68
(lp3289
g61
(g62
g63
NtRp3290
(dp3291
g66
(dp3292
g74
I3
ssg75
g3286
sg68
(lp3293
S''
asbasbasbag61
(g77
g63
NtRp3294
(dp3295
g66
(dp3296
sg75
g3160
sg68
(lp3297
g61
(g82
g63
NtRp3298
(dp3299
g66
(dp3300
g86
g87
ssg75
g3294
sg68
(lp3301
S'registration_key'
p3302
asbag61
(g82
g63
NtRp3303
(dp3304
g66
(dp3305
g93
g94
ssg75
g3294
sg68
(lp3306
S':'
asbag61
(g82
g63
NtRp3307
(dp3308
g66
(dp3309
sg75
g3294
sg68
(lp3310
g61
(g62
g63
NtRp3311
(dp3312
g66
(dp3313
g74
I3
ssg75
g3307
sg68
(lp3314
S''
asbasbasbag61
(g77
g63
NtRp3315
(dp3316
g66
(dp3317
sg75
g3160
sg68
(lp3318
g61
(g82
g63
NtRp3319
(dp3320
g66
(dp3321
g86
g87
ssg75
g3315
sg68
(lp3322
S'reset_password_key'
p3323
asbag61
(g82
g63
NtRp3324
(dp3325
g66
(dp3326
g93
g94
ssg75
g3315
sg68
(lp3327
S':'
asbag61
(g82
g63
NtRp3328
(dp3329
g66
(dp3330
sg75
g3315
sg68
(lp3331
g61
(g62
g63
NtRp3332
(dp3333
g66
(dp3334
g74
I3
ssg75
g3328
sg68
(lp3335
S'1327597193-2590f763-191b-469c-bc47-fc293ee83460'
p3336
asbasbasbasbasbasbasbasbasbasbasbag61
(g77
g63
NtRp3337
(dp3338
g66
(dp3339
sg75
g3023
sg68
(lp3340
g61
(g82
g63
NtRp3341
(dp3342
g66
(dp3343
g86
g87
ssg75
g3337
sg68
(lp3344
S'last_query'
p3345
asbag61
(g82
g63
NtRp3346
(dp3347
g66
(dp3348
g93
g94
ssg75
g3337
sg68
(lp3349
S':'
asbag61
(g82
g63
NtRp3350
(dp3351
g66
(dp3352
sg75
g3337
sg68
(lp3353
g61
(g62
g63
NtRp3354
(dp3355
g66
(dp3356
g74
I5
ssg75
g3350
sg68
(lp3357
S'db.Map_to_Map_Pool.id>0'
p3358
asbasbasbasbasbsS'etype'
p3359
S"<class 'pyodbc.ProgrammingError'>"
p3360
sS'date'
p3361
S'Mon Feb 13 18:16:17 2012'
p3362
sS'response'
p3363
g61
(g62
g63
NtRp3364
(dp3365
g66
(dp3366
sg68
(lp3367
g61
(g70
g63
NtRp3368
(dp3369
g66
(dp3370
g74
I5
ssg75
Nsg68
(lp3371
g61
(g77
g63
NtRp3372
(dp3373
g66
(dp3374
sg75
g3368
sg68
(lp3375
g61
(g82
g63
NtRp3376
(dp3377
g66
(dp3378
g86
g87
ssg75
g3372
sg68
(lp3379
g171
asbag61
(g82
g63
NtRp3380
(dp3381
g66
(dp3382
g93
g94
ssg75
g3372
sg68
(lp3383
S':'
asbag61
(g82
g63
NtRp3384
(dp3385
g66
(dp3386
sg75
g3372
sg68
(lp3387
g61
(g62
g63
NtRp3388
(dp3389
g66
(dp3390
g74
I5
ssg75
g3384
sg68
(lp3391
S'<cStringIO.StringO object at 0x00000000087EC0A0>'
p3392
asbasbasbag61
(g77
g63
NtRp3393
(dp3394
g66
(dp3395
sg75
g3368
sg68
(lp3396
g61
(g82
g63
NtRp3397
(dp3398
g66
(dp3399
g86
g87
ssg75
g3393
sg68
(lp3400
g237
asbag61
(g82
g63
NtRp3401
(dp3402
g66
(dp3403
g93
g94
ssg75
g3393
sg68
(lp3404
S':'
asbag61
(g82
g63
NtRp3405
(dp3406
g66
(dp3407
sg75
g3393
sg68
(lp3408
g61
(g62
g63
NtRp3409
(dp3410
g66
(dp3411
g74
I5
ssg75
g3405
sg68
(lp3412
g61
(g70
g63
NtRp3413
(dp3414
g66
(dp3415
g74
I4
ssg75
Nsg68
(lp3416
g61
(g77
g63
NtRp3417
(dp3418
g66
(dp3419
sg75
g3413
sg68
(lp3420
g61
(g82
g63
NtRp3421
(dp3422
g66
(dp3423
g86
g87
ssg75
g3417
sg68
(lp3424
S'session_id_welcome'
p3425
asbag61
(g82
g63
NtRp3426
(dp3427
g66
(dp3428
g93
g94
ssg75
g3417
sg68
(lp3429
S':'
asbag61
(g82
g63
NtRp3430
(dp3431
g66
(dp3432
sg75
g3417
sg68
(lp3433
g61
(g62
g63
NtRp3434
(dp3435
g66
(dp3436
g74
I4
ssg75
g3430
sg68
(lp3437
g61
(g70
g63
NtRp3438
(dp3439
g66
(dp3440
g74
I3
ssg75
Nsg68
(lp3441
g61
(g77
g63
NtRp3442
(dp3443
g66
(dp3444
sg75
g3438
sg68
(lp3445
g61
(g82
g63
NtRp3446
(dp3447
g66
(dp3448
g86
g87
ssg75
g3442
sg68
(lp3449
g287
asbag61
(g82
g63
NtRp3450
(dp3451
g66
(dp3452
g93
g94
ssg75
g3442
sg68
(lp3453
S':'
asbag61
(g82
g63
NtRp3454
(dp3455
g66
(dp3456
sg75
g3442
sg68
(lp3457
g61
(g62
g63
NtRp3458
(dp3459
g66
(dp3460
g74
I3
ssg75
g3454
sg68
(lp3461
S''
asbasbasbag61
(g77
g63
NtRp3462
(dp3463
g66
(dp3464
sg75
g3438
sg68
(lp3465
g61
(g82
g63
NtRp3466
(dp3467
g66
(dp3468
g86
g87
ssg75
g3462
sg68
(lp3469
g308
asbag61
(g82
g63
NtRp3470
(dp3471
g66
(dp3472
g93
g94
ssg75
g3462
sg68
(lp3473
S':'
asbag61
(g82
g63
NtRp3474
(dp3475
g66
(dp3476
sg75
g3462
sg68
(lp3477
g61
(g62
g63
NtRp3478
(dp3479
g66
(dp3480
g74
I3
ssg75
g3474
sg68
(lp3481
S''
asbasbasbag61
(g77
g63
NtRp3482
(dp3483
g66
(dp3484
sg75
g3438
sg68
(lp3485
g61
(g82
g63
NtRp3486
(dp3487
g66
(dp3488
g86
g87
ssg75
g3482
sg68
(lp3489
g329
asbag61
(g82
g63
NtRp3490
(dp3491
g66
(dp3492
g93
g94
ssg75
g3482
sg68
(lp3493
S':'
asbag61
(g82
g63
NtRp3494
(dp3495
g66
(dp3496
sg75
g3482
sg68
(lp3497
g61
(g62
g63
NtRp3498
(dp3499
g66
(dp3500
g74
I3
ssg75
g3494
sg68
(lp3501
S''
asbasbasbag61
(g77
g63
NtRp3502
(dp3503
g66
(dp3504
sg75
g3438
sg68
(lp3505
g61
(g82
g63
NtRp3506
(dp3507
g66
(dp3508
g86
g87
ssg75
g3502
sg68
(lp3509
g350
asbag61
(g82
g63
NtRp3510
(dp3511
g66
(dp3512
g93
g94
ssg75
g3502
sg68
(lp3513
S':'
asbag61
(g82
g63
NtRp3514
(dp3515
g66
(dp3516
sg75
g3502
sg68
(lp3517
g61
(g62
g63
NtRp3518
(dp3519
g66
(dp3520
g74
I3
ssg75
g3514
sg68
(lp3521
S''
asbasbasbag61
(g77
g63
NtRp3522
(dp3523
g66
(dp3524
sg75
g3438
sg68
(lp3525
g61
(g82
g63
NtRp3526
(dp3527
g66
(dp3528
g86
g87
ssg75
g3522
sg68
(lp3529
g371
asbag61
(g82
g63
NtRp3530
(dp3531
g66
(dp3532
g93
g94
ssg75
g3522
sg68
(lp3533
S':'
asbag61
(g82
g63
NtRp3534
(dp3535
g66
(dp3536
sg75
g3522
sg68
(lp3537
g61
(g62
g63
NtRp3538
(dp3539
g66
(dp3540
g74
I3
ssg75
g3534
sg68
(lp3541
S''
asbasbasbag61
(g77
g63
NtRp3542
(dp3543
g66
(dp3544
sg75
g3438
sg68
(lp3545
g61
(g82
g63
NtRp3546
(dp3547
g66
(dp3548
g86
g87
ssg75
g3542
sg68
(lp3549
g392
asbag61
(g82
g63
NtRp3550
(dp3551
g66
(dp3552
g93
g94
ssg75
g3542
sg68
(lp3553
S':'
asbag61
(g82
g63
NtRp3554
(dp3555
g66
(dp3556
sg75
g3542
sg68
(lp3557
g61
(g62
g63
NtRp3558
(dp3559
g66
(dp3560
g74
I3
ssg75
g3554
sg68
(lp3561
S'/'
asbasbasbag61
(g77
g63
NtRp3562
(dp3563
g66
(dp3564
sg75
g3438
sg68
(lp3565
g61
(g82
g63
NtRp3566
(dp3567
g66
(dp3568
g86
g87
ssg75
g3562
sg68
(lp3569
g413
asbag61
(g82
g63
NtRp3570
(dp3571
g66
(dp3572
g93
g94
ssg75
g3562
sg68
(lp3573
S':'
asbag61
(g82
g63
NtRp3574
(dp3575
g66
(dp3576
sg75
g3562
sg68
(lp3577
g61
(g62
g63
NtRp3578
(dp3579
g66
(dp3580
g74
I3
ssg75
g3574
sg68
(lp3581
S''
asbasbasbag61
(g77
g63
NtRp3582
(dp3583
g66
(dp3584
sg75
g3438
sg68
(lp3585
g61
(g82
g63
NtRp3586
(dp3587
g66
(dp3588
g86
g87
ssg75
g3582
sg68
(lp3589
g434
asbag61
(g82
g63
NtRp3590
(dp3591
g66
(dp3592
g93
g94
ssg75
g3582
sg68
(lp3593
S':'
asbag61
(g82
g63
NtRp3594
(dp3595
g66
(dp3596
sg75
g3582
sg68
(lp3597
g61
(g62
g63
NtRp3598
(dp3599
g66
(dp3600
g74
I3
ssg75
g3594
sg68
(lp3601
S''
asbasbasbasbasbasbasbasbasbasbasbag61
(g77
g63
NtRp3602
(dp3603
g66
(dp3604
sg75
g3368
sg68
(lp3605
g61
(g82
g63
NtRp3606
(dp3607
g66
(dp3608
g86
g87
ssg75
g3602
sg68
(lp3609
S'files'
p3610
asbag61
(g82
g63
NtRp3611
(dp3612
g66
(dp3613
g93
g94
ssg75
g3602
sg68
(lp3614
S':'
asbag61
(g82
g63
NtRp3615
(dp3616
g66
(dp3617
sg75
g3602
sg68
(lp3618
g61
(g62
g63
NtRp3619
(dp3620
g66
(dp3621
g74
I5
ssg75
g3615
sg68
(lp3622
g61
(g70
g63
NtRp3623
(dp3624
g66
(dp3625
g74
I4
ssg75
Nsg68
(lp3626
g61
(g77
g63
NtRp3627
(dp3628
g66
(dp3629
sg75
g3623
sg68
(lp3630
g61
(g82
g63
NtRp3631
(dp3632
g66
(dp3633
sg75
g3627
sg68
(lp3634
g61
(g62
g63
NtRp3635
(dp3636
g66
(dp3637
g74
I4
ssg75
g3631
sg68
(lp3638
S'/welcome/static/js/jquery.js'
p3639
asbasbasbag61
(g77
g63
NtRp3640
(dp3641
g66
(dp3642
sg75
g3623
sg68
(lp3643
g61
(g82
g63
NtRp3644
(dp3645
g66
(dp3646
sg75
g3640
sg68
(lp3647
g61
(g62
g63
NtRp3648
(dp3649
g66
(dp3650
g74
I4
ssg75
g3644
sg68
(lp3651
S'/welcome/static/css/calendar.css'
p3652
asbasbasbag61
(g77
g63
NtRp3653
(dp3654
g66
(dp3655
sg75
g3623
sg68
(lp3656
g61
(g82
g63
NtRp3657
(dp3658
g66
(dp3659
sg75
g3653
sg68
(lp3660
g61
(g62
g63
NtRp3661
(dp3662
g66
(dp3663
g74
I4
ssg75
g3657
sg68
(lp3664
S'/welcome/static/js/calendar.js'
p3665
asbasbasbag61
(g77
g63
NtRp3666
(dp3667
g66
(dp3668
sg75
g3623
sg68
(lp3669
g61
(g82
g63
NtRp3670
(dp3671
g66
(dp3672
sg75
g3666
sg68
(lp3673
g61
(g62
g63
NtRp3674
(dp3675
g66
(dp3676
g74
I4
ssg75
g3670
sg68
(lp3677
S'/welcome/static/js/web2py.js'
p3678
asbasbasbag61
(g77
g63
NtRp3679
(dp3680
g66
(dp3681
sg75
g3623
sg68
(lp3682
g61
(g82
g63
NtRp3683
(dp3684
g66
(dp3685
sg75
g3679
sg68
(lp3686
g61
(g62
g63
NtRp3687
(dp3688
g66
(dp3689
g74
I4
ssg75
g3683
sg68
(lp3690
S'/welcome/static/css/skeleton.css'
p3691
asbasbasbag61
(g77
g63
NtRp3692
(dp3693
g66
(dp3694
sg75
g3623
sg68
(lp3695
g61
(g82
g63
NtRp3696
(dp3697
g66
(dp3698
sg75
g3692
sg68
(lp3699
g61
(g62
g63
NtRp3700
(dp3701
g66
(dp3702
g74
I4
ssg75
g3696
sg68
(lp3703
S'/welcome/static/css/web2py.css'
p3704
asbasbasbag61
(g77
g63
NtRp3705
(dp3706
g66
(dp3707
sg75
g3623
sg68
(lp3708
g61
(g82
g63
NtRp3709
(dp3710
g66
(dp3711
sg75
g3705
sg68
(lp3712
g61
(g62
g63
NtRp3713
(dp3714
g66
(dp3715
g74
I4
ssg75
g3709
sg68
(lp3716
S'/welcome/static/css/superfish.css'
p3717
asbasbasbag61
(g77
g63
NtRp3718
(dp3719
g66
(dp3720
sg75
g3623
sg68
(lp3721
g61
(g82
g63
NtRp3722
(dp3723
g66
(dp3724
sg75
g3718
sg68
(lp3725
g61
(g62
g63
NtRp3726
(dp3727
g66
(dp3728
g74
I4
ssg75
g3722
sg68
(lp3729
S'/welcome/static/js/superfish.js'
p3730
asbasbasbasbasbasbasbag61
(g77
g63
NtRp3731
(dp3732
g66
(dp3733
sg75
g3368
sg68
(lp3734
g61
(g82
g63
NtRp3735
(dp3736
g66
(dp3737
g86
g87
ssg75
g3731
sg68
(lp3738
S'flash'
p3739
asbag61
(g82
g63
NtRp3740
(dp3741
g66
(dp3742
g93
g94
ssg75
g3731
sg68
(lp3743
S':'
asbag61
(g82
g63
NtRp3744
(dp3745
g66
(dp3746
sg75
g3731
sg68
(lp3747
g61
(g62
g63
NtRp3748
(dp3749
g66
(dp3750
g74
I5
ssg75
g3744
sg68
(lp3751
S''
asbasbasbag61
(g77
g63
NtRp3752
(dp3753
g66
(dp3754
sg75
g3368
sg68
(lp3755
g61
(g82
g63
NtRp3756
(dp3757
g66
(dp3758
g86
g87
ssg75
g3752
sg68
(lp3759
S'generic_patterns'
p3760
asbag61
(g82
g63
NtRp3761
(dp3762
g66
(dp3763
g93
g94
ssg75
g3752
sg68
(lp3764
S':'
asbag61
(g82
g63
NtRp3765
(dp3766
g66
(dp3767
sg75
g3752
sg68
(lp3768
g61
(g62
g63
NtRp3769
(dp3770
g66
(dp3771
g74
I5
ssg75
g3765
sg68
(lp3772
g61
(g70
g63
NtRp3773
(dp3774
g66
(dp3775
g74
I4
ssg75
Nsg68
(lp3776
g61
(g77
g63
NtRp3777
(dp3778
g66
(dp3779
sg75
g3773
sg68
(lp3780
g61
(g82
g63
NtRp3781
(dp3782
g66
(dp3783
sg75
g3777
sg68
(lp3784
g61
(g62
g63
NtRp3785
(dp3786
g66
(dp3787
g74
I4
ssg75
g3781
sg68
(lp3788
S'*'
asbasbasbasbasbasbasbag61
(g77
g63
NtRp3789
(dp3790
g66
(dp3791
sg75
g3368
sg68
(lp3792
g61
(g82
g63
NtRp3793
(dp3794
g66
(dp3795
g86
g87
ssg75
g3789
sg68
(lp3796
S'headers'
p3797
asbag61
(g82
g63
NtRp3798
(dp3799
g66
(dp3800
g93
g94
ssg75
g3789
sg68
(lp3801
S':'
asbag61
(g82
g63
NtRp3802
(dp3803
g66
(dp3804
sg75
g3789
sg68
(lp3805
g61
(g62
g63
NtRp3806
(dp3807
g66
(dp3808
g74
I5
ssg75
g3802
sg68
(lp3809
g61
(g70
g63
NtRp3810
(dp3811
g66
(dp3812
g74
I4
ssg75
Nsg68
(lp3813
g61
(g77
g63
NtRp3814
(dp3815
g66
(dp3816
sg75
g3810
sg68
(lp3817
g61
(g82
g63
NtRp3818
(dp3819
g66
(dp3820
g86
g87
ssg75
g3814
sg68
(lp3821
S'Cache-Control'
p3822
asbag61
(g82
g63
NtRp3823
(dp3824
g66
(dp3825
g93
g94
ssg75
g3814
sg68
(lp3826
S':'
asbag61
(g82
g63
NtRp3827
(dp3828
g66
(dp3829
sg75
g3814
sg68
(lp3830
g61
(g62
g63
NtRp3831
(dp3832
g66
(dp3833
g74
I4
ssg75
g3827
sg68
(lp3834
S'no-store, no-cache, must-revalidate, post-check=0, pre-check=0'
p3835
asbasbasbag61
(g77
g63
NtRp3836
(dp3837
g66
(dp3838
sg75
g3810
sg68
(lp3839
g61
(g82
g63
NtRp3840
(dp3841
g66
(dp3842
g86
g87
ssg75
g3836
sg68
(lp3843
S'Content-Type'
p3844
asbag61
(g82
g63
NtRp3845
(dp3846
g66
(dp3847
g93
g94
ssg75
g3836
sg68
(lp3848
S':'
asbag61
(g82
g63
NtRp3849
(dp3850
g66
(dp3851
sg75
g3836
sg68
(lp3852
g61
(g62
g63
NtRp3853
(dp3854
g66
(dp3855
g74
I4
ssg75
g3849
sg68
(lp3856
S'text/html; charset=utf-8'
p3857
asbasbasbag61
(g77
g63
NtRp3858
(dp3859
g66
(dp3860
sg75
g3810
sg68
(lp3861
g61
(g82
g63
NtRp3862
(dp3863
g66
(dp3864
g86
g87
ssg75
g3858
sg68
(lp3865
S'Expires'
p3866
asbag61
(g82
g63
NtRp3867
(dp3868
g66
(dp3869
g93
g94
ssg75
g3858
sg68
(lp3870
S':'
asbag61
(g82
g63
NtRp3871
(dp3872
g66
(dp3873
sg75
g3858
sg68
(lp3874
g61
(g62
g63
NtRp3875
(dp3876
g66
(dp3877
g74
I4
ssg75
g3871
sg68
(lp3878
S'Mon, 13 Feb 2012 23:16:17 GMT'
p3879
asbasbasbag61
(g77
g63
NtRp3880
(dp3881
g66
(dp3882
sg75
g3810
sg68
(lp3883
g61
(g82
g63
NtRp3884
(dp3885
g66
(dp3886
g86
g87
ssg75
g3880
sg68
(lp3887
S'Pragma'
p3888
asbag61
(g82
g63
NtRp3889
(dp3890
g66
(dp3891
g93
g94
ssg75
g3880
sg68
(lp3892
S':'
asbag61
(g82
g63
NtRp3893
(dp3894
g66
(dp3895
sg75
g3880
sg68
(lp3896
g61
(g62
g63
NtRp3897
(dp3898
g66
(dp3899
g74
I4
ssg75
g3893
sg68
(lp3900
S'no-cache'
p3901
asbasbasbag61
(g77
g63
NtRp3902
(dp3903
g66
(dp3904
sg75
g3810
sg68
(lp3905
g61
(g82
g63
NtRp3906
(dp3907
g66
(dp3908
g86
g87
ssg75
g3902
sg68
(lp3909
S'X-Powered-By'
p3910
asbag61
(g82
g63
NtRp3911
(dp3912
g66
(dp3913
g93
g94
ssg75
g3902
sg68
(lp3914
S':'
asbag61
(g82
g63
NtRp3915
(dp3916
g66
(dp3917
sg75
g3902
sg68
(lp3918
g61
(g62
g63
NtRp3919
(dp3920
g66
(dp3921
g74
I4
ssg75
g3915
sg68
(lp3922
S'web2py'
p3923
asbasbasbasbasbasbasbag61
(g77
g63
NtRp3924
(dp3925
g66
(dp3926
sg75
g3368
sg68
(lp3927
g61
(g82
g63
NtRp3928
(dp3929
g66
(dp3930
g86
g87
ssg75
g3924
sg68
(lp3931
S'menu'
p3932
asbag61
(g82
g63
NtRp3933
(dp3934
g66
(dp3935
g93
g94
ssg75
g3924
sg68
(lp3936
S':'
asbag61
(g82
g63
NtRp3937
(dp3938
g66
(dp3939
sg75
g3924
sg68
(lp3940
g61
(g62
g63
NtRp3941
(dp3942
g66
(dp3943
g74
I5
ssg75
g3937
sg68
(lp3944
g61
(g70
g63
NtRp3945
(dp3946
g66
(dp3947
g74
I4
ssg75
Nsg68
(lp3948
g61
(g77
g63
NtRp3949
(dp3950
g66
(dp3951
sg75
g3945
sg68
(lp3952
g61
(g82
g63
NtRp3953
(dp3954
g66
(dp3955
sg75
g3949
sg68
(lp3956
g61
(g62
g63
NtRp3957
(dp3958
g66
(dp3959
g74
I4
ssg75
g3953
sg68
(lp3960
g61
(g70
g63
NtRp3961
(dp3962
g66
(dp3963
g74
I3
ssg75
Nsg68
(lp3964
g61
(g77
g63
NtRp3965
(dp3966
g66
(dp3967
sg75
g3961
sg68
(lp3968
g61
(g82
g63
NtRp3969
(dp3970
g66
(dp3971
sg75
g3965
sg68
(lp3972
g61
(g62
g63
NtRp3973
(dp3974
g66
(dp3975
g74
I3
ssg75
g3969
sg68
(lp3976
cgluon.languages
lazyT_unpickle
p3977
(S't\x04\x00\x00\x00Home'
tRp3978
asbasbasbag61
(g77
g63
NtRp3979
(dp3980
g66
(dp3981
sg75
g3961
sg68
(lp3982
g61
(g82
g63
NtRp3983
(dp3984
g66
(dp3985
sg75
g3979
sg68
(lp3986
g61
(g62
g63
NtRp3987
(dp3988
g66
(dp3989
g74
I3
ssg75
g3983
sg68
(lp3990
g104
asbasbasbag61
(g77
g63
NtRp3991
(dp3992
g66
(dp3993
sg75
g3961
sg68
(lp3994
g61
(g82
g63
NtRp3995
(dp3996
g66
(dp3997
sg75
g3991
sg68
(lp3998
g61
(g62
g63
NtRp3999
(dp4000
g66
(dp4001
g74
I3
ssg75
g3995
sg68
(lp4002
S'/welcome/default/index'
p4003
asbasbasbag61
(g77
g63
NtRp4004
(dp4005
g66
(dp4006
sg75
g3961
sg68
(lp4007
g61
(g82
g63
NtRp4008
(dp4009
g66
(dp4010
sg75
g4004
sg68
(lp4011
g61
(g62
g63
NtRp4012
(dp4013
g66
(dp4014
g74
I3
ssg75
g4008
sg68
(lp4015
g61
(g70
g63
NtRp4016
(dp4017
g66
(dp4018
g74
I2
ssg75
Nsg68
(lp4019
sbasbasbasbasbasbasbasbasbasbasbasbag61
(g77
g63
NtRp4020
(dp4021
g66
(dp4022
sg75
g3368
sg68
(lp4023
g61
(g82
g63
NtRp4024
(dp4025
g66
(dp4026
g86
g87
ssg75
g4020
sg68
(lp4027
S'meta'
p4028
asbag61
(g82
g63
NtRp4029
(dp4030
g66
(dp4031
g93
g94
ssg75
g4020
sg68
(lp4032
S':'
asbag61
(g82
g63
NtRp4033
(dp4034
g66
(dp4035
sg75
g4020
sg68
(lp4036
g61
(g62
g63
NtRp4037
(dp4038
g66
(dp4039
g74
I5
ssg75
g4033
sg68
(lp4040
g61
(g70
g63
NtRp4041
(dp4042
g66
(dp4043
g74
I4
ssg75
Nsg68
(lp4044
g61
(g77
g63
NtRp4045
(dp4046
g66
(dp4047
sg75
g4041
sg68
(lp4048
g61
(g82
g63
NtRp4049
(dp4050
g66
(dp4051
g86
g87
ssg75
g4045
sg68
(lp4052
S'author'
p4053
asbag61
(g82
g63
NtRp4054
(dp4055
g66
(dp4056
g93
g94
ssg75
g4045
sg68
(lp4057
S':'
asbag61
(g82
g63
NtRp4058
(dp4059
g66
(dp4060
sg75
g4045
sg68
(lp4061
g61
(g62
g63
NtRp4062
(dp4063
g66
(dp4064
g74
I4
ssg75
g4058
sg68
(lp4065
S'Your Name <you@example.com>'
p4066
asbasbasbag61
(g77
g63
NtRp4067
(dp4068
g66
(dp4069
sg75
g4041
sg68
(lp4070
g61
(g82
g63
NtRp4071
(dp4072
g66
(dp4073
g86
g87
ssg75
g4067
sg68
(lp4074
S'copyright'
p4075
asbag61
(g82
g63
NtRp4076
(dp4077
g66
(dp4078
g93
g94
ssg75
g4067
sg68
(lp4079
S':'
asbag61
(g82
g63
NtRp4080
(dp4081
g66
(dp4082
sg75
g4067
sg68
(lp4083
g61
(g62
g63
NtRp4084
(dp4085
g66
(dp4086
g74
I4
ssg75
g4080
sg68
(lp4087
S'Copyright 2011'
p4088
asbasbasbag61
(g77
g63
NtRp4089
(dp4090
g66
(dp4091
sg75
g4041
sg68
(lp4092
g61
(g82
g63
NtRp4093
(dp4094
g66
(dp4095
g86
g87
ssg75
g4089
sg68
(lp4096
S'description'
p4097
asbag61
(g82
g63
NtRp4098
(dp4099
g66
(dp4100
g93
g94
ssg75
g4089
sg68
(lp4101
S':'
asbag61
(g82
g63
NtRp4102
(dp4103
g66
(dp4104
sg75
g4089
sg68
(lp4105
g61
(g62
g63
NtRp4106
(dp4107
g66
(dp4108
g74
I4
ssg75
g4102
sg68
(lp4109
S'a cool new app'
p4110
asbasbasbag61
(g77
g63
NtRp4111
(dp4112
g66
(dp4113
sg75
g4041
sg68
(lp4114
g61
(g82
g63
NtRp4115
(dp4116
g66
(dp4117
g86
g87
ssg75
g4111
sg68
(lp4118
S'generator'
p4119
asbag61
(g82
g63
NtRp4120
(dp4121
g66
(dp4122
g93
g94
ssg75
g4111
sg68
(lp4123
S':'
asbag61
(g82
g63
NtRp4124
(dp4125
g66
(dp4126
sg75
g4111
sg68
(lp4127
g61
(g62
g63
NtRp4128
(dp4129
g66
(dp4130
g74
I4
ssg75
g4124
sg68
(lp4131
S'Web2py Web Framework'
p4132
asbasbasbag61
(g77
g63
NtRp4133
(dp4134
g66
(dp4135
sg75
g4041
sg68
(lp4136
g61
(g82
g63
NtRp4137
(dp4138
g66
(dp4139
g86
g87
ssg75
g4133
sg68
(lp4140
S'keywords'
p4141
asbag61
(g82
g63
NtRp4142
(dp4143
g66
(dp4144
g93
g94
ssg75
g4133
sg68
(lp4145
S':'
asbag61
(g82
g63
NtRp4146
(dp4147
g66
(dp4148
sg75
g4133
sg68
(lp4149
g61
(g62
g63
NtRp4150
(dp4151
g66
(dp4152
g74
I4
ssg75
g4146
sg68
(lp4153
S'web2py, python, framework'
p4154
asbasbasbasbasbasbasbag61
(g77
g63
NtRp4155
(dp4156
g66
(dp4157
sg75
g3368
sg68
(lp4158
g61
(g82
g63
NtRp4159
(dp4160
g66
(dp4161
g86
g87
ssg75
g4155
sg68
(lp4162
S'postprocessing'
p4163
asbag61
(g82
g63
NtRp4164
(dp4165
g66
(dp4166
g93
g94
ssg75
g4155
sg68
(lp4167
S':'
asbag61
(g82
g63
NtRp4168
(dp4169
g66
(dp4170
sg75
g4155
sg68
(lp4171
g61
(g62
g63
NtRp4172
(dp4173
g66
(dp4174
g74
I5
ssg75
g4168
sg68
(lp4175
g61
(g70
g63
NtRp4176
(dp4177
g66
(dp4178
g74
I4
ssg75
Nsg68
(lp4179
sbasbasbasbag61
(g77
g63
NtRp4180
(dp4181
g66
(dp4182
sg75
g3368
sg68
(lp4183
g61
(g82
g63
NtRp4184
(dp4185
g66
(dp4186
g86
g87
ssg75
g4180
sg68
(lp4187
S'session_file'
p4188
asbag61
(g82
g63
NtRp4189
(dp4190
g66
(dp4191
g93
g94
ssg75
g4180
sg68
(lp4192
S':'
asbag61
(g82
g63
NtRp4193
(dp4194
g66
(dp4195
sg75
g4180
sg68
(lp4196
g61
(g62
g63
NtRp4197
(dp4198
g66
(dp4199
g74
I5
ssg75
g4193
sg68
(lp4200
S"<open file 'C:\\Users\\mellinja\\Documents\\SC2Tracker\\SC2Tracker2\\web2py\\applications\\welcome\\sessions\\127.0.0.1-971ad393-68d1-4a60-9355-2d6ae717a7af', mode 'rb+' at 0x000000000835CAE0>"
p4201
asbasbasbag61
(g77
g63
NtRp4202
(dp4203
g66
(dp4204
sg75
g3368
sg68
(lp4205
g61
(g82
g63
NtRp4206
(dp4207
g66
(dp4208
g86
g87
ssg75
g4202
sg68
(lp4209
S'session_filename'
p4210
asbag61
(g82
g63
NtRp4211
(dp4212
g66
(dp4213
g93
g94
ssg75
g4202
sg68
(lp4214
S':'
asbag61
(g82
g63
NtRp4215
(dp4216
g66
(dp4217
sg75
g4202
sg68
(lp4218
g61
(g62
g63
NtRp4219
(dp4220
g66
(dp4221
g74
I5
ssg75
g4215
sg68
(lp4222
S'C:\\Users\\mellinja\\Documents\\SC2Tracker\\SC2Tracker2\\web2py\\applications\\welcome\\sessions\\127.0.0.1-971ad393-68d1-4a60-9355-2d6ae717a7af'
p4223
asbasbasbag61
(g77
g63
NtRp4224
(dp4225
g66
(dp4226
sg75
g3368
sg68
(lp4227
g61
(g82
g63
NtRp4228
(dp4229
g66
(dp4230
g86
g87
ssg75
g4224
sg68
(lp4231
S'session_id'
p4232
asbag61
(g82
g63
NtRp4233
(dp4234
g66
(dp4235
g93
g94
ssg75
g4224
sg68
(lp4236
S':'
asbag61
(g82
g63
NtRp4237
(dp4238
g66
(dp4239
sg75
g4224
sg68
(lp4240
g61
(g62
g63
NtRp4241
(dp4242
g66
(dp4243
g74
I5
ssg75
g4237
sg68
(lp4244
S'127.0.0.1-971ad393-68d1-4a60-9355-2d6ae717a7af'
p4245
asbasbasbag61
(g77
g63
NtRp4246
(dp4247
g66
(dp4248
sg75
g3368
sg68
(lp4249
g61
(g82
g63
NtRp4250
(dp4251
g66
(dp4252
g86
g87
ssg75
g4246
sg68
(lp4253
S'session_id_name'
p4254
asbag61
(g82
g63
NtRp4255
(dp4256
g66
(dp4257
g93
g94
ssg75
g4246
sg68
(lp4258
S':'
asbag61
(g82
g63
NtRp4259
(dp4260
g66
(dp4261
sg75
g4246
sg68
(lp4262
g61
(g62
g63
NtRp4263
(dp4264
g66
(dp4265
g74
I5
ssg75
g4259
sg68
(lp4266
g3425
asbasbasbag61
(g77
g63
NtRp4267
(dp4268
g66
(dp4269
sg75
g3368
sg68
(lp4270
g61
(g82
g63
NtRp4271
(dp4272
g66
(dp4273
g86
g87
ssg75
g4267
sg68
(lp4274
S'session_locked'
p4275
asbag61
(g82
g63
NtRp4276
(dp4277
g66
(dp4278
g93
g94
ssg75
g4267
sg68
(lp4279
S':'
asbag61
(g82
g63
NtRp4280
(dp4281
g66
(dp4282
sg75
g4267
sg68
(lp4283
g61
(g62
g63
NtRp4284
(dp4285
g66
(dp4286
g74
I5
ssg75
g4280
sg68
(lp4287
g1531
asbasbasbag61
(g77
g63
NtRp4288
(dp4289
g66
(dp4290
sg75
g3368
sg68
(lp4291
g61
(g82
g63
NtRp4292
(dp4293
g66
(dp4294
g86
g87
ssg75
g4288
sg68
(lp4295
S'session_new'
p4296
asbag61
(g82
g63
NtRp4297
(dp4298
g66
(dp4299
g93
g94
ssg75
g4288
sg68
(lp4300
S':'
asbag61
(g82
g63
NtRp4301
(dp4302
g66
(dp4303
sg75
g4288
sg68
(lp4304
g61
(g62
g63
NtRp4305
(dp4306
g66
(dp4307
g74
I5
ssg75
g4301
sg68
(lp4308
g104
asbasbasbag61
(g77
g63
NtRp4309
(dp4310
g66
(dp4311
sg75
g3368
sg68
(lp4312
g61
(g82
g63
NtRp4313
(dp4314
g66
(dp4315
g86
g87
ssg75
g4309
sg68
(lp4316
S'status'
p4317
asbag61
(g82
g63
NtRp4318
(dp4319
g66
(dp4320
g93
g94
ssg75
g4309
sg68
(lp4321
S':'
asbag61
(g82
g63
NtRp4322
(dp4323
g66
(dp4324
sg75
g4309
sg68
(lp4325
g61
(g62
g63
NtRp4326
(dp4327
g66
(dp4328
g74
I5
ssg75
g4322
sg68
(lp4329
S'200'
p4330
asbasbasbag61
(g77
g63
NtRp4331
(dp4332
g66
(dp4333
sg75
g3368
sg68
(lp4334
g61
(g82
g63
NtRp4335
(dp4336
g66
(dp4337
g86
g87
ssg75
g4331
sg68
(lp4338
S'subtitle'
p4339
asbag61
(g82
g63
NtRp4340
(dp4341
g66
(dp4342
g93
g94
ssg75
g4331
sg68
(lp4343
S':'
asbag61
(g82
g63
NtRp4344
(dp4345
g66
(dp4346
sg75
g4331
sg68
(lp4347
g61
(g62
g63
NtRp4348
(dp4349
g66
(dp4350
g74
I5
ssg75
g4344
sg68
(lp4351
g3977
(S's2\x00\x00\x00Starcraft II Custom Tournament Tracker Version 0.1'
tRp4352
asbasbasbag61
(g77
g63
NtRp4353
(dp4354
g66
(dp4355
sg75
g3368
sg68
(lp4356
g61
(g82
g63
NtRp4357
(dp4358
g66
(dp4359
g86
g87
ssg75
g4353
sg68
(lp4360
S'title'
p4361
asbag61
(g82
g63
NtRp4362
(dp4363
g66
(dp4364
g93
g94
ssg75
g4353
sg68
(lp4365
S':'
asbag61
(g82
g63
NtRp4366
(dp4367
g66
(dp4368
sg75
g4353
sg68
(lp4369
g61
(g62
g63
NtRp4370
(dp4371
g66
(dp4372
g74
I5
ssg75
g4366
sg68
(lp4373
S'SC2CTT v0.1'
p4374
asbasbasbag61
(g77
g63
NtRp4375
(dp4376
g66
(dp4377
sg75
g3368
sg68
(lp4378
g61
(g82
g63
NtRp4379
(dp4380
g66
(dp4381
g86
g87
ssg75
g4375
sg68
(lp4382
g2216
asbag61
(g82
g63
NtRp4383
(dp4384
g66
(dp4385
g93
g94
ssg75
g4375
sg68
(lp4386
S':'
asbag61
(g82
g63
NtRp4387
(dp4388
g66
(dp4389
sg75
g4375
sg68
(lp4390
g61
(g62
g63
NtRp4391
(dp4392
g66
(dp4393
g74
I5
ssg75
g4387
sg68
(lp4394
g2229
asbasbasbag61
(g77
g63
NtRp4395
(dp4396
g66
(dp4397
sg75
g3368
sg68
(lp4398
g61
(g82
g63
NtRp4399
(dp4400
g66
(dp4401
g86
g87
ssg75
g4395
sg68
(lp4402
S'view'
p4403
asbag61
(g82
g63
NtRp4404
(dp4405
g66
(dp4406
g93
g94
ssg75
g4395
sg68
(lp4407
S':'
asbag61
(g82
g63
NtRp4408
(dp4409
g66
(dp4410
sg75
g4395
sg68
(lp4411
g61
(g62
g63
NtRp4412
(dp4413
g66
(dp4414
g74
I5
ssg75
g4408
sg68
(lp4415
S'map_pool/show.html'
p4416
asbasbasbasbasbsS'locals'
p4417
(dp4418
S'a'
S"('SELECT Name FROM Map WHERE ID = (10001, )',)"
p4419
sS'self'
p4420
S'<gluon.dal.MSSQLAdapter object>'
p4421
sS'b'
g21
sS't0'
p4422
S'1329174977.685'
p4423
sssS'traceback'
p4424
S'Traceback (most recent call last):\n  File "C:\\Users\\mellinja\\Documents\\SC2Tracker\\SC2Tracker2\\web2py\\gluon\\restricted.py", line 204, in restricted\n    exec ccode in environment\n  File "C:\\Users\\mellinja\\Documents\\SC2Tracker\\SC2Tracker2\\web2py\\applications\\welcome\\views\\map_pool/show.html", line 80, in <module>\n  File "C:\\Users\\mellinja\\Documents\\SC2Tracker\\SC2Tracker2\\web2py\\gluon\\dal.py", line 5170, in executesql\n    self._adapter.execute(query)\n  File "C:\\Users\\mellinja\\Documents\\SC2Tracker\\SC2Tracker2\\web2py\\gluon\\dal.py", line 1359, in execute\n    return self.log_execute(*a, **b)\n  File "C:\\Users\\mellinja\\Documents\\SC2Tracker\\SC2Tracker2\\web2py\\gluon\\dal.py", line 1353, in log_execute\n    ret = self.cursor.execute(*a, **b)\nProgrammingError: (\'42000\', "[42000] [Microsoft][ODBC SQL Server Driver][SQL Server]Incorrect syntax near \',\'. (102) (SQLExecDirectW)")\n'
p4425
s.