(dp1
S'output'
p2
S"<type 'exceptions.SyntaxError'> invalid syntax (tournament/show.html, line 76)"
p3
sS'layer'
p4
S'C:\\Users\\mellinja\\Documents\\SC2Tracker\\SC2TourneyTracker\\web2py\\applications\\welcome\\views\\tournament/show.html'
p5
sS'code'
p6
S'response.write(\'<!DOCTYPE html>\\r\\n<!-- paulirish.com/2008/conditional-stylesheets-vs-css-hacks-answer-neither/ -->\\r\\n<!--[if lt IE 7]><html class="ie ie6 ie-lte9 ie-lte8 ie-lte7 no-js" lang="\', escape=False)\nresponse.write(T.accepted_language or \'en\')\nresponse.write(\'"> <![endif]-->\\r\\n<!--[if IE 7]><html class="ie ie7 ie-lte9 ie-lte8 ie-lte7 no-js" lang="\', escape=False)\nresponse.write(T.accepted_language or \'en\')\nresponse.write(\'"> <![endif]-->\\r\\n<!--[if IE 8]><html class="ie ie8 ie-lte9 ie-lte8 no-js" lang="\', escape=False)\nresponse.write(T.accepted_language or \'en\')\nresponse.write(\'"> <![endif]-->\\r\\n<!--[if IE 9]><html class="ie9 ie-lte9 no-js" lang="\', escape=False)\nresponse.write(T.accepted_language or \'en\')\nresponse.write(\'"> <![endif]-->\\r\\n<!--[if (gt IE 9)|!(IE)]><!--> <html class="no-js" lang="\', escape=False)\nresponse.write(T.accepted_language or \'en\')\nresponse.write(\'"> <!--<![endif]-->\\r\\n<head>\\r\\n  <meta charset="utf-8" />\\r\\n  <!-- www.phpied.com/conditional-comments-block-downloads/ -->\\r\\n  <!-- Always force latest IE rendering engine\\r\\n       (even in intranet) & Chrome Frame\\r\\n       Remove this if you use the .htaccess -->\\r\\n  <!--[if IE]>\\r\\n    <meta http-equiv="X-UA-Compatible" content="IE=edge\', escape=False)\nresponse.write(not request.is_local and \',chrome=1\' or \'\')\nresponse.write(\'">\\r\\n  <![endif]-->\\r\\n  \\r\\n  <title>\', escape=False)\nresponse.write(response.title or request.application)\nresponse.write(\'</title>\\r\\n  \\r\\n  <!-- http://dev.w3.org/html5/markup/meta.name.html -->\\r\\n  <meta name="application-name" content="\', escape=False)\nresponse.write(request.application)\nresponse.write(\'" />\\r\\n  \\r\\n  <!-- Speaking of Google, don\\\'t forget to set your site up:\\r\\n       http://google.com/webmasters -->\\r\\n  <meta name="google-site-verification" content="" />\\r\\n\\r\\n  <!--  Mobile Viewport Fix\\r\\n      j.mp/mobileviewport & davidbcalhoun.com/2010/viewport-metatag\\r\\n      device-width: Occupy full width of the screen in its current orientation\\r\\n      initial-scale = 1.0 retains dimensions instead of zooming out if page height > device height\\r\\n      user-scalable = yes allows the user to zoom in -->\\r\\n  <meta name="viewport" content="width=device-width, initial-scale=1.0, user-scalable=yes">\\r\\n  \\r\\n  <!-- Place favicon.ico and apple-touch-icon.png in the root of your domain and delete these references -->\\r\\n  <link rel="shortcut icon" href="\', escape=False)\nresponse.write(URL(\'static\',\'favicon.ico\'))\nresponse.write(\'" type="image/x-icon">\\r\\n  <link rel="apple-touch-icon" href="\', escape=False)\nresponse.write(URL(\'static\',\'favicon.png\'))\nresponse.write(\'">\\r\\n\\r\\n  <!-- All JavaScript at the bottom, except for Modernizr which enables \\r\\n       HTML5 elements & feature detects -->\\r\\n  <script src="\', escape=False)\nresponse.write(URL(\'static\',\'js/modernizr.custom.js\'))\nresponse.write(\'"></script>  \\r\\n\\r\\n  <!-- include stylesheets -->\\r\\n  \', escape=False)\nresponse.files.append(URL(\'static\',\'css/skeleton.css\'))\nresponse.files.append(URL(\'static\',\'css/web2py.css\'))\nresponse.files.append(URL(\'static\',\'css/superfish.css\'))\nresponse.files.append(URL(\'static\',\'js/superfish.js\'))\nresponse.write(\'\\r\\n\\r\\n  \', escape=False)\nresponse.write(\'<script type="text/javascript"><!--\\r\\n    // These variables are used by the web2py_ajax_init function in web2py_ajax.js (which is loaded below).\\r\\n    var w2p_ajax_confirm_message = "\', escape=False)\nresponse.write(T(\'Are you sure you want to delete this object?\'))\nresponse.write(\'";\\r\\n    var w2p_ajax_date_format = "\', escape=False)\nresponse.write(T(\'%Y-%m-%d\'))\nresponse.write(\'";\\r\\n    var w2p_ajax_datetime_format = "\', escape=False)\nresponse.write(T(\'%Y-%m-%d %H:%M:%S\'))\nresponse.write(\'";\\r\\n    //--></script>\\r\\n\', escape=False)\nresponse.files.insert(0,URL(\'static\',\'js/jquery.js\'))\nresponse.files.insert(1,URL(\'static\',\'css/calendar.css\'))\nresponse.files.insert(2,URL(\'static\',\'js/calendar.js\'))\nresponse.files.insert(3,URL(\'static\',\'js/web2py.js\'))\nresponse.include_meta()\nresponse.include_files()\nresponse.write(\'\\r\\n\', escape=False)\nresponse.write(\'\\r\\n\\r\\n  <script type="text/javascript">\\r\\n    jQuery(function(){ jQuery(\\\'ul.sf-menu\\\').supersubs({minWidth:12,maxWidth:30,extraWidth:3}).superfish(); });\\r\\n  </script>\\r\\n\\r\\n  \', escape=False)\n# using sidebars need to know what sidebar you want to use\nleft_sidebar_enabled = globals().get(\'left_sidebar_enabled\',False)\nright_sidebar_enabled = globals().get(\'right_sidebar_enabled\',False)\nmiddle_columns = {0:\'sixteen\',1:\'twelve\',2:\'eight\'}[\n(left_sidebar_enabled and 1 or 0)+(right_sidebar_enabled and 1 or 0)]\nresponse.write(\'\\r\\n\\r\\n  <!-- uncomment here to load jquery-ui\\r\\n  <link rel="stylesheet" href="http://ajax.googleapis.com/ajax/libs/jqueryui/1.8.16/themes/base/jquery-ui.css" type="text/css" media="all" />\\r\\n  <script src="http://ajax.googleapis.com/ajax/libs/jqueryui/1.8.16/jquery-ui.min.js" type="text/javascript"></script>\\r\\n  uncomment to load jquery-ui //-->\\r\\n</head>\\r\\n<body>\\r\\n  <div class="wrapper"><!-- for sticky footer -->\\r\\n  \\r\\n    <div class="topbar">\\r\\n      <div class="container">    \\r\\n        <div class="sixteen columns">\\r\\n          <div id="navbar">\', escape=False)\nresponse.write(\'auth\' in globals() and auth.navbar(separators=(\' \',\' | \',\'\')))\nresponse.write(\'</div>\\r\\n          \', escape=False)\nis_mobile=request.user_agent().is_mobile\nresponse.write(\'\\r\\n          <div id="menu">\', escape=False)\nresponse.write(MENU(response.menu, _class=\'mobile-menu\' if is_mobile else \'sf-menu\',mobile=is_mobile))\nresponse.write(\'\\r\\n          </div>\\r\\n        </div>\\r\\n      </div>\\r\\n    </div><!-- topbar -->\\r\\n    \\r\\n    <div class="flash">\', escape=False)\nresponse.write(response.flash or \'\')\nresponse.write(\'</div>\\r\\n    \\r\\n    <div class="header">\\r\\n      <div class="container">         \\r\\n        <div class="sixteen columns">\\r\\n          <h1 class="remove-bottom" style="margin-top: .5em;">\\r\\n          \', escape=False)\nresponse.write(response.title or request.application)\nresponse.write(\'\\r\\n          </h1>\\r\\n          <h5>\', escape=False)\nresponse.write(response.subtitle or \'\')\nresponse.write(\'</h5>\\r\\n        </div>\\r\\n        <div class="sixteen columns">\\r\\n          <div class="statusbar clearfix">\\r\\n            \', escape=False)\nresponse.write(\'\\r\\n            <div class="breadcrumbs">\', escape=False)\nresponse.write(request.function.replace(\'_\', \' \').title())\nresponse.write(\'</div>\\r\\n            \', escape=False)\nresponse.write(\'\\r\\n            <!-- AddToAny BEGIN -->\\r\\n            <!--<div style="float:right; padding-top: .25em;" class="a2a_kit a2a_default_style">\\r\\n            <a class="a2a_dd" href="http://www.addtoany.com/share_save">Share</a></div>\\r\\n            <script type="text/javascript" src="http://static.addtoany.com/menu/page.js"></script>-->\\r\\n            <!-- AddToAny END -->\\r\\n          </div>\\r\\n        </div>\\r\\n      </div>\\r\\n    </div>\\r\\n\\r\\n    <div class="main">\\r\\n      <div class="container">                 \\r\\n        \', escape=False)\nif left_sidebar_enabled:\n    response.write(\'\\r\\n        <div class="four columns left-sidebar">\\r\\n          \', escape=False)\n    response.write(\'\\r\\n          <h3>Left Sidebar</h3>\\r\\n          <p></p>\\r\\n          \', escape=False)\n    response.write(\'\\r\\n        </div>\\r\\n        \', escape=False)\n    pass\nresponse.write(\'\\r\\n        \\r\\n        <div class="\', escape=False)\nresponse.write(middle_columns)\nresponse.write(\' columns center">\\r\\n          \', escape=False)\nresponse.write(\'\\r\\n          \', escape=False)\nresponse.write(\'\\r\\n<h1>This is the tournament/show.html template</h1>\\r\\n\', escape=False)\nresponse.write(test:)\nresponse.write(\'\\r\\n\', escape=False)\nresponse.write(\'\\r\\n          \', escape=False)\nresponse.write(\'\\r\\n        </div>\\r\\n        \\r\\n        \', escape=False)\nif right_sidebar_enabled:\n    response.write(\'\\r\\n        <div class="four columns">\\r\\n          \', escape=False)\n    response.write(\'\\r\\n          <h3>Right Sidebar</h3>\\r\\n          <p></p>\\r\\n          \', escape=False)\n    response.write(\'\\r\\n        </div>    \\r\\n        \', escape=False)\n    pass\nresponse.write(\'\\r\\n        \\r\\n      </div><!-- container -->\\r\\n    </div><!-- main -->\\r\\n    \\r\\n    <div class="push"></div>\\r\\n  </div><!-- wrapper -->\\r\\n\\r\\n  <div class="footer">\\r\\n    <div class="container">    \\r\\n      <div class="sixteen columns">\\r\\n        \', escape=False)\nresponse.write(\' <!-- this is default footer -->\\r\\n        <div class="footer-content clearfix">\\r\\n          <div class="copyright">\\r\\n\\t\\t\\t  \', escape=False)\nresponse.write(T(\'Copyright\'))\nresponse.write(\' &#169; 2012 <br />\\r\\n\\t\\t\\t  Kyle Cheung, Simon Liang, Jackson Melling\\r\\n\\t\\t  </div>\\r\\n          <div style="float: right;">\\r\\n            <a href="http://www.web2py.com/">\\r\\n            <img style="padding-bottom: 0;" src="\', escape=False)\nresponse.write(URL(\'static\',\'images/poweredby.png\'))\nresponse.write(\'"/>\\r\\n            </a>\\r\\n          </div>\\r\\n        </div>\\r\\n        \', escape=False)\nresponse.write(\' \\r\\n      </div>\\r\\n    </div><!-- container -->\\r\\n  </div><!-- footer -->\\r\\n  \\r\\n  <!--[if lt IE 7 ]>\\r\\n    <script src="\', escape=False)\nresponse.write(URL(\'static\',\'js/dd_belatedpng.js\'))\nresponse.write(\'"></script>\\r\\n    <script> DD_belatedPNG.fix(\\\'img, .png_bg\\\'); //fix any <img> or .png_bg background-images </script>\\r\\n    <![endif]-->\\r\\n  \', escape=False)\nif response.google_analytics_id:\n    response.write(\'<script type="text/javascript"> var _gaq = _gaq || []; _gaq.push([\\\'_setAccount\\\', \\\'\', escape=False)\n    response.write(response.google_analytics_id)\n    response.write("\']); _gaq.push([\'_trackPageview\']); (function() { var ga = document.createElement(\'script\'); ga.type = \'text/javascript\'; ga.async = true; ga.src = (\'https:\' == document.location.protocol ? \'https://ssl\' : \'http://www\') + \'.google-analytics.com/ga.js\'; var s = document.getElementsByTagName(\'script\')[0]; s.parentNode.insertBefore(ga, s); })(); </script> ", escape=False)\n    pass\nresponse.write(\'\\r\\n</body>\\r\\n</html>\\r\\n\', escape=False)'
p7
sS'snapshot'
p8
(dp9
S'exception'
p10
(dp11
S'__getslice__'
p12
S"<method-wrapper '__getslice__' of exceptions.SyntaxError object>"
p13
sS'text'
p14
S"'response.write(test:)\\n'"
p15
sS'__str__'
p16
S"<method-wrapper '__str__' of exceptions.SyntaxError object>"
p17
sS'__reduce__'
p18
S'<built-in method __reduce__ of exceptions.SyntaxError object>'
p19
sS'__dict__'
p20
S'{}'
p21
sS'__sizeof__'
p22
S'<built-in method __sizeof__ of exceptions.SyntaxError object>'
p23
sS'__init__'
p24
S"<method-wrapper '__init__' of exceptions.SyntaxError object>"
p25
sS'__setattr__'
p26
S"<method-wrapper '__setattr__' of exceptions.SyntaxError object>"
p27
sS'__reduce_ex__'
p28
S'<built-in method __reduce_ex__ of exceptions.SyntaxError object>'
p29
sS'__new__'
p30
S'<built-in method __new__ of type object>'
p31
sS'__format__'
p32
S'<built-in method __format__ of exceptions.SyntaxError object>'
p33
sS'__class__'
p34
S"<type 'exceptions.SyntaxError'>"
p35
sS'filename'
p36
S"r'C:\\Users\\mellinja\\Documents\\SC2Tracker\\SC2Tourne...y\\applications\\welcome\\views\\tournament/show.html'"
p37
sS'lineno'
p38
S'76'
p39
sS'msg'
p40
S"'invalid syntax'"
p41
sS'__doc__'
p42
S"'Invalid syntax.'"
p43
sS'__getitem__'
p44
S"<method-wrapper '__getitem__' of exceptions.SyntaxError object>"
p45
sS'__setstate__'
p46
S'<built-in method __setstate__ of exceptions.SyntaxError object>'
p47
sS'__getattribute__'
p48
S"<method-wrapper '__getattribute__' of exceptions.SyntaxError object>"
p49
sS'print_file_and_line'
p50
S'None'
p51
sS'args'
p52
S"('invalid syntax', (r'C:\\Users\\mellinja\\Documents\\SC2Tracker\\SC2Tourne...y\\applications\\welcome\\views\\tournament/show.html', 76, 20, 'response.write(test:)\\n'))"
p53
sS'__subclasshook__'
p54
S'<built-in method __subclasshook__ of type object>'
p55
sS'offset'
p56
S'20'
p57
sS'__unicode__'
p58
S'<built-in method __unicode__ of exceptions.SyntaxError object>'
p59
sS'__delattr__'
p60
S"<method-wrapper '__delattr__' of exceptions.SyntaxError object>"
p61
sS'__repr__'
p62
S"<method-wrapper '__repr__' of exceptions.SyntaxError object>"
p63
sS'__hash__'
p64
S"<method-wrapper '__hash__' of exceptions.SyntaxError object>"
p65
ssS'evalue'
p66
S'invalid syntax (tournament/show.html, line 76)'
p67
sS'request'
p68
ccopy_reg
_reconstructor
p69
(cgluon.html
BEAUTIFY
p70
c__builtin__
object
p71
NtRp72
(dp73
S'attributes'
p74
(dp75
sS'components'
p76
(lp77
g69
(cgluon.html
TABLE
p78
g71
NtRp79
(dp80
g74
(dp81
S'level'
p82
I5
ssS'parent'
p83
Nsg76
(lp84
g69
(cgluon.html
TR
p85
g71
NtRp86
(dp87
g74
(dp88
sg83
g79
sg76
(lp89
g69
(cgluon.html
TD
p90
g71
NtRp91
(dp92
g74
(dp93
S'_style'
p94
S'font-weight:bold;vertical-align:top'
p95
ssg83
g86
sg76
(lp96
S'ajax'
p97
asbag69
(g90
g71
NtRp98
(dp99
g74
(dp100
S'_valign'
p101
S'top'
p102
ssg83
g86
sg76
(lp103
S':'
asbag69
(g90
g71
NtRp104
(dp105
g74
(dp106
sg83
g86
sg76
(lp107
g69
(g70
g71
NtRp108
(dp109
g74
(dp110
g82
I5
ssg83
g104
sg76
(lp111
S'False'
p112
asbasbasbag69
(g85
g71
NtRp113
(dp114
g74
(dp115
sg83
g79
sg76
(lp116
g69
(g90
g71
NtRp117
(dp118
g74
(dp119
g94
g95
ssg83
g113
sg76
(lp120
S'application'
p121
asbag69
(g90
g71
NtRp122
(dp123
g74
(dp124
g101
g102
ssg83
g113
sg76
(lp125
S':'
asbag69
(g90
g71
NtRp126
(dp127
g74
(dp128
sg83
g113
sg76
(lp129
g69
(g70
g71
NtRp130
(dp131
g74
(dp132
g82
I5
ssg83
g126
sg76
(lp133
S'welcome'
p134
asbasbasbag69
(g85
g71
NtRp135
(dp136
g74
(dp137
sg83
g79
sg76
(lp138
g69
(g90
g71
NtRp139
(dp140
g74
(dp141
g94
g95
ssg83
g135
sg76
(lp142
g52
asbag69
(g90
g71
NtRp143
(dp144
g74
(dp145
g101
g102
ssg83
g135
sg76
(lp146
S':'
asbag69
(g90
g71
NtRp147
(dp148
g74
(dp149
sg83
g135
sg76
(lp150
g69
(g70
g71
NtRp151
(dp152
g74
(dp153
g82
I5
ssg83
g147
sg76
(lp154
g69
(g78
g71
NtRp155
(dp156
g74
(dp157
g82
I4
ssg83
Nsg76
(lp158
g69
(g85
g71
NtRp159
(dp160
g74
(dp161
sg83
g155
sg76
(lp162
g69
(g90
g71
NtRp163
(dp164
g74
(dp165
sg83
g159
sg76
(lp166
g69
(g70
g71
NtRp167
(dp168
g74
(dp169
g82
I4
ssg83
g163
sg76
(lp170
S'0'
asbasbasbasbasbasbasbag69
(g85
g71
NtRp171
(dp172
g74
(dp173
sg83
g79
sg76
(lp174
g69
(g90
g71
NtRp175
(dp176
g74
(dp177
g94
g95
ssg83
g171
sg76
(lp178
S'body'
p179
asbag69
(g90
g71
NtRp180
(dp181
g74
(dp182
g101
g102
ssg83
g171
sg76
(lp183
S':'
asbag69
(g90
g71
NtRp184
(dp185
g74
(dp186
sg83
g171
sg76
(lp187
g69
(g70
g71
NtRp188
(dp189
g74
(dp190
g82
I5
ssg83
g184
sg76
(lp191
S'<cStringIO.StringO object at 0x000000000968BF48>'
p192
asbasbasbag69
(g85
g71
NtRp193
(dp194
g74
(dp195
sg83
g79
sg76
(lp196
g69
(g90
g71
NtRp197
(dp198
g74
(dp199
g94
g95
ssg83
g193
sg76
(lp200
S'client'
p201
asbag69
(g90
g71
NtRp202
(dp203
g74
(dp204
g101
g102
ssg83
g193
sg76
(lp205
S':'
asbag69
(g90
g71
NtRp206
(dp207
g74
(dp208
sg83
g193
sg76
(lp209
g69
(g70
g71
NtRp210
(dp211
g74
(dp212
g82
I5
ssg83
g206
sg76
(lp213
S'127.0.0.1'
p214
asbasbasbag69
(g85
g71
NtRp215
(dp216
g74
(dp217
sg83
g79
sg76
(lp218
g69
(g90
g71
NtRp219
(dp220
g74
(dp221
g94
g95
ssg83
g215
sg76
(lp222
S'controller'
p223
asbag69
(g90
g71
NtRp224
(dp225
g74
(dp226
g101
g102
ssg83
g215
sg76
(lp227
S':'
asbag69
(g90
g71
NtRp228
(dp229
g74
(dp230
sg83
g215
sg76
(lp231
g69
(g70
g71
NtRp232
(dp233
g74
(dp234
g82
I5
ssg83
g228
sg76
(lp235
S'tournament'
p236
asbasbasbag69
(g85
g71
NtRp237
(dp238
g74
(dp239
sg83
g79
sg76
(lp240
g69
(g90
g71
NtRp241
(dp242
g74
(dp243
g94
g95
ssg83
g237
sg76
(lp244
S'cookies'
p245
asbag69
(g90
g71
NtRp246
(dp247
g74
(dp248
g101
g102
ssg83
g237
sg76
(lp249
S':'
asbag69
(g90
g71
NtRp250
(dp251
g74
(dp252
sg83
g237
sg76
(lp253
g69
(g70
g71
NtRp254
(dp255
g74
(dp256
g82
I5
ssg83
g250
sg76
(lp257
g69
(g78
g71
NtRp258
(dp259
g74
(dp260
g82
I4
ssg83
Nsg76
(lp261
g69
(g85
g71
NtRp262
(dp263
g74
(dp264
sg83
g258
sg76
(lp265
g69
(g90
g71
NtRp266
(dp267
g74
(dp268
g94
g95
ssg83
g262
sg76
(lp269
S'session_id_admin'
p270
asbag69
(g90
g71
NtRp271
(dp272
g74
(dp273
g101
g102
ssg83
g262
sg76
(lp274
S':'
asbag69
(g90
g71
NtRp275
(dp276
g74
(dp277
sg83
g262
sg76
(lp278
g69
(g70
g71
NtRp279
(dp280
g74
(dp281
g82
I4
ssg83
g275
sg76
(lp282
g69
(g78
g71
NtRp283
(dp284
g74
(dp285
g82
I3
ssg83
Nsg76
(lp286
g69
(g85
g71
NtRp287
(dp288
g74
(dp289
sg83
g283
sg76
(lp290
g69
(g90
g71
NtRp291
(dp292
g74
(dp293
g94
g95
ssg83
g287
sg76
(lp294
S'comment'
p295
asbag69
(g90
g71
NtRp296
(dp297
g74
(dp298
g101
g102
ssg83
g287
sg76
(lp299
S':'
asbag69
(g90
g71
NtRp300
(dp301
g74
(dp302
sg83
g287
sg76
(lp303
g69
(g70
g71
NtRp304
(dp305
g74
(dp306
g82
I3
ssg83
g300
sg76
(lp307
S''
asbasbasbag69
(g85
g71
NtRp308
(dp309
g74
(dp310
sg83
g283
sg76
(lp311
g69
(g90
g71
NtRp312
(dp313
g74
(dp314
g94
g95
ssg83
g308
sg76
(lp315
S'domain'
p316
asbag69
(g90
g71
NtRp317
(dp318
g74
(dp319
g101
g102
ssg83
g308
sg76
(lp320
S':'
asbag69
(g90
g71
NtRp321
(dp322
g74
(dp323
sg83
g308
sg76
(lp324
g69
(g70
g71
NtRp325
(dp326
g74
(dp327
g82
I3
ssg83
g321
sg76
(lp328
S''
asbasbasbag69
(g85
g71
NtRp329
(dp330
g74
(dp331
sg83
g283
sg76
(lp332
g69
(g90
g71
NtRp333
(dp334
g74
(dp335
g94
g95
ssg83
g329
sg76
(lp336
S'expires'
p337
asbag69
(g90
g71
NtRp338
(dp339
g74
(dp340
g101
g102
ssg83
g329
sg76
(lp341
S':'
asbag69
(g90
g71
NtRp342
(dp343
g74
(dp344
sg83
g329
sg76
(lp345
g69
(g70
g71
NtRp346
(dp347
g74
(dp348
g82
I3
ssg83
g342
sg76
(lp349
S''
asbasbasbag69
(g85
g71
NtRp350
(dp351
g74
(dp352
sg83
g283
sg76
(lp353
g69
(g90
g71
NtRp354
(dp355
g74
(dp356
g94
g95
ssg83
g350
sg76
(lp357
S'httponly'
p358
asbag69
(g90
g71
NtRp359
(dp360
g74
(dp361
g101
g102
ssg83
g350
sg76
(lp362
S':'
asbag69
(g90
g71
NtRp363
(dp364
g74
(dp365
sg83
g350
sg76
(lp366
g69
(g70
g71
NtRp367
(dp368
g74
(dp369
g82
I3
ssg83
g363
sg76
(lp370
S''
asbasbasbag69
(g85
g71
NtRp371
(dp372
g74
(dp373
sg83
g283
sg76
(lp374
g69
(g90
g71
NtRp375
(dp376
g74
(dp377
g94
g95
ssg83
g371
sg76
(lp378
S'max-age'
p379
asbag69
(g90
g71
NtRp380
(dp381
g74
(dp382
g101
g102
ssg83
g371
sg76
(lp383
S':'
asbag69
(g90
g71
NtRp384
(dp385
g74
(dp386
sg83
g371
sg76
(lp387
g69
(g70
g71
NtRp388
(dp389
g74
(dp390
g82
I3
ssg83
g384
sg76
(lp391
S''
asbasbasbag69
(g85
g71
NtRp392
(dp393
g74
(dp394
sg83
g283
sg76
(lp395
g69
(g90
g71
NtRp396
(dp397
g74
(dp398
g94
g95
ssg83
g392
sg76
(lp399
S'path'
p400
asbag69
(g90
g71
NtRp401
(dp402
g74
(dp403
g101
g102
ssg83
g392
sg76
(lp404
S':'
asbag69
(g90
g71
NtRp405
(dp406
g74
(dp407
sg83
g392
sg76
(lp408
g69
(g70
g71
NtRp409
(dp410
g74
(dp411
g82
I3
ssg83
g405
sg76
(lp412
S''
asbasbasbag69
(g85
g71
NtRp413
(dp414
g74
(dp415
sg83
g283
sg76
(lp416
g69
(g90
g71
NtRp417
(dp418
g74
(dp419
g94
g95
ssg83
g413
sg76
(lp420
S'secure'
p421
asbag69
(g90
g71
NtRp422
(dp423
g74
(dp424
g101
g102
ssg83
g413
sg76
(lp425
S':'
asbag69
(g90
g71
NtRp426
(dp427
g74
(dp428
sg83
g413
sg76
(lp429
g69
(g70
g71
NtRp430
(dp431
g74
(dp432
g82
I3
ssg83
g426
sg76
(lp433
S''
asbasbasbag69
(g85
g71
NtRp434
(dp435
g74
(dp436
sg83
g283
sg76
(lp437
g69
(g90
g71
NtRp438
(dp439
g74
(dp440
g94
g95
ssg83
g434
sg76
(lp441
S'version'
p442
asbag69
(g90
g71
NtRp443
(dp444
g74
(dp445
g101
g102
ssg83
g434
sg76
(lp446
S':'
asbag69
(g90
g71
NtRp447
(dp448
g74
(dp449
sg83
g434
sg76
(lp450
g69
(g70
g71
NtRp451
(dp452
g74
(dp453
g82
I3
ssg83
g447
sg76
(lp454
S''
asbasbasbasbasbasbasbag69
(g85
g71
NtRp455
(dp456
g74
(dp457
sg83
g258
sg76
(lp458
g69
(g90
g71
NtRp459
(dp460
g74
(dp461
g94
g95
ssg83
g455
sg76
(lp462
S'session_id_examples'
p463
asbag69
(g90
g71
NtRp464
(dp465
g74
(dp466
g101
g102
ssg83
g455
sg76
(lp467
S':'
asbag69
(g90
g71
NtRp468
(dp469
g74
(dp470
sg83
g455
sg76
(lp471
g69
(g70
g71
NtRp472
(dp473
g74
(dp474
g82
I4
ssg83
g468
sg76
(lp475
g69
(g78
g71
NtRp476
(dp477
g74
(dp478
g82
I3
ssg83
Nsg76
(lp479
g69
(g85
g71
NtRp480
(dp481
g74
(dp482
sg83
g476
sg76
(lp483
g69
(g90
g71
NtRp484
(dp485
g74
(dp486
g94
g95
ssg83
g480
sg76
(lp487
g295
asbag69
(g90
g71
NtRp488
(dp489
g74
(dp490
g101
g102
ssg83
g480
sg76
(lp491
S':'
asbag69
(g90
g71
NtRp492
(dp493
g74
(dp494
sg83
g480
sg76
(lp495
g69
(g70
g71
NtRp496
(dp497
g74
(dp498
g82
I3
ssg83
g492
sg76
(lp499
S''
asbasbasbag69
(g85
g71
NtRp500
(dp501
g74
(dp502
sg83
g476
sg76
(lp503
g69
(g90
g71
NtRp504
(dp505
g74
(dp506
g94
g95
ssg83
g500
sg76
(lp507
g316
asbag69
(g90
g71
NtRp508
(dp509
g74
(dp510
g101
g102
ssg83
g500
sg76
(lp511
S':'
asbag69
(g90
g71
NtRp512
(dp513
g74
(dp514
sg83
g500
sg76
(lp515
g69
(g70
g71
NtRp516
(dp517
g74
(dp518
g82
I3
ssg83
g512
sg76
(lp519
S''
asbasbasbag69
(g85
g71
NtRp520
(dp521
g74
(dp522
sg83
g476
sg76
(lp523
g69
(g90
g71
NtRp524
(dp525
g74
(dp526
g94
g95
ssg83
g520
sg76
(lp527
g337
asbag69
(g90
g71
NtRp528
(dp529
g74
(dp530
g101
g102
ssg83
g520
sg76
(lp531
S':'
asbag69
(g90
g71
NtRp532
(dp533
g74
(dp534
sg83
g520
sg76
(lp535
g69
(g70
g71
NtRp536
(dp537
g74
(dp538
g82
I3
ssg83
g532
sg76
(lp539
S''
asbasbasbag69
(g85
g71
NtRp540
(dp541
g74
(dp542
sg83
g476
sg76
(lp543
g69
(g90
g71
NtRp544
(dp545
g74
(dp546
g94
g95
ssg83
g540
sg76
(lp547
g358
asbag69
(g90
g71
NtRp548
(dp549
g74
(dp550
g101
g102
ssg83
g540
sg76
(lp551
S':'
asbag69
(g90
g71
NtRp552
(dp553
g74
(dp554
sg83
g540
sg76
(lp555
g69
(g70
g71
NtRp556
(dp557
g74
(dp558
g82
I3
ssg83
g552
sg76
(lp559
S''
asbasbasbag69
(g85
g71
NtRp560
(dp561
g74
(dp562
sg83
g476
sg76
(lp563
g69
(g90
g71
NtRp564
(dp565
g74
(dp566
g94
g95
ssg83
g560
sg76
(lp567
g379
asbag69
(g90
g71
NtRp568
(dp569
g74
(dp570
g101
g102
ssg83
g560
sg76
(lp571
S':'
asbag69
(g90
g71
NtRp572
(dp573
g74
(dp574
sg83
g560
sg76
(lp575
g69
(g70
g71
NtRp576
(dp577
g74
(dp578
g82
I3
ssg83
g572
sg76
(lp579
S''
asbasbasbag69
(g85
g71
NtRp580
(dp581
g74
(dp582
sg83
g476
sg76
(lp583
g69
(g90
g71
NtRp584
(dp585
g74
(dp586
g94
g95
ssg83
g580
sg76
(lp587
g400
asbag69
(g90
g71
NtRp588
(dp589
g74
(dp590
g101
g102
ssg83
g580
sg76
(lp591
S':'
asbag69
(g90
g71
NtRp592
(dp593
g74
(dp594
sg83
g580
sg76
(lp595
g69
(g70
g71
NtRp596
(dp597
g74
(dp598
g82
I3
ssg83
g592
sg76
(lp599
S''
asbasbasbag69
(g85
g71
NtRp600
(dp601
g74
(dp602
sg83
g476
sg76
(lp603
g69
(g90
g71
NtRp604
(dp605
g74
(dp606
g94
g95
ssg83
g600
sg76
(lp607
g421
asbag69
(g90
g71
NtRp608
(dp609
g74
(dp610
g101
g102
ssg83
g600
sg76
(lp611
S':'
asbag69
(g90
g71
NtRp612
(dp613
g74
(dp614
sg83
g600
sg76
(lp615
g69
(g70
g71
NtRp616
(dp617
g74
(dp618
g82
I3
ssg83
g612
sg76
(lp619
S''
asbasbasbag69
(g85
g71
NtRp620
(dp621
g74
(dp622
sg83
g476
sg76
(lp623
g69
(g90
g71
NtRp624
(dp625
g74
(dp626
g94
g95
ssg83
g620
sg76
(lp627
g442
asbag69
(g90
g71
NtRp628
(dp629
g74
(dp630
g101
g102
ssg83
g620
sg76
(lp631
S':'
asbag69
(g90
g71
NtRp632
(dp633
g74
(dp634
sg83
g620
sg76
(lp635
g69
(g70
g71
NtRp636
(dp637
g74
(dp638
g82
I3
ssg83
g632
sg76
(lp639
S''
asbasbasbasbasbasbasbag69
(g85
g71
NtRp640
(dp641
g74
(dp642
sg83
g258
sg76
(lp643
g69
(g90
g71
NtRp644
(dp645
g74
(dp646
g94
g95
ssg83
g640
sg76
(lp647
S'session_id_welcome'
p648
asbag69
(g90
g71
NtRp649
(dp650
g74
(dp651
g101
g102
ssg83
g640
sg76
(lp652
S':'
asbag69
(g90
g71
NtRp653
(dp654
g74
(dp655
sg83
g640
sg76
(lp656
g69
(g70
g71
NtRp657
(dp658
g74
(dp659
g82
I4
ssg83
g653
sg76
(lp660
g69
(g78
g71
NtRp661
(dp662
g74
(dp663
g82
I3
ssg83
Nsg76
(lp664
g69
(g85
g71
NtRp665
(dp666
g74
(dp667
sg83
g661
sg76
(lp668
g69
(g90
g71
NtRp669
(dp670
g74
(dp671
g94
g95
ssg83
g665
sg76
(lp672
g295
asbag69
(g90
g71
NtRp673
(dp674
g74
(dp675
g101
g102
ssg83
g665
sg76
(lp676
S':'
asbag69
(g90
g71
NtRp677
(dp678
g74
(dp679
sg83
g665
sg76
(lp680
g69
(g70
g71
NtRp681
(dp682
g74
(dp683
g82
I3
ssg83
g677
sg76
(lp684
S''
asbasbasbag69
(g85
g71
NtRp685
(dp686
g74
(dp687
sg83
g661
sg76
(lp688
g69
(g90
g71
NtRp689
(dp690
g74
(dp691
g94
g95
ssg83
g685
sg76
(lp692
g316
asbag69
(g90
g71
NtRp693
(dp694
g74
(dp695
g101
g102
ssg83
g685
sg76
(lp696
S':'
asbag69
(g90
g71
NtRp697
(dp698
g74
(dp699
sg83
g685
sg76
(lp700
g69
(g70
g71
NtRp701
(dp702
g74
(dp703
g82
I3
ssg83
g697
sg76
(lp704
S''
asbasbasbag69
(g85
g71
NtRp705
(dp706
g74
(dp707
sg83
g661
sg76
(lp708
g69
(g90
g71
NtRp709
(dp710
g74
(dp711
g94
g95
ssg83
g705
sg76
(lp712
g337
asbag69
(g90
g71
NtRp713
(dp714
g74
(dp715
g101
g102
ssg83
g705
sg76
(lp716
S':'
asbag69
(g90
g71
NtRp717
(dp718
g74
(dp719
sg83
g705
sg76
(lp720
g69
(g70
g71
NtRp721
(dp722
g74
(dp723
g82
I3
ssg83
g717
sg76
(lp724
S''
asbasbasbag69
(g85
g71
NtRp725
(dp726
g74
(dp727
sg83
g661
sg76
(lp728
g69
(g90
g71
NtRp729
(dp730
g74
(dp731
g94
g95
ssg83
g725
sg76
(lp732
g358
asbag69
(g90
g71
NtRp733
(dp734
g74
(dp735
g101
g102
ssg83
g725
sg76
(lp736
S':'
asbag69
(g90
g71
NtRp737
(dp738
g74
(dp739
sg83
g725
sg76
(lp740
g69
(g70
g71
NtRp741
(dp742
g74
(dp743
g82
I3
ssg83
g737
sg76
(lp744
S''
asbasbasbag69
(g85
g71
NtRp745
(dp746
g74
(dp747
sg83
g661
sg76
(lp748
g69
(g90
g71
NtRp749
(dp750
g74
(dp751
g94
g95
ssg83
g745
sg76
(lp752
g379
asbag69
(g90
g71
NtRp753
(dp754
g74
(dp755
g101
g102
ssg83
g745
sg76
(lp756
S':'
asbag69
(g90
g71
NtRp757
(dp758
g74
(dp759
sg83
g745
sg76
(lp760
g69
(g70
g71
NtRp761
(dp762
g74
(dp763
g82
I3
ssg83
g757
sg76
(lp764
S''
asbasbasbag69
(g85
g71
NtRp765
(dp766
g74
(dp767
sg83
g661
sg76
(lp768
g69
(g90
g71
NtRp769
(dp770
g74
(dp771
g94
g95
ssg83
g765
sg76
(lp772
g400
asbag69
(g90
g71
NtRp773
(dp774
g74
(dp775
g101
g102
ssg83
g765
sg76
(lp776
S':'
asbag69
(g90
g71
NtRp777
(dp778
g74
(dp779
sg83
g765
sg76
(lp780
g69
(g70
g71
NtRp781
(dp782
g74
(dp783
g82
I3
ssg83
g777
sg76
(lp784
S''
asbasbasbag69
(g85
g71
NtRp785
(dp786
g74
(dp787
sg83
g661
sg76
(lp788
g69
(g90
g71
NtRp789
(dp790
g74
(dp791
g94
g95
ssg83
g785
sg76
(lp792
g421
asbag69
(g90
g71
NtRp793
(dp794
g74
(dp795
g101
g102
ssg83
g785
sg76
(lp796
S':'
asbag69
(g90
g71
NtRp797
(dp798
g74
(dp799
sg83
g785
sg76
(lp800
g69
(g70
g71
NtRp801
(dp802
g74
(dp803
g82
I3
ssg83
g797
sg76
(lp804
S''
asbasbasbag69
(g85
g71
NtRp805
(dp806
g74
(dp807
sg83
g661
sg76
(lp808
g69
(g90
g71
NtRp809
(dp810
g74
(dp811
g94
g95
ssg83
g805
sg76
(lp812
g442
asbag69
(g90
g71
NtRp813
(dp814
g74
(dp815
g101
g102
ssg83
g805
sg76
(lp816
S':'
asbag69
(g90
g71
NtRp817
(dp818
g74
(dp819
sg83
g805
sg76
(lp820
g69
(g70
g71
NtRp821
(dp822
g74
(dp823
g82
I3
ssg83
g817
sg76
(lp824
S''
asbasbasbasbasbasbasbasbasbasbasbag69
(g85
g71
NtRp825
(dp826
g74
(dp827
sg83
g79
sg76
(lp828
g69
(g90
g71
NtRp829
(dp830
g74
(dp831
g94
g95
ssg83
g825
sg76
(lp832
S'env'
p833
asbag69
(g90
g71
NtRp834
(dp835
g74
(dp836
g101
g102
ssg83
g825
sg76
(lp837
S':'
asbag69
(g90
g71
NtRp838
(dp839
g74
(dp840
sg83
g825
sg76
(lp841
g69
(g70
g71
NtRp842
(dp843
g74
(dp844
g82
I5
ssg83
g838
sg76
(lp845
g69
(g78
g71
NtRp846
(dp847
g74
(dp848
g82
I4
ssg83
Nsg76
(lp849
g69
(g85
g71
NtRp850
(dp851
g74
(dp852
sg83
g846
sg76
(lp853
g69
(g90
g71
NtRp854
(dp855
g74
(dp856
g94
g95
ssg83
g850
sg76
(lp857
S'app_folders'
p858
asbag69
(g90
g71
NtRp859
(dp860
g74
(dp861
g101
g102
ssg83
g850
sg76
(lp862
S':'
asbag69
(g90
g71
NtRp863
(dp864
g74
(dp865
sg83
g850
sg76
(lp866
g69
(g70
g71
NtRp867
(dp868
g74
(dp869
g82
I4
ssg83
g863
sg76
(lp870
S"set(['C:\\\\Users\\\\mellinja\\\\Documents\\\\SC2Tracker\\\\SC2TourneyTracker\\\\web2py\\\\applications\\\\welcome\\\\', 'C:\\\\Users\\\\mellinja\\\\Documents\\\\SC2Tracker\\\\SC2TourneyTracker\\\\web2py\\\\applications\\\\admin\\\\', 'C:\\\\Users\\\\mellinja\\\\Documents\\\\SC2Tracker\\\\SC2TourneyTracker\\\\web2py\\\\applications\\\\examples\\\\'])"
p871
asbasbasbag69
(g85
g71
NtRp872
(dp873
g74
(dp874
sg83
g846
sg76
(lp875
g69
(g90
g71
NtRp876
(dp877
g74
(dp878
g94
g95
ssg83
g872
sg76
(lp879
S'applications_parent'
p880
asbag69
(g90
g71
NtRp881
(dp882
g74
(dp883
g101
g102
ssg83
g872
sg76
(lp884
S':'
asbag69
(g90
g71
NtRp885
(dp886
g74
(dp887
sg83
g872
sg76
(lp888
g69
(g70
g71
NtRp889
(dp890
g74
(dp891
g82
I4
ssg83
g885
sg76
(lp892
S'C:\\Users\\mellinja\\Documents\\SC2Tracker\\SC2TourneyTracker\\web2py'
p893
asbasbasbag69
(g85
g71
NtRp894
(dp895
g74
(dp896
sg83
g846
sg76
(lp897
g69
(g90
g71
NtRp898
(dp899
g74
(dp900
g94
g95
ssg83
g894
sg76
(lp901
S'cmd_args'
p902
asbag69
(g90
g71
NtRp903
(dp904
g74
(dp905
g101
g102
ssg83
g894
sg76
(lp906
S':'
asbag69
(g90
g71
NtRp907
(dp908
g74
(dp909
sg83
g894
sg76
(lp910
g69
(g70
g71
NtRp911
(dp912
g74
(dp913
g82
I4
ssg83
g907
sg76
(lp914
g69
(g78
g71
NtRp915
(dp916
g74
(dp917
g82
I3
ssg83
Nsg76
(lp918
sbasbasbasbag69
(g85
g71
NtRp919
(dp920
g74
(dp921
sg83
g846
sg76
(lp922
g69
(g90
g71
NtRp923
(dp924
g74
(dp925
g94
g95
ssg83
g919
sg76
(lp926
S'cmd_options'
p927
asbag69
(g90
g71
NtRp928
(dp929
g74
(dp930
g101
g102
ssg83
g919
sg76
(lp931
S':'
asbag69
(g90
g71
NtRp932
(dp933
g74
(dp934
sg83
g919
sg76
(lp935
g69
(g70
g71
NtRp936
(dp937
g74
(dp938
g82
I4
ssg83
g932
sg76
(lp939
S"<Values at 0x35ed5c8: {'verbose': False, 'ip': '127.0.0.1', 'shutdown_timeout': 5, 'taskbar': False, 'nocron': False, 'pid_filename': 'httpserver.pid', 'maxthreads': None, 'softcron': False, 'server_name': 'mellinja-PC', 'bpython': False, 'nogui': False, 'port': 8000, 'extcron': False, 'debuglevel': 30, 'test': None, 'folder': 'C:\\\\Users\\\\mellinja\\\\Documents\\\\SC2Tracker\\\\SC2TourneyTracker\\\\web2py', 'config': '', 'import_models': False, 'winservice': '', 'shell': None, 'run': '', 'log_filename': 'httpserver.log', 'args': [''], 'socket_timeout': 1, 'ssl_ca_certificate': None, 'scheduler': None, 'profiler_filename': None, 'ssl_private_key': '', 'password': '<ask>', 'request_queue_size': 5, 'ssl_certificate': '', 'cronjob': False, 'numthreads': None, 'quiet': False, 'interfaces': None, 'minthreads': None, 'timeout': 10, 'plain': False, 'nobanner': False}>"
p940
asbasbasbag69
(g85
g71
NtRp941
(dp942
g74
(dp943
sg83
g846
sg76
(lp944
g69
(g90
g71
NtRp945
(dp946
g74
(dp947
g94
g95
ssg83
g941
sg76
(lp948
S'db_sessions'
p949
asbag69
(g90
g71
NtRp950
(dp951
g74
(dp952
g101
g102
ssg83
g941
sg76
(lp953
S':'
asbag69
(g90
g71
NtRp954
(dp955
g74
(dp956
sg83
g941
sg76
(lp957
g69
(g70
g71
NtRp958
(dp959
g74
(dp960
g82
I4
ssg83
g954
sg76
(lp961
S'set([])'
p962
asbasbasbag69
(g85
g71
NtRp963
(dp964
g74
(dp965
sg83
g846
sg76
(lp966
g69
(g90
g71
NtRp967
(dp968
g74
(dp969
g94
g95
ssg83
g963
sg76
(lp970
S'debugging'
p971
asbag69
(g90
g71
NtRp972
(dp973
g74
(dp974
g101
g102
ssg83
g963
sg76
(lp975
S':'
asbag69
(g90
g71
NtRp976
(dp977
g74
(dp978
sg83
g963
sg76
(lp979
g69
(g70
g71
NtRp980
(dp981
g74
(dp982
g82
I4
ssg83
g976
sg76
(lp983
g112
asbasbasbag69
(g85
g71
NtRp984
(dp985
g74
(dp986
sg83
g846
sg76
(lp987
g69
(g90
g71
NtRp988
(dp989
g74
(dp990
g94
g95
ssg83
g984
sg76
(lp991
S'gluon_parent'
p992
asbag69
(g90
g71
NtRp993
(dp994
g74
(dp995
g101
g102
ssg83
g984
sg76
(lp996
S':'
asbag69
(g90
g71
NtRp997
(dp998
g74
(dp999
sg83
g984
sg76
(lp1000
g69
(g70
g71
NtRp1001
(dp1002
g74
(dp1003
g82
I4
ssg83
g997
sg76
(lp1004
S'C:\\Users\\mellinja\\Documents\\SC2Tracker\\SC2TourneyTracker\\web2py'
p1005
asbasbasbag69
(g85
g71
NtRp1006
(dp1007
g74
(dp1008
sg83
g846
sg76
(lp1009
g69
(g90
g71
NtRp1010
(dp1011
g74
(dp1012
g94
g95
ssg83
g1006
sg76
(lp1013
S'http_accept'
p1014
asbag69
(g90
g71
NtRp1015
(dp1016
g74
(dp1017
g101
g102
ssg83
g1006
sg76
(lp1018
S':'
asbag69
(g90
g71
NtRp1019
(dp1020
g74
(dp1021
sg83
g1006
sg76
(lp1022
g69
(g70
g71
NtRp1023
(dp1024
g74
(dp1025
g82
I4
ssg83
g1019
sg76
(lp1026
S'text/html,application/xhtml+xml,application/xml;q=0.9,*/*;q=0.8'
p1027
asbasbasbag69
(g85
g71
NtRp1028
(dp1029
g74
(dp1030
sg83
g846
sg76
(lp1031
g69
(g90
g71
NtRp1032
(dp1033
g74
(dp1034
g94
g95
ssg83
g1028
sg76
(lp1035
S'http_accept_charset'
p1036
asbag69
(g90
g71
NtRp1037
(dp1038
g74
(dp1039
g101
g102
ssg83
g1028
sg76
(lp1040
S':'
asbag69
(g90
g71
NtRp1041
(dp1042
g74
(dp1043
sg83
g1028
sg76
(lp1044
g69
(g70
g71
NtRp1045
(dp1046
g74
(dp1047
g82
I4
ssg83
g1041
sg76
(lp1048
S'ISO-8859-1,utf-8;q=0.7,*;q=0.3'
p1049
asbasbasbag69
(g85
g71
NtRp1050
(dp1051
g74
(dp1052
sg83
g846
sg76
(lp1053
g69
(g90
g71
NtRp1054
(dp1055
g74
(dp1056
g94
g95
ssg83
g1050
sg76
(lp1057
S'http_accept_encoding'
p1058
asbag69
(g90
g71
NtRp1059
(dp1060
g74
(dp1061
g101
g102
ssg83
g1050
sg76
(lp1062
S':'
asbag69
(g90
g71
NtRp1063
(dp1064
g74
(dp1065
sg83
g1050
sg76
(lp1066
g69
(g70
g71
NtRp1067
(dp1068
g74
(dp1069
g82
I4
ssg83
g1063
sg76
(lp1070
S'gzip,deflate,sdch'
p1071
asbasbasbag69
(g85
g71
NtRp1072
(dp1073
g74
(dp1074
sg83
g846
sg76
(lp1075
g69
(g90
g71
NtRp1076
(dp1077
g74
(dp1078
g94
g95
ssg83
g1072
sg76
(lp1079
S'http_accept_language'
p1080
asbag69
(g90
g71
NtRp1081
(dp1082
g74
(dp1083
g101
g102
ssg83
g1072
sg76
(lp1084
S':'
asbag69
(g90
g71
NtRp1085
(dp1086
g74
(dp1087
sg83
g1072
sg76
(lp1088
g69
(g70
g71
NtRp1089
(dp1090
g74
(dp1091
g82
I4
ssg83
g1085
sg76
(lp1092
S'en-US,en;q=0.8'
p1093
asbasbasbag69
(g85
g71
NtRp1094
(dp1095
g74
(dp1096
sg83
g846
sg76
(lp1097
g69
(g90
g71
NtRp1098
(dp1099
g74
(dp1100
g94
g95
ssg83
g1094
sg76
(lp1101
S'http_cache_control'
p1102
asbag69
(g90
g71
NtRp1103
(dp1104
g74
(dp1105
g101
g102
ssg83
g1094
sg76
(lp1106
S':'
asbag69
(g90
g71
NtRp1107
(dp1108
g74
(dp1109
sg83
g1094
sg76
(lp1110
g69
(g70
g71
NtRp1111
(dp1112
g74
(dp1113
g82
I4
ssg83
g1107
sg76
(lp1114
S'max-age=0'
p1115
asbasbasbag69
(g85
g71
NtRp1116
(dp1117
g74
(dp1118
sg83
g846
sg76
(lp1119
g69
(g90
g71
NtRp1120
(dp1121
g74
(dp1122
g94
g95
ssg83
g1116
sg76
(lp1123
S'http_connection'
p1124
asbag69
(g90
g71
NtRp1125
(dp1126
g74
(dp1127
g101
g102
ssg83
g1116
sg76
(lp1128
S':'
asbag69
(g90
g71
NtRp1129
(dp1130
g74
(dp1131
sg83
g1116
sg76
(lp1132
g69
(g70
g71
NtRp1133
(dp1134
g74
(dp1135
g82
I4
ssg83
g1129
sg76
(lp1136
S'keep-alive'
p1137
asbasbasbag69
(g85
g71
NtRp1138
(dp1139
g74
(dp1140
sg83
g846
sg76
(lp1141
g69
(g90
g71
NtRp1142
(dp1143
g74
(dp1144
g94
g95
ssg83
g1138
sg76
(lp1145
S'http_cookie'
p1146
asbag69
(g90
g71
NtRp1147
(dp1148
g74
(dp1149
g101
g102
ssg83
g1138
sg76
(lp1150
S':'
asbag69
(g90
g71
NtRp1151
(dp1152
g74
(dp1153
sg83
g1138
sg76
(lp1154
g69
(g70
g71
NtRp1155
(dp1156
g74
(dp1157
g82
I4
ssg83
g1151
sg76
(lp1158
S'session_id_examples=127.0.0.1-9e881dcd-95ac-4a4e-bf37-4ac0954cf6e0; session_id_welcome=127.0.0.1-5b61f96d-52a5-4e52-805f-552fe78bcf40; session_id_admin=127.0.0.1-d85497cf-ea1f-4eff-b6f9-b725bf1f6ac9'
p1159
asbasbasbag69
(g85
g71
NtRp1160
(dp1161
g74
(dp1162
sg83
g846
sg76
(lp1163
g69
(g90
g71
NtRp1164
(dp1165
g74
(dp1166
g94
g95
ssg83
g1160
sg76
(lp1167
S'http_host'
p1168
asbag69
(g90
g71
NtRp1169
(dp1170
g74
(dp1171
g101
g102
ssg83
g1160
sg76
(lp1172
S':'
asbag69
(g90
g71
NtRp1173
(dp1174
g74
(dp1175
sg83
g1160
sg76
(lp1176
g69
(g70
g71
NtRp1177
(dp1178
g74
(dp1179
g82
I4
ssg83
g1173
sg76
(lp1180
S'127.0.0.1:8000'
p1181
asbasbasbag69
(g85
g71
NtRp1182
(dp1183
g74
(dp1184
sg83
g846
sg76
(lp1185
g69
(g90
g71
NtRp1186
(dp1187
g74
(dp1188
g94
g95
ssg83
g1182
sg76
(lp1189
S'http_referer'
p1190
asbag69
(g90
g71
NtRp1191
(dp1192
g74
(dp1193
g101
g102
ssg83
g1182
sg76
(lp1194
S':'
asbag69
(g90
g71
NtRp1195
(dp1196
g74
(dp1197
sg83
g1182
sg76
(lp1198
g69
(g70
g71
NtRp1199
(dp1200
g74
(dp1201
g82
I4
ssg83
g1195
sg76
(lp1202
S'http://127.0.0.1:8000/welcome/tournament/'
p1203
asbasbasbag69
(g85
g71
NtRp1204
(dp1205
g74
(dp1206
sg83
g846
sg76
(lp1207
g69
(g90
g71
NtRp1208
(dp1209
g74
(dp1210
g94
g95
ssg83
g1204
sg76
(lp1211
S'http_user_agent'
p1212
asbag69
(g90
g71
NtRp1213
(dp1214
g74
(dp1215
g101
g102
ssg83
g1204
sg76
(lp1216
S':'
asbag69
(g90
g71
NtRp1217
(dp1218
g74
(dp1219
sg83
g1204
sg76
(lp1220
g69
(g70
g71
NtRp1221
(dp1222
g74
(dp1223
g82
I4
ssg83
g1217
sg76
(lp1224
S'Mozilla/5.0 (Windows NT 6.1; WOW64) AppleWebKit/535.7 (KHTML, like Gecko) Chrome/16.0.912.77 Safari/535.7'
p1225
asbasbasbag69
(g85
g71
NtRp1226
(dp1227
g74
(dp1228
sg83
g846
sg76
(lp1229
g69
(g90
g71
NtRp1230
(dp1231
g74
(dp1232
g94
g95
ssg83
g1226
sg76
(lp1233
S'is_jython'
p1234
asbag69
(g90
g71
NtRp1235
(dp1236
g74
(dp1237
g101
g102
ssg83
g1226
sg76
(lp1238
S':'
asbag69
(g90
g71
NtRp1239
(dp1240
g74
(dp1241
sg83
g1226
sg76
(lp1242
g69
(g70
g71
NtRp1243
(dp1244
g74
(dp1245
g82
I4
ssg83
g1239
sg76
(lp1246
g112
asbasbasbag69
(g85
g71
NtRp1247
(dp1248
g74
(dp1249
sg83
g846
sg76
(lp1250
g69
(g90
g71
NtRp1251
(dp1252
g74
(dp1253
g94
g95
ssg83
g1247
sg76
(lp1254
S'is_pypy'
p1255
asbag69
(g90
g71
NtRp1256
(dp1257
g74
(dp1258
g101
g102
ssg83
g1247
sg76
(lp1259
S':'
asbag69
(g90
g71
NtRp1260
(dp1261
g74
(dp1262
sg83
g1247
sg76
(lp1263
g69
(g70
g71
NtRp1264
(dp1265
g74
(dp1266
g82
I4
ssg83
g1260
sg76
(lp1267
g112
asbasbasbag69
(g85
g71
NtRp1268
(dp1269
g74
(dp1270
sg83
g846
sg76
(lp1271
g69
(g90
g71
NtRp1272
(dp1273
g74
(dp1274
g94
g95
ssg83
g1268
sg76
(lp1275
S'path_info'
p1276
asbag69
(g90
g71
NtRp1277
(dp1278
g74
(dp1279
g101
g102
ssg83
g1268
sg76
(lp1280
S':'
asbag69
(g90
g71
NtRp1281
(dp1282
g74
(dp1283
sg83
g1268
sg76
(lp1284
g69
(g70
g71
NtRp1285
(dp1286
g74
(dp1287
g82
I4
ssg83
g1281
sg76
(lp1288
S'/welcome/tournament/show/0'
p1289
asbasbasbag69
(g85
g71
NtRp1290
(dp1291
g74
(dp1292
sg83
g846
sg76
(lp1293
g69
(g90
g71
NtRp1294
(dp1295
g74
(dp1296
g94
g95
ssg83
g1290
sg76
(lp1297
S'query_string'
p1298
asbag69
(g90
g71
NtRp1299
(dp1300
g74
(dp1301
g101
g102
ssg83
g1290
sg76
(lp1302
S':'
asbag69
(g90
g71
NtRp1303
(dp1304
g74
(dp1305
sg83
g1290
sg76
(lp1306
g69
(g70
g71
NtRp1307
(dp1308
g74
(dp1309
g82
I4
ssg83
g1303
sg76
(lp1310
S''
asbasbasbag69
(g85
g71
NtRp1311
(dp1312
g74
(dp1313
sg83
g846
sg76
(lp1314
g69
(g90
g71
NtRp1315
(dp1316
g74
(dp1317
g94
g95
ssg83
g1311
sg76
(lp1318
S'remote_addr'
p1319
asbag69
(g90
g71
NtRp1320
(dp1321
g74
(dp1322
g101
g102
ssg83
g1311
sg76
(lp1323
S':'
asbag69
(g90
g71
NtRp1324
(dp1325
g74
(dp1326
sg83
g1311
sg76
(lp1327
g69
(g70
g71
NtRp1328
(dp1329
g74
(dp1330
g82
I4
ssg83
g1324
sg76
(lp1331
g214
asbasbasbag69
(g85
g71
NtRp1332
(dp1333
g74
(dp1334
sg83
g846
sg76
(lp1335
g69
(g90
g71
NtRp1336
(dp1337
g74
(dp1338
g94
g95
ssg83
g1332
sg76
(lp1339
S'remote_port'
p1340
asbag69
(g90
g71
NtRp1341
(dp1342
g74
(dp1343
g101
g102
ssg83
g1332
sg76
(lp1344
S':'
asbag69
(g90
g71
NtRp1345
(dp1346
g74
(dp1347
sg83
g1332
sg76
(lp1348
g69
(g70
g71
NtRp1349
(dp1350
g74
(dp1351
g82
I4
ssg83
g1345
sg76
(lp1352
S'54270'
p1353
asbasbasbag69
(g85
g71
NtRp1354
(dp1355
g74
(dp1356
sg83
g846
sg76
(lp1357
g69
(g90
g71
NtRp1358
(dp1359
g74
(dp1360
g94
g95
ssg83
g1354
sg76
(lp1361
S'request_method'
p1362
asbag69
(g90
g71
NtRp1363
(dp1364
g74
(dp1365
g101
g102
ssg83
g1354
sg76
(lp1366
S':'
asbag69
(g90
g71
NtRp1367
(dp1368
g74
(dp1369
sg83
g1354
sg76
(lp1370
g69
(g70
g71
NtRp1371
(dp1372
g74
(dp1373
g82
I4
ssg83
g1367
sg76
(lp1374
S'GET'
p1375
asbasbasbag69
(g85
g71
NtRp1376
(dp1377
g74
(dp1378
sg83
g846
sg76
(lp1379
g69
(g90
g71
NtRp1380
(dp1381
g74
(dp1382
g94
g95
ssg83
g1376
sg76
(lp1383
S'script_name'
p1384
asbag69
(g90
g71
NtRp1385
(dp1386
g74
(dp1387
g101
g102
ssg83
g1376
sg76
(lp1388
S':'
asbag69
(g90
g71
NtRp1389
(dp1390
g74
(dp1391
sg83
g1376
sg76
(lp1392
g69
(g70
g71
NtRp1393
(dp1394
g74
(dp1395
g82
I4
ssg83
g1389
sg76
(lp1396
S''
asbasbasbag69
(g85
g71
NtRp1397
(dp1398
g74
(dp1399
sg83
g846
sg76
(lp1400
g69
(g90
g71
NtRp1401
(dp1402
g74
(dp1403
g94
g95
ssg83
g1397
sg76
(lp1404
S'server_name'
p1405
asbag69
(g90
g71
NtRp1406
(dp1407
g74
(dp1408
g101
g102
ssg83
g1397
sg76
(lp1409
S':'
asbag69
(g90
g71
NtRp1410
(dp1411
g74
(dp1412
sg83
g1397
sg76
(lp1413
g69
(g70
g71
NtRp1414
(dp1415
g74
(dp1416
g82
I4
ssg83
g1410
sg76
(lp1417
S'mellinja-PC'
p1418
asbasbasbag69
(g85
g71
NtRp1419
(dp1420
g74
(dp1421
sg83
g846
sg76
(lp1422
g69
(g90
g71
NtRp1423
(dp1424
g74
(dp1425
g94
g95
ssg83
g1419
sg76
(lp1426
S'server_port'
p1427
asbag69
(g90
g71
NtRp1428
(dp1429
g74
(dp1430
g101
g102
ssg83
g1419
sg76
(lp1431
S':'
asbag69
(g90
g71
NtRp1432
(dp1433
g74
(dp1434
sg83
g1419
sg76
(lp1435
g69
(g70
g71
NtRp1436
(dp1437
g74
(dp1438
g82
I4
ssg83
g1432
sg76
(lp1439
S'8000'
p1440
asbasbasbag69
(g85
g71
NtRp1441
(dp1442
g74
(dp1443
sg83
g846
sg76
(lp1444
g69
(g90
g71
NtRp1445
(dp1446
g74
(dp1447
g94
g95
ssg83
g1441
sg76
(lp1448
S'server_protocol'
p1449
asbag69
(g90
g71
NtRp1450
(dp1451
g74
(dp1452
g101
g102
ssg83
g1441
sg76
(lp1453
S':'
asbag69
(g90
g71
NtRp1454
(dp1455
g74
(dp1456
sg83
g1441
sg76
(lp1457
g69
(g70
g71
NtRp1458
(dp1459
g74
(dp1460
g82
I4
ssg83
g1454
sg76
(lp1461
S'HTTP/1.1'
p1462
asbasbasbag69
(g85
g71
NtRp1463
(dp1464
g74
(dp1465
sg83
g846
sg76
(lp1466
g69
(g90
g71
NtRp1467
(dp1468
g74
(dp1469
g94
g95
ssg83
g1463
sg76
(lp1470
S'server_software'
p1471
asbag69
(g90
g71
NtRp1472
(dp1473
g74
(dp1474
g101
g102
ssg83
g1463
sg76
(lp1475
S':'
asbag69
(g90
g71
NtRp1476
(dp1477
g74
(dp1478
sg83
g1463
sg76
(lp1479
g69
(g70
g71
NtRp1480
(dp1481
g74
(dp1482
g82
I4
ssg83
g1476
sg76
(lp1483
S'Rocket 1.2.4'
p1484
asbasbasbag69
(g85
g71
NtRp1485
(dp1486
g74
(dp1487
sg83
g846
sg76
(lp1488
g69
(g90
g71
NtRp1489
(dp1490
g74
(dp1491
g94
g95
ssg83
g1485
sg76
(lp1492
S'web2py_crontype'
p1493
asbag69
(g90
g71
NtRp1494
(dp1495
g74
(dp1496
g101
g102
ssg83
g1485
sg76
(lp1497
S':'
asbag69
(g90
g71
NtRp1498
(dp1499
g74
(dp1500
sg83
g1485
sg76
(lp1501
g69
(g70
g71
NtRp1502
(dp1503
g74
(dp1504
g82
I4
ssg83
g1498
sg76
(lp1505
S'hard'
p1506
asbasbasbag69
(g85
g71
NtRp1507
(dp1508
g74
(dp1509
sg83
g846
sg76
(lp1510
g69
(g90
g71
NtRp1511
(dp1512
g74
(dp1513
g94
g95
ssg83
g1507
sg76
(lp1514
S'web2py_path'
p1515
asbag69
(g90
g71
NtRp1516
(dp1517
g74
(dp1518
g101
g102
ssg83
g1507
sg76
(lp1519
S':'
asbag69
(g90
g71
NtRp1520
(dp1521
g74
(dp1522
sg83
g1507
sg76
(lp1523
g69
(g70
g71
NtRp1524
(dp1525
g74
(dp1526
g82
I4
ssg83
g1520
sg76
(lp1527
g893
asbasbasbag69
(g85
g71
NtRp1528
(dp1529
g74
(dp1530
sg83
g846
sg76
(lp1531
g69
(g90
g71
NtRp1532
(dp1533
g74
(dp1534
g94
g95
ssg83
g1528
sg76
(lp1535
S'web2py_version'
p1536
asbag69
(g90
g71
NtRp1537
(dp1538
g74
(dp1539
g101
g102
ssg83
g1528
sg76
(lp1540
S':'
asbag69
(g90
g71
NtRp1541
(dp1542
g74
(dp1543
sg83
g1528
sg76
(lp1544
g69
(g70
g71
NtRp1545
(dp1546
g74
(dp1547
g82
I4
ssg83
g1541
sg76
(lp1548
g69
(g78
g71
NtRp1549
(dp1550
g74
(dp1551
g82
I3
ssg83
Nsg76
(lp1552
g69
(g85
g71
NtRp1553
(dp1554
g74
(dp1555
sg83
g1549
sg76
(lp1556
g69
(g90
g71
NtRp1557
(dp1558
g74
(dp1559
sg83
g1553
sg76
(lp1560
g69
(g70
g71
NtRp1561
(dp1562
g74
(dp1563
g82
I3
ssg83
g1557
sg76
(lp1564
S'1'
asbasbasbag69
(g85
g71
NtRp1565
(dp1566
g74
(dp1567
sg83
g1549
sg76
(lp1568
g69
(g90
g71
NtRp1569
(dp1570
g74
(dp1571
sg83
g1565
sg76
(lp1572
g69
(g70
g71
NtRp1573
(dp1574
g74
(dp1575
g82
I3
ssg83
g1569
sg76
(lp1576
S'99'
p1577
asbasbasbag69
(g85
g71
NtRp1578
(dp1579
g74
(dp1580
sg83
g1549
sg76
(lp1581
g69
(g90
g71
NtRp1582
(dp1583
g74
(dp1584
sg83
g1578
sg76
(lp1585
g69
(g70
g71
NtRp1586
(dp1587
g74
(dp1588
g82
I3
ssg83
g1582
sg76
(lp1589
S'4'
asbasbasbag69
(g85
g71
NtRp1590
(dp1591
g74
(dp1592
sg83
g1549
sg76
(lp1593
g69
(g90
g71
NtRp1594
(dp1595
g74
(dp1596
sg83
g1590
sg76
(lp1597
g69
(g70
g71
NtRp1598
(dp1599
g74
(dp1600
g82
I3
ssg83
g1594
sg76
(lp1601
S'datetime.datetime(2011, 12, 14, 14, 46, 14)'
p1602
asbasbasbag69
(g85
g71
NtRp1603
(dp1604
g74
(dp1605
sg83
g1549
sg76
(lp1606
g69
(g90
g71
NtRp1607
(dp1608
g74
(dp1609
sg83
g1603
sg76
(lp1610
g69
(g70
g71
NtRp1611
(dp1612
g74
(dp1613
g82
I3
ssg83
g1607
sg76
(lp1614
S'stable'
p1615
asbasbasbasbasbasbasbag69
(g85
g71
NtRp1616
(dp1617
g74
(dp1618
sg83
g846
sg76
(lp1619
g69
(g90
g71
NtRp1620
(dp1621
g74
(dp1622
g94
g95
ssg83
g1616
sg76
(lp1623
S'wsgi_errors'
p1624
asbag69
(g90
g71
NtRp1625
(dp1626
g74
(dp1627
g101
g102
ssg83
g1616
sg76
(lp1628
S':'
asbag69
(g90
g71
NtRp1629
(dp1630
g74
(dp1631
sg83
g1616
sg76
(lp1632
g69
(g70
g71
NtRp1633
(dp1634
g74
(dp1635
g82
I4
ssg83
g1629
sg76
(lp1636
S"<open file '<stderr>', mode 'w' at 0x0000000001E261E0>"
p1637
asbasbasbag69
(g85
g71
NtRp1638
(dp1639
g74
(dp1640
sg83
g846
sg76
(lp1641
g69
(g90
g71
NtRp1642
(dp1643
g74
(dp1644
g94
g95
ssg83
g1638
sg76
(lp1645
S'wsgi_file_wrapper'
p1646
asbag69
(g90
g71
NtRp1647
(dp1648
g74
(dp1649
g101
g102
ssg83
g1638
sg76
(lp1650
S':'
asbag69
(g90
g71
NtRp1651
(dp1652
g74
(dp1653
sg83
g1638
sg76
(lp1654
g69
(g70
g71
NtRp1655
(dp1656
g74
(dp1657
g82
I4
ssg83
g1651
sg76
(lp1658
S'<class wsgiref.util.FileWrapper at 0x00000000034DD828>'
p1659
asbasbasbag69
(g85
g71
NtRp1660
(dp1661
g74
(dp1662
sg83
g846
sg76
(lp1663
g69
(g90
g71
NtRp1664
(dp1665
g74
(dp1666
g94
g95
ssg83
g1660
sg76
(lp1667
S'wsgi_input'
p1668
asbag69
(g90
g71
NtRp1669
(dp1670
g74
(dp1671
g101
g102
ssg83
g1660
sg76
(lp1672
S':'
asbag69
(g90
g71
NtRp1673
(dp1674
g74
(dp1675
sg83
g1660
sg76
(lp1676
g69
(g70
g71
NtRp1677
(dp1678
g74
(dp1679
g82
I4
ssg83
g1673
sg76
(lp1680
S'<socket._fileobject object at 0x0000000007ADB2A0>'
p1681
asbasbasbag69
(g85
g71
NtRp1682
(dp1683
g74
(dp1684
sg83
g846
sg76
(lp1685
g69
(g90
g71
NtRp1686
(dp1687
g74
(dp1688
g94
g95
ssg83
g1682
sg76
(lp1689
S'wsgi_multiprocess'
p1690
asbag69
(g90
g71
NtRp1691
(dp1692
g74
(dp1693
g101
g102
ssg83
g1682
sg76
(lp1694
S':'
asbag69
(g90
g71
NtRp1695
(dp1696
g74
(dp1697
sg83
g1682
sg76
(lp1698
g69
(g70
g71
NtRp1699
(dp1700
g74
(dp1701
g82
I4
ssg83
g1695
sg76
(lp1702
g112
asbasbasbag69
(g85
g71
NtRp1703
(dp1704
g74
(dp1705
sg83
g846
sg76
(lp1706
g69
(g90
g71
NtRp1707
(dp1708
g74
(dp1709
g94
g95
ssg83
g1703
sg76
(lp1710
S'wsgi_multithread'
p1711
asbag69
(g90
g71
NtRp1712
(dp1713
g74
(dp1714
g101
g102
ssg83
g1703
sg76
(lp1715
S':'
asbag69
(g90
g71
NtRp1716
(dp1717
g74
(dp1718
sg83
g1703
sg76
(lp1719
g69
(g70
g71
NtRp1720
(dp1721
g74
(dp1722
g82
I4
ssg83
g1716
sg76
(lp1723
S'True'
p1724
asbasbasbag69
(g85
g71
NtRp1725
(dp1726
g74
(dp1727
sg83
g846
sg76
(lp1728
g69
(g90
g71
NtRp1729
(dp1730
g74
(dp1731
g94
g95
ssg83
g1725
sg76
(lp1732
S'wsgi_run_once'
p1733
asbag69
(g90
g71
NtRp1734
(dp1735
g74
(dp1736
g101
g102
ssg83
g1725
sg76
(lp1737
S':'
asbag69
(g90
g71
NtRp1738
(dp1739
g74
(dp1740
sg83
g1725
sg76
(lp1741
g69
(g70
g71
NtRp1742
(dp1743
g74
(dp1744
g82
I4
ssg83
g1738
sg76
(lp1745
g112
asbasbasbag69
(g85
g71
NtRp1746
(dp1747
g74
(dp1748
sg83
g846
sg76
(lp1749
g69
(g90
g71
NtRp1750
(dp1751
g74
(dp1752
g94
g95
ssg83
g1746
sg76
(lp1753
S'wsgi_url_scheme'
p1754
asbag69
(g90
g71
NtRp1755
(dp1756
g74
(dp1757
g101
g102
ssg83
g1746
sg76
(lp1758
S':'
asbag69
(g90
g71
NtRp1759
(dp1760
g74
(dp1761
sg83
g1746
sg76
(lp1762
g69
(g70
g71
NtRp1763
(dp1764
g74
(dp1765
g82
I4
ssg83
g1759
sg76
(lp1766
S'http'
p1767
asbasbasbag69
(g85
g71
NtRp1768
(dp1769
g74
(dp1770
sg83
g846
sg76
(lp1771
g69
(g90
g71
NtRp1772
(dp1773
g74
(dp1774
g94
g95
ssg83
g1768
sg76
(lp1775
S'wsgi_version'
p1776
asbag69
(g90
g71
NtRp1777
(dp1778
g74
(dp1779
g101
g102
ssg83
g1768
sg76
(lp1780
S':'
asbag69
(g90
g71
NtRp1781
(dp1782
g74
(dp1783
sg83
g1768
sg76
(lp1784
g69
(g70
g71
NtRp1785
(dp1786
g74
(dp1787
g82
I4
ssg83
g1781
sg76
(lp1788
g69
(g78
g71
NtRp1789
(dp1790
g74
(dp1791
g82
I3
ssg83
Nsg76
(lp1792
g69
(g85
g71
NtRp1793
(dp1794
g74
(dp1795
sg83
g1789
sg76
(lp1796
g69
(g90
g71
NtRp1797
(dp1798
g74
(dp1799
sg83
g1793
sg76
(lp1800
g69
(g70
g71
NtRp1801
(dp1802
g74
(dp1803
g82
I3
ssg83
g1797
sg76
(lp1804
S'1'
asbasbasbag69
(g85
g71
NtRp1805
(dp1806
g74
(dp1807
sg83
g1789
sg76
(lp1808
g69
(g90
g71
NtRp1809
(dp1810
g74
(dp1811
sg83
g1805
sg76
(lp1812
g69
(g70
g71
NtRp1813
(dp1814
g74
(dp1815
g82
I3
ssg83
g1809
sg76
(lp1816
S'0'
asbasbasbasbasbasbasbasbasbasbasbag69
(g85
g71
NtRp1817
(dp1818
g74
(dp1819
sg83
g79
sg76
(lp1820
g69
(g90
g71
NtRp1821
(dp1822
g74
(dp1823
g94
g95
ssg83
g1817
sg76
(lp1824
S'extension'
p1825
asbag69
(g90
g71
NtRp1826
(dp1827
g74
(dp1828
g101
g102
ssg83
g1817
sg76
(lp1829
S':'
asbag69
(g90
g71
NtRp1830
(dp1831
g74
(dp1832
sg83
g1817
sg76
(lp1833
g69
(g70
g71
NtRp1834
(dp1835
g74
(dp1836
g82
I5
ssg83
g1830
sg76
(lp1837
S'html'
p1838
asbasbasbag69
(g85
g71
NtRp1839
(dp1840
g74
(dp1841
sg83
g79
sg76
(lp1842
g69
(g90
g71
NtRp1843
(dp1844
g74
(dp1845
g94
g95
ssg83
g1839
sg76
(lp1846
S'folder'
p1847
asbag69
(g90
g71
NtRp1848
(dp1849
g74
(dp1850
g101
g102
ssg83
g1839
sg76
(lp1851
S':'
asbag69
(g90
g71
NtRp1852
(dp1853
g74
(dp1854
sg83
g1839
sg76
(lp1855
g69
(g70
g71
NtRp1856
(dp1857
g74
(dp1858
g82
I5
ssg83
g1852
sg76
(lp1859
S'C:\\Users\\mellinja\\Documents\\SC2Tracker\\SC2TourneyTracker\\web2py\\applications\\welcome\\'
p1860
asbasbasbag69
(g85
g71
NtRp1861
(dp1862
g74
(dp1863
sg83
g79
sg76
(lp1864
g69
(g90
g71
NtRp1865
(dp1866
g74
(dp1867
g94
g95
ssg83
g1861
sg76
(lp1868
S'function'
p1869
asbag69
(g90
g71
NtRp1870
(dp1871
g74
(dp1872
g101
g102
ssg83
g1861
sg76
(lp1873
S':'
asbag69
(g90
g71
NtRp1874
(dp1875
g74
(dp1876
sg83
g1861
sg76
(lp1877
g69
(g70
g71
NtRp1878
(dp1879
g74
(dp1880
g82
I5
ssg83
g1874
sg76
(lp1881
S'show'
p1882
asbasbasbag69
(g85
g71
NtRp1883
(dp1884
g74
(dp1885
sg83
g79
sg76
(lp1886
g69
(g90
g71
NtRp1887
(dp1888
g74
(dp1889
g94
g95
ssg83
g1883
sg76
(lp1890
S'get_vars'
p1891
asbag69
(g90
g71
NtRp1892
(dp1893
g74
(dp1894
g101
g102
ssg83
g1883
sg76
(lp1895
S':'
asbag69
(g90
g71
NtRp1896
(dp1897
g74
(dp1898
sg83
g1883
sg76
(lp1899
g69
(g70
g71
NtRp1900
(dp1901
g74
(dp1902
g82
I5
ssg83
g1896
sg76
(lp1903
g69
(g78
g71
NtRp1904
(dp1905
g74
(dp1906
g82
I4
ssg83
Nsg76
(lp1907
sbasbasbasbag69
(g85
g71
NtRp1908
(dp1909
g74
(dp1910
sg83
g79
sg76
(lp1911
g69
(g90
g71
NtRp1912
(dp1913
g74
(dp1914
g94
g95
ssg83
g1908
sg76
(lp1915
S'global_settings'
p1916
asbag69
(g90
g71
NtRp1917
(dp1918
g74
(dp1919
g101
g102
ssg83
g1908
sg76
(lp1920
S':'
asbag69
(g90
g71
NtRp1921
(dp1922
g74
(dp1923
sg83
g1908
sg76
(lp1924
g69
(g70
g71
NtRp1925
(dp1926
g74
(dp1927
g82
I5
ssg83
g1921
sg76
(lp1928
g69
(g78
g71
NtRp1929
(dp1930
g74
(dp1931
g82
I4
ssg83
Nsg76
(lp1932
g69
(g85
g71
NtRp1933
(dp1934
g74
(dp1935
sg83
g1929
sg76
(lp1936
g69
(g90
g71
NtRp1937
(dp1938
g74
(dp1939
g94
g95
ssg83
g1933
sg76
(lp1940
g858
asbag69
(g90
g71
NtRp1941
(dp1942
g74
(dp1943
g101
g102
ssg83
g1933
sg76
(lp1944
S':'
asbag69
(g90
g71
NtRp1945
(dp1946
g74
(dp1947
sg83
g1933
sg76
(lp1948
g69
(g70
g71
NtRp1949
(dp1950
g74
(dp1951
g82
I4
ssg83
g1945
sg76
(lp1952
S"set(['C:\\\\Users\\\\mellinja\\\\Documents\\\\SC2Tracker\\\\SC2TourneyTracker\\\\web2py\\\\applications\\\\welcome\\\\', 'C:\\\\Users\\\\mellinja\\\\Documents\\\\SC2Tracker\\\\SC2TourneyTracker\\\\web2py\\\\applications\\\\admin\\\\', 'C:\\\\Users\\\\mellinja\\\\Documents\\\\SC2Tracker\\\\SC2TourneyTracker\\\\web2py\\\\applications\\\\examples\\\\'])"
p1953
asbasbasbag69
(g85
g71
NtRp1954
(dp1955
g74
(dp1956
sg83
g1929
sg76
(lp1957
g69
(g90
g71
NtRp1958
(dp1959
g74
(dp1960
g94
g95
ssg83
g1954
sg76
(lp1961
g880
asbag69
(g90
g71
NtRp1962
(dp1963
g74
(dp1964
g101
g102
ssg83
g1954
sg76
(lp1965
S':'
asbag69
(g90
g71
NtRp1966
(dp1967
g74
(dp1968
sg83
g1954
sg76
(lp1969
g69
(g70
g71
NtRp1970
(dp1971
g74
(dp1972
g82
I4
ssg83
g1966
sg76
(lp1973
g893
asbasbasbag69
(g85
g71
NtRp1974
(dp1975
g74
(dp1976
sg83
g1929
sg76
(lp1977
g69
(g90
g71
NtRp1978
(dp1979
g74
(dp1980
g94
g95
ssg83
g1974
sg76
(lp1981
g902
asbag69
(g90
g71
NtRp1982
(dp1983
g74
(dp1984
g101
g102
ssg83
g1974
sg76
(lp1985
S':'
asbag69
(g90
g71
NtRp1986
(dp1987
g74
(dp1988
sg83
g1974
sg76
(lp1989
g69
(g70
g71
NtRp1990
(dp1991
g74
(dp1992
g82
I4
ssg83
g1986
sg76
(lp1993
g69
(g78
g71
NtRp1994
(dp1995
g74
(dp1996
g82
I3
ssg83
Nsg76
(lp1997
sbasbasbasbag69
(g85
g71
NtRp1998
(dp1999
g74
(dp2000
sg83
g1929
sg76
(lp2001
g69
(g90
g71
NtRp2002
(dp2003
g74
(dp2004
g94
g95
ssg83
g1998
sg76
(lp2005
g927
asbag69
(g90
g71
NtRp2006
(dp2007
g74
(dp2008
g101
g102
ssg83
g1998
sg76
(lp2009
S':'
asbag69
(g90
g71
NtRp2010
(dp2011
g74
(dp2012
sg83
g1998
sg76
(lp2013
g69
(g70
g71
NtRp2014
(dp2015
g74
(dp2016
g82
I4
ssg83
g2010
sg76
(lp2017
S"<Values at 0x35ed5c8: {'verbose': False, 'ip': '127.0.0.1', 'shutdown_timeout': 5, 'taskbar': False, 'nocron': False, 'pid_filename': 'httpserver.pid', 'maxthreads': None, 'softcron': False, 'server_name': 'mellinja-PC', 'bpython': False, 'nogui': False, 'port': 8000, 'extcron': False, 'debuglevel': 30, 'test': None, 'folder': 'C:\\\\Users\\\\mellinja\\\\Documents\\\\SC2Tracker\\\\SC2TourneyTracker\\\\web2py', 'config': '', 'import_models': False, 'winservice': '', 'shell': None, 'run': '', 'log_filename': 'httpserver.log', 'args': [''], 'socket_timeout': 1, 'ssl_ca_certificate': None, 'scheduler': None, 'profiler_filename': None, 'ssl_private_key': '', 'password': '<ask>', 'request_queue_size': 5, 'ssl_certificate': '', 'cronjob': False, 'numthreads': None, 'quiet': False, 'interfaces': None, 'minthreads': None, 'timeout': 10, 'plain': False, 'nobanner': False}>"
p2018
asbasbasbag69
(g85
g71
NtRp2019
(dp2020
g74
(dp2021
sg83
g1929
sg76
(lp2022
g69
(g90
g71
NtRp2023
(dp2024
g74
(dp2025
g94
g95
ssg83
g2019
sg76
(lp2026
g949
asbag69
(g90
g71
NtRp2027
(dp2028
g74
(dp2029
g101
g102
ssg83
g2019
sg76
(lp2030
S':'
asbag69
(g90
g71
NtRp2031
(dp2032
g74
(dp2033
sg83
g2019
sg76
(lp2034
g69
(g70
g71
NtRp2035
(dp2036
g74
(dp2037
g82
I4
ssg83
g2031
sg76
(lp2038
S'set([])'
p2039
asbasbasbag69
(g85
g71
NtRp2040
(dp2041
g74
(dp2042
sg83
g1929
sg76
(lp2043
g69
(g90
g71
NtRp2044
(dp2045
g74
(dp2046
g94
g95
ssg83
g2040
sg76
(lp2047
g971
asbag69
(g90
g71
NtRp2048
(dp2049
g74
(dp2050
g101
g102
ssg83
g2040
sg76
(lp2051
S':'
asbag69
(g90
g71
NtRp2052
(dp2053
g74
(dp2054
sg83
g2040
sg76
(lp2055
g69
(g70
g71
NtRp2056
(dp2057
g74
(dp2058
g82
I4
ssg83
g2052
sg76
(lp2059
g112
asbasbasbag69
(g85
g71
NtRp2060
(dp2061
g74
(dp2062
sg83
g1929
sg76
(lp2063
g69
(g90
g71
NtRp2064
(dp2065
g74
(dp2066
g94
g95
ssg83
g2060
sg76
(lp2067
g992
asbag69
(g90
g71
NtRp2068
(dp2069
g74
(dp2070
g101
g102
ssg83
g2060
sg76
(lp2071
S':'
asbag69
(g90
g71
NtRp2072
(dp2073
g74
(dp2074
sg83
g2060
sg76
(lp2075
g69
(g70
g71
NtRp2076
(dp2077
g74
(dp2078
g82
I4
ssg83
g2072
sg76
(lp2079
g1005
asbasbasbag69
(g85
g71
NtRp2080
(dp2081
g74
(dp2082
sg83
g1929
sg76
(lp2083
g69
(g90
g71
NtRp2084
(dp2085
g74
(dp2086
g94
g95
ssg83
g2080
sg76
(lp2087
g1234
asbag69
(g90
g71
NtRp2088
(dp2089
g74
(dp2090
g101
g102
ssg83
g2080
sg76
(lp2091
S':'
asbag69
(g90
g71
NtRp2092
(dp2093
g74
(dp2094
sg83
g2080
sg76
(lp2095
g69
(g70
g71
NtRp2096
(dp2097
g74
(dp2098
g82
I4
ssg83
g2092
sg76
(lp2099
g112
asbasbasbag69
(g85
g71
NtRp2100
(dp2101
g74
(dp2102
sg83
g1929
sg76
(lp2103
g69
(g90
g71
NtRp2104
(dp2105
g74
(dp2106
g94
g95
ssg83
g2100
sg76
(lp2107
g1255
asbag69
(g90
g71
NtRp2108
(dp2109
g74
(dp2110
g101
g102
ssg83
g2100
sg76
(lp2111
S':'
asbag69
(g90
g71
NtRp2112
(dp2113
g74
(dp2114
sg83
g2100
sg76
(lp2115
g69
(g70
g71
NtRp2116
(dp2117
g74
(dp2118
g82
I4
ssg83
g2112
sg76
(lp2119
g112
asbasbasbag69
(g85
g71
NtRp2120
(dp2121
g74
(dp2122
sg83
g1929
sg76
(lp2123
g69
(g90
g71
NtRp2124
(dp2125
g74
(dp2126
g94
g95
ssg83
g2120
sg76
(lp2127
g1493
asbag69
(g90
g71
NtRp2128
(dp2129
g74
(dp2130
g101
g102
ssg83
g2120
sg76
(lp2131
S':'
asbag69
(g90
g71
NtRp2132
(dp2133
g74
(dp2134
sg83
g2120
sg76
(lp2135
g69
(g70
g71
NtRp2136
(dp2137
g74
(dp2138
g82
I4
ssg83
g2132
sg76
(lp2139
g1506
asbasbasbag69
(g85
g71
NtRp2140
(dp2141
g74
(dp2142
sg83
g1929
sg76
(lp2143
g69
(g90
g71
NtRp2144
(dp2145
g74
(dp2146
g94
g95
ssg83
g2140
sg76
(lp2147
g1536
asbag69
(g90
g71
NtRp2148
(dp2149
g74
(dp2150
g101
g102
ssg83
g2140
sg76
(lp2151
S':'
asbag69
(g90
g71
NtRp2152
(dp2153
g74
(dp2154
sg83
g2140
sg76
(lp2155
g69
(g70
g71
NtRp2156
(dp2157
g74
(dp2158
g82
I4
ssg83
g2152
sg76
(lp2159
g69
(g78
g71
NtRp2160
(dp2161
g74
(dp2162
g82
I3
ssg83
Nsg76
(lp2163
g69
(g85
g71
NtRp2164
(dp2165
g74
(dp2166
sg83
g2160
sg76
(lp2167
g69
(g90
g71
NtRp2168
(dp2169
g74
(dp2170
sg83
g2164
sg76
(lp2171
g69
(g70
g71
NtRp2172
(dp2173
g74
(dp2174
g82
I3
ssg83
g2168
sg76
(lp2175
S'1'
asbasbasbag69
(g85
g71
NtRp2176
(dp2177
g74
(dp2178
sg83
g2160
sg76
(lp2179
g69
(g90
g71
NtRp2180
(dp2181
g74
(dp2182
sg83
g2176
sg76
(lp2183
g69
(g70
g71
NtRp2184
(dp2185
g74
(dp2186
g82
I3
ssg83
g2180
sg76
(lp2187
S'99'
p2188
asbasbasbag69
(g85
g71
NtRp2189
(dp2190
g74
(dp2191
sg83
g2160
sg76
(lp2192
g69
(g90
g71
NtRp2193
(dp2194
g74
(dp2195
sg83
g2189
sg76
(lp2196
g69
(g70
g71
NtRp2197
(dp2198
g74
(dp2199
g82
I3
ssg83
g2193
sg76
(lp2200
S'4'
asbasbasbag69
(g85
g71
NtRp2201
(dp2202
g74
(dp2203
sg83
g2160
sg76
(lp2204
g69
(g90
g71
NtRp2205
(dp2206
g74
(dp2207
sg83
g2201
sg76
(lp2208
g69
(g70
g71
NtRp2209
(dp2210
g74
(dp2211
g82
I3
ssg83
g2205
sg76
(lp2212
S'datetime.datetime(2011, 12, 14, 14, 46, 14)'
p2213
asbasbasbag69
(g85
g71
NtRp2214
(dp2215
g74
(dp2216
sg83
g2160
sg76
(lp2217
g69
(g90
g71
NtRp2218
(dp2219
g74
(dp2220
sg83
g2214
sg76
(lp2221
g69
(g70
g71
NtRp2222
(dp2223
g74
(dp2224
g82
I3
ssg83
g2218
sg76
(lp2225
g1615
asbasbasbasbasbasbasbasbasbasbasbag69
(g85
g71
NtRp2226
(dp2227
g74
(dp2228
sg83
g79
sg76
(lp2229
g69
(g90
g71
NtRp2230
(dp2231
g74
(dp2232
g94
g95
ssg83
g2226
sg76
(lp2233
S'is_https'
p2234
asbag69
(g90
g71
NtRp2235
(dp2236
g74
(dp2237
g101
g102
ssg83
g2226
sg76
(lp2238
S':'
asbag69
(g90
g71
NtRp2239
(dp2240
g74
(dp2241
sg83
g2226
sg76
(lp2242
g69
(g70
g71
NtRp2243
(dp2244
g74
(dp2245
g82
I5
ssg83
g2239
sg76
(lp2246
g112
asbasbasbag69
(g85
g71
NtRp2247
(dp2248
g74
(dp2249
sg83
g79
sg76
(lp2250
g69
(g90
g71
NtRp2251
(dp2252
g74
(dp2253
g94
g95
ssg83
g2247
sg76
(lp2254
S'is_local'
p2255
asbag69
(g90
g71
NtRp2256
(dp2257
g74
(dp2258
g101
g102
ssg83
g2247
sg76
(lp2259
S':'
asbag69
(g90
g71
NtRp2260
(dp2261
g74
(dp2262
sg83
g2247
sg76
(lp2263
g69
(g70
g71
NtRp2264
(dp2265
g74
(dp2266
g82
I5
ssg83
g2260
sg76
(lp2267
g1724
asbasbasbag69
(g85
g71
NtRp2268
(dp2269
g74
(dp2270
sg83
g79
sg76
(lp2271
g69
(g90
g71
NtRp2272
(dp2273
g74
(dp2274
g94
g95
ssg83
g2268
sg76
(lp2275
S'is_restful'
p2276
asbag69
(g90
g71
NtRp2277
(dp2278
g74
(dp2279
g101
g102
ssg83
g2268
sg76
(lp2280
S':'
asbag69
(g90
g71
NtRp2281
(dp2282
g74
(dp2283
sg83
g2268
sg76
(lp2284
g69
(g70
g71
NtRp2285
(dp2286
g74
(dp2287
g82
I5
ssg83
g2281
sg76
(lp2288
g112
asbasbasbag69
(g85
g71
NtRp2289
(dp2290
g74
(dp2291
sg83
g79
sg76
(lp2292
g69
(g90
g71
NtRp2293
(dp2294
g74
(dp2295
g94
g95
ssg83
g2289
sg76
(lp2296
S'now'
p2297
asbag69
(g90
g71
NtRp2298
(dp2299
g74
(dp2300
g101
g102
ssg83
g2289
sg76
(lp2301
S':'
asbag69
(g90
g71
NtRp2302
(dp2303
g74
(dp2304
sg83
g2289
sg76
(lp2305
g69
(g70
g71
NtRp2306
(dp2307
g74
(dp2308
g82
I5
ssg83
g2302
sg76
(lp2309
S'datetime.datetime(2012, 2, 7, 15, 33, 13, 676000)'
p2310
asbasbasbag69
(g85
g71
NtRp2311
(dp2312
g74
(dp2313
sg83
g79
sg76
(lp2314
g69
(g90
g71
NtRp2315
(dp2316
g74
(dp2317
g94
g95
ssg83
g2311
sg76
(lp2318
S'post_vars'
p2319
asbag69
(g90
g71
NtRp2320
(dp2321
g74
(dp2322
g101
g102
ssg83
g2311
sg76
(lp2323
S':'
asbag69
(g90
g71
NtRp2324
(dp2325
g74
(dp2326
sg83
g2311
sg76
(lp2327
g69
(g70
g71
NtRp2328
(dp2329
g74
(dp2330
g82
I5
ssg83
g2324
sg76
(lp2331
g69
(g78
g71
NtRp2332
(dp2333
g74
(dp2334
g82
I4
ssg83
Nsg76
(lp2335
sbasbasbasbag69
(g85
g71
NtRp2336
(dp2337
g74
(dp2338
sg83
g79
sg76
(lp2339
g69
(g90
g71
NtRp2340
(dp2341
g74
(dp2342
g94
g95
ssg83
g2336
sg76
(lp2343
S'raw_args'
p2344
asbag69
(g90
g71
NtRp2345
(dp2346
g74
(dp2347
g101
g102
ssg83
g2336
sg76
(lp2348
S':'
asbag69
(g90
g71
NtRp2349
(dp2350
g74
(dp2351
sg83
g2336
sg76
(lp2352
g69
(g70
g71
NtRp2353
(dp2354
g74
(dp2355
g82
I5
ssg83
g2349
sg76
(lp2356
S'0'
asbasbasbag69
(g85
g71
NtRp2357
(dp2358
g74
(dp2359
sg83
g79
sg76
(lp2360
g69
(g90
g71
NtRp2361
(dp2362
g74
(dp2363
g94
g95
ssg83
g2357
sg76
(lp2364
S'url'
p2365
asbag69
(g90
g71
NtRp2366
(dp2367
g74
(dp2368
g101
g102
ssg83
g2357
sg76
(lp2369
S':'
asbag69
(g90
g71
NtRp2370
(dp2371
g74
(dp2372
sg83
g2357
sg76
(lp2373
g69
(g70
g71
NtRp2374
(dp2375
g74
(dp2376
g82
I5
ssg83
g2370
sg76
(lp2377
S'/welcome/tournament/show/0'
p2378
asbasbasbag69
(g85
g71
NtRp2379
(dp2380
g74
(dp2381
sg83
g79
sg76
(lp2382
g69
(g90
g71
NtRp2383
(dp2384
g74
(dp2385
g94
g95
ssg83
g2379
sg76
(lp2386
S'utcnow'
p2387
asbag69
(g90
g71
NtRp2388
(dp2389
g74
(dp2390
g101
g102
ssg83
g2379
sg76
(lp2391
S':'
asbag69
(g90
g71
NtRp2392
(dp2393
g74
(dp2394
sg83
g2379
sg76
(lp2395
g69
(g70
g71
NtRp2396
(dp2397
g74
(dp2398
g82
I5
ssg83
g2392
sg76
(lp2399
S'datetime.datetime(2012, 2, 7, 20, 33, 13, 676000)'
p2400
asbasbasbag69
(g85
g71
NtRp2401
(dp2402
g74
(dp2403
sg83
g79
sg76
(lp2404
g69
(g90
g71
NtRp2405
(dp2406
g74
(dp2407
g94
g95
ssg83
g2401
sg76
(lp2408
S'uuid'
p2409
asbag69
(g90
g71
NtRp2410
(dp2411
g74
(dp2412
g101
g102
ssg83
g2401
sg76
(lp2413
S':'
asbag69
(g90
g71
NtRp2414
(dp2415
g74
(dp2416
sg83
g2401
sg76
(lp2417
g69
(g70
g71
NtRp2418
(dp2419
g74
(dp2420
g82
I5
ssg83
g2414
sg76
(lp2421
S'welcome/127.0.0.1.2012-02-07.15-33-13.9f668955-4709-47ea-941c-423aaedb067a'
p2422
asbasbasbag69
(g85
g71
NtRp2423
(dp2424
g74
(dp2425
sg83
g79
sg76
(lp2426
g69
(g90
g71
NtRp2427
(dp2428
g74
(dp2429
g94
g95
ssg83
g2423
sg76
(lp2430
S'vars'
p2431
asbag69
(g90
g71
NtRp2432
(dp2433
g74
(dp2434
g101
g102
ssg83
g2423
sg76
(lp2435
S':'
asbag69
(g90
g71
NtRp2436
(dp2437
g74
(dp2438
sg83
g2423
sg76
(lp2439
g69
(g70
g71
NtRp2440
(dp2441
g74
(dp2442
g82
I5
ssg83
g2436
sg76
(lp2443
g69
(g78
g71
NtRp2444
(dp2445
g74
(dp2446
g82
I4
ssg83
Nsg76
(lp2447
sbasbasbasbag69
(g85
g71
NtRp2448
(dp2449
g74
(dp2450
sg83
g79
sg76
(lp2451
g69
(g90
g71
NtRp2452
(dp2453
g74
(dp2454
g94
g95
ssg83
g2448
sg76
(lp2455
S'wsgi'
p2456
asbag69
(g90
g71
NtRp2457
(dp2458
g74
(dp2459
g101
g102
ssg83
g2448
sg76
(lp2460
S':'
asbag69
(g90
g71
NtRp2461
(dp2462
g74
(dp2463
sg83
g2448
sg76
(lp2464
g69
(g70
g71
NtRp2465
(dp2466
g74
(dp2467
g82
I5
ssg83
g2461
sg76
(lp2468
g69
(g78
g71
NtRp2469
(dp2470
g74
(dp2471
g82
I4
ssg83
Nsg76
(lp2472
g69
(g85
g71
NtRp2473
(dp2474
g74
(dp2475
sg83
g2469
sg76
(lp2476
g69
(g90
g71
NtRp2477
(dp2478
g74
(dp2479
g94
g95
ssg83
g2473
sg76
(lp2480
S'environ'
p2481
asbag69
(g90
g71
NtRp2482
(dp2483
g74
(dp2484
g101
g102
ssg83
g2473
sg76
(lp2485
S':'
asbag69
(g90
g71
NtRp2486
(dp2487
g74
(dp2488
sg83
g2473
sg76
(lp2489
g69
(g70
g71
NtRp2490
(dp2491
g74
(dp2492
g82
I4
ssg83
g2486
sg76
(lp2493
g69
(g78
g71
NtRp2494
(dp2495
g74
(dp2496
g82
I3
ssg83
Nsg76
(lp2497
g69
(g85
g71
NtRp2498
(dp2499
g74
(dp2500
sg83
g2494
sg76
(lp2501
g69
(g90
g71
NtRp2502
(dp2503
g74
(dp2504
g94
g95
ssg83
g2498
sg76
(lp2505
S'HTTP_ACCEPT'
p2506
asbag69
(g90
g71
NtRp2507
(dp2508
g74
(dp2509
g101
g102
ssg83
g2498
sg76
(lp2510
S':'
asbag69
(g90
g71
NtRp2511
(dp2512
g74
(dp2513
sg83
g2498
sg76
(lp2514
g69
(g70
g71
NtRp2515
(dp2516
g74
(dp2517
g82
I3
ssg83
g2511
sg76
(lp2518
g1027
asbasbasbag69
(g85
g71
NtRp2519
(dp2520
g74
(dp2521
sg83
g2494
sg76
(lp2522
g69
(g90
g71
NtRp2523
(dp2524
g74
(dp2525
g94
g95
ssg83
g2519
sg76
(lp2526
S'HTTP_ACCEPT_CHARSET'
p2527
asbag69
(g90
g71
NtRp2528
(dp2529
g74
(dp2530
g101
g102
ssg83
g2519
sg76
(lp2531
S':'
asbag69
(g90
g71
NtRp2532
(dp2533
g74
(dp2534
sg83
g2519
sg76
(lp2535
g69
(g70
g71
NtRp2536
(dp2537
g74
(dp2538
g82
I3
ssg83
g2532
sg76
(lp2539
g1049
asbasbasbag69
(g85
g71
NtRp2540
(dp2541
g74
(dp2542
sg83
g2494
sg76
(lp2543
g69
(g90
g71
NtRp2544
(dp2545
g74
(dp2546
g94
g95
ssg83
g2540
sg76
(lp2547
S'HTTP_ACCEPT_ENCODING'
p2548
asbag69
(g90
g71
NtRp2549
(dp2550
g74
(dp2551
g101
g102
ssg83
g2540
sg76
(lp2552
S':'
asbag69
(g90
g71
NtRp2553
(dp2554
g74
(dp2555
sg83
g2540
sg76
(lp2556
g69
(g70
g71
NtRp2557
(dp2558
g74
(dp2559
g82
I3
ssg83
g2553
sg76
(lp2560
g1071
asbasbasbag69
(g85
g71
NtRp2561
(dp2562
g74
(dp2563
sg83
g2494
sg76
(lp2564
g69
(g90
g71
NtRp2565
(dp2566
g74
(dp2567
g94
g95
ssg83
g2561
sg76
(lp2568
S'HTTP_ACCEPT_LANGUAGE'
p2569
asbag69
(g90
g71
NtRp2570
(dp2571
g74
(dp2572
g101
g102
ssg83
g2561
sg76
(lp2573
S':'
asbag69
(g90
g71
NtRp2574
(dp2575
g74
(dp2576
sg83
g2561
sg76
(lp2577
g69
(g70
g71
NtRp2578
(dp2579
g74
(dp2580
g82
I3
ssg83
g2574
sg76
(lp2581
g1093
asbasbasbag69
(g85
g71
NtRp2582
(dp2583
g74
(dp2584
sg83
g2494
sg76
(lp2585
g69
(g90
g71
NtRp2586
(dp2587
g74
(dp2588
g94
g95
ssg83
g2582
sg76
(lp2589
S'HTTP_CACHE_CONTROL'
p2590
asbag69
(g90
g71
NtRp2591
(dp2592
g74
(dp2593
g101
g102
ssg83
g2582
sg76
(lp2594
S':'
asbag69
(g90
g71
NtRp2595
(dp2596
g74
(dp2597
sg83
g2582
sg76
(lp2598
g69
(g70
g71
NtRp2599
(dp2600
g74
(dp2601
g82
I3
ssg83
g2595
sg76
(lp2602
g1115
asbasbasbag69
(g85
g71
NtRp2603
(dp2604
g74
(dp2605
sg83
g2494
sg76
(lp2606
g69
(g90
g71
NtRp2607
(dp2608
g74
(dp2609
g94
g95
ssg83
g2603
sg76
(lp2610
S'HTTP_CONNECTION'
p2611
asbag69
(g90
g71
NtRp2612
(dp2613
g74
(dp2614
g101
g102
ssg83
g2603
sg76
(lp2615
S':'
asbag69
(g90
g71
NtRp2616
(dp2617
g74
(dp2618
sg83
g2603
sg76
(lp2619
g69
(g70
g71
NtRp2620
(dp2621
g74
(dp2622
g82
I3
ssg83
g2616
sg76
(lp2623
g1137
asbasbasbag69
(g85
g71
NtRp2624
(dp2625
g74
(dp2626
sg83
g2494
sg76
(lp2627
g69
(g90
g71
NtRp2628
(dp2629
g74
(dp2630
g94
g95
ssg83
g2624
sg76
(lp2631
S'HTTP_COOKIE'
p2632
asbag69
(g90
g71
NtRp2633
(dp2634
g74
(dp2635
g101
g102
ssg83
g2624
sg76
(lp2636
S':'
asbag69
(g90
g71
NtRp2637
(dp2638
g74
(dp2639
sg83
g2624
sg76
(lp2640
g69
(g70
g71
NtRp2641
(dp2642
g74
(dp2643
g82
I3
ssg83
g2637
sg76
(lp2644
g1159
asbasbasbag69
(g85
g71
NtRp2645
(dp2646
g74
(dp2647
sg83
g2494
sg76
(lp2648
g69
(g90
g71
NtRp2649
(dp2650
g74
(dp2651
g94
g95
ssg83
g2645
sg76
(lp2652
S'HTTP_HOST'
p2653
asbag69
(g90
g71
NtRp2654
(dp2655
g74
(dp2656
g101
g102
ssg83
g2645
sg76
(lp2657
S':'
asbag69
(g90
g71
NtRp2658
(dp2659
g74
(dp2660
sg83
g2645
sg76
(lp2661
g69
(g70
g71
NtRp2662
(dp2663
g74
(dp2664
g82
I3
ssg83
g2658
sg76
(lp2665
g1181
asbasbasbag69
(g85
g71
NtRp2666
(dp2667
g74
(dp2668
sg83
g2494
sg76
(lp2669
g69
(g90
g71
NtRp2670
(dp2671
g74
(dp2672
g94
g95
ssg83
g2666
sg76
(lp2673
S'HTTP_REFERER'
p2674
asbag69
(g90
g71
NtRp2675
(dp2676
g74
(dp2677
g101
g102
ssg83
g2666
sg76
(lp2678
S':'
asbag69
(g90
g71
NtRp2679
(dp2680
g74
(dp2681
sg83
g2666
sg76
(lp2682
g69
(g70
g71
NtRp2683
(dp2684
g74
(dp2685
g82
I3
ssg83
g2679
sg76
(lp2686
g1203
asbasbasbag69
(g85
g71
NtRp2687
(dp2688
g74
(dp2689
sg83
g2494
sg76
(lp2690
g69
(g90
g71
NtRp2691
(dp2692
g74
(dp2693
g94
g95
ssg83
g2687
sg76
(lp2694
S'HTTP_USER_AGENT'
p2695
asbag69
(g90
g71
NtRp2696
(dp2697
g74
(dp2698
g101
g102
ssg83
g2687
sg76
(lp2699
S':'
asbag69
(g90
g71
NtRp2700
(dp2701
g74
(dp2702
sg83
g2687
sg76
(lp2703
g69
(g70
g71
NtRp2704
(dp2705
g74
(dp2706
g82
I3
ssg83
g2700
sg76
(lp2707
g1225
asbasbasbag69
(g85
g71
NtRp2708
(dp2709
g74
(dp2710
sg83
g2494
sg76
(lp2711
g69
(g90
g71
NtRp2712
(dp2713
g74
(dp2714
g94
g95
ssg83
g2708
sg76
(lp2715
S'PATH_INFO'
p2716
asbag69
(g90
g71
NtRp2717
(dp2718
g74
(dp2719
g101
g102
ssg83
g2708
sg76
(lp2720
S':'
asbag69
(g90
g71
NtRp2721
(dp2722
g74
(dp2723
sg83
g2708
sg76
(lp2724
g69
(g70
g71
NtRp2725
(dp2726
g74
(dp2727
g82
I3
ssg83
g2721
sg76
(lp2728
g1289
asbasbasbag69
(g85
g71
NtRp2729
(dp2730
g74
(dp2731
sg83
g2494
sg76
(lp2732
g69
(g90
g71
NtRp2733
(dp2734
g74
(dp2735
g94
g95
ssg83
g2729
sg76
(lp2736
S'QUERY_STRING'
p2737
asbag69
(g90
g71
NtRp2738
(dp2739
g74
(dp2740
g101
g102
ssg83
g2729
sg76
(lp2741
S':'
asbag69
(g90
g71
NtRp2742
(dp2743
g74
(dp2744
sg83
g2729
sg76
(lp2745
g69
(g70
g71
NtRp2746
(dp2747
g74
(dp2748
g82
I3
ssg83
g2742
sg76
(lp2749
S''
asbasbasbag69
(g85
g71
NtRp2750
(dp2751
g74
(dp2752
sg83
g2494
sg76
(lp2753
g69
(g90
g71
NtRp2754
(dp2755
g74
(dp2756
g94
g95
ssg83
g2750
sg76
(lp2757
S'REMOTE_ADDR'
p2758
asbag69
(g90
g71
NtRp2759
(dp2760
g74
(dp2761
g101
g102
ssg83
g2750
sg76
(lp2762
S':'
asbag69
(g90
g71
NtRp2763
(dp2764
g74
(dp2765
sg83
g2750
sg76
(lp2766
g69
(g70
g71
NtRp2767
(dp2768
g74
(dp2769
g82
I3
ssg83
g2763
sg76
(lp2770
g214
asbasbasbag69
(g85
g71
NtRp2771
(dp2772
g74
(dp2773
sg83
g2494
sg76
(lp2774
g69
(g90
g71
NtRp2775
(dp2776
g74
(dp2777
g94
g95
ssg83
g2771
sg76
(lp2778
S'REMOTE_PORT'
p2779
asbag69
(g90
g71
NtRp2780
(dp2781
g74
(dp2782
g101
g102
ssg83
g2771
sg76
(lp2783
S':'
asbag69
(g90
g71
NtRp2784
(dp2785
g74
(dp2786
sg83
g2771
sg76
(lp2787
g69
(g70
g71
NtRp2788
(dp2789
g74
(dp2790
g82
I3
ssg83
g2784
sg76
(lp2791
g1353
asbasbasbag69
(g85
g71
NtRp2792
(dp2793
g74
(dp2794
sg83
g2494
sg76
(lp2795
g69
(g90
g71
NtRp2796
(dp2797
g74
(dp2798
g94
g95
ssg83
g2792
sg76
(lp2799
S'REQUEST_METHOD'
p2800
asbag69
(g90
g71
NtRp2801
(dp2802
g74
(dp2803
g101
g102
ssg83
g2792
sg76
(lp2804
S':'
asbag69
(g90
g71
NtRp2805
(dp2806
g74
(dp2807
sg83
g2792
sg76
(lp2808
g69
(g70
g71
NtRp2809
(dp2810
g74
(dp2811
g82
I3
ssg83
g2805
sg76
(lp2812
g1375
asbasbasbag69
(g85
g71
NtRp2813
(dp2814
g74
(dp2815
sg83
g2494
sg76
(lp2816
g69
(g90
g71
NtRp2817
(dp2818
g74
(dp2819
g94
g95
ssg83
g2813
sg76
(lp2820
S'SCRIPT_NAME'
p2821
asbag69
(g90
g71
NtRp2822
(dp2823
g74
(dp2824
g101
g102
ssg83
g2813
sg76
(lp2825
S':'
asbag69
(g90
g71
NtRp2826
(dp2827
g74
(dp2828
sg83
g2813
sg76
(lp2829
g69
(g70
g71
NtRp2830
(dp2831
g74
(dp2832
g82
I3
ssg83
g2826
sg76
(lp2833
S''
asbasbasbag69
(g85
g71
NtRp2834
(dp2835
g74
(dp2836
sg83
g2494
sg76
(lp2837
g69
(g90
g71
NtRp2838
(dp2839
g74
(dp2840
g94
g95
ssg83
g2834
sg76
(lp2841
S'SERVER_NAME'
p2842
asbag69
(g90
g71
NtRp2843
(dp2844
g74
(dp2845
g101
g102
ssg83
g2834
sg76
(lp2846
S':'
asbag69
(g90
g71
NtRp2847
(dp2848
g74
(dp2849
sg83
g2834
sg76
(lp2850
g69
(g70
g71
NtRp2851
(dp2852
g74
(dp2853
g82
I3
ssg83
g2847
sg76
(lp2854
g1418
asbasbasbag69
(g85
g71
NtRp2855
(dp2856
g74
(dp2857
sg83
g2494
sg76
(lp2858
g69
(g90
g71
NtRp2859
(dp2860
g74
(dp2861
g94
g95
ssg83
g2855
sg76
(lp2862
S'SERVER_PORT'
p2863
asbag69
(g90
g71
NtRp2864
(dp2865
g74
(dp2866
g101
g102
ssg83
g2855
sg76
(lp2867
S':'
asbag69
(g90
g71
NtRp2868
(dp2869
g74
(dp2870
sg83
g2855
sg76
(lp2871
g69
(g70
g71
NtRp2872
(dp2873
g74
(dp2874
g82
I3
ssg83
g2868
sg76
(lp2875
g1440
asbasbasbag69
(g85
g71
NtRp2876
(dp2877
g74
(dp2878
sg83
g2494
sg76
(lp2879
g69
(g90
g71
NtRp2880
(dp2881
g74
(dp2882
g94
g95
ssg83
g2876
sg76
(lp2883
S'SERVER_PROTOCOL'
p2884
asbag69
(g90
g71
NtRp2885
(dp2886
g74
(dp2887
g101
g102
ssg83
g2876
sg76
(lp2888
S':'
asbag69
(g90
g71
NtRp2889
(dp2890
g74
(dp2891
sg83
g2876
sg76
(lp2892
g69
(g70
g71
NtRp2893
(dp2894
g74
(dp2895
g82
I3
ssg83
g2889
sg76
(lp2896
g1462
asbasbasbag69
(g85
g71
NtRp2897
(dp2898
g74
(dp2899
sg83
g2494
sg76
(lp2900
g69
(g90
g71
NtRp2901
(dp2902
g74
(dp2903
g94
g95
ssg83
g2897
sg76
(lp2904
S'SERVER_SOFTWARE'
p2905
asbag69
(g90
g71
NtRp2906
(dp2907
g74
(dp2908
g101
g102
ssg83
g2897
sg76
(lp2909
S':'
asbag69
(g90
g71
NtRp2910
(dp2911
g74
(dp2912
sg83
g2897
sg76
(lp2913
g69
(g70
g71
NtRp2914
(dp2915
g74
(dp2916
g82
I3
ssg83
g2910
sg76
(lp2917
g1484
asbasbasbag69
(g85
g71
NtRp2918
(dp2919
g74
(dp2920
sg83
g2494
sg76
(lp2921
g69
(g90
g71
NtRp2922
(dp2923
g74
(dp2924
g94
g95
ssg83
g2918
sg76
(lp2925
S'wsgi.errors'
p2926
asbag69
(g90
g71
NtRp2927
(dp2928
g74
(dp2929
g101
g102
ssg83
g2918
sg76
(lp2930
S':'
asbag69
(g90
g71
NtRp2931
(dp2932
g74
(dp2933
sg83
g2918
sg76
(lp2934
g69
(g70
g71
NtRp2935
(dp2936
g74
(dp2937
g82
I3
ssg83
g2931
sg76
(lp2938
S"<open file '<stderr>', mode 'w' at 0x0000000001E261E0>"
p2939
asbasbasbag69
(g85
g71
NtRp2940
(dp2941
g74
(dp2942
sg83
g2494
sg76
(lp2943
g69
(g90
g71
NtRp2944
(dp2945
g74
(dp2946
g94
g95
ssg83
g2940
sg76
(lp2947
S'wsgi.file_wrapper'
p2948
asbag69
(g90
g71
NtRp2949
(dp2950
g74
(dp2951
g101
g102
ssg83
g2940
sg76
(lp2952
S':'
asbag69
(g90
g71
NtRp2953
(dp2954
g74
(dp2955
sg83
g2940
sg76
(lp2956
g69
(g70
g71
NtRp2957
(dp2958
g74
(dp2959
g82
I3
ssg83
g2953
sg76
(lp2960
S'<class wsgiref.util.FileWrapper at 0x00000000034DD828>'
p2961
asbasbasbag69
(g85
g71
NtRp2962
(dp2963
g74
(dp2964
sg83
g2494
sg76
(lp2965
g69
(g90
g71
NtRp2966
(dp2967
g74
(dp2968
g94
g95
ssg83
g2962
sg76
(lp2969
S'wsgi.input'
p2970
asbag69
(g90
g71
NtRp2971
(dp2972
g74
(dp2973
g101
g102
ssg83
g2962
sg76
(lp2974
S':'
asbag69
(g90
g71
NtRp2975
(dp2976
g74
(dp2977
sg83
g2962
sg76
(lp2978
g69
(g70
g71
NtRp2979
(dp2980
g74
(dp2981
g82
I3
ssg83
g2975
sg76
(lp2982
S'<cStringIO.StringO object at 0x000000000968BF48>'
p2983
asbasbasbag69
(g85
g71
NtRp2984
(dp2985
g74
(dp2986
sg83
g2494
sg76
(lp2987
g69
(g90
g71
NtRp2988
(dp2989
g74
(dp2990
g94
g95
ssg83
g2984
sg76
(lp2991
S'wsgi.multiprocess'
p2992
asbag69
(g90
g71
NtRp2993
(dp2994
g74
(dp2995
g101
g102
ssg83
g2984
sg76
(lp2996
S':'
asbag69
(g90
g71
NtRp2997
(dp2998
g74
(dp2999
sg83
g2984
sg76
(lp3000
g69
(g70
g71
NtRp3001
(dp3002
g74
(dp3003
g82
I3
ssg83
g2997
sg76
(lp3004
g112
asbasbasbag69
(g85
g71
NtRp3005
(dp3006
g74
(dp3007
sg83
g2494
sg76
(lp3008
g69
(g90
g71
NtRp3009
(dp3010
g74
(dp3011
g94
g95
ssg83
g3005
sg76
(lp3012
S'wsgi.multithread'
p3013
asbag69
(g90
g71
NtRp3014
(dp3015
g74
(dp3016
g101
g102
ssg83
g3005
sg76
(lp3017
S':'
asbag69
(g90
g71
NtRp3018
(dp3019
g74
(dp3020
sg83
g3005
sg76
(lp3021
g69
(g70
g71
NtRp3022
(dp3023
g74
(dp3024
g82
I3
ssg83
g3018
sg76
(lp3025
g1724
asbasbasbag69
(g85
g71
NtRp3026
(dp3027
g74
(dp3028
sg83
g2494
sg76
(lp3029
g69
(g90
g71
NtRp3030
(dp3031
g74
(dp3032
g94
g95
ssg83
g3026
sg76
(lp3033
S'wsgi.run_once'
p3034
asbag69
(g90
g71
NtRp3035
(dp3036
g74
(dp3037
g101
g102
ssg83
g3026
sg76
(lp3038
S':'
asbag69
(g90
g71
NtRp3039
(dp3040
g74
(dp3041
sg83
g3026
sg76
(lp3042
g69
(g70
g71
NtRp3043
(dp3044
g74
(dp3045
g82
I3
ssg83
g3039
sg76
(lp3046
g112
asbasbasbag69
(g85
g71
NtRp3047
(dp3048
g74
(dp3049
sg83
g2494
sg76
(lp3050
g69
(g90
g71
NtRp3051
(dp3052
g74
(dp3053
g94
g95
ssg83
g3047
sg76
(lp3054
S'wsgi.url_scheme'
p3055
asbag69
(g90
g71
NtRp3056
(dp3057
g74
(dp3058
g101
g102
ssg83
g3047
sg76
(lp3059
S':'
asbag69
(g90
g71
NtRp3060
(dp3061
g74
(dp3062
sg83
g3047
sg76
(lp3063
g69
(g70
g71
NtRp3064
(dp3065
g74
(dp3066
g82
I3
ssg83
g3060
sg76
(lp3067
g1767
asbasbasbag69
(g85
g71
NtRp3068
(dp3069
g74
(dp3070
sg83
g2494
sg76
(lp3071
g69
(g90
g71
NtRp3072
(dp3073
g74
(dp3074
g94
g95
ssg83
g3068
sg76
(lp3075
S'wsgi.version'
p3076
asbag69
(g90
g71
NtRp3077
(dp3078
g74
(dp3079
g101
g102
ssg83
g3068
sg76
(lp3080
S':'
asbag69
(g90
g71
NtRp3081
(dp3082
g74
(dp3083
sg83
g3068
sg76
(lp3084
g69
(g70
g71
NtRp3085
(dp3086
g74
(dp3087
g82
I3
ssg83
g3081
sg76
(lp3088
S'1'
asbasbasbasbasbasbasbasbasbasbasbasbasbsS'frames'
p3089
(lp3090
(dp3091
S'file'
p3092
S'C:\\Users\\mellinja\\Documents\\SC2Tracker\\SC2TourneyTracker\\web2py\\gluon\\restricted.py'
p3093
sS'dump'
p3094
(dp3095
S'code'
p3096
S'r"response.write(\'<!DOCTYPE html>\\r\\n<!-- pauliris...write(\'\\r\\n</body>\\r\\n</html>\\r\\n\', escape=False)"'
p3097
sS'layer'
p3098
S"r'C:\\Users\\mellinja\\Documents\\SC2Tracker\\SC2Tourne...y\\applications\\welcome\\views\\tournament/show.html'"
p3099
sS'global compile2'
p3100
S'<function compile2>'
p3101
sS'ccode'
p3102
S'undefined'
p3103
ssS'lnum'
p3104
I203
sS'lines'
p3105
(dp3106
I198
S"    environment['__file__'] = layer"
p3107
sI199
S'    try:'
p3108
sI200
S'        if type(code) == types.CodeType:'
p3109
sI201
S'            ccode = code'
p3110
sI202
S'        else:'
p3111
sI203
S'            ccode = compile2(code,layer)'
p3112
sI204
S'        exec ccode in environment'
p3113
sI205
S'    except HTTP:'
p3114
sI206
S'        raise'
p3115
sI207
S'    except RestrictedError:'
p3116
ssS'call'
p3117
S'(code=r"response.write(\'<!DOCTYPE html>\\r\\n<!-- pauliris...write(\'\\r\\n</body>\\r\\n</html>\\r\\n\', escape=False)", environment={\'A\': <class \'gluon.html.A\'>, \'Auth\': <class \'gluon.tools.Auth\'>, \'B\': <class \'gluon.html.B\'>, \'BEAUTIFY\': <class \'gluon.html.BEAUTIFY\'>, \'BODY\': <class \'gluon.html.BODY\'>, \'BR\': <class \'gluon.html.BR\'>, \'BUTTON\': <class \'gluon.html.BUTTON\'>, \'CAT\': <class \'gluon.html.CAT\'>, \'CENTER\': <class \'gluon.html.CENTER\'>, \'CLEANUP\': <class \'gluon.validators.CLEANUP\'>, ...}, layer=r\'C:\\Users\\mellinja\\Documents\\SC2Tracker\\SC2Tourne...y\\applications\\welcome\\views\\tournament/show.html\')'
p3118
sS'func'
p3119
S'restricted'
p3120
sa(dp3121
g3092
S'C:\\Users\\mellinja\\Documents\\SC2Tracker\\SC2TourneyTracker\\web2py\\gluon\\restricted.py'
p3122
sg3094
(dp3123
S'builtincompile'
p3124
S'<built-in function compile>'
p3125
sS'code'
p3126
S'r"response.write(\'<!DOCTYPE html>\\r\\n<!-- pauliris...write(\'\\r\\n</body>\\r\\n</html>\\r\\n\', escape=False)"'
p3127
sS'code.rstrip'
p3128
S'<built-in method rstrip of str object>'
p3129
sS').replace'
p3130
g3103
sS'layer'
p3131
S"r'C:\\Users\\mellinja\\Documents\\SC2Tracker\\SC2Tourne...y\\applications\\welcome\\views\\tournament/show.html'"
p3132
ssg3104
I189
sg3105
(dp3133
I192
S'    """'
p3134
sI193
S'    runs code in environment and returns the output. if an exception occurs'
p3135
sI184
S''
sI185
S'def compile2(code,layer):'
p3136
sI186
S'    """'
p3137
sI187
S"    The +'\\n' is necessary else compile fails when code ends in a comment."
p3138
sI188
S'    """'
p3139
sI189
S"    return compile(code.rstrip().replace('\\r\\n','\\n')+'\\n', layer, 'exec')"
p3140
sI190
S''
sI191
S"def restricted(code, environment=None, layer='Unknown'):"
p3141
ssg3117
S'(code=r"response.write(\'<!DOCTYPE html>\\r\\n<!-- pauliris...write(\'\\r\\n</body>\\r\\n</html>\\r\\n\', escape=False)", layer=r\'C:\\Users\\mellinja\\Documents\\SC2Tracker\\SC2Tourne...y\\applications\\welcome\\views\\tournament/show.html\')'
p3142
sg3119
S'compile2'
p3143
sasS'pyver'
p3144
S'Python 2.7.2: C:\\Python27\\python.exe'
p3145
sS'session'
p3146
g69
(g70
g71
NtRp3147
(dp3148
g74
(dp3149
sg76
(lp3150
g69
(g78
g71
NtRp3151
(dp3152
g74
(dp3153
g82
I5
ssg83
Nsg76
(lp3154
g69
(g85
g71
NtRp3155
(dp3156
g74
(dp3157
sg83
g3151
sg76
(lp3158
g69
(g90
g71
NtRp3159
(dp3160
g74
(dp3161
g94
g95
ssg83
g3155
sg76
(lp3162
S'auth'
p3163
asbag69
(g90
g71
NtRp3164
(dp3165
g74
(dp3166
g101
g102
ssg83
g3155
sg76
(lp3167
S':'
asbag69
(g90
g71
NtRp3168
(dp3169
g74
(dp3170
sg83
g3155
sg76
(lp3171
g69
(g70
g71
NtRp3172
(dp3173
g74
(dp3174
g82
I5
ssg83
g3168
sg76
(lp3175
g69
(g78
g71
NtRp3176
(dp3177
g74
(dp3178
g82
I4
ssg83
Nsg76
(lp3179
g69
(g85
g71
NtRp3180
(dp3181
g74
(dp3182
sg83
g3176
sg76
(lp3183
g69
(g90
g71
NtRp3184
(dp3185
g74
(dp3186
g94
g95
ssg83
g3180
sg76
(lp3187
S'expiration'
p3188
asbag69
(g90
g71
NtRp3189
(dp3190
g74
(dp3191
g101
g102
ssg83
g3180
sg76
(lp3192
S':'
asbag69
(g90
g71
NtRp3193
(dp3194
g74
(dp3195
sg83
g3180
sg76
(lp3196
g69
(g70
g71
NtRp3197
(dp3198
g74
(dp3199
g82
I4
ssg83
g3193
sg76
(lp3200
S'3600'
p3201
asbasbasbag69
(g85
g71
NtRp3202
(dp3203
g74
(dp3204
sg83
g3176
sg76
(lp3205
g69
(g90
g71
NtRp3206
(dp3207
g74
(dp3208
g94
g95
ssg83
g3202
sg76
(lp3209
S'hmac_key'
p3210
asbag69
(g90
g71
NtRp3211
(dp3212
g74
(dp3213
g101
g102
ssg83
g3202
sg76
(lp3214
S':'
asbag69
(g90
g71
NtRp3215
(dp3216
g74
(dp3217
sg83
g3202
sg76
(lp3218
g69
(g70
g71
NtRp3219
(dp3220
g74
(dp3221
g82
I4
ssg83
g3215
sg76
(lp3222
S'db24f9b0-a170-4301-a61b-cc6744b5cef2'
p3223
asbasbasbag69
(g85
g71
NtRp3224
(dp3225
g74
(dp3226
sg83
g3176
sg76
(lp3227
g69
(g90
g71
NtRp3228
(dp3229
g74
(dp3230
g94
g95
ssg83
g3224
sg76
(lp3231
S'last_visit'
p3232
asbag69
(g90
g71
NtRp3233
(dp3234
g74
(dp3235
g101
g102
ssg83
g3224
sg76
(lp3236
S':'
asbag69
(g90
g71
NtRp3237
(dp3238
g74
(dp3239
sg83
g3224
sg76
(lp3240
g69
(g70
g71
NtRp3241
(dp3242
g74
(dp3243
g82
I4
ssg83
g3237
sg76
(lp3244
S'datetime.datetime(2012, 2, 7, 15, 28, 50, 308000)'
p3245
asbasbasbag69
(g85
g71
NtRp3246
(dp3247
g74
(dp3248
sg83
g3176
sg76
(lp3249
g69
(g90
g71
NtRp3250
(dp3251
g74
(dp3252
g94
g95
ssg83
g3246
sg76
(lp3253
S'user'
p3254
asbag69
(g90
g71
NtRp3255
(dp3256
g74
(dp3257
g101
g102
ssg83
g3246
sg76
(lp3258
S':'
asbag69
(g90
g71
NtRp3259
(dp3260
g74
(dp3261
sg83
g3246
sg76
(lp3262
g69
(g70
g71
NtRp3263
(dp3264
g74
(dp3265
g82
I4
ssg83
g3259
sg76
(lp3266
g69
(g78
g71
NtRp3267
(dp3268
g74
(dp3269
g82
I3
ssg83
Nsg76
(lp3270
g69
(g85
g71
NtRp3271
(dp3272
g74
(dp3273
sg83
g3267
sg76
(lp3274
g69
(g90
g71
NtRp3275
(dp3276
g74
(dp3277
g94
g95
ssg83
g3271
sg76
(lp3278
S'email'
p3279
asbag69
(g90
g71
NtRp3280
(dp3281
g74
(dp3282
g101
g102
ssg83
g3271
sg76
(lp3283
S':'
asbag69
(g90
g71
NtRp3284
(dp3285
g74
(dp3286
sg83
g3271
sg76
(lp3287
g69
(g70
g71
NtRp3288
(dp3289
g74
(dp3290
g82
I3
ssg83
g3284
sg76
(lp3291
S'test@test.com'
p3292
asbasbasbag69
(g85
g71
NtRp3293
(dp3294
g74
(dp3295
sg83
g3267
sg76
(lp3296
g69
(g90
g71
NtRp3297
(dp3298
g74
(dp3299
g94
g95
ssg83
g3293
sg76
(lp3300
S'first_name'
p3301
asbag69
(g90
g71
NtRp3302
(dp3303
g74
(dp3304
g101
g102
ssg83
g3293
sg76
(lp3305
S':'
asbag69
(g90
g71
NtRp3306
(dp3307
g74
(dp3308
sg83
g3293
sg76
(lp3309
g69
(g70
g71
NtRp3310
(dp3311
g74
(dp3312
g82
I3
ssg83
g3306
sg76
(lp3313
S'test'
p3314
asbasbasbag69
(g85
g71
NtRp3315
(dp3316
g74
(dp3317
sg83
g3267
sg76
(lp3318
g69
(g90
g71
NtRp3319
(dp3320
g74
(dp3321
g94
g95
ssg83
g3315
sg76
(lp3322
S'id'
p3323
asbag69
(g90
g71
NtRp3324
(dp3325
g74
(dp3326
g101
g102
ssg83
g3315
sg76
(lp3327
S':'
asbag69
(g90
g71
NtRp3328
(dp3329
g74
(dp3330
sg83
g3315
sg76
(lp3331
g69
(g70
g71
NtRp3332
(dp3333
g74
(dp3334
g82
I3
ssg83
g3328
sg76
(lp3335
S'5'
asbasbasbag69
(g85
g71
NtRp3336
(dp3337
g74
(dp3338
sg83
g3267
sg76
(lp3339
g69
(g90
g71
NtRp3340
(dp3341
g74
(dp3342
g94
g95
ssg83
g3336
sg76
(lp3343
S'last_name'
p3344
asbag69
(g90
g71
NtRp3345
(dp3346
g74
(dp3347
g101
g102
ssg83
g3336
sg76
(lp3348
S':'
asbag69
(g90
g71
NtRp3349
(dp3350
g74
(dp3351
sg83
g3336
sg76
(lp3352
g69
(g70
g71
NtRp3353
(dp3354
g74
(dp3355
g82
I3
ssg83
g3349
sg76
(lp3356
S'test'
p3357
asbasbasbag69
(g85
g71
NtRp3358
(dp3359
g74
(dp3360
sg83
g3267
sg76
(lp3361
g69
(g90
g71
NtRp3362
(dp3363
g74
(dp3364
g94
g95
ssg83
g3358
sg76
(lp3365
S'password'
p3366
asbag69
(g90
g71
NtRp3367
(dp3368
g74
(dp3369
g101
g102
ssg83
g3358
sg76
(lp3370
S':'
asbag69
(g90
g71
NtRp3371
(dp3372
g74
(dp3373
sg83
g3358
sg76
(lp3374
g69
(g70
g71
NtRp3375
(dp3376
g74
(dp3377
g82
I3
ssg83
g3371
sg76
(lp3378
S'0835d7189a6927648202bd9d8a8562a8'
p3379
asbasbasbag69
(g85
g71
NtRp3380
(dp3381
g74
(dp3382
sg83
g3267
sg76
(lp3383
g69
(g90
g71
NtRp3384
(dp3385
g74
(dp3386
g94
g95
ssg83
g3380
sg76
(lp3387
S'registration_id'
p3388
asbag69
(g90
g71
NtRp3389
(dp3390
g74
(dp3391
g101
g102
ssg83
g3380
sg76
(lp3392
S':'
asbag69
(g90
g71
NtRp3393
(dp3394
g74
(dp3395
sg83
g3380
sg76
(lp3396
g69
(g70
g71
NtRp3397
(dp3398
g74
(dp3399
g82
I3
ssg83
g3393
sg76
(lp3400
S''
asbasbasbag69
(g85
g71
NtRp3401
(dp3402
g74
(dp3403
sg83
g3267
sg76
(lp3404
g69
(g90
g71
NtRp3405
(dp3406
g74
(dp3407
g94
g95
ssg83
g3401
sg76
(lp3408
S'registration_key'
p3409
asbag69
(g90
g71
NtRp3410
(dp3411
g74
(dp3412
g101
g102
ssg83
g3401
sg76
(lp3413
S':'
asbag69
(g90
g71
NtRp3414
(dp3415
g74
(dp3416
sg83
g3401
sg76
(lp3417
g69
(g70
g71
NtRp3418
(dp3419
g74
(dp3420
g82
I3
ssg83
g3414
sg76
(lp3421
S''
asbasbasbag69
(g85
g71
NtRp3422
(dp3423
g74
(dp3424
sg83
g3267
sg76
(lp3425
g69
(g90
g71
NtRp3426
(dp3427
g74
(dp3428
g94
g95
ssg83
g3422
sg76
(lp3429
S'reset_password_key'
p3430
asbag69
(g90
g71
NtRp3431
(dp3432
g74
(dp3433
g101
g102
ssg83
g3422
sg76
(lp3434
S':'
asbag69
(g90
g71
NtRp3435
(dp3436
g74
(dp3437
sg83
g3422
sg76
(lp3438
g69
(g70
g71
NtRp3439
(dp3440
g74
(dp3441
g82
I3
ssg83
g3435
sg76
(lp3442
S''
asbasbasbasbasbasbasbasbasbasbasbasbasbsS'etype'
p3443
S"<type 'exceptions.SyntaxError'>"
p3444
sS'date'
p3445
S'Tue Feb 07 15:33:13 2012'
p3446
sS'response'
p3447
g69
(g70
g71
NtRp3448
(dp3449
g74
(dp3450
sg76
(lp3451
g69
(g78
g71
NtRp3452
(dp3453
g74
(dp3454
g82
I5
ssg83
Nsg76
(lp3455
g69
(g85
g71
NtRp3456
(dp3457
g74
(dp3458
sg83
g3452
sg76
(lp3459
g69
(g90
g71
NtRp3460
(dp3461
g74
(dp3462
g94
g95
ssg83
g3456
sg76
(lp3463
g179
asbag69
(g90
g71
NtRp3464
(dp3465
g74
(dp3466
g101
g102
ssg83
g3456
sg76
(lp3467
S':'
asbag69
(g90
g71
NtRp3468
(dp3469
g74
(dp3470
sg83
g3456
sg76
(lp3471
g69
(g70
g71
NtRp3472
(dp3473
g74
(dp3474
g82
I5
ssg83
g3468
sg76
(lp3475
S'<cStringIO.StringO object at 0x0000000007AF1E30>'
p3476
asbasbasbag69
(g85
g71
NtRp3477
(dp3478
g74
(dp3479
sg83
g3452
sg76
(lp3480
g69
(g90
g71
NtRp3481
(dp3482
g74
(dp3483
g94
g95
ssg83
g3477
sg76
(lp3484
g245
asbag69
(g90
g71
NtRp3485
(dp3486
g74
(dp3487
g101
g102
ssg83
g3477
sg76
(lp3488
S':'
asbag69
(g90
g71
NtRp3489
(dp3490
g74
(dp3491
sg83
g3477
sg76
(lp3492
g69
(g70
g71
NtRp3493
(dp3494
g74
(dp3495
g82
I5
ssg83
g3489
sg76
(lp3496
g69
(g78
g71
NtRp3497
(dp3498
g74
(dp3499
g82
I4
ssg83
Nsg76
(lp3500
g69
(g85
g71
NtRp3501
(dp3502
g74
(dp3503
sg83
g3497
sg76
(lp3504
g69
(g90
g71
NtRp3505
(dp3506
g74
(dp3507
g94
g95
ssg83
g3501
sg76
(lp3508
S'session_id_welcome'
p3509
asbag69
(g90
g71
NtRp3510
(dp3511
g74
(dp3512
g101
g102
ssg83
g3501
sg76
(lp3513
S':'
asbag69
(g90
g71
NtRp3514
(dp3515
g74
(dp3516
sg83
g3501
sg76
(lp3517
g69
(g70
g71
NtRp3518
(dp3519
g74
(dp3520
g82
I4
ssg83
g3514
sg76
(lp3521
g69
(g78
g71
NtRp3522
(dp3523
g74
(dp3524
g82
I3
ssg83
Nsg76
(lp3525
g69
(g85
g71
NtRp3526
(dp3527
g74
(dp3528
sg83
g3522
sg76
(lp3529
g69
(g90
g71
NtRp3530
(dp3531
g74
(dp3532
g94
g95
ssg83
g3526
sg76
(lp3533
g295
asbag69
(g90
g71
NtRp3534
(dp3535
g74
(dp3536
g101
g102
ssg83
g3526
sg76
(lp3537
S':'
asbag69
(g90
g71
NtRp3538
(dp3539
g74
(dp3540
sg83
g3526
sg76
(lp3541
g69
(g70
g71
NtRp3542
(dp3543
g74
(dp3544
g82
I3
ssg83
g3538
sg76
(lp3545
S''
asbasbasbag69
(g85
g71
NtRp3546
(dp3547
g74
(dp3548
sg83
g3522
sg76
(lp3549
g69
(g90
g71
NtRp3550
(dp3551
g74
(dp3552
g94
g95
ssg83
g3546
sg76
(lp3553
g316
asbag69
(g90
g71
NtRp3554
(dp3555
g74
(dp3556
g101
g102
ssg83
g3546
sg76
(lp3557
S':'
asbag69
(g90
g71
NtRp3558
(dp3559
g74
(dp3560
sg83
g3546
sg76
(lp3561
g69
(g70
g71
NtRp3562
(dp3563
g74
(dp3564
g82
I3
ssg83
g3558
sg76
(lp3565
S''
asbasbasbag69
(g85
g71
NtRp3566
(dp3567
g74
(dp3568
sg83
g3522
sg76
(lp3569
g69
(g90
g71
NtRp3570
(dp3571
g74
(dp3572
g94
g95
ssg83
g3566
sg76
(lp3573
g337
asbag69
(g90
g71
NtRp3574
(dp3575
g74
(dp3576
g101
g102
ssg83
g3566
sg76
(lp3577
S':'
asbag69
(g90
g71
NtRp3578
(dp3579
g74
(dp3580
sg83
g3566
sg76
(lp3581
g69
(g70
g71
NtRp3582
(dp3583
g74
(dp3584
g82
I3
ssg83
g3578
sg76
(lp3585
S''
asbasbasbag69
(g85
g71
NtRp3586
(dp3587
g74
(dp3588
sg83
g3522
sg76
(lp3589
g69
(g90
g71
NtRp3590
(dp3591
g74
(dp3592
g94
g95
ssg83
g3586
sg76
(lp3593
g358
asbag69
(g90
g71
NtRp3594
(dp3595
g74
(dp3596
g101
g102
ssg83
g3586
sg76
(lp3597
S':'
asbag69
(g90
g71
NtRp3598
(dp3599
g74
(dp3600
sg83
g3586
sg76
(lp3601
g69
(g70
g71
NtRp3602
(dp3603
g74
(dp3604
g82
I3
ssg83
g3598
sg76
(lp3605
S''
asbasbasbag69
(g85
g71
NtRp3606
(dp3607
g74
(dp3608
sg83
g3522
sg76
(lp3609
g69
(g90
g71
NtRp3610
(dp3611
g74
(dp3612
g94
g95
ssg83
g3606
sg76
(lp3613
g379
asbag69
(g90
g71
NtRp3614
(dp3615
g74
(dp3616
g101
g102
ssg83
g3606
sg76
(lp3617
S':'
asbag69
(g90
g71
NtRp3618
(dp3619
g74
(dp3620
sg83
g3606
sg76
(lp3621
g69
(g70
g71
NtRp3622
(dp3623
g74
(dp3624
g82
I3
ssg83
g3618
sg76
(lp3625
S''
asbasbasbag69
(g85
g71
NtRp3626
(dp3627
g74
(dp3628
sg83
g3522
sg76
(lp3629
g69
(g90
g71
NtRp3630
(dp3631
g74
(dp3632
g94
g95
ssg83
g3626
sg76
(lp3633
g400
asbag69
(g90
g71
NtRp3634
(dp3635
g74
(dp3636
g101
g102
ssg83
g3626
sg76
(lp3637
S':'
asbag69
(g90
g71
NtRp3638
(dp3639
g74
(dp3640
sg83
g3626
sg76
(lp3641
g69
(g70
g71
NtRp3642
(dp3643
g74
(dp3644
g82
I3
ssg83
g3638
sg76
(lp3645
S'/'
asbasbasbag69
(g85
g71
NtRp3646
(dp3647
g74
(dp3648
sg83
g3522
sg76
(lp3649
g69
(g90
g71
NtRp3650
(dp3651
g74
(dp3652
g94
g95
ssg83
g3646
sg76
(lp3653
g421
asbag69
(g90
g71
NtRp3654
(dp3655
g74
(dp3656
g101
g102
ssg83
g3646
sg76
(lp3657
S':'
asbag69
(g90
g71
NtRp3658
(dp3659
g74
(dp3660
sg83
g3646
sg76
(lp3661
g69
(g70
g71
NtRp3662
(dp3663
g74
(dp3664
g82
I3
ssg83
g3658
sg76
(lp3665
S''
asbasbasbag69
(g85
g71
NtRp3666
(dp3667
g74
(dp3668
sg83
g3522
sg76
(lp3669
g69
(g90
g71
NtRp3670
(dp3671
g74
(dp3672
g94
g95
ssg83
g3666
sg76
(lp3673
g442
asbag69
(g90
g71
NtRp3674
(dp3675
g74
(dp3676
g101
g102
ssg83
g3666
sg76
(lp3677
S':'
asbag69
(g90
g71
NtRp3678
(dp3679
g74
(dp3680
sg83
g3666
sg76
(lp3681
g69
(g70
g71
NtRp3682
(dp3683
g74
(dp3684
g82
I3
ssg83
g3678
sg76
(lp3685
S''
asbasbasbasbasbasbasbasbasbasbasbag69
(g85
g71
NtRp3686
(dp3687
g74
(dp3688
sg83
g3452
sg76
(lp3689
g69
(g90
g71
NtRp3690
(dp3691
g74
(dp3692
g94
g95
ssg83
g3686
sg76
(lp3693
S'files'
p3694
asbag69
(g90
g71
NtRp3695
(dp3696
g74
(dp3697
g101
g102
ssg83
g3686
sg76
(lp3698
S':'
asbag69
(g90
g71
NtRp3699
(dp3700
g74
(dp3701
sg83
g3686
sg76
(lp3702
g69
(g70
g71
NtRp3703
(dp3704
g74
(dp3705
g82
I5
ssg83
g3699
sg76
(lp3706
g69
(g78
g71
NtRp3707
(dp3708
g74
(dp3709
g82
I4
ssg83
Nsg76
(lp3710
sbasbasbasbag69
(g85
g71
NtRp3711
(dp3712
g74
(dp3713
sg83
g3452
sg76
(lp3714
g69
(g90
g71
NtRp3715
(dp3716
g74
(dp3717
g94
g95
ssg83
g3711
sg76
(lp3718
S'flash'
p3719
asbag69
(g90
g71
NtRp3720
(dp3721
g74
(dp3722
g101
g102
ssg83
g3711
sg76
(lp3723
S':'
asbag69
(g90
g71
NtRp3724
(dp3725
g74
(dp3726
sg83
g3711
sg76
(lp3727
g69
(g70
g71
NtRp3728
(dp3729
g74
(dp3730
g82
I5
ssg83
g3724
sg76
(lp3731
S''
asbasbasbag69
(g85
g71
NtRp3732
(dp3733
g74
(dp3734
sg83
g3452
sg76
(lp3735
g69
(g90
g71
NtRp3736
(dp3737
g74
(dp3738
g94
g95
ssg83
g3732
sg76
(lp3739
S'generic_patterns'
p3740
asbag69
(g90
g71
NtRp3741
(dp3742
g74
(dp3743
g101
g102
ssg83
g3732
sg76
(lp3744
S':'
asbag69
(g90
g71
NtRp3745
(dp3746
g74
(dp3747
sg83
g3732
sg76
(lp3748
g69
(g70
g71
NtRp3749
(dp3750
g74
(dp3751
g82
I5
ssg83
g3745
sg76
(lp3752
g69
(g78
g71
NtRp3753
(dp3754
g74
(dp3755
g82
I4
ssg83
Nsg76
(lp3756
g69
(g85
g71
NtRp3757
(dp3758
g74
(dp3759
sg83
g3753
sg76
(lp3760
g69
(g90
g71
NtRp3761
(dp3762
g74
(dp3763
sg83
g3757
sg76
(lp3764
g69
(g70
g71
NtRp3765
(dp3766
g74
(dp3767
g82
I4
ssg83
g3761
sg76
(lp3768
S'*'
asbasbasbasbasbasbasbag69
(g85
g71
NtRp3769
(dp3770
g74
(dp3771
sg83
g3452
sg76
(lp3772
g69
(g90
g71
NtRp3773
(dp3774
g74
(dp3775
g94
g95
ssg83
g3769
sg76
(lp3776
S'headers'
p3777
asbag69
(g90
g71
NtRp3778
(dp3779
g74
(dp3780
g101
g102
ssg83
g3769
sg76
(lp3781
S':'
asbag69
(g90
g71
NtRp3782
(dp3783
g74
(dp3784
sg83
g3769
sg76
(lp3785
g69
(g70
g71
NtRp3786
(dp3787
g74
(dp3788
g82
I5
ssg83
g3782
sg76
(lp3789
g69
(g78
g71
NtRp3790
(dp3791
g74
(dp3792
g82
I4
ssg83
Nsg76
(lp3793
g69
(g85
g71
NtRp3794
(dp3795
g74
(dp3796
sg83
g3790
sg76
(lp3797
g69
(g90
g71
NtRp3798
(dp3799
g74
(dp3800
g94
g95
ssg83
g3794
sg76
(lp3801
S'Cache-Control'
p3802
asbag69
(g90
g71
NtRp3803
(dp3804
g74
(dp3805
g101
g102
ssg83
g3794
sg76
(lp3806
S':'
asbag69
(g90
g71
NtRp3807
(dp3808
g74
(dp3809
sg83
g3794
sg76
(lp3810
g69
(g70
g71
NtRp3811
(dp3812
g74
(dp3813
g82
I4
ssg83
g3807
sg76
(lp3814
S'no-store, no-cache, must-revalidate, post-check=0, pre-check=0'
p3815
asbasbasbag69
(g85
g71
NtRp3816
(dp3817
g74
(dp3818
sg83
g3790
sg76
(lp3819
g69
(g90
g71
NtRp3820
(dp3821
g74
(dp3822
g94
g95
ssg83
g3816
sg76
(lp3823
S'Content-Type'
p3824
asbag69
(g90
g71
NtRp3825
(dp3826
g74
(dp3827
g101
g102
ssg83
g3816
sg76
(lp3828
S':'
asbag69
(g90
g71
NtRp3829
(dp3830
g74
(dp3831
sg83
g3816
sg76
(lp3832
g69
(g70
g71
NtRp3833
(dp3834
g74
(dp3835
g82
I4
ssg83
g3829
sg76
(lp3836
S'text/html; charset=utf-8'
p3837
asbasbasbag69
(g85
g71
NtRp3838
(dp3839
g74
(dp3840
sg83
g3790
sg76
(lp3841
g69
(g90
g71
NtRp3842
(dp3843
g74
(dp3844
g94
g95
ssg83
g3838
sg76
(lp3845
S'Expires'
p3846
asbag69
(g90
g71
NtRp3847
(dp3848
g74
(dp3849
g101
g102
ssg83
g3838
sg76
(lp3850
S':'
asbag69
(g90
g71
NtRp3851
(dp3852
g74
(dp3853
sg83
g3838
sg76
(lp3854
g69
(g70
g71
NtRp3855
(dp3856
g74
(dp3857
g82
I4
ssg83
g3851
sg76
(lp3858
S'Tue, 07 Feb 2012 20:33:13 GMT'
p3859
asbasbasbag69
(g85
g71
NtRp3860
(dp3861
g74
(dp3862
sg83
g3790
sg76
(lp3863
g69
(g90
g71
NtRp3864
(dp3865
g74
(dp3866
g94
g95
ssg83
g3860
sg76
(lp3867
S'Pragma'
p3868
asbag69
(g90
g71
NtRp3869
(dp3870
g74
(dp3871
g101
g102
ssg83
g3860
sg76
(lp3872
S':'
asbag69
(g90
g71
NtRp3873
(dp3874
g74
(dp3875
sg83
g3860
sg76
(lp3876
g69
(g70
g71
NtRp3877
(dp3878
g74
(dp3879
g82
I4
ssg83
g3873
sg76
(lp3880
S'no-cache'
p3881
asbasbasbag69
(g85
g71
NtRp3882
(dp3883
g74
(dp3884
sg83
g3790
sg76
(lp3885
g69
(g90
g71
NtRp3886
(dp3887
g74
(dp3888
g94
g95
ssg83
g3882
sg76
(lp3889
S'X-Powered-By'
p3890
asbag69
(g90
g71
NtRp3891
(dp3892
g74
(dp3893
g101
g102
ssg83
g3882
sg76
(lp3894
S':'
asbag69
(g90
g71
NtRp3895
(dp3896
g74
(dp3897
sg83
g3882
sg76
(lp3898
g69
(g70
g71
NtRp3899
(dp3900
g74
(dp3901
g82
I4
ssg83
g3895
sg76
(lp3902
S'web2py'
p3903
asbasbasbasbasbasbasbag69
(g85
g71
NtRp3904
(dp3905
g74
(dp3906
sg83
g3452
sg76
(lp3907
g69
(g90
g71
NtRp3908
(dp3909
g74
(dp3910
g94
g95
ssg83
g3904
sg76
(lp3911
S'menu'
p3912
asbag69
(g90
g71
NtRp3913
(dp3914
g74
(dp3915
g101
g102
ssg83
g3904
sg76
(lp3916
S':'
asbag69
(g90
g71
NtRp3917
(dp3918
g74
(dp3919
sg83
g3904
sg76
(lp3920
g69
(g70
g71
NtRp3921
(dp3922
g74
(dp3923
g82
I5
ssg83
g3917
sg76
(lp3924
g69
(g78
g71
NtRp3925
(dp3926
g74
(dp3927
g82
I4
ssg83
Nsg76
(lp3928
g69
(g85
g71
NtRp3929
(dp3930
g74
(dp3931
sg83
g3925
sg76
(lp3932
g69
(g90
g71
NtRp3933
(dp3934
g74
(dp3935
sg83
g3929
sg76
(lp3936
g69
(g70
g71
NtRp3937
(dp3938
g74
(dp3939
g82
I4
ssg83
g3933
sg76
(lp3940
g69
(g78
g71
NtRp3941
(dp3942
g74
(dp3943
g82
I3
ssg83
Nsg76
(lp3944
g69
(g85
g71
NtRp3945
(dp3946
g74
(dp3947
sg83
g3941
sg76
(lp3948
g69
(g90
g71
NtRp3949
(dp3950
g74
(dp3951
sg83
g3945
sg76
(lp3952
g69
(g70
g71
NtRp3953
(dp3954
g74
(dp3955
g82
I3
ssg83
g3949
sg76
(lp3956
cgluon.languages
lazyT_unpickle
p3957
(S't\x04\x00\x00\x00Home'
tRp3958
asbasbasbag69
(g85
g71
NtRp3959
(dp3960
g74
(dp3961
sg83
g3941
sg76
(lp3962
g69
(g90
g71
NtRp3963
(dp3964
g74
(dp3965
sg83
g3959
sg76
(lp3966
g69
(g70
g71
NtRp3967
(dp3968
g74
(dp3969
g82
I3
ssg83
g3963
sg76
(lp3970
g112
asbasbasbag69
(g85
g71
NtRp3971
(dp3972
g74
(dp3973
sg83
g3941
sg76
(lp3974
g69
(g90
g71
NtRp3975
(dp3976
g74
(dp3977
sg83
g3971
sg76
(lp3978
g69
(g70
g71
NtRp3979
(dp3980
g74
(dp3981
g82
I3
ssg83
g3975
sg76
(lp3982
S'/welcome/default/index'
p3983
asbasbasbag69
(g85
g71
NtRp3984
(dp3985
g74
(dp3986
sg83
g3941
sg76
(lp3987
g69
(g90
g71
NtRp3988
(dp3989
g74
(dp3990
sg83
g3984
sg76
(lp3991
g69
(g70
g71
NtRp3992
(dp3993
g74
(dp3994
g82
I3
ssg83
g3988
sg76
(lp3995
g69
(g78
g71
NtRp3996
(dp3997
g74
(dp3998
g82
I2
ssg83
Nsg76
(lp3999
sbasbasbasbasbasbasbasbasbasbasbasbag69
(g85
g71
NtRp4000
(dp4001
g74
(dp4002
sg83
g3452
sg76
(lp4003
g69
(g90
g71
NtRp4004
(dp4005
g74
(dp4006
g94
g95
ssg83
g4000
sg76
(lp4007
S'meta'
p4008
asbag69
(g90
g71
NtRp4009
(dp4010
g74
(dp4011
g101
g102
ssg83
g4000
sg76
(lp4012
S':'
asbag69
(g90
g71
NtRp4013
(dp4014
g74
(dp4015
sg83
g4000
sg76
(lp4016
g69
(g70
g71
NtRp4017
(dp4018
g74
(dp4019
g82
I5
ssg83
g4013
sg76
(lp4020
g69
(g78
g71
NtRp4021
(dp4022
g74
(dp4023
g82
I4
ssg83
Nsg76
(lp4024
g69
(g85
g71
NtRp4025
(dp4026
g74
(dp4027
sg83
g4021
sg76
(lp4028
g69
(g90
g71
NtRp4029
(dp4030
g74
(dp4031
g94
g95
ssg83
g4025
sg76
(lp4032
S'author'
p4033
asbag69
(g90
g71
NtRp4034
(dp4035
g74
(dp4036
g101
g102
ssg83
g4025
sg76
(lp4037
S':'
asbag69
(g90
g71
NtRp4038
(dp4039
g74
(dp4040
sg83
g4025
sg76
(lp4041
g69
(g70
g71
NtRp4042
(dp4043
g74
(dp4044
g82
I4
ssg83
g4038
sg76
(lp4045
S'Your Name <you@example.com>'
p4046
asbasbasbag69
(g85
g71
NtRp4047
(dp4048
g74
(dp4049
sg83
g4021
sg76
(lp4050
g69
(g90
g71
NtRp4051
(dp4052
g74
(dp4053
g94
g95
ssg83
g4047
sg76
(lp4054
S'copyright'
p4055
asbag69
(g90
g71
NtRp4056
(dp4057
g74
(dp4058
g101
g102
ssg83
g4047
sg76
(lp4059
S':'
asbag69
(g90
g71
NtRp4060
(dp4061
g74
(dp4062
sg83
g4047
sg76
(lp4063
g69
(g70
g71
NtRp4064
(dp4065
g74
(dp4066
g82
I4
ssg83
g4060
sg76
(lp4067
S'Copyright 2011'
p4068
asbasbasbag69
(g85
g71
NtRp4069
(dp4070
g74
(dp4071
sg83
g4021
sg76
(lp4072
g69
(g90
g71
NtRp4073
(dp4074
g74
(dp4075
g94
g95
ssg83
g4069
sg76
(lp4076
S'description'
p4077
asbag69
(g90
g71
NtRp4078
(dp4079
g74
(dp4080
g101
g102
ssg83
g4069
sg76
(lp4081
S':'
asbag69
(g90
g71
NtRp4082
(dp4083
g74
(dp4084
sg83
g4069
sg76
(lp4085
g69
(g70
g71
NtRp4086
(dp4087
g74
(dp4088
g82
I4
ssg83
g4082
sg76
(lp4089
S'a cool new app'
p4090
asbasbasbag69
(g85
g71
NtRp4091
(dp4092
g74
(dp4093
sg83
g4021
sg76
(lp4094
g69
(g90
g71
NtRp4095
(dp4096
g74
(dp4097
g94
g95
ssg83
g4091
sg76
(lp4098
S'generator'
p4099
asbag69
(g90
g71
NtRp4100
(dp4101
g74
(dp4102
g101
g102
ssg83
g4091
sg76
(lp4103
S':'
asbag69
(g90
g71
NtRp4104
(dp4105
g74
(dp4106
sg83
g4091
sg76
(lp4107
g69
(g70
g71
NtRp4108
(dp4109
g74
(dp4110
g82
I4
ssg83
g4104
sg76
(lp4111
S'Web2py Web Framework'
p4112
asbasbasbag69
(g85
g71
NtRp4113
(dp4114
g74
(dp4115
sg83
g4021
sg76
(lp4116
g69
(g90
g71
NtRp4117
(dp4118
g74
(dp4119
g94
g95
ssg83
g4113
sg76
(lp4120
S'keywords'
p4121
asbag69
(g90
g71
NtRp4122
(dp4123
g74
(dp4124
g101
g102
ssg83
g4113
sg76
(lp4125
S':'
asbag69
(g90
g71
NtRp4126
(dp4127
g74
(dp4128
sg83
g4113
sg76
(lp4129
g69
(g70
g71
NtRp4130
(dp4131
g74
(dp4132
g82
I4
ssg83
g4126
sg76
(lp4133
S'web2py, python, framework'
p4134
asbasbasbasbasbasbasbag69
(g85
g71
NtRp4135
(dp4136
g74
(dp4137
sg83
g3452
sg76
(lp4138
g69
(g90
g71
NtRp4139
(dp4140
g74
(dp4141
g94
g95
ssg83
g4135
sg76
(lp4142
S'postprocessing'
p4143
asbag69
(g90
g71
NtRp4144
(dp4145
g74
(dp4146
g101
g102
ssg83
g4135
sg76
(lp4147
S':'
asbag69
(g90
g71
NtRp4148
(dp4149
g74
(dp4150
sg83
g4135
sg76
(lp4151
g69
(g70
g71
NtRp4152
(dp4153
g74
(dp4154
g82
I5
ssg83
g4148
sg76
(lp4155
g69
(g78
g71
NtRp4156
(dp4157
g74
(dp4158
g82
I4
ssg83
Nsg76
(lp4159
sbasbasbasbag69
(g85
g71
NtRp4160
(dp4161
g74
(dp4162
sg83
g3452
sg76
(lp4163
g69
(g90
g71
NtRp4164
(dp4165
g74
(dp4166
g94
g95
ssg83
g4160
sg76
(lp4167
S'session_file'
p4168
asbag69
(g90
g71
NtRp4169
(dp4170
g74
(dp4171
g101
g102
ssg83
g4160
sg76
(lp4172
S':'
asbag69
(g90
g71
NtRp4173
(dp4174
g74
(dp4175
sg83
g4160
sg76
(lp4176
g69
(g70
g71
NtRp4177
(dp4178
g74
(dp4179
g82
I5
ssg83
g4173
sg76
(lp4180
S"<open file 'C:\\Users\\mellinja\\Documents\\SC2Tracker\\SC2TourneyTracker\\web2py\\applications\\welcome\\sessions\\127.0.0.1-5b61f96d-52a5-4e52-805f-552fe78bcf40', mode 'rb+' at 0x0000000007919ED0>"
p4181
asbasbasbag69
(g85
g71
NtRp4182
(dp4183
g74
(dp4184
sg83
g3452
sg76
(lp4185
g69
(g90
g71
NtRp4186
(dp4187
g74
(dp4188
g94
g95
ssg83
g4182
sg76
(lp4189
S'session_filename'
p4190
asbag69
(g90
g71
NtRp4191
(dp4192
g74
(dp4193
g101
g102
ssg83
g4182
sg76
(lp4194
S':'
asbag69
(g90
g71
NtRp4195
(dp4196
g74
(dp4197
sg83
g4182
sg76
(lp4198
g69
(g70
g71
NtRp4199
(dp4200
g74
(dp4201
g82
I5
ssg83
g4195
sg76
(lp4202
S'C:\\Users\\mellinja\\Documents\\SC2Tracker\\SC2TourneyTracker\\web2py\\applications\\welcome\\sessions\\127.0.0.1-5b61f96d-52a5-4e52-805f-552fe78bcf40'
p4203
asbasbasbag69
(g85
g71
NtRp4204
(dp4205
g74
(dp4206
sg83
g3452
sg76
(lp4207
g69
(g90
g71
NtRp4208
(dp4209
g74
(dp4210
g94
g95
ssg83
g4204
sg76
(lp4211
S'session_id'
p4212
asbag69
(g90
g71
NtRp4213
(dp4214
g74
(dp4215
g101
g102
ssg83
g4204
sg76
(lp4216
S':'
asbag69
(g90
g71
NtRp4217
(dp4218
g74
(dp4219
sg83
g4204
sg76
(lp4220
g69
(g70
g71
NtRp4221
(dp4222
g74
(dp4223
g82
I5
ssg83
g4217
sg76
(lp4224
S'127.0.0.1-5b61f96d-52a5-4e52-805f-552fe78bcf40'
p4225
asbasbasbag69
(g85
g71
NtRp4226
(dp4227
g74
(dp4228
sg83
g3452
sg76
(lp4229
g69
(g90
g71
NtRp4230
(dp4231
g74
(dp4232
g94
g95
ssg83
g4226
sg76
(lp4233
S'session_id_name'
p4234
asbag69
(g90
g71
NtRp4235
(dp4236
g74
(dp4237
g101
g102
ssg83
g4226
sg76
(lp4238
S':'
asbag69
(g90
g71
NtRp4239
(dp4240
g74
(dp4241
sg83
g4226
sg76
(lp4242
g69
(g70
g71
NtRp4243
(dp4244
g74
(dp4245
g82
I5
ssg83
g4239
sg76
(lp4246
g3509
asbasbasbag69
(g85
g71
NtRp4247
(dp4248
g74
(dp4249
sg83
g3452
sg76
(lp4250
g69
(g90
g71
NtRp4251
(dp4252
g74
(dp4253
g94
g95
ssg83
g4247
sg76
(lp4254
S'session_locked'
p4255
asbag69
(g90
g71
NtRp4256
(dp4257
g74
(dp4258
g101
g102
ssg83
g4247
sg76
(lp4259
S':'
asbag69
(g90
g71
NtRp4260
(dp4261
g74
(dp4262
sg83
g4247
sg76
(lp4263
g69
(g70
g71
NtRp4264
(dp4265
g74
(dp4266
g82
I5
ssg83
g4260
sg76
(lp4267
g1724
asbasbasbag69
(g85
g71
NtRp4268
(dp4269
g74
(dp4270
sg83
g3452
sg76
(lp4271
g69
(g90
g71
NtRp4272
(dp4273
g74
(dp4274
g94
g95
ssg83
g4268
sg76
(lp4275
S'session_new'
p4276
asbag69
(g90
g71
NtRp4277
(dp4278
g74
(dp4279
g101
g102
ssg83
g4268
sg76
(lp4280
S':'
asbag69
(g90
g71
NtRp4281
(dp4282
g74
(dp4283
sg83
g4268
sg76
(lp4284
g69
(g70
g71
NtRp4285
(dp4286
g74
(dp4287
g82
I5
ssg83
g4281
sg76
(lp4288
g112
asbasbasbag69
(g85
g71
NtRp4289
(dp4290
g74
(dp4291
sg83
g3452
sg76
(lp4292
g69
(g90
g71
NtRp4293
(dp4294
g74
(dp4295
g94
g95
ssg83
g4289
sg76
(lp4296
S'status'
p4297
asbag69
(g90
g71
NtRp4298
(dp4299
g74
(dp4300
g101
g102
ssg83
g4289
sg76
(lp4301
S':'
asbag69
(g90
g71
NtRp4302
(dp4303
g74
(dp4304
sg83
g4289
sg76
(lp4305
g69
(g70
g71
NtRp4306
(dp4307
g74
(dp4308
g82
I5
ssg83
g4302
sg76
(lp4309
S'200'
p4310
asbasbasbag69
(g85
g71
NtRp4311
(dp4312
g74
(dp4313
sg83
g3452
sg76
(lp4314
g69
(g90
g71
NtRp4315
(dp4316
g74
(dp4317
g94
g95
ssg83
g4311
sg76
(lp4318
S'subtitle'
p4319
asbag69
(g90
g71
NtRp4320
(dp4321
g74
(dp4322
g101
g102
ssg83
g4311
sg76
(lp4323
S':'
asbag69
(g90
g71
NtRp4324
(dp4325
g74
(dp4326
sg83
g4311
sg76
(lp4327
g69
(g70
g71
NtRp4328
(dp4329
g74
(dp4330
g82
I5
ssg83
g4324
sg76
(lp4331
g3957
(S's2\x00\x00\x00Starcraft II Custom Tournament Tracker Version 0.1'
tRp4332
asbasbasbag69
(g85
g71
NtRp4333
(dp4334
g74
(dp4335
sg83
g3452
sg76
(lp4336
g69
(g90
g71
NtRp4337
(dp4338
g74
(dp4339
g94
g95
ssg83
g4333
sg76
(lp4340
S'title'
p4341
asbag69
(g90
g71
NtRp4342
(dp4343
g74
(dp4344
g101
g102
ssg83
g4333
sg76
(lp4345
S':'
asbag69
(g90
g71
NtRp4346
(dp4347
g74
(dp4348
sg83
g4333
sg76
(lp4349
g69
(g70
g71
NtRp4350
(dp4351
g74
(dp4352
g82
I5
ssg83
g4346
sg76
(lp4353
S'SC2CTT v0.1'
p4354
asbasbasbag69
(g85
g71
NtRp4355
(dp4356
g74
(dp4357
sg83
g3452
sg76
(lp4358
g69
(g90
g71
NtRp4359
(dp4360
g74
(dp4361
g94
g95
ssg83
g4355
sg76
(lp4362
g2409
asbag69
(g90
g71
NtRp4363
(dp4364
g74
(dp4365
g101
g102
ssg83
g4355
sg76
(lp4366
S':'
asbag69
(g90
g71
NtRp4367
(dp4368
g74
(dp4369
sg83
g4355
sg76
(lp4370
g69
(g70
g71
NtRp4371
(dp4372
g74
(dp4373
g82
I5
ssg83
g4367
sg76
(lp4374
g2422
asbasbasbag69
(g85
g71
NtRp4375
(dp4376
g74
(dp4377
sg83
g3452
sg76
(lp4378
g69
(g90
g71
NtRp4379
(dp4380
g74
(dp4381
g94
g95
ssg83
g4375
sg76
(lp4382
S'view'
p4383
asbag69
(g90
g71
NtRp4384
(dp4385
g74
(dp4386
g101
g102
ssg83
g4375
sg76
(lp4387
S':'
asbag69
(g90
g71
NtRp4388
(dp4389
g74
(dp4390
sg83
g4375
sg76
(lp4391
g69
(g70
g71
NtRp4392
(dp4393
g74
(dp4394
g82
I5
ssg83
g4388
sg76
(lp4395
S'tournament/show.html'
p4396
asbasbasbasbasbsS'locals'
p4397
(dp4398
g4
S"r'C:\\Users\\mellinja\\Documents\\SC2Tracker\\SC2Tourne...y\\applications\\welcome\\views\\tournament/show.html'"
p4399
sg6
S'r"response.write(\'<!DOCTYPE html>\\r\\n<!-- pauliris...write(\'\\r\\n</body>\\r\\n</html>\\r\\n\', escape=False)"'
p4400
sssS'traceback'
p4401
S'Traceback (most recent call last):\n  File "C:\\Users\\mellinja\\Documents\\SC2Tracker\\SC2TourneyTracker\\web2py\\gluon\\restricted.py", line 203, in restricted\n    ccode = compile2(code,layer)\n  File "C:\\Users\\mellinja\\Documents\\SC2Tracker\\SC2TourneyTracker\\web2py\\gluon\\restricted.py", line 189, in compile2\n    return compile(code.rstrip().replace(\'\\r\\n\',\'\\n\')+\'\\n\', layer, \'exec\')\n  File "C:\\Users\\mellinja\\Documents\\SC2Tracker\\SC2TourneyTracker\\web2py\\applications\\welcome\\views\\tournament/show.html", line 76\n    response.write(test:)\n                       ^\nSyntaxError: invalid syntax\n'
p4402
s.