(dp1
S'output'
p2
S"<type 'exceptions.NameError'> name 'form' is not defined"
p3
sS'layer'
p4
S'C:\\Users\\mellinja\\Documents\\SC2Tracker\\SC2TourneyTracker\\web2py\\applications\\welcome\\views\\tournament/show.html'
p5
sS'code'
p6
S'response.write(\'<!DOCTYPE html>\\r\\n<!-- paulirish.com/2008/conditional-stylesheets-vs-css-hacks-answer-neither/ -->\\r\\n<!--[if lt IE 7]><html class="ie ie6 ie-lte9 ie-lte8 ie-lte7 no-js" lang="\', escape=False)\nresponse.write(T.accepted_language or \'en\')\nresponse.write(\'"> <![endif]-->\\r\\n<!--[if IE 7]><html class="ie ie7 ie-lte9 ie-lte8 ie-lte7 no-js" lang="\', escape=False)\nresponse.write(T.accepted_language or \'en\')\nresponse.write(\'"> <![endif]-->\\r\\n<!--[if IE 8]><html class="ie ie8 ie-lte9 ie-lte8 no-js" lang="\', escape=False)\nresponse.write(T.accepted_language or \'en\')\nresponse.write(\'"> <![endif]-->\\r\\n<!--[if IE 9]><html class="ie9 ie-lte9 no-js" lang="\', escape=False)\nresponse.write(T.accepted_language or \'en\')\nresponse.write(\'"> <![endif]-->\\r\\n<!--[if (gt IE 9)|!(IE)]><!--> <html class="no-js" lang="\', escape=False)\nresponse.write(T.accepted_language or \'en\')\nresponse.write(\'"> <!--<![endif]-->\\r\\n<head>\\r\\n  <meta charset="utf-8" />\\r\\n  <!-- www.phpied.com/conditional-comments-block-downloads/ -->\\r\\n  <!-- Always force latest IE rendering engine\\r\\n       (even in intranet) & Chrome Frame\\r\\n       Remove this if you use the .htaccess -->\\r\\n  <!--[if IE]>\\r\\n    <meta http-equiv="X-UA-Compatible" content="IE=edge\', escape=False)\nresponse.write(not request.is_local and \',chrome=1\' or \'\')\nresponse.write(\'">\\r\\n  <![endif]-->\\r\\n  \\r\\n  <title>\', escape=False)\nresponse.write(response.title or request.application)\nresponse.write(\'</title>\\r\\n  \\r\\n  <!-- http://dev.w3.org/html5/markup/meta.name.html -->\\r\\n  <meta name="application-name" content="\', escape=False)\nresponse.write(request.application)\nresponse.write(\'" />\\r\\n  \\r\\n  <!-- Speaking of Google, don\\\'t forget to set your site up:\\r\\n       http://google.com/webmasters -->\\r\\n  <meta name="google-site-verification" content="" />\\r\\n\\r\\n  <!--  Mobile Viewport Fix\\r\\n      j.mp/mobileviewport & davidbcalhoun.com/2010/viewport-metatag\\r\\n      device-width: Occupy full width of the screen in its current orientation\\r\\n      initial-scale = 1.0 retains dimensions instead of zooming out if page height > device height\\r\\n      user-scalable = yes allows the user to zoom in -->\\r\\n  <meta name="viewport" content="width=device-width, initial-scale=1.0, user-scalable=yes">\\r\\n  \\r\\n  <!-- Place favicon.ico and apple-touch-icon.png in the root of your domain and delete these references -->\\r\\n  <link rel="shortcut icon" href="\', escape=False)\nresponse.write(URL(\'static\',\'favicon.ico\'))\nresponse.write(\'" type="image/x-icon">\\r\\n  <link rel="apple-touch-icon" href="\', escape=False)\nresponse.write(URL(\'static\',\'favicon.png\'))\nresponse.write(\'">\\r\\n\\r\\n  <!-- All JavaScript at the bottom, except for Modernizr which enables \\r\\n       HTML5 elements & feature detects -->\\r\\n  <script src="\', escape=False)\nresponse.write(URL(\'static\',\'js/modernizr.custom.js\'))\nresponse.write(\'"></script>  \\r\\n\\r\\n  <!-- include stylesheets -->\\r\\n  \', escape=False)\nresponse.files.append(URL(\'static\',\'css/skeleton.css\'))\nresponse.files.append(URL(\'static\',\'css/web2py.css\'))\nresponse.files.append(URL(\'static\',\'css/superfish.css\'))\nresponse.files.append(URL(\'static\',\'js/superfish.js\'))\nresponse.write(\'\\r\\n\\r\\n  \', escape=False)\nresponse.write(\'<script type="text/javascript"><!--\\r\\n    // These variables are used by the web2py_ajax_init function in web2py_ajax.js (which is loaded below).\\r\\n    var w2p_ajax_confirm_message = "\', escape=False)\nresponse.write(T(\'Are you sure you want to delete this object?\'))\nresponse.write(\'";\\r\\n    var w2p_ajax_date_format = "\', escape=False)\nresponse.write(T(\'%Y-%m-%d\'))\nresponse.write(\'";\\r\\n    var w2p_ajax_datetime_format = "\', escape=False)\nresponse.write(T(\'%Y-%m-%d %H:%M:%S\'))\nresponse.write(\'";\\r\\n    //--></script>\\r\\n\', escape=False)\nresponse.files.insert(0,URL(\'static\',\'js/jquery.js\'))\nresponse.files.insert(1,URL(\'static\',\'css/calendar.css\'))\nresponse.files.insert(2,URL(\'static\',\'js/calendar.js\'))\nresponse.files.insert(3,URL(\'static\',\'js/web2py.js\'))\nresponse.include_meta()\nresponse.include_files()\nresponse.write(\'\\r\\n\', escape=False)\nresponse.write(\'\\r\\n\\r\\n  <script type="text/javascript">\\r\\n    jQuery(function(){ jQuery(\\\'ul.sf-menu\\\').supersubs({minWidth:12,maxWidth:30,extraWidth:3}).superfish(); });\\r\\n  </script>\\r\\n\\r\\n  \', escape=False)\n# using sidebars need to know what sidebar you want to use\nleft_sidebar_enabled = globals().get(\'left_sidebar_enabled\',False)\nright_sidebar_enabled = globals().get(\'right_sidebar_enabled\',False)\nmiddle_columns = {0:\'sixteen\',1:\'twelve\',2:\'eight\'}[\n(left_sidebar_enabled and 1 or 0)+(right_sidebar_enabled and 1 or 0)]\nresponse.write(\'\\r\\n\\r\\n  <!-- uncomment here to load jquery-ui\\r\\n  <link rel="stylesheet" href="http://ajax.googleapis.com/ajax/libs/jqueryui/1.8.16/themes/base/jquery-ui.css" type="text/css" media="all" />\\r\\n  <script src="http://ajax.googleapis.com/ajax/libs/jqueryui/1.8.16/jquery-ui.min.js" type="text/javascript"></script>\\r\\n  uncomment to load jquery-ui //-->\\r\\n</head>\\r\\n<body>\\r\\n  <div class="wrapper"><!-- for sticky footer -->\\r\\n  \\r\\n    <div class="topbar">\\r\\n      <div class="container">    \\r\\n        <div class="sixteen columns">\\r\\n          <div id="navbar">\', escape=False)\nresponse.write(\'auth\' in globals() and auth.navbar(separators=(\' \',\' | \',\'\')))\nresponse.write(\'</div>\\r\\n          \', escape=False)\nis_mobile=request.user_agent().is_mobile\nresponse.write(\'\\r\\n          <div id="menu">\', escape=False)\nresponse.write(MENU(response.menu, _class=\'mobile-menu\' if is_mobile else \'sf-menu\',mobile=is_mobile))\nresponse.write(\'\\r\\n          </div>\\r\\n        </div>\\r\\n      </div>\\r\\n    </div><!-- topbar -->\\r\\n    \\r\\n    <div class="flash">\', escape=False)\nresponse.write(response.flash or \'\')\nresponse.write(\'</div>\\r\\n    \\r\\n    <div class="header">\\r\\n      <div class="container">         \\r\\n        <div class="sixteen columns">\\r\\n          <h1 class="remove-bottom" style="margin-top: .5em;">\\r\\n          \', escape=False)\nresponse.write(response.title or request.application)\nresponse.write(\'\\r\\n          </h1>\\r\\n          <h5>\', escape=False)\nresponse.write(response.subtitle or \'\')\nresponse.write(\'</h5>\\r\\n        </div>\\r\\n        <div class="sixteen columns">\\r\\n          <div class="statusbar clearfix">\\r\\n            \', escape=False)\nresponse.write(\'\\r\\n            <div class="breadcrumbs">\', escape=False)\nresponse.write(request.function.replace(\'_\', \' \').title())\nresponse.write(\'</div>\\r\\n            \', escape=False)\nresponse.write(\'\\r\\n            <!-- AddToAny BEGIN -->\\r\\n            <!--<div style="float:right; padding-top: .25em;" class="a2a_kit a2a_default_style">\\r\\n            <a class="a2a_dd" href="http://www.addtoany.com/share_save">Share</a></div>\\r\\n            <script type="text/javascript" src="http://static.addtoany.com/menu/page.js"></script>-->\\r\\n            <!-- AddToAny END -->\\r\\n          </div>\\r\\n        </div>\\r\\n      </div>\\r\\n    </div>\\r\\n\\r\\n    <div class="main">\\r\\n      <div class="container">                 \\r\\n        \', escape=False)\nif left_sidebar_enabled:\n    response.write(\'\\r\\n        <div class="four columns left-sidebar">\\r\\n          \', escape=False)\n    response.write(\'\\r\\n          <h3>Left Sidebar</h3>\\r\\n          <p></p>\\r\\n          \', escape=False)\n    response.write(\'\\r\\n        </div>\\r\\n        \', escape=False)\n    pass\nresponse.write(\'\\r\\n        \\r\\n        <div class="\', escape=False)\nresponse.write(middle_columns)\nresponse.write(\' columns center">\\r\\n          \', escape=False)\nresponse.write(\'\\r\\n          \', escape=False)\nresponse.write(\'\\r\\n<h1>This is the tournament/show.html template</h1>\\r\\n\', escape=False)\nresponse.write(test)\nresponse.write(\'\\r\\n\', escape=False)\nresponse.write(form)\nresponse.write(\'\\r\\n\', escape=False)\nresponse.write(\'\\r\\n          \', escape=False)\nresponse.write(\'\\r\\n        </div>\\r\\n        \\r\\n        \', escape=False)\nif right_sidebar_enabled:\n    response.write(\'\\r\\n        <div class="four columns">\\r\\n          \', escape=False)\n    response.write(\'\\r\\n          <h3>Right Sidebar</h3>\\r\\n          <p></p>\\r\\n          \', escape=False)\n    response.write(\'\\r\\n        </div>    \\r\\n        \', escape=False)\n    pass\nresponse.write(\'\\r\\n        \\r\\n      </div><!-- container -->\\r\\n    </div><!-- main -->\\r\\n    \\r\\n    <div class="push"></div>\\r\\n  </div><!-- wrapper -->\\r\\n\\r\\n  <div class="footer">\\r\\n    <div class="container">    \\r\\n      <div class="sixteen columns">\\r\\n        \', escape=False)\nresponse.write(\' <!-- this is default footer -->\\r\\n        <div class="footer-content clearfix">\\r\\n          <div class="copyright">\\r\\n\\t\\t\\t  \', escape=False)\nresponse.write(T(\'Copyright\'))\nresponse.write(\' &#169; 2012 <br />\\r\\n\\t\\t\\t  Kyle Cheung, Simon Liang, Jackson Melling\\r\\n\\t\\t  </div>\\r\\n          <div style="float: right;">\\r\\n            <a href="http://www.web2py.com/">\\r\\n            <img style="padding-bottom: 0;" src="\', escape=False)\nresponse.write(URL(\'static\',\'images/poweredby.png\'))\nresponse.write(\'"/>\\r\\n            </a>\\r\\n          </div>\\r\\n        </div>\\r\\n        \', escape=False)\nresponse.write(\' \\r\\n      </div>\\r\\n    </div><!-- container -->\\r\\n  </div><!-- footer -->\\r\\n  \\r\\n  <!--[if lt IE 7 ]>\\r\\n    <script src="\', escape=False)\nresponse.write(URL(\'static\',\'js/dd_belatedpng.js\'))\nresponse.write(\'"></script>\\r\\n    <script> DD_belatedPNG.fix(\\\'img, .png_bg\\\'); //fix any <img> or .png_bg background-images </script>\\r\\n    <![endif]-->\\r\\n  \', escape=False)\nif response.google_analytics_id:\n    response.write(\'<script type="text/javascript"> var _gaq = _gaq || []; _gaq.push([\\\'_setAccount\\\', \\\'\', escape=False)\n    response.write(response.google_analytics_id)\n    response.write("\']); _gaq.push([\'_trackPageview\']); (function() { var ga = document.createElement(\'script\'); ga.type = \'text/javascript\'; ga.async = true; ga.src = (\'https:\' == document.location.protocol ? \'https://ssl\' : \'http://www\') + \'.google-analytics.com/ga.js\'; var s = document.getElementsByTagName(\'script\')[0]; s.parentNode.insertBefore(ga, s); })(); </script> ", escape=False)\n    pass\nresponse.write(\'\\r\\n</body>\\r\\n</html>\\r\\n\', escape=False)'
p7
sS'snapshot'
p8
(dp9
S'exception'
p10
(dp11
S'__hash__'
p12
S"<method-wrapper '__hash__' of exceptions.NameError object>"
p13
sS'__setattr__'
p14
S"<method-wrapper '__setattr__' of exceptions.NameError object>"
p15
sS'__reduce_ex__'
p16
S'<built-in method __reduce_ex__ of exceptions.NameError object>'
p17
sS'__getslice__'
p18
S"<method-wrapper '__getslice__' of exceptions.NameError object>"
p19
sS'__getitem__'
p20
S"<method-wrapper '__getitem__' of exceptions.NameError object>"
p21
sS'__setstate__'
p22
S'<built-in method __setstate__ of exceptions.NameError object>'
p23
sS'__reduce__'
p24
S'<built-in method __reduce__ of exceptions.NameError object>'
p25
sS'__str__'
p26
S"<method-wrapper '__str__' of exceptions.NameError object>"
p27
sS'__format__'
p28
S'<built-in method __format__ of exceptions.NameError object>'
p29
sS'__getattribute__'
p30
S"<method-wrapper '__getattribute__' of exceptions.NameError object>"
p31
sS'__class__'
p32
S"<type 'exceptions.NameError'>"
p33
sS'__unicode__'
p34
S'<built-in method __unicode__ of exceptions.NameError object>'
p35
sS'__delattr__'
p36
S"<method-wrapper '__delattr__' of exceptions.NameError object>"
p37
sS'__subclasshook__'
p38
S'<built-in method __subclasshook__ of type object>'
p39
sS'__repr__'
p40
S"<method-wrapper '__repr__' of exceptions.NameError object>"
p41
sS'__dict__'
p42
S'{}'
p43
sS'args'
p44
S'("name \'form\' is not defined",)'
p45
sS'__sizeof__'
p46
S'<built-in method __sizeof__ of exceptions.NameError object>'
p47
sS'__doc__'
p48
S"'Name not found globally.'"
p49
sS'__init__'
p50
S"<method-wrapper '__init__' of exceptions.NameError object>"
p51
sS'__new__'
p52
S'<built-in method __new__ of type object>'
p53
ssS'evalue'
p54
S"name 'form' is not defined"
p55
sS'request'
p56
ccopy_reg
_reconstructor
p57
(cgluon.html
BEAUTIFY
p58
c__builtin__
object
p59
NtRp60
(dp61
S'attributes'
p62
(dp63
sS'components'
p64
(lp65
g57
(cgluon.html
TABLE
p66
g59
NtRp67
(dp68
g62
(dp69
S'level'
p70
I5
ssS'parent'
p71
Nsg64
(lp72
g57
(cgluon.html
TR
p73
g59
NtRp74
(dp75
g62
(dp76
sg71
g67
sg64
(lp77
g57
(cgluon.html
TD
p78
g59
NtRp79
(dp80
g62
(dp81
S'_style'
p82
S'font-weight:bold;vertical-align:top'
p83
ssg71
g74
sg64
(lp84
S'ajax'
p85
asbag57
(g78
g59
NtRp86
(dp87
g62
(dp88
S'_valign'
p89
S'top'
p90
ssg71
g74
sg64
(lp91
S':'
asbag57
(g78
g59
NtRp92
(dp93
g62
(dp94
sg71
g74
sg64
(lp95
g57
(g58
g59
NtRp96
(dp97
g62
(dp98
g70
I5
ssg71
g92
sg64
(lp99
S'False'
p100
asbasbasbag57
(g73
g59
NtRp101
(dp102
g62
(dp103
sg71
g67
sg64
(lp104
g57
(g78
g59
NtRp105
(dp106
g62
(dp107
g82
g83
ssg71
g101
sg64
(lp108
S'application'
p109
asbag57
(g78
g59
NtRp110
(dp111
g62
(dp112
g89
g90
ssg71
g101
sg64
(lp113
S':'
asbag57
(g78
g59
NtRp114
(dp115
g62
(dp116
sg71
g101
sg64
(lp117
g57
(g58
g59
NtRp118
(dp119
g62
(dp120
g70
I5
ssg71
g114
sg64
(lp121
S'welcome'
p122
asbasbasbag57
(g73
g59
NtRp123
(dp124
g62
(dp125
sg71
g67
sg64
(lp126
g57
(g78
g59
NtRp127
(dp128
g62
(dp129
g82
g83
ssg71
g123
sg64
(lp130
g44
asbag57
(g78
g59
NtRp131
(dp132
g62
(dp133
g89
g90
ssg71
g123
sg64
(lp134
S':'
asbag57
(g78
g59
NtRp135
(dp136
g62
(dp137
sg71
g123
sg64
(lp138
g57
(g58
g59
NtRp139
(dp140
g62
(dp141
g70
I5
ssg71
g135
sg64
(lp142
g57
(g66
g59
NtRp143
(dp144
g62
(dp145
g70
I4
ssg71
Nsg64
(lp146
g57
(g73
g59
NtRp147
(dp148
g62
(dp149
sg71
g143
sg64
(lp150
g57
(g78
g59
NtRp151
(dp152
g62
(dp153
sg71
g147
sg64
(lp154
g57
(g58
g59
NtRp155
(dp156
g62
(dp157
g70
I4
ssg71
g151
sg64
(lp158
S'7'
asbasbasbasbasbasbasbag57
(g73
g59
NtRp159
(dp160
g62
(dp161
sg71
g67
sg64
(lp162
g57
(g78
g59
NtRp163
(dp164
g62
(dp165
g82
g83
ssg71
g159
sg64
(lp166
S'body'
p167
asbag57
(g78
g59
NtRp168
(dp169
g62
(dp170
g89
g90
ssg71
g159
sg64
(lp171
S':'
asbag57
(g78
g59
NtRp172
(dp173
g62
(dp174
sg71
g159
sg64
(lp175
g57
(g58
g59
NtRp176
(dp177
g62
(dp178
g70
I5
ssg71
g172
sg64
(lp179
S'<cStringIO.StringO object at 0x0000000007AE0490>'
p180
asbasbasbag57
(g73
g59
NtRp181
(dp182
g62
(dp183
sg71
g67
sg64
(lp184
g57
(g78
g59
NtRp185
(dp186
g62
(dp187
g82
g83
ssg71
g181
sg64
(lp188
S'client'
p189
asbag57
(g78
g59
NtRp190
(dp191
g62
(dp192
g89
g90
ssg71
g181
sg64
(lp193
S':'
asbag57
(g78
g59
NtRp194
(dp195
g62
(dp196
sg71
g181
sg64
(lp197
g57
(g58
g59
NtRp198
(dp199
g62
(dp200
g70
I5
ssg71
g194
sg64
(lp201
S'127.0.0.1'
p202
asbasbasbag57
(g73
g59
NtRp203
(dp204
g62
(dp205
sg71
g67
sg64
(lp206
g57
(g78
g59
NtRp207
(dp208
g62
(dp209
g82
g83
ssg71
g203
sg64
(lp210
S'controller'
p211
asbag57
(g78
g59
NtRp212
(dp213
g62
(dp214
g89
g90
ssg71
g203
sg64
(lp215
S':'
asbag57
(g78
g59
NtRp216
(dp217
g62
(dp218
sg71
g203
sg64
(lp219
g57
(g58
g59
NtRp220
(dp221
g62
(dp222
g70
I5
ssg71
g216
sg64
(lp223
S'tournament'
p224
asbasbasbag57
(g73
g59
NtRp225
(dp226
g62
(dp227
sg71
g67
sg64
(lp228
g57
(g78
g59
NtRp229
(dp230
g62
(dp231
g82
g83
ssg71
g225
sg64
(lp232
S'cookies'
p233
asbag57
(g78
g59
NtRp234
(dp235
g62
(dp236
g89
g90
ssg71
g225
sg64
(lp237
S':'
asbag57
(g78
g59
NtRp238
(dp239
g62
(dp240
sg71
g225
sg64
(lp241
g57
(g58
g59
NtRp242
(dp243
g62
(dp244
g70
I5
ssg71
g238
sg64
(lp245
g57
(g66
g59
NtRp246
(dp247
g62
(dp248
g70
I4
ssg71
Nsg64
(lp249
g57
(g73
g59
NtRp250
(dp251
g62
(dp252
sg71
g246
sg64
(lp253
g57
(g78
g59
NtRp254
(dp255
g62
(dp256
g82
g83
ssg71
g250
sg64
(lp257
S'session_id_admin'
p258
asbag57
(g78
g59
NtRp259
(dp260
g62
(dp261
g89
g90
ssg71
g250
sg64
(lp262
S':'
asbag57
(g78
g59
NtRp263
(dp264
g62
(dp265
sg71
g250
sg64
(lp266
g57
(g58
g59
NtRp267
(dp268
g62
(dp269
g70
I4
ssg71
g263
sg64
(lp270
g57
(g66
g59
NtRp271
(dp272
g62
(dp273
g70
I3
ssg71
Nsg64
(lp274
g57
(g73
g59
NtRp275
(dp276
g62
(dp277
sg71
g271
sg64
(lp278
g57
(g78
g59
NtRp279
(dp280
g62
(dp281
g82
g83
ssg71
g275
sg64
(lp282
S'comment'
p283
asbag57
(g78
g59
NtRp284
(dp285
g62
(dp286
g89
g90
ssg71
g275
sg64
(lp287
S':'
asbag57
(g78
g59
NtRp288
(dp289
g62
(dp290
sg71
g275
sg64
(lp291
g57
(g58
g59
NtRp292
(dp293
g62
(dp294
g70
I3
ssg71
g288
sg64
(lp295
S''
asbasbasbag57
(g73
g59
NtRp296
(dp297
g62
(dp298
sg71
g271
sg64
(lp299
g57
(g78
g59
NtRp300
(dp301
g62
(dp302
g82
g83
ssg71
g296
sg64
(lp303
S'domain'
p304
asbag57
(g78
g59
NtRp305
(dp306
g62
(dp307
g89
g90
ssg71
g296
sg64
(lp308
S':'
asbag57
(g78
g59
NtRp309
(dp310
g62
(dp311
sg71
g296
sg64
(lp312
g57
(g58
g59
NtRp313
(dp314
g62
(dp315
g70
I3
ssg71
g309
sg64
(lp316
S''
asbasbasbag57
(g73
g59
NtRp317
(dp318
g62
(dp319
sg71
g271
sg64
(lp320
g57
(g78
g59
NtRp321
(dp322
g62
(dp323
g82
g83
ssg71
g317
sg64
(lp324
S'expires'
p325
asbag57
(g78
g59
NtRp326
(dp327
g62
(dp328
g89
g90
ssg71
g317
sg64
(lp329
S':'
asbag57
(g78
g59
NtRp330
(dp331
g62
(dp332
sg71
g317
sg64
(lp333
g57
(g58
g59
NtRp334
(dp335
g62
(dp336
g70
I3
ssg71
g330
sg64
(lp337
S''
asbasbasbag57
(g73
g59
NtRp338
(dp339
g62
(dp340
sg71
g271
sg64
(lp341
g57
(g78
g59
NtRp342
(dp343
g62
(dp344
g82
g83
ssg71
g338
sg64
(lp345
S'httponly'
p346
asbag57
(g78
g59
NtRp347
(dp348
g62
(dp349
g89
g90
ssg71
g338
sg64
(lp350
S':'
asbag57
(g78
g59
NtRp351
(dp352
g62
(dp353
sg71
g338
sg64
(lp354
g57
(g58
g59
NtRp355
(dp356
g62
(dp357
g70
I3
ssg71
g351
sg64
(lp358
S''
asbasbasbag57
(g73
g59
NtRp359
(dp360
g62
(dp361
sg71
g271
sg64
(lp362
g57
(g78
g59
NtRp363
(dp364
g62
(dp365
g82
g83
ssg71
g359
sg64
(lp366
S'max-age'
p367
asbag57
(g78
g59
NtRp368
(dp369
g62
(dp370
g89
g90
ssg71
g359
sg64
(lp371
S':'
asbag57
(g78
g59
NtRp372
(dp373
g62
(dp374
sg71
g359
sg64
(lp375
g57
(g58
g59
NtRp376
(dp377
g62
(dp378
g70
I3
ssg71
g372
sg64
(lp379
S''
asbasbasbag57
(g73
g59
NtRp380
(dp381
g62
(dp382
sg71
g271
sg64
(lp383
g57
(g78
g59
NtRp384
(dp385
g62
(dp386
g82
g83
ssg71
g380
sg64
(lp387
S'path'
p388
asbag57
(g78
g59
NtRp389
(dp390
g62
(dp391
g89
g90
ssg71
g380
sg64
(lp392
S':'
asbag57
(g78
g59
NtRp393
(dp394
g62
(dp395
sg71
g380
sg64
(lp396
g57
(g58
g59
NtRp397
(dp398
g62
(dp399
g70
I3
ssg71
g393
sg64
(lp400
S''
asbasbasbag57
(g73
g59
NtRp401
(dp402
g62
(dp403
sg71
g271
sg64
(lp404
g57
(g78
g59
NtRp405
(dp406
g62
(dp407
g82
g83
ssg71
g401
sg64
(lp408
S'secure'
p409
asbag57
(g78
g59
NtRp410
(dp411
g62
(dp412
g89
g90
ssg71
g401
sg64
(lp413
S':'
asbag57
(g78
g59
NtRp414
(dp415
g62
(dp416
sg71
g401
sg64
(lp417
g57
(g58
g59
NtRp418
(dp419
g62
(dp420
g70
I3
ssg71
g414
sg64
(lp421
S''
asbasbasbag57
(g73
g59
NtRp422
(dp423
g62
(dp424
sg71
g271
sg64
(lp425
g57
(g78
g59
NtRp426
(dp427
g62
(dp428
g82
g83
ssg71
g422
sg64
(lp429
S'version'
p430
asbag57
(g78
g59
NtRp431
(dp432
g62
(dp433
g89
g90
ssg71
g422
sg64
(lp434
S':'
asbag57
(g78
g59
NtRp435
(dp436
g62
(dp437
sg71
g422
sg64
(lp438
g57
(g58
g59
NtRp439
(dp440
g62
(dp441
g70
I3
ssg71
g435
sg64
(lp442
S''
asbasbasbasbasbasbasbag57
(g73
g59
NtRp443
(dp444
g62
(dp445
sg71
g246
sg64
(lp446
g57
(g78
g59
NtRp447
(dp448
g62
(dp449
g82
g83
ssg71
g443
sg64
(lp450
S'session_id_examples'
p451
asbag57
(g78
g59
NtRp452
(dp453
g62
(dp454
g89
g90
ssg71
g443
sg64
(lp455
S':'
asbag57
(g78
g59
NtRp456
(dp457
g62
(dp458
sg71
g443
sg64
(lp459
g57
(g58
g59
NtRp460
(dp461
g62
(dp462
g70
I4
ssg71
g456
sg64
(lp463
g57
(g66
g59
NtRp464
(dp465
g62
(dp466
g70
I3
ssg71
Nsg64
(lp467
g57
(g73
g59
NtRp468
(dp469
g62
(dp470
sg71
g464
sg64
(lp471
g57
(g78
g59
NtRp472
(dp473
g62
(dp474
g82
g83
ssg71
g468
sg64
(lp475
g283
asbag57
(g78
g59
NtRp476
(dp477
g62
(dp478
g89
g90
ssg71
g468
sg64
(lp479
S':'
asbag57
(g78
g59
NtRp480
(dp481
g62
(dp482
sg71
g468
sg64
(lp483
g57
(g58
g59
NtRp484
(dp485
g62
(dp486
g70
I3
ssg71
g480
sg64
(lp487
S''
asbasbasbag57
(g73
g59
NtRp488
(dp489
g62
(dp490
sg71
g464
sg64
(lp491
g57
(g78
g59
NtRp492
(dp493
g62
(dp494
g82
g83
ssg71
g488
sg64
(lp495
g304
asbag57
(g78
g59
NtRp496
(dp497
g62
(dp498
g89
g90
ssg71
g488
sg64
(lp499
S':'
asbag57
(g78
g59
NtRp500
(dp501
g62
(dp502
sg71
g488
sg64
(lp503
g57
(g58
g59
NtRp504
(dp505
g62
(dp506
g70
I3
ssg71
g500
sg64
(lp507
S''
asbasbasbag57
(g73
g59
NtRp508
(dp509
g62
(dp510
sg71
g464
sg64
(lp511
g57
(g78
g59
NtRp512
(dp513
g62
(dp514
g82
g83
ssg71
g508
sg64
(lp515
g325
asbag57
(g78
g59
NtRp516
(dp517
g62
(dp518
g89
g90
ssg71
g508
sg64
(lp519
S':'
asbag57
(g78
g59
NtRp520
(dp521
g62
(dp522
sg71
g508
sg64
(lp523
g57
(g58
g59
NtRp524
(dp525
g62
(dp526
g70
I3
ssg71
g520
sg64
(lp527
S''
asbasbasbag57
(g73
g59
NtRp528
(dp529
g62
(dp530
sg71
g464
sg64
(lp531
g57
(g78
g59
NtRp532
(dp533
g62
(dp534
g82
g83
ssg71
g528
sg64
(lp535
g346
asbag57
(g78
g59
NtRp536
(dp537
g62
(dp538
g89
g90
ssg71
g528
sg64
(lp539
S':'
asbag57
(g78
g59
NtRp540
(dp541
g62
(dp542
sg71
g528
sg64
(lp543
g57
(g58
g59
NtRp544
(dp545
g62
(dp546
g70
I3
ssg71
g540
sg64
(lp547
S''
asbasbasbag57
(g73
g59
NtRp548
(dp549
g62
(dp550
sg71
g464
sg64
(lp551
g57
(g78
g59
NtRp552
(dp553
g62
(dp554
g82
g83
ssg71
g548
sg64
(lp555
g367
asbag57
(g78
g59
NtRp556
(dp557
g62
(dp558
g89
g90
ssg71
g548
sg64
(lp559
S':'
asbag57
(g78
g59
NtRp560
(dp561
g62
(dp562
sg71
g548
sg64
(lp563
g57
(g58
g59
NtRp564
(dp565
g62
(dp566
g70
I3
ssg71
g560
sg64
(lp567
S''
asbasbasbag57
(g73
g59
NtRp568
(dp569
g62
(dp570
sg71
g464
sg64
(lp571
g57
(g78
g59
NtRp572
(dp573
g62
(dp574
g82
g83
ssg71
g568
sg64
(lp575
g388
asbag57
(g78
g59
NtRp576
(dp577
g62
(dp578
g89
g90
ssg71
g568
sg64
(lp579
S':'
asbag57
(g78
g59
NtRp580
(dp581
g62
(dp582
sg71
g568
sg64
(lp583
g57
(g58
g59
NtRp584
(dp585
g62
(dp586
g70
I3
ssg71
g580
sg64
(lp587
S''
asbasbasbag57
(g73
g59
NtRp588
(dp589
g62
(dp590
sg71
g464
sg64
(lp591
g57
(g78
g59
NtRp592
(dp593
g62
(dp594
g82
g83
ssg71
g588
sg64
(lp595
g409
asbag57
(g78
g59
NtRp596
(dp597
g62
(dp598
g89
g90
ssg71
g588
sg64
(lp599
S':'
asbag57
(g78
g59
NtRp600
(dp601
g62
(dp602
sg71
g588
sg64
(lp603
g57
(g58
g59
NtRp604
(dp605
g62
(dp606
g70
I3
ssg71
g600
sg64
(lp607
S''
asbasbasbag57
(g73
g59
NtRp608
(dp609
g62
(dp610
sg71
g464
sg64
(lp611
g57
(g78
g59
NtRp612
(dp613
g62
(dp614
g82
g83
ssg71
g608
sg64
(lp615
g430
asbag57
(g78
g59
NtRp616
(dp617
g62
(dp618
g89
g90
ssg71
g608
sg64
(lp619
S':'
asbag57
(g78
g59
NtRp620
(dp621
g62
(dp622
sg71
g608
sg64
(lp623
g57
(g58
g59
NtRp624
(dp625
g62
(dp626
g70
I3
ssg71
g620
sg64
(lp627
S''
asbasbasbasbasbasbasbag57
(g73
g59
NtRp628
(dp629
g62
(dp630
sg71
g246
sg64
(lp631
g57
(g78
g59
NtRp632
(dp633
g62
(dp634
g82
g83
ssg71
g628
sg64
(lp635
S'session_id_welcome'
p636
asbag57
(g78
g59
NtRp637
(dp638
g62
(dp639
g89
g90
ssg71
g628
sg64
(lp640
S':'
asbag57
(g78
g59
NtRp641
(dp642
g62
(dp643
sg71
g628
sg64
(lp644
g57
(g58
g59
NtRp645
(dp646
g62
(dp647
g70
I4
ssg71
g641
sg64
(lp648
g57
(g66
g59
NtRp649
(dp650
g62
(dp651
g70
I3
ssg71
Nsg64
(lp652
g57
(g73
g59
NtRp653
(dp654
g62
(dp655
sg71
g649
sg64
(lp656
g57
(g78
g59
NtRp657
(dp658
g62
(dp659
g82
g83
ssg71
g653
sg64
(lp660
g283
asbag57
(g78
g59
NtRp661
(dp662
g62
(dp663
g89
g90
ssg71
g653
sg64
(lp664
S':'
asbag57
(g78
g59
NtRp665
(dp666
g62
(dp667
sg71
g653
sg64
(lp668
g57
(g58
g59
NtRp669
(dp670
g62
(dp671
g70
I3
ssg71
g665
sg64
(lp672
S''
asbasbasbag57
(g73
g59
NtRp673
(dp674
g62
(dp675
sg71
g649
sg64
(lp676
g57
(g78
g59
NtRp677
(dp678
g62
(dp679
g82
g83
ssg71
g673
sg64
(lp680
g304
asbag57
(g78
g59
NtRp681
(dp682
g62
(dp683
g89
g90
ssg71
g673
sg64
(lp684
S':'
asbag57
(g78
g59
NtRp685
(dp686
g62
(dp687
sg71
g673
sg64
(lp688
g57
(g58
g59
NtRp689
(dp690
g62
(dp691
g70
I3
ssg71
g685
sg64
(lp692
S''
asbasbasbag57
(g73
g59
NtRp693
(dp694
g62
(dp695
sg71
g649
sg64
(lp696
g57
(g78
g59
NtRp697
(dp698
g62
(dp699
g82
g83
ssg71
g693
sg64
(lp700
g325
asbag57
(g78
g59
NtRp701
(dp702
g62
(dp703
g89
g90
ssg71
g693
sg64
(lp704
S':'
asbag57
(g78
g59
NtRp705
(dp706
g62
(dp707
sg71
g693
sg64
(lp708
g57
(g58
g59
NtRp709
(dp710
g62
(dp711
g70
I3
ssg71
g705
sg64
(lp712
S''
asbasbasbag57
(g73
g59
NtRp713
(dp714
g62
(dp715
sg71
g649
sg64
(lp716
g57
(g78
g59
NtRp717
(dp718
g62
(dp719
g82
g83
ssg71
g713
sg64
(lp720
g346
asbag57
(g78
g59
NtRp721
(dp722
g62
(dp723
g89
g90
ssg71
g713
sg64
(lp724
S':'
asbag57
(g78
g59
NtRp725
(dp726
g62
(dp727
sg71
g713
sg64
(lp728
g57
(g58
g59
NtRp729
(dp730
g62
(dp731
g70
I3
ssg71
g725
sg64
(lp732
S''
asbasbasbag57
(g73
g59
NtRp733
(dp734
g62
(dp735
sg71
g649
sg64
(lp736
g57
(g78
g59
NtRp737
(dp738
g62
(dp739
g82
g83
ssg71
g733
sg64
(lp740
g367
asbag57
(g78
g59
NtRp741
(dp742
g62
(dp743
g89
g90
ssg71
g733
sg64
(lp744
S':'
asbag57
(g78
g59
NtRp745
(dp746
g62
(dp747
sg71
g733
sg64
(lp748
g57
(g58
g59
NtRp749
(dp750
g62
(dp751
g70
I3
ssg71
g745
sg64
(lp752
S''
asbasbasbag57
(g73
g59
NtRp753
(dp754
g62
(dp755
sg71
g649
sg64
(lp756
g57
(g78
g59
NtRp757
(dp758
g62
(dp759
g82
g83
ssg71
g753
sg64
(lp760
g388
asbag57
(g78
g59
NtRp761
(dp762
g62
(dp763
g89
g90
ssg71
g753
sg64
(lp764
S':'
asbag57
(g78
g59
NtRp765
(dp766
g62
(dp767
sg71
g753
sg64
(lp768
g57
(g58
g59
NtRp769
(dp770
g62
(dp771
g70
I3
ssg71
g765
sg64
(lp772
S''
asbasbasbag57
(g73
g59
NtRp773
(dp774
g62
(dp775
sg71
g649
sg64
(lp776
g57
(g78
g59
NtRp777
(dp778
g62
(dp779
g82
g83
ssg71
g773
sg64
(lp780
g409
asbag57
(g78
g59
NtRp781
(dp782
g62
(dp783
g89
g90
ssg71
g773
sg64
(lp784
S':'
asbag57
(g78
g59
NtRp785
(dp786
g62
(dp787
sg71
g773
sg64
(lp788
g57
(g58
g59
NtRp789
(dp790
g62
(dp791
g70
I3
ssg71
g785
sg64
(lp792
S''
asbasbasbag57
(g73
g59
NtRp793
(dp794
g62
(dp795
sg71
g649
sg64
(lp796
g57
(g78
g59
NtRp797
(dp798
g62
(dp799
g82
g83
ssg71
g793
sg64
(lp800
g430
asbag57
(g78
g59
NtRp801
(dp802
g62
(dp803
g89
g90
ssg71
g793
sg64
(lp804
S':'
asbag57
(g78
g59
NtRp805
(dp806
g62
(dp807
sg71
g793
sg64
(lp808
g57
(g58
g59
NtRp809
(dp810
g62
(dp811
g70
I3
ssg71
g805
sg64
(lp812
S''
asbasbasbasbasbasbasbasbasbasbasbag57
(g73
g59
NtRp813
(dp814
g62
(dp815
sg71
g67
sg64
(lp816
g57
(g78
g59
NtRp817
(dp818
g62
(dp819
g82
g83
ssg71
g813
sg64
(lp820
S'env'
p821
asbag57
(g78
g59
NtRp822
(dp823
g62
(dp824
g89
g90
ssg71
g813
sg64
(lp825
S':'
asbag57
(g78
g59
NtRp826
(dp827
g62
(dp828
sg71
g813
sg64
(lp829
g57
(g58
g59
NtRp830
(dp831
g62
(dp832
g70
I5
ssg71
g826
sg64
(lp833
g57
(g66
g59
NtRp834
(dp835
g62
(dp836
g70
I4
ssg71
Nsg64
(lp837
g57
(g73
g59
NtRp838
(dp839
g62
(dp840
sg71
g834
sg64
(lp841
g57
(g78
g59
NtRp842
(dp843
g62
(dp844
g82
g83
ssg71
g838
sg64
(lp845
S'app_folders'
p846
asbag57
(g78
g59
NtRp847
(dp848
g62
(dp849
g89
g90
ssg71
g838
sg64
(lp850
S':'
asbag57
(g78
g59
NtRp851
(dp852
g62
(dp853
sg71
g838
sg64
(lp854
g57
(g58
g59
NtRp855
(dp856
g62
(dp857
g70
I4
ssg71
g851
sg64
(lp858
S"set(['C:\\\\Users\\\\mellinja\\\\Documents\\\\SC2Tracker\\\\SC2TourneyTracker\\\\web2py\\\\applications\\\\welcome\\\\', 'C:\\\\Users\\\\mellinja\\\\Documents\\\\SC2Tracker\\\\SC2TourneyTracker\\\\web2py\\\\applications\\\\admin\\\\', 'C:\\\\Users\\\\mellinja\\\\Documents\\\\SC2Tracker\\\\SC2TourneyTracker\\\\web2py\\\\applications\\\\examples\\\\'])"
p859
asbasbasbag57
(g73
g59
NtRp860
(dp861
g62
(dp862
sg71
g834
sg64
(lp863
g57
(g78
g59
NtRp864
(dp865
g62
(dp866
g82
g83
ssg71
g860
sg64
(lp867
S'applications_parent'
p868
asbag57
(g78
g59
NtRp869
(dp870
g62
(dp871
g89
g90
ssg71
g860
sg64
(lp872
S':'
asbag57
(g78
g59
NtRp873
(dp874
g62
(dp875
sg71
g860
sg64
(lp876
g57
(g58
g59
NtRp877
(dp878
g62
(dp879
g70
I4
ssg71
g873
sg64
(lp880
S'C:\\Users\\mellinja\\Documents\\SC2Tracker\\SC2TourneyTracker\\web2py'
p881
asbasbasbag57
(g73
g59
NtRp882
(dp883
g62
(dp884
sg71
g834
sg64
(lp885
g57
(g78
g59
NtRp886
(dp887
g62
(dp888
g82
g83
ssg71
g882
sg64
(lp889
S'cmd_args'
p890
asbag57
(g78
g59
NtRp891
(dp892
g62
(dp893
g89
g90
ssg71
g882
sg64
(lp894
S':'
asbag57
(g78
g59
NtRp895
(dp896
g62
(dp897
sg71
g882
sg64
(lp898
g57
(g58
g59
NtRp899
(dp900
g62
(dp901
g70
I4
ssg71
g895
sg64
(lp902
g57
(g66
g59
NtRp903
(dp904
g62
(dp905
g70
I3
ssg71
Nsg64
(lp906
sbasbasbasbag57
(g73
g59
NtRp907
(dp908
g62
(dp909
sg71
g834
sg64
(lp910
g57
(g78
g59
NtRp911
(dp912
g62
(dp913
g82
g83
ssg71
g907
sg64
(lp914
S'cmd_options'
p915
asbag57
(g78
g59
NtRp916
(dp917
g62
(dp918
g89
g90
ssg71
g907
sg64
(lp919
S':'
asbag57
(g78
g59
NtRp920
(dp921
g62
(dp922
sg71
g907
sg64
(lp923
g57
(g58
g59
NtRp924
(dp925
g62
(dp926
g70
I4
ssg71
g920
sg64
(lp927
S"<Values at 0x35ed5c8: {'verbose': False, 'ip': '127.0.0.1', 'shutdown_timeout': 5, 'taskbar': False, 'nocron': False, 'pid_filename': 'httpserver.pid', 'maxthreads': None, 'softcron': False, 'server_name': 'mellinja-PC', 'bpython': False, 'nogui': False, 'port': 8000, 'extcron': False, 'debuglevel': 30, 'test': None, 'folder': 'C:\\\\Users\\\\mellinja\\\\Documents\\\\SC2Tracker\\\\SC2TourneyTracker\\\\web2py', 'config': '', 'import_models': False, 'winservice': '', 'shell': None, 'run': '', 'log_filename': 'httpserver.log', 'args': [''], 'socket_timeout': 1, 'ssl_ca_certificate': None, 'scheduler': None, 'profiler_filename': None, 'ssl_private_key': '', 'password': '<ask>', 'request_queue_size': 5, 'ssl_certificate': '', 'cronjob': False, 'numthreads': None, 'quiet': False, 'interfaces': None, 'minthreads': None, 'timeout': 10, 'plain': False, 'nobanner': False}>"
p928
asbasbasbag57
(g73
g59
NtRp929
(dp930
g62
(dp931
sg71
g834
sg64
(lp932
g57
(g78
g59
NtRp933
(dp934
g62
(dp935
g82
g83
ssg71
g929
sg64
(lp936
S'db_sessions'
p937
asbag57
(g78
g59
NtRp938
(dp939
g62
(dp940
g89
g90
ssg71
g929
sg64
(lp941
S':'
asbag57
(g78
g59
NtRp942
(dp943
g62
(dp944
sg71
g929
sg64
(lp945
g57
(g58
g59
NtRp946
(dp947
g62
(dp948
g70
I4
ssg71
g942
sg64
(lp949
S'set([])'
p950
asbasbasbag57
(g73
g59
NtRp951
(dp952
g62
(dp953
sg71
g834
sg64
(lp954
g57
(g78
g59
NtRp955
(dp956
g62
(dp957
g82
g83
ssg71
g951
sg64
(lp958
S'debugging'
p959
asbag57
(g78
g59
NtRp960
(dp961
g62
(dp962
g89
g90
ssg71
g951
sg64
(lp963
S':'
asbag57
(g78
g59
NtRp964
(dp965
g62
(dp966
sg71
g951
sg64
(lp967
g57
(g58
g59
NtRp968
(dp969
g62
(dp970
g70
I4
ssg71
g964
sg64
(lp971
g100
asbasbasbag57
(g73
g59
NtRp972
(dp973
g62
(dp974
sg71
g834
sg64
(lp975
g57
(g78
g59
NtRp976
(dp977
g62
(dp978
g82
g83
ssg71
g972
sg64
(lp979
S'gluon_parent'
p980
asbag57
(g78
g59
NtRp981
(dp982
g62
(dp983
g89
g90
ssg71
g972
sg64
(lp984
S':'
asbag57
(g78
g59
NtRp985
(dp986
g62
(dp987
sg71
g972
sg64
(lp988
g57
(g58
g59
NtRp989
(dp990
g62
(dp991
g70
I4
ssg71
g985
sg64
(lp992
S'C:\\Users\\mellinja\\Documents\\SC2Tracker\\SC2TourneyTracker\\web2py'
p993
asbasbasbag57
(g73
g59
NtRp994
(dp995
g62
(dp996
sg71
g834
sg64
(lp997
g57
(g78
g59
NtRp998
(dp999
g62
(dp1000
g82
g83
ssg71
g994
sg64
(lp1001
S'http_accept'
p1002
asbag57
(g78
g59
NtRp1003
(dp1004
g62
(dp1005
g89
g90
ssg71
g994
sg64
(lp1006
S':'
asbag57
(g78
g59
NtRp1007
(dp1008
g62
(dp1009
sg71
g994
sg64
(lp1010
g57
(g58
g59
NtRp1011
(dp1012
g62
(dp1013
g70
I4
ssg71
g1007
sg64
(lp1014
S'text/html,application/xhtml+xml,application/xml;q=0.9,*/*;q=0.8'
p1015
asbasbasbag57
(g73
g59
NtRp1016
(dp1017
g62
(dp1018
sg71
g834
sg64
(lp1019
g57
(g78
g59
NtRp1020
(dp1021
g62
(dp1022
g82
g83
ssg71
g1016
sg64
(lp1023
S'http_accept_charset'
p1024
asbag57
(g78
g59
NtRp1025
(dp1026
g62
(dp1027
g89
g90
ssg71
g1016
sg64
(lp1028
S':'
asbag57
(g78
g59
NtRp1029
(dp1030
g62
(dp1031
sg71
g1016
sg64
(lp1032
g57
(g58
g59
NtRp1033
(dp1034
g62
(dp1035
g70
I4
ssg71
g1029
sg64
(lp1036
S'ISO-8859-1,utf-8;q=0.7,*;q=0.3'
p1037
asbasbasbag57
(g73
g59
NtRp1038
(dp1039
g62
(dp1040
sg71
g834
sg64
(lp1041
g57
(g78
g59
NtRp1042
(dp1043
g62
(dp1044
g82
g83
ssg71
g1038
sg64
(lp1045
S'http_accept_encoding'
p1046
asbag57
(g78
g59
NtRp1047
(dp1048
g62
(dp1049
g89
g90
ssg71
g1038
sg64
(lp1050
S':'
asbag57
(g78
g59
NtRp1051
(dp1052
g62
(dp1053
sg71
g1038
sg64
(lp1054
g57
(g58
g59
NtRp1055
(dp1056
g62
(dp1057
g70
I4
ssg71
g1051
sg64
(lp1058
S'gzip,deflate,sdch'
p1059
asbasbasbag57
(g73
g59
NtRp1060
(dp1061
g62
(dp1062
sg71
g834
sg64
(lp1063
g57
(g78
g59
NtRp1064
(dp1065
g62
(dp1066
g82
g83
ssg71
g1060
sg64
(lp1067
S'http_accept_language'
p1068
asbag57
(g78
g59
NtRp1069
(dp1070
g62
(dp1071
g89
g90
ssg71
g1060
sg64
(lp1072
S':'
asbag57
(g78
g59
NtRp1073
(dp1074
g62
(dp1075
sg71
g1060
sg64
(lp1076
g57
(g58
g59
NtRp1077
(dp1078
g62
(dp1079
g70
I4
ssg71
g1073
sg64
(lp1080
S'en-US,en;q=0.8'
p1081
asbasbasbag57
(g73
g59
NtRp1082
(dp1083
g62
(dp1084
sg71
g834
sg64
(lp1085
g57
(g78
g59
NtRp1086
(dp1087
g62
(dp1088
g82
g83
ssg71
g1082
sg64
(lp1089
S'http_cache_control'
p1090
asbag57
(g78
g59
NtRp1091
(dp1092
g62
(dp1093
g89
g90
ssg71
g1082
sg64
(lp1094
S':'
asbag57
(g78
g59
NtRp1095
(dp1096
g62
(dp1097
sg71
g1082
sg64
(lp1098
g57
(g58
g59
NtRp1099
(dp1100
g62
(dp1101
g70
I4
ssg71
g1095
sg64
(lp1102
S'max-age=0'
p1103
asbasbasbag57
(g73
g59
NtRp1104
(dp1105
g62
(dp1106
sg71
g834
sg64
(lp1107
g57
(g78
g59
NtRp1108
(dp1109
g62
(dp1110
g82
g83
ssg71
g1104
sg64
(lp1111
S'http_connection'
p1112
asbag57
(g78
g59
NtRp1113
(dp1114
g62
(dp1115
g89
g90
ssg71
g1104
sg64
(lp1116
S':'
asbag57
(g78
g59
NtRp1117
(dp1118
g62
(dp1119
sg71
g1104
sg64
(lp1120
g57
(g58
g59
NtRp1121
(dp1122
g62
(dp1123
g70
I4
ssg71
g1117
sg64
(lp1124
S'keep-alive'
p1125
asbasbasbag57
(g73
g59
NtRp1126
(dp1127
g62
(dp1128
sg71
g834
sg64
(lp1129
g57
(g78
g59
NtRp1130
(dp1131
g62
(dp1132
g82
g83
ssg71
g1126
sg64
(lp1133
S'http_cookie'
p1134
asbag57
(g78
g59
NtRp1135
(dp1136
g62
(dp1137
g89
g90
ssg71
g1126
sg64
(lp1138
S':'
asbag57
(g78
g59
NtRp1139
(dp1140
g62
(dp1141
sg71
g1126
sg64
(lp1142
g57
(g58
g59
NtRp1143
(dp1144
g62
(dp1145
g70
I4
ssg71
g1139
sg64
(lp1146
S'session_id_examples=127.0.0.1-9e881dcd-95ac-4a4e-bf37-4ac0954cf6e0; session_id_welcome=127.0.0.1-5b61f96d-52a5-4e52-805f-552fe78bcf40; session_id_admin=127.0.0.1-d85497cf-ea1f-4eff-b6f9-b725bf1f6ac9'
p1147
asbasbasbag57
(g73
g59
NtRp1148
(dp1149
g62
(dp1150
sg71
g834
sg64
(lp1151
g57
(g78
g59
NtRp1152
(dp1153
g62
(dp1154
g82
g83
ssg71
g1148
sg64
(lp1155
S'http_host'
p1156
asbag57
(g78
g59
NtRp1157
(dp1158
g62
(dp1159
g89
g90
ssg71
g1148
sg64
(lp1160
S':'
asbag57
(g78
g59
NtRp1161
(dp1162
g62
(dp1163
sg71
g1148
sg64
(lp1164
g57
(g58
g59
NtRp1165
(dp1166
g62
(dp1167
g70
I4
ssg71
g1161
sg64
(lp1168
S'127.0.0.1:8000'
p1169
asbasbasbag57
(g73
g59
NtRp1170
(dp1171
g62
(dp1172
sg71
g834
sg64
(lp1173
g57
(g78
g59
NtRp1174
(dp1175
g62
(dp1176
g82
g83
ssg71
g1170
sg64
(lp1177
S'http_user_agent'
p1178
asbag57
(g78
g59
NtRp1179
(dp1180
g62
(dp1181
g89
g90
ssg71
g1170
sg64
(lp1182
S':'
asbag57
(g78
g59
NtRp1183
(dp1184
g62
(dp1185
sg71
g1170
sg64
(lp1186
g57
(g58
g59
NtRp1187
(dp1188
g62
(dp1189
g70
I4
ssg71
g1183
sg64
(lp1190
S'Mozilla/5.0 (Windows NT 6.1; WOW64) AppleWebKit/535.7 (KHTML, like Gecko) Chrome/16.0.912.77 Safari/535.7'
p1191
asbasbasbag57
(g73
g59
NtRp1192
(dp1193
g62
(dp1194
sg71
g834
sg64
(lp1195
g57
(g78
g59
NtRp1196
(dp1197
g62
(dp1198
g82
g83
ssg71
g1192
sg64
(lp1199
S'is_jython'
p1200
asbag57
(g78
g59
NtRp1201
(dp1202
g62
(dp1203
g89
g90
ssg71
g1192
sg64
(lp1204
S':'
asbag57
(g78
g59
NtRp1205
(dp1206
g62
(dp1207
sg71
g1192
sg64
(lp1208
g57
(g58
g59
NtRp1209
(dp1210
g62
(dp1211
g70
I4
ssg71
g1205
sg64
(lp1212
g100
asbasbasbag57
(g73
g59
NtRp1213
(dp1214
g62
(dp1215
sg71
g834
sg64
(lp1216
g57
(g78
g59
NtRp1217
(dp1218
g62
(dp1219
g82
g83
ssg71
g1213
sg64
(lp1220
S'is_pypy'
p1221
asbag57
(g78
g59
NtRp1222
(dp1223
g62
(dp1224
g89
g90
ssg71
g1213
sg64
(lp1225
S':'
asbag57
(g78
g59
NtRp1226
(dp1227
g62
(dp1228
sg71
g1213
sg64
(lp1229
g57
(g58
g59
NtRp1230
(dp1231
g62
(dp1232
g70
I4
ssg71
g1226
sg64
(lp1233
g100
asbasbasbag57
(g73
g59
NtRp1234
(dp1235
g62
(dp1236
sg71
g834
sg64
(lp1237
g57
(g78
g59
NtRp1238
(dp1239
g62
(dp1240
g82
g83
ssg71
g1234
sg64
(lp1241
S'path_info'
p1242
asbag57
(g78
g59
NtRp1243
(dp1244
g62
(dp1245
g89
g90
ssg71
g1234
sg64
(lp1246
S':'
asbag57
(g78
g59
NtRp1247
(dp1248
g62
(dp1249
sg71
g1234
sg64
(lp1250
g57
(g58
g59
NtRp1251
(dp1252
g62
(dp1253
g70
I4
ssg71
g1247
sg64
(lp1254
S'/welcome/tournament/show/7'
p1255
asbasbasbag57
(g73
g59
NtRp1256
(dp1257
g62
(dp1258
sg71
g834
sg64
(lp1259
g57
(g78
g59
NtRp1260
(dp1261
g62
(dp1262
g82
g83
ssg71
g1256
sg64
(lp1263
S'query_string'
p1264
asbag57
(g78
g59
NtRp1265
(dp1266
g62
(dp1267
g89
g90
ssg71
g1256
sg64
(lp1268
S':'
asbag57
(g78
g59
NtRp1269
(dp1270
g62
(dp1271
sg71
g1256
sg64
(lp1272
g57
(g58
g59
NtRp1273
(dp1274
g62
(dp1275
g70
I4
ssg71
g1269
sg64
(lp1276
S''
asbasbasbag57
(g73
g59
NtRp1277
(dp1278
g62
(dp1279
sg71
g834
sg64
(lp1280
g57
(g78
g59
NtRp1281
(dp1282
g62
(dp1283
g82
g83
ssg71
g1277
sg64
(lp1284
S'remote_addr'
p1285
asbag57
(g78
g59
NtRp1286
(dp1287
g62
(dp1288
g89
g90
ssg71
g1277
sg64
(lp1289
S':'
asbag57
(g78
g59
NtRp1290
(dp1291
g62
(dp1292
sg71
g1277
sg64
(lp1293
g57
(g58
g59
NtRp1294
(dp1295
g62
(dp1296
g70
I4
ssg71
g1290
sg64
(lp1297
g202
asbasbasbag57
(g73
g59
NtRp1298
(dp1299
g62
(dp1300
sg71
g834
sg64
(lp1301
g57
(g78
g59
NtRp1302
(dp1303
g62
(dp1304
g82
g83
ssg71
g1298
sg64
(lp1305
S'remote_port'
p1306
asbag57
(g78
g59
NtRp1307
(dp1308
g62
(dp1309
g89
g90
ssg71
g1298
sg64
(lp1310
S':'
asbag57
(g78
g59
NtRp1311
(dp1312
g62
(dp1313
sg71
g1298
sg64
(lp1314
g57
(g58
g59
NtRp1315
(dp1316
g62
(dp1317
g70
I4
ssg71
g1311
sg64
(lp1318
S'54882'
p1319
asbasbasbag57
(g73
g59
NtRp1320
(dp1321
g62
(dp1322
sg71
g834
sg64
(lp1323
g57
(g78
g59
NtRp1324
(dp1325
g62
(dp1326
g82
g83
ssg71
g1320
sg64
(lp1327
S'request_method'
p1328
asbag57
(g78
g59
NtRp1329
(dp1330
g62
(dp1331
g89
g90
ssg71
g1320
sg64
(lp1332
S':'
asbag57
(g78
g59
NtRp1333
(dp1334
g62
(dp1335
sg71
g1320
sg64
(lp1336
g57
(g58
g59
NtRp1337
(dp1338
g62
(dp1339
g70
I4
ssg71
g1333
sg64
(lp1340
S'GET'
p1341
asbasbasbag57
(g73
g59
NtRp1342
(dp1343
g62
(dp1344
sg71
g834
sg64
(lp1345
g57
(g78
g59
NtRp1346
(dp1347
g62
(dp1348
g82
g83
ssg71
g1342
sg64
(lp1349
S'script_name'
p1350
asbag57
(g78
g59
NtRp1351
(dp1352
g62
(dp1353
g89
g90
ssg71
g1342
sg64
(lp1354
S':'
asbag57
(g78
g59
NtRp1355
(dp1356
g62
(dp1357
sg71
g1342
sg64
(lp1358
g57
(g58
g59
NtRp1359
(dp1360
g62
(dp1361
g70
I4
ssg71
g1355
sg64
(lp1362
S''
asbasbasbag57
(g73
g59
NtRp1363
(dp1364
g62
(dp1365
sg71
g834
sg64
(lp1366
g57
(g78
g59
NtRp1367
(dp1368
g62
(dp1369
g82
g83
ssg71
g1363
sg64
(lp1370
S'server_name'
p1371
asbag57
(g78
g59
NtRp1372
(dp1373
g62
(dp1374
g89
g90
ssg71
g1363
sg64
(lp1375
S':'
asbag57
(g78
g59
NtRp1376
(dp1377
g62
(dp1378
sg71
g1363
sg64
(lp1379
g57
(g58
g59
NtRp1380
(dp1381
g62
(dp1382
g70
I4
ssg71
g1376
sg64
(lp1383
S'mellinja-PC'
p1384
asbasbasbag57
(g73
g59
NtRp1385
(dp1386
g62
(dp1387
sg71
g834
sg64
(lp1388
g57
(g78
g59
NtRp1389
(dp1390
g62
(dp1391
g82
g83
ssg71
g1385
sg64
(lp1392
S'server_port'
p1393
asbag57
(g78
g59
NtRp1394
(dp1395
g62
(dp1396
g89
g90
ssg71
g1385
sg64
(lp1397
S':'
asbag57
(g78
g59
NtRp1398
(dp1399
g62
(dp1400
sg71
g1385
sg64
(lp1401
g57
(g58
g59
NtRp1402
(dp1403
g62
(dp1404
g70
I4
ssg71
g1398
sg64
(lp1405
S'8000'
p1406
asbasbasbag57
(g73
g59
NtRp1407
(dp1408
g62
(dp1409
sg71
g834
sg64
(lp1410
g57
(g78
g59
NtRp1411
(dp1412
g62
(dp1413
g82
g83
ssg71
g1407
sg64
(lp1414
S'server_protocol'
p1415
asbag57
(g78
g59
NtRp1416
(dp1417
g62
(dp1418
g89
g90
ssg71
g1407
sg64
(lp1419
S':'
asbag57
(g78
g59
NtRp1420
(dp1421
g62
(dp1422
sg71
g1407
sg64
(lp1423
g57
(g58
g59
NtRp1424
(dp1425
g62
(dp1426
g70
I4
ssg71
g1420
sg64
(lp1427
S'HTTP/1.1'
p1428
asbasbasbag57
(g73
g59
NtRp1429
(dp1430
g62
(dp1431
sg71
g834
sg64
(lp1432
g57
(g78
g59
NtRp1433
(dp1434
g62
(dp1435
g82
g83
ssg71
g1429
sg64
(lp1436
S'server_software'
p1437
asbag57
(g78
g59
NtRp1438
(dp1439
g62
(dp1440
g89
g90
ssg71
g1429
sg64
(lp1441
S':'
asbag57
(g78
g59
NtRp1442
(dp1443
g62
(dp1444
sg71
g1429
sg64
(lp1445
g57
(g58
g59
NtRp1446
(dp1447
g62
(dp1448
g70
I4
ssg71
g1442
sg64
(lp1449
S'Rocket 1.2.4'
p1450
asbasbasbag57
(g73
g59
NtRp1451
(dp1452
g62
(dp1453
sg71
g834
sg64
(lp1454
g57
(g78
g59
NtRp1455
(dp1456
g62
(dp1457
g82
g83
ssg71
g1451
sg64
(lp1458
S'web2py_crontype'
p1459
asbag57
(g78
g59
NtRp1460
(dp1461
g62
(dp1462
g89
g90
ssg71
g1451
sg64
(lp1463
S':'
asbag57
(g78
g59
NtRp1464
(dp1465
g62
(dp1466
sg71
g1451
sg64
(lp1467
g57
(g58
g59
NtRp1468
(dp1469
g62
(dp1470
g70
I4
ssg71
g1464
sg64
(lp1471
S'hard'
p1472
asbasbasbag57
(g73
g59
NtRp1473
(dp1474
g62
(dp1475
sg71
g834
sg64
(lp1476
g57
(g78
g59
NtRp1477
(dp1478
g62
(dp1479
g82
g83
ssg71
g1473
sg64
(lp1480
S'web2py_path'
p1481
asbag57
(g78
g59
NtRp1482
(dp1483
g62
(dp1484
g89
g90
ssg71
g1473
sg64
(lp1485
S':'
asbag57
(g78
g59
NtRp1486
(dp1487
g62
(dp1488
sg71
g1473
sg64
(lp1489
g57
(g58
g59
NtRp1490
(dp1491
g62
(dp1492
g70
I4
ssg71
g1486
sg64
(lp1493
g881
asbasbasbag57
(g73
g59
NtRp1494
(dp1495
g62
(dp1496
sg71
g834
sg64
(lp1497
g57
(g78
g59
NtRp1498
(dp1499
g62
(dp1500
g82
g83
ssg71
g1494
sg64
(lp1501
S'web2py_version'
p1502
asbag57
(g78
g59
NtRp1503
(dp1504
g62
(dp1505
g89
g90
ssg71
g1494
sg64
(lp1506
S':'
asbag57
(g78
g59
NtRp1507
(dp1508
g62
(dp1509
sg71
g1494
sg64
(lp1510
g57
(g58
g59
NtRp1511
(dp1512
g62
(dp1513
g70
I4
ssg71
g1507
sg64
(lp1514
g57
(g66
g59
NtRp1515
(dp1516
g62
(dp1517
g70
I3
ssg71
Nsg64
(lp1518
g57
(g73
g59
NtRp1519
(dp1520
g62
(dp1521
sg71
g1515
sg64
(lp1522
g57
(g78
g59
NtRp1523
(dp1524
g62
(dp1525
sg71
g1519
sg64
(lp1526
g57
(g58
g59
NtRp1527
(dp1528
g62
(dp1529
g70
I3
ssg71
g1523
sg64
(lp1530
S'1'
asbasbasbag57
(g73
g59
NtRp1531
(dp1532
g62
(dp1533
sg71
g1515
sg64
(lp1534
g57
(g78
g59
NtRp1535
(dp1536
g62
(dp1537
sg71
g1531
sg64
(lp1538
g57
(g58
g59
NtRp1539
(dp1540
g62
(dp1541
g70
I3
ssg71
g1535
sg64
(lp1542
S'99'
p1543
asbasbasbag57
(g73
g59
NtRp1544
(dp1545
g62
(dp1546
sg71
g1515
sg64
(lp1547
g57
(g78
g59
NtRp1548
(dp1549
g62
(dp1550
sg71
g1544
sg64
(lp1551
g57
(g58
g59
NtRp1552
(dp1553
g62
(dp1554
g70
I3
ssg71
g1548
sg64
(lp1555
S'4'
asbasbasbag57
(g73
g59
NtRp1556
(dp1557
g62
(dp1558
sg71
g1515
sg64
(lp1559
g57
(g78
g59
NtRp1560
(dp1561
g62
(dp1562
sg71
g1556
sg64
(lp1563
g57
(g58
g59
NtRp1564
(dp1565
g62
(dp1566
g70
I3
ssg71
g1560
sg64
(lp1567
S'datetime.datetime(2011, 12, 14, 14, 46, 14)'
p1568
asbasbasbag57
(g73
g59
NtRp1569
(dp1570
g62
(dp1571
sg71
g1515
sg64
(lp1572
g57
(g78
g59
NtRp1573
(dp1574
g62
(dp1575
sg71
g1569
sg64
(lp1576
g57
(g58
g59
NtRp1577
(dp1578
g62
(dp1579
g70
I3
ssg71
g1573
sg64
(lp1580
S'stable'
p1581
asbasbasbasbasbasbasbag57
(g73
g59
NtRp1582
(dp1583
g62
(dp1584
sg71
g834
sg64
(lp1585
g57
(g78
g59
NtRp1586
(dp1587
g62
(dp1588
g82
g83
ssg71
g1582
sg64
(lp1589
S'wsgi_errors'
p1590
asbag57
(g78
g59
NtRp1591
(dp1592
g62
(dp1593
g89
g90
ssg71
g1582
sg64
(lp1594
S':'
asbag57
(g78
g59
NtRp1595
(dp1596
g62
(dp1597
sg71
g1582
sg64
(lp1598
g57
(g58
g59
NtRp1599
(dp1600
g62
(dp1601
g70
I4
ssg71
g1595
sg64
(lp1602
S"<open file '<stderr>', mode 'w' at 0x0000000001E261E0>"
p1603
asbasbasbag57
(g73
g59
NtRp1604
(dp1605
g62
(dp1606
sg71
g834
sg64
(lp1607
g57
(g78
g59
NtRp1608
(dp1609
g62
(dp1610
g82
g83
ssg71
g1604
sg64
(lp1611
S'wsgi_file_wrapper'
p1612
asbag57
(g78
g59
NtRp1613
(dp1614
g62
(dp1615
g89
g90
ssg71
g1604
sg64
(lp1616
S':'
asbag57
(g78
g59
NtRp1617
(dp1618
g62
(dp1619
sg71
g1604
sg64
(lp1620
g57
(g58
g59
NtRp1621
(dp1622
g62
(dp1623
g70
I4
ssg71
g1617
sg64
(lp1624
S'<class wsgiref.util.FileWrapper at 0x00000000034DD828>'
p1625
asbasbasbag57
(g73
g59
NtRp1626
(dp1627
g62
(dp1628
sg71
g834
sg64
(lp1629
g57
(g78
g59
NtRp1630
(dp1631
g62
(dp1632
g82
g83
ssg71
g1626
sg64
(lp1633
S'wsgi_input'
p1634
asbag57
(g78
g59
NtRp1635
(dp1636
g62
(dp1637
g89
g90
ssg71
g1626
sg64
(lp1638
S':'
asbag57
(g78
g59
NtRp1639
(dp1640
g62
(dp1641
sg71
g1626
sg64
(lp1642
g57
(g58
g59
NtRp1643
(dp1644
g62
(dp1645
g70
I4
ssg71
g1639
sg64
(lp1646
S'<socket._fileobject object at 0x0000000007ADB840>'
p1647
asbasbasbag57
(g73
g59
NtRp1648
(dp1649
g62
(dp1650
sg71
g834
sg64
(lp1651
g57
(g78
g59
NtRp1652
(dp1653
g62
(dp1654
g82
g83
ssg71
g1648
sg64
(lp1655
S'wsgi_multiprocess'
p1656
asbag57
(g78
g59
NtRp1657
(dp1658
g62
(dp1659
g89
g90
ssg71
g1648
sg64
(lp1660
S':'
asbag57
(g78
g59
NtRp1661
(dp1662
g62
(dp1663
sg71
g1648
sg64
(lp1664
g57
(g58
g59
NtRp1665
(dp1666
g62
(dp1667
g70
I4
ssg71
g1661
sg64
(lp1668
g100
asbasbasbag57
(g73
g59
NtRp1669
(dp1670
g62
(dp1671
sg71
g834
sg64
(lp1672
g57
(g78
g59
NtRp1673
(dp1674
g62
(dp1675
g82
g83
ssg71
g1669
sg64
(lp1676
S'wsgi_multithread'
p1677
asbag57
(g78
g59
NtRp1678
(dp1679
g62
(dp1680
g89
g90
ssg71
g1669
sg64
(lp1681
S':'
asbag57
(g78
g59
NtRp1682
(dp1683
g62
(dp1684
sg71
g1669
sg64
(lp1685
g57
(g58
g59
NtRp1686
(dp1687
g62
(dp1688
g70
I4
ssg71
g1682
sg64
(lp1689
S'True'
p1690
asbasbasbag57
(g73
g59
NtRp1691
(dp1692
g62
(dp1693
sg71
g834
sg64
(lp1694
g57
(g78
g59
NtRp1695
(dp1696
g62
(dp1697
g82
g83
ssg71
g1691
sg64
(lp1698
S'wsgi_run_once'
p1699
asbag57
(g78
g59
NtRp1700
(dp1701
g62
(dp1702
g89
g90
ssg71
g1691
sg64
(lp1703
S':'
asbag57
(g78
g59
NtRp1704
(dp1705
g62
(dp1706
sg71
g1691
sg64
(lp1707
g57
(g58
g59
NtRp1708
(dp1709
g62
(dp1710
g70
I4
ssg71
g1704
sg64
(lp1711
g100
asbasbasbag57
(g73
g59
NtRp1712
(dp1713
g62
(dp1714
sg71
g834
sg64
(lp1715
g57
(g78
g59
NtRp1716
(dp1717
g62
(dp1718
g82
g83
ssg71
g1712
sg64
(lp1719
S'wsgi_url_scheme'
p1720
asbag57
(g78
g59
NtRp1721
(dp1722
g62
(dp1723
g89
g90
ssg71
g1712
sg64
(lp1724
S':'
asbag57
(g78
g59
NtRp1725
(dp1726
g62
(dp1727
sg71
g1712
sg64
(lp1728
g57
(g58
g59
NtRp1729
(dp1730
g62
(dp1731
g70
I4
ssg71
g1725
sg64
(lp1732
S'http'
p1733
asbasbasbag57
(g73
g59
NtRp1734
(dp1735
g62
(dp1736
sg71
g834
sg64
(lp1737
g57
(g78
g59
NtRp1738
(dp1739
g62
(dp1740
g82
g83
ssg71
g1734
sg64
(lp1741
S'wsgi_version'
p1742
asbag57
(g78
g59
NtRp1743
(dp1744
g62
(dp1745
g89
g90
ssg71
g1734
sg64
(lp1746
S':'
asbag57
(g78
g59
NtRp1747
(dp1748
g62
(dp1749
sg71
g1734
sg64
(lp1750
g57
(g58
g59
NtRp1751
(dp1752
g62
(dp1753
g70
I4
ssg71
g1747
sg64
(lp1754
g57
(g66
g59
NtRp1755
(dp1756
g62
(dp1757
g70
I3
ssg71
Nsg64
(lp1758
g57
(g73
g59
NtRp1759
(dp1760
g62
(dp1761
sg71
g1755
sg64
(lp1762
g57
(g78
g59
NtRp1763
(dp1764
g62
(dp1765
sg71
g1759
sg64
(lp1766
g57
(g58
g59
NtRp1767
(dp1768
g62
(dp1769
g70
I3
ssg71
g1763
sg64
(lp1770
S'1'
asbasbasbag57
(g73
g59
NtRp1771
(dp1772
g62
(dp1773
sg71
g1755
sg64
(lp1774
g57
(g78
g59
NtRp1775
(dp1776
g62
(dp1777
sg71
g1771
sg64
(lp1778
g57
(g58
g59
NtRp1779
(dp1780
g62
(dp1781
g70
I3
ssg71
g1775
sg64
(lp1782
S'0'
asbasbasbasbasbasbasbasbasbasbasbag57
(g73
g59
NtRp1783
(dp1784
g62
(dp1785
sg71
g67
sg64
(lp1786
g57
(g78
g59
NtRp1787
(dp1788
g62
(dp1789
g82
g83
ssg71
g1783
sg64
(lp1790
S'extension'
p1791
asbag57
(g78
g59
NtRp1792
(dp1793
g62
(dp1794
g89
g90
ssg71
g1783
sg64
(lp1795
S':'
asbag57
(g78
g59
NtRp1796
(dp1797
g62
(dp1798
sg71
g1783
sg64
(lp1799
g57
(g58
g59
NtRp1800
(dp1801
g62
(dp1802
g70
I5
ssg71
g1796
sg64
(lp1803
S'html'
p1804
asbasbasbag57
(g73
g59
NtRp1805
(dp1806
g62
(dp1807
sg71
g67
sg64
(lp1808
g57
(g78
g59
NtRp1809
(dp1810
g62
(dp1811
g82
g83
ssg71
g1805
sg64
(lp1812
S'folder'
p1813
asbag57
(g78
g59
NtRp1814
(dp1815
g62
(dp1816
g89
g90
ssg71
g1805
sg64
(lp1817
S':'
asbag57
(g78
g59
NtRp1818
(dp1819
g62
(dp1820
sg71
g1805
sg64
(lp1821
g57
(g58
g59
NtRp1822
(dp1823
g62
(dp1824
g70
I5
ssg71
g1818
sg64
(lp1825
S'C:\\Users\\mellinja\\Documents\\SC2Tracker\\SC2TourneyTracker\\web2py\\applications\\welcome\\'
p1826
asbasbasbag57
(g73
g59
NtRp1827
(dp1828
g62
(dp1829
sg71
g67
sg64
(lp1830
g57
(g78
g59
NtRp1831
(dp1832
g62
(dp1833
g82
g83
ssg71
g1827
sg64
(lp1834
S'function'
p1835
asbag57
(g78
g59
NtRp1836
(dp1837
g62
(dp1838
g89
g90
ssg71
g1827
sg64
(lp1839
S':'
asbag57
(g78
g59
NtRp1840
(dp1841
g62
(dp1842
sg71
g1827
sg64
(lp1843
g57
(g58
g59
NtRp1844
(dp1845
g62
(dp1846
g70
I5
ssg71
g1840
sg64
(lp1847
S'show'
p1848
asbasbasbag57
(g73
g59
NtRp1849
(dp1850
g62
(dp1851
sg71
g67
sg64
(lp1852
g57
(g78
g59
NtRp1853
(dp1854
g62
(dp1855
g82
g83
ssg71
g1849
sg64
(lp1856
S'get_vars'
p1857
asbag57
(g78
g59
NtRp1858
(dp1859
g62
(dp1860
g89
g90
ssg71
g1849
sg64
(lp1861
S':'
asbag57
(g78
g59
NtRp1862
(dp1863
g62
(dp1864
sg71
g1849
sg64
(lp1865
g57
(g58
g59
NtRp1866
(dp1867
g62
(dp1868
g70
I5
ssg71
g1862
sg64
(lp1869
g57
(g66
g59
NtRp1870
(dp1871
g62
(dp1872
g70
I4
ssg71
Nsg64
(lp1873
sbasbasbasbag57
(g73
g59
NtRp1874
(dp1875
g62
(dp1876
sg71
g67
sg64
(lp1877
g57
(g78
g59
NtRp1878
(dp1879
g62
(dp1880
g82
g83
ssg71
g1874
sg64
(lp1881
S'global_settings'
p1882
asbag57
(g78
g59
NtRp1883
(dp1884
g62
(dp1885
g89
g90
ssg71
g1874
sg64
(lp1886
S':'
asbag57
(g78
g59
NtRp1887
(dp1888
g62
(dp1889
sg71
g1874
sg64
(lp1890
g57
(g58
g59
NtRp1891
(dp1892
g62
(dp1893
g70
I5
ssg71
g1887
sg64
(lp1894
g57
(g66
g59
NtRp1895
(dp1896
g62
(dp1897
g70
I4
ssg71
Nsg64
(lp1898
g57
(g73
g59
NtRp1899
(dp1900
g62
(dp1901
sg71
g1895
sg64
(lp1902
g57
(g78
g59
NtRp1903
(dp1904
g62
(dp1905
g82
g83
ssg71
g1899
sg64
(lp1906
g846
asbag57
(g78
g59
NtRp1907
(dp1908
g62
(dp1909
g89
g90
ssg71
g1899
sg64
(lp1910
S':'
asbag57
(g78
g59
NtRp1911
(dp1912
g62
(dp1913
sg71
g1899
sg64
(lp1914
g57
(g58
g59
NtRp1915
(dp1916
g62
(dp1917
g70
I4
ssg71
g1911
sg64
(lp1918
S"set(['C:\\\\Users\\\\mellinja\\\\Documents\\\\SC2Tracker\\\\SC2TourneyTracker\\\\web2py\\\\applications\\\\welcome\\\\', 'C:\\\\Users\\\\mellinja\\\\Documents\\\\SC2Tracker\\\\SC2TourneyTracker\\\\web2py\\\\applications\\\\admin\\\\', 'C:\\\\Users\\\\mellinja\\\\Documents\\\\SC2Tracker\\\\SC2TourneyTracker\\\\web2py\\\\applications\\\\examples\\\\'])"
p1919
asbasbasbag57
(g73
g59
NtRp1920
(dp1921
g62
(dp1922
sg71
g1895
sg64
(lp1923
g57
(g78
g59
NtRp1924
(dp1925
g62
(dp1926
g82
g83
ssg71
g1920
sg64
(lp1927
g868
asbag57
(g78
g59
NtRp1928
(dp1929
g62
(dp1930
g89
g90
ssg71
g1920
sg64
(lp1931
S':'
asbag57
(g78
g59
NtRp1932
(dp1933
g62
(dp1934
sg71
g1920
sg64
(lp1935
g57
(g58
g59
NtRp1936
(dp1937
g62
(dp1938
g70
I4
ssg71
g1932
sg64
(lp1939
g881
asbasbasbag57
(g73
g59
NtRp1940
(dp1941
g62
(dp1942
sg71
g1895
sg64
(lp1943
g57
(g78
g59
NtRp1944
(dp1945
g62
(dp1946
g82
g83
ssg71
g1940
sg64
(lp1947
g890
asbag57
(g78
g59
NtRp1948
(dp1949
g62
(dp1950
g89
g90
ssg71
g1940
sg64
(lp1951
S':'
asbag57
(g78
g59
NtRp1952
(dp1953
g62
(dp1954
sg71
g1940
sg64
(lp1955
g57
(g58
g59
NtRp1956
(dp1957
g62
(dp1958
g70
I4
ssg71
g1952
sg64
(lp1959
g57
(g66
g59
NtRp1960
(dp1961
g62
(dp1962
g70
I3
ssg71
Nsg64
(lp1963
sbasbasbasbag57
(g73
g59
NtRp1964
(dp1965
g62
(dp1966
sg71
g1895
sg64
(lp1967
g57
(g78
g59
NtRp1968
(dp1969
g62
(dp1970
g82
g83
ssg71
g1964
sg64
(lp1971
g915
asbag57
(g78
g59
NtRp1972
(dp1973
g62
(dp1974
g89
g90
ssg71
g1964
sg64
(lp1975
S':'
asbag57
(g78
g59
NtRp1976
(dp1977
g62
(dp1978
sg71
g1964
sg64
(lp1979
g57
(g58
g59
NtRp1980
(dp1981
g62
(dp1982
g70
I4
ssg71
g1976
sg64
(lp1983
S"<Values at 0x35ed5c8: {'verbose': False, 'ip': '127.0.0.1', 'shutdown_timeout': 5, 'taskbar': False, 'nocron': False, 'pid_filename': 'httpserver.pid', 'maxthreads': None, 'softcron': False, 'server_name': 'mellinja-PC', 'bpython': False, 'nogui': False, 'port': 8000, 'extcron': False, 'debuglevel': 30, 'test': None, 'folder': 'C:\\\\Users\\\\mellinja\\\\Documents\\\\SC2Tracker\\\\SC2TourneyTracker\\\\web2py', 'config': '', 'import_models': False, 'winservice': '', 'shell': None, 'run': '', 'log_filename': 'httpserver.log', 'args': [''], 'socket_timeout': 1, 'ssl_ca_certificate': None, 'scheduler': None, 'profiler_filename': None, 'ssl_private_key': '', 'password': '<ask>', 'request_queue_size': 5, 'ssl_certificate': '', 'cronjob': False, 'numthreads': None, 'quiet': False, 'interfaces': None, 'minthreads': None, 'timeout': 10, 'plain': False, 'nobanner': False}>"
p1984
asbasbasbag57
(g73
g59
NtRp1985
(dp1986
g62
(dp1987
sg71
g1895
sg64
(lp1988
g57
(g78
g59
NtRp1989
(dp1990
g62
(dp1991
g82
g83
ssg71
g1985
sg64
(lp1992
g937
asbag57
(g78
g59
NtRp1993
(dp1994
g62
(dp1995
g89
g90
ssg71
g1985
sg64
(lp1996
S':'
asbag57
(g78
g59
NtRp1997
(dp1998
g62
(dp1999
sg71
g1985
sg64
(lp2000
g57
(g58
g59
NtRp2001
(dp2002
g62
(dp2003
g70
I4
ssg71
g1997
sg64
(lp2004
S'set([])'
p2005
asbasbasbag57
(g73
g59
NtRp2006
(dp2007
g62
(dp2008
sg71
g1895
sg64
(lp2009
g57
(g78
g59
NtRp2010
(dp2011
g62
(dp2012
g82
g83
ssg71
g2006
sg64
(lp2013
g959
asbag57
(g78
g59
NtRp2014
(dp2015
g62
(dp2016
g89
g90
ssg71
g2006
sg64
(lp2017
S':'
asbag57
(g78
g59
NtRp2018
(dp2019
g62
(dp2020
sg71
g2006
sg64
(lp2021
g57
(g58
g59
NtRp2022
(dp2023
g62
(dp2024
g70
I4
ssg71
g2018
sg64
(lp2025
g100
asbasbasbag57
(g73
g59
NtRp2026
(dp2027
g62
(dp2028
sg71
g1895
sg64
(lp2029
g57
(g78
g59
NtRp2030
(dp2031
g62
(dp2032
g82
g83
ssg71
g2026
sg64
(lp2033
g980
asbag57
(g78
g59
NtRp2034
(dp2035
g62
(dp2036
g89
g90
ssg71
g2026
sg64
(lp2037
S':'
asbag57
(g78
g59
NtRp2038
(dp2039
g62
(dp2040
sg71
g2026
sg64
(lp2041
g57
(g58
g59
NtRp2042
(dp2043
g62
(dp2044
g70
I4
ssg71
g2038
sg64
(lp2045
g993
asbasbasbag57
(g73
g59
NtRp2046
(dp2047
g62
(dp2048
sg71
g1895
sg64
(lp2049
g57
(g78
g59
NtRp2050
(dp2051
g62
(dp2052
g82
g83
ssg71
g2046
sg64
(lp2053
g1200
asbag57
(g78
g59
NtRp2054
(dp2055
g62
(dp2056
g89
g90
ssg71
g2046
sg64
(lp2057
S':'
asbag57
(g78
g59
NtRp2058
(dp2059
g62
(dp2060
sg71
g2046
sg64
(lp2061
g57
(g58
g59
NtRp2062
(dp2063
g62
(dp2064
g70
I4
ssg71
g2058
sg64
(lp2065
g100
asbasbasbag57
(g73
g59
NtRp2066
(dp2067
g62
(dp2068
sg71
g1895
sg64
(lp2069
g57
(g78
g59
NtRp2070
(dp2071
g62
(dp2072
g82
g83
ssg71
g2066
sg64
(lp2073
g1221
asbag57
(g78
g59
NtRp2074
(dp2075
g62
(dp2076
g89
g90
ssg71
g2066
sg64
(lp2077
S':'
asbag57
(g78
g59
NtRp2078
(dp2079
g62
(dp2080
sg71
g2066
sg64
(lp2081
g57
(g58
g59
NtRp2082
(dp2083
g62
(dp2084
g70
I4
ssg71
g2078
sg64
(lp2085
g100
asbasbasbag57
(g73
g59
NtRp2086
(dp2087
g62
(dp2088
sg71
g1895
sg64
(lp2089
g57
(g78
g59
NtRp2090
(dp2091
g62
(dp2092
g82
g83
ssg71
g2086
sg64
(lp2093
g1459
asbag57
(g78
g59
NtRp2094
(dp2095
g62
(dp2096
g89
g90
ssg71
g2086
sg64
(lp2097
S':'
asbag57
(g78
g59
NtRp2098
(dp2099
g62
(dp2100
sg71
g2086
sg64
(lp2101
g57
(g58
g59
NtRp2102
(dp2103
g62
(dp2104
g70
I4
ssg71
g2098
sg64
(lp2105
g1472
asbasbasbag57
(g73
g59
NtRp2106
(dp2107
g62
(dp2108
sg71
g1895
sg64
(lp2109
g57
(g78
g59
NtRp2110
(dp2111
g62
(dp2112
g82
g83
ssg71
g2106
sg64
(lp2113
g1502
asbag57
(g78
g59
NtRp2114
(dp2115
g62
(dp2116
g89
g90
ssg71
g2106
sg64
(lp2117
S':'
asbag57
(g78
g59
NtRp2118
(dp2119
g62
(dp2120
sg71
g2106
sg64
(lp2121
g57
(g58
g59
NtRp2122
(dp2123
g62
(dp2124
g70
I4
ssg71
g2118
sg64
(lp2125
g57
(g66
g59
NtRp2126
(dp2127
g62
(dp2128
g70
I3
ssg71
Nsg64
(lp2129
g57
(g73
g59
NtRp2130
(dp2131
g62
(dp2132
sg71
g2126
sg64
(lp2133
g57
(g78
g59
NtRp2134
(dp2135
g62
(dp2136
sg71
g2130
sg64
(lp2137
g57
(g58
g59
NtRp2138
(dp2139
g62
(dp2140
g70
I3
ssg71
g2134
sg64
(lp2141
S'1'
asbasbasbag57
(g73
g59
NtRp2142
(dp2143
g62
(dp2144
sg71
g2126
sg64
(lp2145
g57
(g78
g59
NtRp2146
(dp2147
g62
(dp2148
sg71
g2142
sg64
(lp2149
g57
(g58
g59
NtRp2150
(dp2151
g62
(dp2152
g70
I3
ssg71
g2146
sg64
(lp2153
S'99'
p2154
asbasbasbag57
(g73
g59
NtRp2155
(dp2156
g62
(dp2157
sg71
g2126
sg64
(lp2158
g57
(g78
g59
NtRp2159
(dp2160
g62
(dp2161
sg71
g2155
sg64
(lp2162
g57
(g58
g59
NtRp2163
(dp2164
g62
(dp2165
g70
I3
ssg71
g2159
sg64
(lp2166
S'4'
asbasbasbag57
(g73
g59
NtRp2167
(dp2168
g62
(dp2169
sg71
g2126
sg64
(lp2170
g57
(g78
g59
NtRp2171
(dp2172
g62
(dp2173
sg71
g2167
sg64
(lp2174
g57
(g58
g59
NtRp2175
(dp2176
g62
(dp2177
g70
I3
ssg71
g2171
sg64
(lp2178
S'datetime.datetime(2011, 12, 14, 14, 46, 14)'
p2179
asbasbasbag57
(g73
g59
NtRp2180
(dp2181
g62
(dp2182
sg71
g2126
sg64
(lp2183
g57
(g78
g59
NtRp2184
(dp2185
g62
(dp2186
sg71
g2180
sg64
(lp2187
g57
(g58
g59
NtRp2188
(dp2189
g62
(dp2190
g70
I3
ssg71
g2184
sg64
(lp2191
g1581
asbasbasbasbasbasbasbasbasbasbasbag57
(g73
g59
NtRp2192
(dp2193
g62
(dp2194
sg71
g67
sg64
(lp2195
g57
(g78
g59
NtRp2196
(dp2197
g62
(dp2198
g82
g83
ssg71
g2192
sg64
(lp2199
S'is_https'
p2200
asbag57
(g78
g59
NtRp2201
(dp2202
g62
(dp2203
g89
g90
ssg71
g2192
sg64
(lp2204
S':'
asbag57
(g78
g59
NtRp2205
(dp2206
g62
(dp2207
sg71
g2192
sg64
(lp2208
g57
(g58
g59
NtRp2209
(dp2210
g62
(dp2211
g70
I5
ssg71
g2205
sg64
(lp2212
g100
asbasbasbag57
(g73
g59
NtRp2213
(dp2214
g62
(dp2215
sg71
g67
sg64
(lp2216
g57
(g78
g59
NtRp2217
(dp2218
g62
(dp2219
g82
g83
ssg71
g2213
sg64
(lp2220
S'is_local'
p2221
asbag57
(g78
g59
NtRp2222
(dp2223
g62
(dp2224
g89
g90
ssg71
g2213
sg64
(lp2225
S':'
asbag57
(g78
g59
NtRp2226
(dp2227
g62
(dp2228
sg71
g2213
sg64
(lp2229
g57
(g58
g59
NtRp2230
(dp2231
g62
(dp2232
g70
I5
ssg71
g2226
sg64
(lp2233
g1690
asbasbasbag57
(g73
g59
NtRp2234
(dp2235
g62
(dp2236
sg71
g67
sg64
(lp2237
g57
(g78
g59
NtRp2238
(dp2239
g62
(dp2240
g82
g83
ssg71
g2234
sg64
(lp2241
S'is_restful'
p2242
asbag57
(g78
g59
NtRp2243
(dp2244
g62
(dp2245
g89
g90
ssg71
g2234
sg64
(lp2246
S':'
asbag57
(g78
g59
NtRp2247
(dp2248
g62
(dp2249
sg71
g2234
sg64
(lp2250
g57
(g58
g59
NtRp2251
(dp2252
g62
(dp2253
g70
I5
ssg71
g2247
sg64
(lp2254
g100
asbasbasbag57
(g73
g59
NtRp2255
(dp2256
g62
(dp2257
sg71
g67
sg64
(lp2258
g57
(g78
g59
NtRp2259
(dp2260
g62
(dp2261
g82
g83
ssg71
g2255
sg64
(lp2262
S'now'
p2263
asbag57
(g78
g59
NtRp2264
(dp2265
g62
(dp2266
g89
g90
ssg71
g2255
sg64
(lp2267
S':'
asbag57
(g78
g59
NtRp2268
(dp2269
g62
(dp2270
sg71
g2255
sg64
(lp2271
g57
(g58
g59
NtRp2272
(dp2273
g62
(dp2274
g70
I5
ssg71
g2268
sg64
(lp2275
S'datetime.datetime(2012, 2, 7, 16, 37, 48, 367000)'
p2276
asbasbasbag57
(g73
g59
NtRp2277
(dp2278
g62
(dp2279
sg71
g67
sg64
(lp2280
g57
(g78
g59
NtRp2281
(dp2282
g62
(dp2283
g82
g83
ssg71
g2277
sg64
(lp2284
S'post_vars'
p2285
asbag57
(g78
g59
NtRp2286
(dp2287
g62
(dp2288
g89
g90
ssg71
g2277
sg64
(lp2289
S':'
asbag57
(g78
g59
NtRp2290
(dp2291
g62
(dp2292
sg71
g2277
sg64
(lp2293
g57
(g58
g59
NtRp2294
(dp2295
g62
(dp2296
g70
I5
ssg71
g2290
sg64
(lp2297
g57
(g66
g59
NtRp2298
(dp2299
g62
(dp2300
g70
I4
ssg71
Nsg64
(lp2301
sbasbasbasbag57
(g73
g59
NtRp2302
(dp2303
g62
(dp2304
sg71
g67
sg64
(lp2305
g57
(g78
g59
NtRp2306
(dp2307
g62
(dp2308
g82
g83
ssg71
g2302
sg64
(lp2309
S'raw_args'
p2310
asbag57
(g78
g59
NtRp2311
(dp2312
g62
(dp2313
g89
g90
ssg71
g2302
sg64
(lp2314
S':'
asbag57
(g78
g59
NtRp2315
(dp2316
g62
(dp2317
sg71
g2302
sg64
(lp2318
g57
(g58
g59
NtRp2319
(dp2320
g62
(dp2321
g70
I5
ssg71
g2315
sg64
(lp2322
S'7'
asbasbasbag57
(g73
g59
NtRp2323
(dp2324
g62
(dp2325
sg71
g67
sg64
(lp2326
g57
(g78
g59
NtRp2327
(dp2328
g62
(dp2329
g82
g83
ssg71
g2323
sg64
(lp2330
S'url'
p2331
asbag57
(g78
g59
NtRp2332
(dp2333
g62
(dp2334
g89
g90
ssg71
g2323
sg64
(lp2335
S':'
asbag57
(g78
g59
NtRp2336
(dp2337
g62
(dp2338
sg71
g2323
sg64
(lp2339
g57
(g58
g59
NtRp2340
(dp2341
g62
(dp2342
g70
I5
ssg71
g2336
sg64
(lp2343
S'/welcome/tournament/show/7'
p2344
asbasbasbag57
(g73
g59
NtRp2345
(dp2346
g62
(dp2347
sg71
g67
sg64
(lp2348
g57
(g78
g59
NtRp2349
(dp2350
g62
(dp2351
g82
g83
ssg71
g2345
sg64
(lp2352
S'utcnow'
p2353
asbag57
(g78
g59
NtRp2354
(dp2355
g62
(dp2356
g89
g90
ssg71
g2345
sg64
(lp2357
S':'
asbag57
(g78
g59
NtRp2358
(dp2359
g62
(dp2360
sg71
g2345
sg64
(lp2361
g57
(g58
g59
NtRp2362
(dp2363
g62
(dp2364
g70
I5
ssg71
g2358
sg64
(lp2365
S'datetime.datetime(2012, 2, 7, 21, 37, 48, 367000)'
p2366
asbasbasbag57
(g73
g59
NtRp2367
(dp2368
g62
(dp2369
sg71
g67
sg64
(lp2370
g57
(g78
g59
NtRp2371
(dp2372
g62
(dp2373
g82
g83
ssg71
g2367
sg64
(lp2374
S'uuid'
p2375
asbag57
(g78
g59
NtRp2376
(dp2377
g62
(dp2378
g89
g90
ssg71
g2367
sg64
(lp2379
S':'
asbag57
(g78
g59
NtRp2380
(dp2381
g62
(dp2382
sg71
g2367
sg64
(lp2383
g57
(g58
g59
NtRp2384
(dp2385
g62
(dp2386
g70
I5
ssg71
g2380
sg64
(lp2387
S'welcome/127.0.0.1.2012-02-07.16-37-48.df435997-fe48-4545-b0ed-b5cd10803d8a'
p2388
asbasbasbag57
(g73
g59
NtRp2389
(dp2390
g62
(dp2391
sg71
g67
sg64
(lp2392
g57
(g78
g59
NtRp2393
(dp2394
g62
(dp2395
g82
g83
ssg71
g2389
sg64
(lp2396
S'vars'
p2397
asbag57
(g78
g59
NtRp2398
(dp2399
g62
(dp2400
g89
g90
ssg71
g2389
sg64
(lp2401
S':'
asbag57
(g78
g59
NtRp2402
(dp2403
g62
(dp2404
sg71
g2389
sg64
(lp2405
g57
(g58
g59
NtRp2406
(dp2407
g62
(dp2408
g70
I5
ssg71
g2402
sg64
(lp2409
g57
(g66
g59
NtRp2410
(dp2411
g62
(dp2412
g70
I4
ssg71
Nsg64
(lp2413
sbasbasbasbag57
(g73
g59
NtRp2414
(dp2415
g62
(dp2416
sg71
g67
sg64
(lp2417
g57
(g78
g59
NtRp2418
(dp2419
g62
(dp2420
g82
g83
ssg71
g2414
sg64
(lp2421
S'wsgi'
p2422
asbag57
(g78
g59
NtRp2423
(dp2424
g62
(dp2425
g89
g90
ssg71
g2414
sg64
(lp2426
S':'
asbag57
(g78
g59
NtRp2427
(dp2428
g62
(dp2429
sg71
g2414
sg64
(lp2430
g57
(g58
g59
NtRp2431
(dp2432
g62
(dp2433
g70
I5
ssg71
g2427
sg64
(lp2434
g57
(g66
g59
NtRp2435
(dp2436
g62
(dp2437
g70
I4
ssg71
Nsg64
(lp2438
g57
(g73
g59
NtRp2439
(dp2440
g62
(dp2441
sg71
g2435
sg64
(lp2442
g57
(g78
g59
NtRp2443
(dp2444
g62
(dp2445
g82
g83
ssg71
g2439
sg64
(lp2446
S'environ'
p2447
asbag57
(g78
g59
NtRp2448
(dp2449
g62
(dp2450
g89
g90
ssg71
g2439
sg64
(lp2451
S':'
asbag57
(g78
g59
NtRp2452
(dp2453
g62
(dp2454
sg71
g2439
sg64
(lp2455
g57
(g58
g59
NtRp2456
(dp2457
g62
(dp2458
g70
I4
ssg71
g2452
sg64
(lp2459
g57
(g66
g59
NtRp2460
(dp2461
g62
(dp2462
g70
I3
ssg71
Nsg64
(lp2463
g57
(g73
g59
NtRp2464
(dp2465
g62
(dp2466
sg71
g2460
sg64
(lp2467
g57
(g78
g59
NtRp2468
(dp2469
g62
(dp2470
g82
g83
ssg71
g2464
sg64
(lp2471
S'HTTP_ACCEPT'
p2472
asbag57
(g78
g59
NtRp2473
(dp2474
g62
(dp2475
g89
g90
ssg71
g2464
sg64
(lp2476
S':'
asbag57
(g78
g59
NtRp2477
(dp2478
g62
(dp2479
sg71
g2464
sg64
(lp2480
g57
(g58
g59
NtRp2481
(dp2482
g62
(dp2483
g70
I3
ssg71
g2477
sg64
(lp2484
g1015
asbasbasbag57
(g73
g59
NtRp2485
(dp2486
g62
(dp2487
sg71
g2460
sg64
(lp2488
g57
(g78
g59
NtRp2489
(dp2490
g62
(dp2491
g82
g83
ssg71
g2485
sg64
(lp2492
S'HTTP_ACCEPT_CHARSET'
p2493
asbag57
(g78
g59
NtRp2494
(dp2495
g62
(dp2496
g89
g90
ssg71
g2485
sg64
(lp2497
S':'
asbag57
(g78
g59
NtRp2498
(dp2499
g62
(dp2500
sg71
g2485
sg64
(lp2501
g57
(g58
g59
NtRp2502
(dp2503
g62
(dp2504
g70
I3
ssg71
g2498
sg64
(lp2505
g1037
asbasbasbag57
(g73
g59
NtRp2506
(dp2507
g62
(dp2508
sg71
g2460
sg64
(lp2509
g57
(g78
g59
NtRp2510
(dp2511
g62
(dp2512
g82
g83
ssg71
g2506
sg64
(lp2513
S'HTTP_ACCEPT_ENCODING'
p2514
asbag57
(g78
g59
NtRp2515
(dp2516
g62
(dp2517
g89
g90
ssg71
g2506
sg64
(lp2518
S':'
asbag57
(g78
g59
NtRp2519
(dp2520
g62
(dp2521
sg71
g2506
sg64
(lp2522
g57
(g58
g59
NtRp2523
(dp2524
g62
(dp2525
g70
I3
ssg71
g2519
sg64
(lp2526
g1059
asbasbasbag57
(g73
g59
NtRp2527
(dp2528
g62
(dp2529
sg71
g2460
sg64
(lp2530
g57
(g78
g59
NtRp2531
(dp2532
g62
(dp2533
g82
g83
ssg71
g2527
sg64
(lp2534
S'HTTP_ACCEPT_LANGUAGE'
p2535
asbag57
(g78
g59
NtRp2536
(dp2537
g62
(dp2538
g89
g90
ssg71
g2527
sg64
(lp2539
S':'
asbag57
(g78
g59
NtRp2540
(dp2541
g62
(dp2542
sg71
g2527
sg64
(lp2543
g57
(g58
g59
NtRp2544
(dp2545
g62
(dp2546
g70
I3
ssg71
g2540
sg64
(lp2547
g1081
asbasbasbag57
(g73
g59
NtRp2548
(dp2549
g62
(dp2550
sg71
g2460
sg64
(lp2551
g57
(g78
g59
NtRp2552
(dp2553
g62
(dp2554
g82
g83
ssg71
g2548
sg64
(lp2555
S'HTTP_CACHE_CONTROL'
p2556
asbag57
(g78
g59
NtRp2557
(dp2558
g62
(dp2559
g89
g90
ssg71
g2548
sg64
(lp2560
S':'
asbag57
(g78
g59
NtRp2561
(dp2562
g62
(dp2563
sg71
g2548
sg64
(lp2564
g57
(g58
g59
NtRp2565
(dp2566
g62
(dp2567
g70
I3
ssg71
g2561
sg64
(lp2568
g1103
asbasbasbag57
(g73
g59
NtRp2569
(dp2570
g62
(dp2571
sg71
g2460
sg64
(lp2572
g57
(g78
g59
NtRp2573
(dp2574
g62
(dp2575
g82
g83
ssg71
g2569
sg64
(lp2576
S'HTTP_CONNECTION'
p2577
asbag57
(g78
g59
NtRp2578
(dp2579
g62
(dp2580
g89
g90
ssg71
g2569
sg64
(lp2581
S':'
asbag57
(g78
g59
NtRp2582
(dp2583
g62
(dp2584
sg71
g2569
sg64
(lp2585
g57
(g58
g59
NtRp2586
(dp2587
g62
(dp2588
g70
I3
ssg71
g2582
sg64
(lp2589
g1125
asbasbasbag57
(g73
g59
NtRp2590
(dp2591
g62
(dp2592
sg71
g2460
sg64
(lp2593
g57
(g78
g59
NtRp2594
(dp2595
g62
(dp2596
g82
g83
ssg71
g2590
sg64
(lp2597
S'HTTP_COOKIE'
p2598
asbag57
(g78
g59
NtRp2599
(dp2600
g62
(dp2601
g89
g90
ssg71
g2590
sg64
(lp2602
S':'
asbag57
(g78
g59
NtRp2603
(dp2604
g62
(dp2605
sg71
g2590
sg64
(lp2606
g57
(g58
g59
NtRp2607
(dp2608
g62
(dp2609
g70
I3
ssg71
g2603
sg64
(lp2610
g1147
asbasbasbag57
(g73
g59
NtRp2611
(dp2612
g62
(dp2613
sg71
g2460
sg64
(lp2614
g57
(g78
g59
NtRp2615
(dp2616
g62
(dp2617
g82
g83
ssg71
g2611
sg64
(lp2618
S'HTTP_HOST'
p2619
asbag57
(g78
g59
NtRp2620
(dp2621
g62
(dp2622
g89
g90
ssg71
g2611
sg64
(lp2623
S':'
asbag57
(g78
g59
NtRp2624
(dp2625
g62
(dp2626
sg71
g2611
sg64
(lp2627
g57
(g58
g59
NtRp2628
(dp2629
g62
(dp2630
g70
I3
ssg71
g2624
sg64
(lp2631
g1169
asbasbasbag57
(g73
g59
NtRp2632
(dp2633
g62
(dp2634
sg71
g2460
sg64
(lp2635
g57
(g78
g59
NtRp2636
(dp2637
g62
(dp2638
g82
g83
ssg71
g2632
sg64
(lp2639
S'HTTP_USER_AGENT'
p2640
asbag57
(g78
g59
NtRp2641
(dp2642
g62
(dp2643
g89
g90
ssg71
g2632
sg64
(lp2644
S':'
asbag57
(g78
g59
NtRp2645
(dp2646
g62
(dp2647
sg71
g2632
sg64
(lp2648
g57
(g58
g59
NtRp2649
(dp2650
g62
(dp2651
g70
I3
ssg71
g2645
sg64
(lp2652
g1191
asbasbasbag57
(g73
g59
NtRp2653
(dp2654
g62
(dp2655
sg71
g2460
sg64
(lp2656
g57
(g78
g59
NtRp2657
(dp2658
g62
(dp2659
g82
g83
ssg71
g2653
sg64
(lp2660
S'PATH_INFO'
p2661
asbag57
(g78
g59
NtRp2662
(dp2663
g62
(dp2664
g89
g90
ssg71
g2653
sg64
(lp2665
S':'
asbag57
(g78
g59
NtRp2666
(dp2667
g62
(dp2668
sg71
g2653
sg64
(lp2669
g57
(g58
g59
NtRp2670
(dp2671
g62
(dp2672
g70
I3
ssg71
g2666
sg64
(lp2673
g1255
asbasbasbag57
(g73
g59
NtRp2674
(dp2675
g62
(dp2676
sg71
g2460
sg64
(lp2677
g57
(g78
g59
NtRp2678
(dp2679
g62
(dp2680
g82
g83
ssg71
g2674
sg64
(lp2681
S'QUERY_STRING'
p2682
asbag57
(g78
g59
NtRp2683
(dp2684
g62
(dp2685
g89
g90
ssg71
g2674
sg64
(lp2686
S':'
asbag57
(g78
g59
NtRp2687
(dp2688
g62
(dp2689
sg71
g2674
sg64
(lp2690
g57
(g58
g59
NtRp2691
(dp2692
g62
(dp2693
g70
I3
ssg71
g2687
sg64
(lp2694
S''
asbasbasbag57
(g73
g59
NtRp2695
(dp2696
g62
(dp2697
sg71
g2460
sg64
(lp2698
g57
(g78
g59
NtRp2699
(dp2700
g62
(dp2701
g82
g83
ssg71
g2695
sg64
(lp2702
S'REMOTE_ADDR'
p2703
asbag57
(g78
g59
NtRp2704
(dp2705
g62
(dp2706
g89
g90
ssg71
g2695
sg64
(lp2707
S':'
asbag57
(g78
g59
NtRp2708
(dp2709
g62
(dp2710
sg71
g2695
sg64
(lp2711
g57
(g58
g59
NtRp2712
(dp2713
g62
(dp2714
g70
I3
ssg71
g2708
sg64
(lp2715
g202
asbasbasbag57
(g73
g59
NtRp2716
(dp2717
g62
(dp2718
sg71
g2460
sg64
(lp2719
g57
(g78
g59
NtRp2720
(dp2721
g62
(dp2722
g82
g83
ssg71
g2716
sg64
(lp2723
S'REMOTE_PORT'
p2724
asbag57
(g78
g59
NtRp2725
(dp2726
g62
(dp2727
g89
g90
ssg71
g2716
sg64
(lp2728
S':'
asbag57
(g78
g59
NtRp2729
(dp2730
g62
(dp2731
sg71
g2716
sg64
(lp2732
g57
(g58
g59
NtRp2733
(dp2734
g62
(dp2735
g70
I3
ssg71
g2729
sg64
(lp2736
g1319
asbasbasbag57
(g73
g59
NtRp2737
(dp2738
g62
(dp2739
sg71
g2460
sg64
(lp2740
g57
(g78
g59
NtRp2741
(dp2742
g62
(dp2743
g82
g83
ssg71
g2737
sg64
(lp2744
S'REQUEST_METHOD'
p2745
asbag57
(g78
g59
NtRp2746
(dp2747
g62
(dp2748
g89
g90
ssg71
g2737
sg64
(lp2749
S':'
asbag57
(g78
g59
NtRp2750
(dp2751
g62
(dp2752
sg71
g2737
sg64
(lp2753
g57
(g58
g59
NtRp2754
(dp2755
g62
(dp2756
g70
I3
ssg71
g2750
sg64
(lp2757
g1341
asbasbasbag57
(g73
g59
NtRp2758
(dp2759
g62
(dp2760
sg71
g2460
sg64
(lp2761
g57
(g78
g59
NtRp2762
(dp2763
g62
(dp2764
g82
g83
ssg71
g2758
sg64
(lp2765
S'SCRIPT_NAME'
p2766
asbag57
(g78
g59
NtRp2767
(dp2768
g62
(dp2769
g89
g90
ssg71
g2758
sg64
(lp2770
S':'
asbag57
(g78
g59
NtRp2771
(dp2772
g62
(dp2773
sg71
g2758
sg64
(lp2774
g57
(g58
g59
NtRp2775
(dp2776
g62
(dp2777
g70
I3
ssg71
g2771
sg64
(lp2778
S''
asbasbasbag57
(g73
g59
NtRp2779
(dp2780
g62
(dp2781
sg71
g2460
sg64
(lp2782
g57
(g78
g59
NtRp2783
(dp2784
g62
(dp2785
g82
g83
ssg71
g2779
sg64
(lp2786
S'SERVER_NAME'
p2787
asbag57
(g78
g59
NtRp2788
(dp2789
g62
(dp2790
g89
g90
ssg71
g2779
sg64
(lp2791
S':'
asbag57
(g78
g59
NtRp2792
(dp2793
g62
(dp2794
sg71
g2779
sg64
(lp2795
g57
(g58
g59
NtRp2796
(dp2797
g62
(dp2798
g70
I3
ssg71
g2792
sg64
(lp2799
g1384
asbasbasbag57
(g73
g59
NtRp2800
(dp2801
g62
(dp2802
sg71
g2460
sg64
(lp2803
g57
(g78
g59
NtRp2804
(dp2805
g62
(dp2806
g82
g83
ssg71
g2800
sg64
(lp2807
S'SERVER_PORT'
p2808
asbag57
(g78
g59
NtRp2809
(dp2810
g62
(dp2811
g89
g90
ssg71
g2800
sg64
(lp2812
S':'
asbag57
(g78
g59
NtRp2813
(dp2814
g62
(dp2815
sg71
g2800
sg64
(lp2816
g57
(g58
g59
NtRp2817
(dp2818
g62
(dp2819
g70
I3
ssg71
g2813
sg64
(lp2820
g1406
asbasbasbag57
(g73
g59
NtRp2821
(dp2822
g62
(dp2823
sg71
g2460
sg64
(lp2824
g57
(g78
g59
NtRp2825
(dp2826
g62
(dp2827
g82
g83
ssg71
g2821
sg64
(lp2828
S'SERVER_PROTOCOL'
p2829
asbag57
(g78
g59
NtRp2830
(dp2831
g62
(dp2832
g89
g90
ssg71
g2821
sg64
(lp2833
S':'
asbag57
(g78
g59
NtRp2834
(dp2835
g62
(dp2836
sg71
g2821
sg64
(lp2837
g57
(g58
g59
NtRp2838
(dp2839
g62
(dp2840
g70
I3
ssg71
g2834
sg64
(lp2841
g1428
asbasbasbag57
(g73
g59
NtRp2842
(dp2843
g62
(dp2844
sg71
g2460
sg64
(lp2845
g57
(g78
g59
NtRp2846
(dp2847
g62
(dp2848
g82
g83
ssg71
g2842
sg64
(lp2849
S'SERVER_SOFTWARE'
p2850
asbag57
(g78
g59
NtRp2851
(dp2852
g62
(dp2853
g89
g90
ssg71
g2842
sg64
(lp2854
S':'
asbag57
(g78
g59
NtRp2855
(dp2856
g62
(dp2857
sg71
g2842
sg64
(lp2858
g57
(g58
g59
NtRp2859
(dp2860
g62
(dp2861
g70
I3
ssg71
g2855
sg64
(lp2862
g1450
asbasbasbag57
(g73
g59
NtRp2863
(dp2864
g62
(dp2865
sg71
g2460
sg64
(lp2866
g57
(g78
g59
NtRp2867
(dp2868
g62
(dp2869
g82
g83
ssg71
g2863
sg64
(lp2870
S'wsgi.errors'
p2871
asbag57
(g78
g59
NtRp2872
(dp2873
g62
(dp2874
g89
g90
ssg71
g2863
sg64
(lp2875
S':'
asbag57
(g78
g59
NtRp2876
(dp2877
g62
(dp2878
sg71
g2863
sg64
(lp2879
g57
(g58
g59
NtRp2880
(dp2881
g62
(dp2882
g70
I3
ssg71
g2876
sg64
(lp2883
S"<open file '<stderr>', mode 'w' at 0x0000000001E261E0>"
p2884
asbasbasbag57
(g73
g59
NtRp2885
(dp2886
g62
(dp2887
sg71
g2460
sg64
(lp2888
g57
(g78
g59
NtRp2889
(dp2890
g62
(dp2891
g82
g83
ssg71
g2885
sg64
(lp2892
S'wsgi.file_wrapper'
p2893
asbag57
(g78
g59
NtRp2894
(dp2895
g62
(dp2896
g89
g90
ssg71
g2885
sg64
(lp2897
S':'
asbag57
(g78
g59
NtRp2898
(dp2899
g62
(dp2900
sg71
g2885
sg64
(lp2901
g57
(g58
g59
NtRp2902
(dp2903
g62
(dp2904
g70
I3
ssg71
g2898
sg64
(lp2905
S'<class wsgiref.util.FileWrapper at 0x00000000034DD828>'
p2906
asbasbasbag57
(g73
g59
NtRp2907
(dp2908
g62
(dp2909
sg71
g2460
sg64
(lp2910
g57
(g78
g59
NtRp2911
(dp2912
g62
(dp2913
g82
g83
ssg71
g2907
sg64
(lp2914
S'wsgi.input'
p2915
asbag57
(g78
g59
NtRp2916
(dp2917
g62
(dp2918
g89
g90
ssg71
g2907
sg64
(lp2919
S':'
asbag57
(g78
g59
NtRp2920
(dp2921
g62
(dp2922
sg71
g2907
sg64
(lp2923
g57
(g58
g59
NtRp2924
(dp2925
g62
(dp2926
g70
I3
ssg71
g2920
sg64
(lp2927
S'<cStringIO.StringO object at 0x0000000007AE0490>'
p2928
asbasbasbag57
(g73
g59
NtRp2929
(dp2930
g62
(dp2931
sg71
g2460
sg64
(lp2932
g57
(g78
g59
NtRp2933
(dp2934
g62
(dp2935
g82
g83
ssg71
g2929
sg64
(lp2936
S'wsgi.multiprocess'
p2937
asbag57
(g78
g59
NtRp2938
(dp2939
g62
(dp2940
g89
g90
ssg71
g2929
sg64
(lp2941
S':'
asbag57
(g78
g59
NtRp2942
(dp2943
g62
(dp2944
sg71
g2929
sg64
(lp2945
g57
(g58
g59
NtRp2946
(dp2947
g62
(dp2948
g70
I3
ssg71
g2942
sg64
(lp2949
g100
asbasbasbag57
(g73
g59
NtRp2950
(dp2951
g62
(dp2952
sg71
g2460
sg64
(lp2953
g57
(g78
g59
NtRp2954
(dp2955
g62
(dp2956
g82
g83
ssg71
g2950
sg64
(lp2957
S'wsgi.multithread'
p2958
asbag57
(g78
g59
NtRp2959
(dp2960
g62
(dp2961
g89
g90
ssg71
g2950
sg64
(lp2962
S':'
asbag57
(g78
g59
NtRp2963
(dp2964
g62
(dp2965
sg71
g2950
sg64
(lp2966
g57
(g58
g59
NtRp2967
(dp2968
g62
(dp2969
g70
I3
ssg71
g2963
sg64
(lp2970
g1690
asbasbasbag57
(g73
g59
NtRp2971
(dp2972
g62
(dp2973
sg71
g2460
sg64
(lp2974
g57
(g78
g59
NtRp2975
(dp2976
g62
(dp2977
g82
g83
ssg71
g2971
sg64
(lp2978
S'wsgi.run_once'
p2979
asbag57
(g78
g59
NtRp2980
(dp2981
g62
(dp2982
g89
g90
ssg71
g2971
sg64
(lp2983
S':'
asbag57
(g78
g59
NtRp2984
(dp2985
g62
(dp2986
sg71
g2971
sg64
(lp2987
g57
(g58
g59
NtRp2988
(dp2989
g62
(dp2990
g70
I3
ssg71
g2984
sg64
(lp2991
g100
asbasbasbag57
(g73
g59
NtRp2992
(dp2993
g62
(dp2994
sg71
g2460
sg64
(lp2995
g57
(g78
g59
NtRp2996
(dp2997
g62
(dp2998
g82
g83
ssg71
g2992
sg64
(lp2999
S'wsgi.url_scheme'
p3000
asbag57
(g78
g59
NtRp3001
(dp3002
g62
(dp3003
g89
g90
ssg71
g2992
sg64
(lp3004
S':'
asbag57
(g78
g59
NtRp3005
(dp3006
g62
(dp3007
sg71
g2992
sg64
(lp3008
g57
(g58
g59
NtRp3009
(dp3010
g62
(dp3011
g70
I3
ssg71
g3005
sg64
(lp3012
g1733
asbasbasbag57
(g73
g59
NtRp3013
(dp3014
g62
(dp3015
sg71
g2460
sg64
(lp3016
g57
(g78
g59
NtRp3017
(dp3018
g62
(dp3019
g82
g83
ssg71
g3013
sg64
(lp3020
S'wsgi.version'
p3021
asbag57
(g78
g59
NtRp3022
(dp3023
g62
(dp3024
g89
g90
ssg71
g3013
sg64
(lp3025
S':'
asbag57
(g78
g59
NtRp3026
(dp3027
g62
(dp3028
sg71
g3013
sg64
(lp3029
g57
(g58
g59
NtRp3030
(dp3031
g62
(dp3032
g70
I3
ssg71
g3026
sg64
(lp3033
S'1'
asbasbasbasbasbasbasbasbasbasbasbasbasbsS'frames'
p3034
(lp3035
(dp3036
S'file'
p3037
S'C:\\Users\\mellinja\\Documents\\SC2Tracker\\SC2TourneyTracker\\web2py\\gluon\\restricted.py'
p3038
sS'dump'
p3039
(dp3040
S'environment'
p3041
S"{'A': <class 'gluon.html.A'>, 'Auth': <class 'gluon.tools.Auth'>, 'B': <class 'gluon.html.B'>, 'BEAUTIFY': <class 'gluon.html.BEAUTIFY'>, 'BODY': <class 'gluon.html.BODY'>, 'BR': <class 'gluon.html.BR'>, 'BUTTON': <class 'gluon.html.BUTTON'>, 'CAT': <class 'gluon.html.CAT'>, 'CENTER': <class 'gluon.html.CENTER'>, 'CLEANUP': <class 'gluon.validators.CLEANUP'>, ...}"
p3042
sS'ccode'
p3043
S'<code object <module> at 00000000095CF8B0, file ...ions\\welcome\\views\\tournament/show.html", line 1>'
p3044
ssS'lnum'
p3045
I204
sS'lines'
p3046
(dp3047
I199
S'    try:'
p3048
sI200
S'        if type(code) == types.CodeType:'
p3049
sI201
S'            ccode = code'
p3050
sI202
S'        else:'
p3051
sI203
S'            ccode = compile2(code,layer)'
p3052
sI204
S'        exec ccode in environment'
p3053
sI205
S'    except HTTP:'
p3054
sI206
S'        raise'
p3055
sI207
S'    except RestrictedError:'
p3056
sI208
S'        # do not encapsulate (obfuscate) the original RestrictedError'
p3057
ssS'call'
p3058
S'(code=r"response.write(\'<!DOCTYPE html>\\r\\n<!-- pauliris...write(\'\\r\\n</body>\\r\\n</html>\\r\\n\', escape=False)", environment={\'A\': <class \'gluon.html.A\'>, \'Auth\': <class \'gluon.tools.Auth\'>, \'B\': <class \'gluon.html.B\'>, \'BEAUTIFY\': <class \'gluon.html.BEAUTIFY\'>, \'BODY\': <class \'gluon.html.BODY\'>, \'BR\': <class \'gluon.html.BR\'>, \'BUTTON\': <class \'gluon.html.BUTTON\'>, \'CAT\': <class \'gluon.html.CAT\'>, \'CENTER\': <class \'gluon.html.CENTER\'>, \'CLEANUP\': <class \'gluon.validators.CLEANUP\'>, ...}, layer=r\'C:\\Users\\mellinja\\Documents\\SC2Tracker\\SC2Tourne...y\\applications\\welcome\\views\\tournament/show.html\')'
p3059
sS'func'
p3060
S'restricted'
p3061
sa(dp3062
g3037
S'C:\\Users\\mellinja\\Documents\\SC2Tracker\\SC2TourneyTracker\\web2py\\applications\\welcome\\views\\tournament\\show.html'
p3063
sg3039
(dp3064
sg3045
I78
sg3046
(dp3065
I69
S"    response.write('\\r\\n        </div>\\r\\n        ', escape=False)"
p3066
sI70
S'    pass'
p3067
sI71
S'response.write(\'\\r\\n        \\r\\n        <div class="\', escape=False)'
p3068
sI72
S'response.write(middle_columns)'
p3069
sI73
S'response.write(\' columns center">\\r\\n          \', escape=False)'
p3070
sI74
S"response.write('\\r\\n          ', escape=False)"
p3071
sI75
S"response.write('\\r\\n<h1>This is the tournament/show.html template</h1>\\r\\n', escape=False)"
p3072
sI76
S'response.write(test)'
p3073
sI77
S"response.write('\\r\\n', escape=False)"
p3074
sI78
S'response.write(form)'
p3075
sI79
S"response.write('\\r\\n', escape=False)"
p3076
sI80
S"response.write('\\r\\n          ', escape=False)"
p3077
sI81
S"response.write('\\r\\n        </div>\\r\\n        \\r\\n        ', escape=False)"
p3078
sI82
S'if right_sidebar_enabled:'
p3079
sI83
S'    response.write(\'\\r\\n        <div class="four columns">\\r\\n          \', escape=False)'
p3080
sI84
S"    response.write('\\r\\n          <h3>Right Sidebar</h3>\\r\\n          <p></p>\\r\\n          ', escape=False)"
p3081
sI85
S"    response.write('\\r\\n        </div>    \\r\\n        ', escape=False)"
p3082
sI86
S'    pass'
p3083
sI87
S'response.write(\'\\r\\n        \\r\\n      </div><!-- container -->\\r\\n    </div><!-- main -->\\r\\n    \\r\\n    <div class="push"></div>\\r\\n  </div><!-- wrapper -->\\r\\n\\r\\n  <div class="footer">\\r\\n    <div class="container">    \\r\\n      <div class="sixteen columns">\\r\\n        \', escape=False)'
p3084
sI88
S'response.write(\' <!-- this is default footer -->\\r\\n        <div class="footer-content clearfix">\\r\\n          <div class="copyright">\\r\\n\\t\\t\\t  \', escape=False)'
p3085
ssg3058
S'()'
p3086
sg3060
S'<module>'
p3087
sasS'pyver'
p3088
S'Python 2.7.2: C:\\Python27\\python.exe'
p3089
sS'session'
p3090
g57
(g58
g59
NtRp3091
(dp3092
g62
(dp3093
sg64
(lp3094
g57
(g66
g59
NtRp3095
(dp3096
g62
(dp3097
g70
I5
ssg71
Nsg64
(lp3098
g57
(g73
g59
NtRp3099
(dp3100
g62
(dp3101
sg71
g3095
sg64
(lp3102
g57
(g78
g59
NtRp3103
(dp3104
g62
(dp3105
g82
g83
ssg71
g3099
sg64
(lp3106
S'auth'
p3107
asbag57
(g78
g59
NtRp3108
(dp3109
g62
(dp3110
g89
g90
ssg71
g3099
sg64
(lp3111
S':'
asbag57
(g78
g59
NtRp3112
(dp3113
g62
(dp3114
sg71
g3099
sg64
(lp3115
g57
(g58
g59
NtRp3116
(dp3117
g62
(dp3118
g70
I5
ssg71
g3112
sg64
(lp3119
g57
(g66
g59
NtRp3120
(dp3121
g62
(dp3122
g70
I4
ssg71
Nsg64
(lp3123
g57
(g73
g59
NtRp3124
(dp3125
g62
(dp3126
sg71
g3120
sg64
(lp3127
g57
(g78
g59
NtRp3128
(dp3129
g62
(dp3130
g82
g83
ssg71
g3124
sg64
(lp3131
S'expiration'
p3132
asbag57
(g78
g59
NtRp3133
(dp3134
g62
(dp3135
g89
g90
ssg71
g3124
sg64
(lp3136
S':'
asbag57
(g78
g59
NtRp3137
(dp3138
g62
(dp3139
sg71
g3124
sg64
(lp3140
g57
(g58
g59
NtRp3141
(dp3142
g62
(dp3143
g70
I4
ssg71
g3137
sg64
(lp3144
S'3600'
p3145
asbasbasbag57
(g73
g59
NtRp3146
(dp3147
g62
(dp3148
sg71
g3120
sg64
(lp3149
g57
(g78
g59
NtRp3150
(dp3151
g62
(dp3152
g82
g83
ssg71
g3146
sg64
(lp3153
S'hmac_key'
p3154
asbag57
(g78
g59
NtRp3155
(dp3156
g62
(dp3157
g89
g90
ssg71
g3146
sg64
(lp3158
S':'
asbag57
(g78
g59
NtRp3159
(dp3160
g62
(dp3161
sg71
g3146
sg64
(lp3162
g57
(g58
g59
NtRp3163
(dp3164
g62
(dp3165
g70
I4
ssg71
g3159
sg64
(lp3166
S'db24f9b0-a170-4301-a61b-cc6744b5cef2'
p3167
asbasbasbag57
(g73
g59
NtRp3168
(dp3169
g62
(dp3170
sg71
g3120
sg64
(lp3171
g57
(g78
g59
NtRp3172
(dp3173
g62
(dp3174
g82
g83
ssg71
g3168
sg64
(lp3175
S'last_visit'
p3176
asbag57
(g78
g59
NtRp3177
(dp3178
g62
(dp3179
g89
g90
ssg71
g3168
sg64
(lp3180
S':'
asbag57
(g78
g59
NtRp3181
(dp3182
g62
(dp3183
sg71
g3168
sg64
(lp3184
g57
(g58
g59
NtRp3185
(dp3186
g62
(dp3187
g70
I4
ssg71
g3181
sg64
(lp3188
S'datetime.datetime(2012, 2, 7, 16, 37, 1, 632000)'
p3189
asbasbasbag57
(g73
g59
NtRp3190
(dp3191
g62
(dp3192
sg71
g3120
sg64
(lp3193
g57
(g78
g59
NtRp3194
(dp3195
g62
(dp3196
g82
g83
ssg71
g3190
sg64
(lp3197
S'user'
p3198
asbag57
(g78
g59
NtRp3199
(dp3200
g62
(dp3201
g89
g90
ssg71
g3190
sg64
(lp3202
S':'
asbag57
(g78
g59
NtRp3203
(dp3204
g62
(dp3205
sg71
g3190
sg64
(lp3206
g57
(g58
g59
NtRp3207
(dp3208
g62
(dp3209
g70
I4
ssg71
g3203
sg64
(lp3210
g57
(g66
g59
NtRp3211
(dp3212
g62
(dp3213
g70
I3
ssg71
Nsg64
(lp3214
g57
(g73
g59
NtRp3215
(dp3216
g62
(dp3217
sg71
g3211
sg64
(lp3218
g57
(g78
g59
NtRp3219
(dp3220
g62
(dp3221
g82
g83
ssg71
g3215
sg64
(lp3222
S'email'
p3223
asbag57
(g78
g59
NtRp3224
(dp3225
g62
(dp3226
g89
g90
ssg71
g3215
sg64
(lp3227
S':'
asbag57
(g78
g59
NtRp3228
(dp3229
g62
(dp3230
sg71
g3215
sg64
(lp3231
g57
(g58
g59
NtRp3232
(dp3233
g62
(dp3234
g70
I3
ssg71
g3228
sg64
(lp3235
S'test@test.com'
p3236
asbasbasbag57
(g73
g59
NtRp3237
(dp3238
g62
(dp3239
sg71
g3211
sg64
(lp3240
g57
(g78
g59
NtRp3241
(dp3242
g62
(dp3243
g82
g83
ssg71
g3237
sg64
(lp3244
S'first_name'
p3245
asbag57
(g78
g59
NtRp3246
(dp3247
g62
(dp3248
g89
g90
ssg71
g3237
sg64
(lp3249
S':'
asbag57
(g78
g59
NtRp3250
(dp3251
g62
(dp3252
sg71
g3237
sg64
(lp3253
g57
(g58
g59
NtRp3254
(dp3255
g62
(dp3256
g70
I3
ssg71
g3250
sg64
(lp3257
S'test'
p3258
asbasbasbag57
(g73
g59
NtRp3259
(dp3260
g62
(dp3261
sg71
g3211
sg64
(lp3262
g57
(g78
g59
NtRp3263
(dp3264
g62
(dp3265
g82
g83
ssg71
g3259
sg64
(lp3266
S'id'
p3267
asbag57
(g78
g59
NtRp3268
(dp3269
g62
(dp3270
g89
g90
ssg71
g3259
sg64
(lp3271
S':'
asbag57
(g78
g59
NtRp3272
(dp3273
g62
(dp3274
sg71
g3259
sg64
(lp3275
g57
(g58
g59
NtRp3276
(dp3277
g62
(dp3278
g70
I3
ssg71
g3272
sg64
(lp3279
S'5'
asbasbasbag57
(g73
g59
NtRp3280
(dp3281
g62
(dp3282
sg71
g3211
sg64
(lp3283
g57
(g78
g59
NtRp3284
(dp3285
g62
(dp3286
g82
g83
ssg71
g3280
sg64
(lp3287
S'last_name'
p3288
asbag57
(g78
g59
NtRp3289
(dp3290
g62
(dp3291
g89
g90
ssg71
g3280
sg64
(lp3292
S':'
asbag57
(g78
g59
NtRp3293
(dp3294
g62
(dp3295
sg71
g3280
sg64
(lp3296
g57
(g58
g59
NtRp3297
(dp3298
g62
(dp3299
g70
I3
ssg71
g3293
sg64
(lp3300
S'test'
p3301
asbasbasbag57
(g73
g59
NtRp3302
(dp3303
g62
(dp3304
sg71
g3211
sg64
(lp3305
g57
(g78
g59
NtRp3306
(dp3307
g62
(dp3308
g82
g83
ssg71
g3302
sg64
(lp3309
S'password'
p3310
asbag57
(g78
g59
NtRp3311
(dp3312
g62
(dp3313
g89
g90
ssg71
g3302
sg64
(lp3314
S':'
asbag57
(g78
g59
NtRp3315
(dp3316
g62
(dp3317
sg71
g3302
sg64
(lp3318
g57
(g58
g59
NtRp3319
(dp3320
g62
(dp3321
g70
I3
ssg71
g3315
sg64
(lp3322
S'0835d7189a6927648202bd9d8a8562a8'
p3323
asbasbasbag57
(g73
g59
NtRp3324
(dp3325
g62
(dp3326
sg71
g3211
sg64
(lp3327
g57
(g78
g59
NtRp3328
(dp3329
g62
(dp3330
g82
g83
ssg71
g3324
sg64
(lp3331
S'registration_id'
p3332
asbag57
(g78
g59
NtRp3333
(dp3334
g62
(dp3335
g89
g90
ssg71
g3324
sg64
(lp3336
S':'
asbag57
(g78
g59
NtRp3337
(dp3338
g62
(dp3339
sg71
g3324
sg64
(lp3340
g57
(g58
g59
NtRp3341
(dp3342
g62
(dp3343
g70
I3
ssg71
g3337
sg64
(lp3344
S''
asbasbasbag57
(g73
g59
NtRp3345
(dp3346
g62
(dp3347
sg71
g3211
sg64
(lp3348
g57
(g78
g59
NtRp3349
(dp3350
g62
(dp3351
g82
g83
ssg71
g3345
sg64
(lp3352
S'registration_key'
p3353
asbag57
(g78
g59
NtRp3354
(dp3355
g62
(dp3356
g89
g90
ssg71
g3345
sg64
(lp3357
S':'
asbag57
(g78
g59
NtRp3358
(dp3359
g62
(dp3360
sg71
g3345
sg64
(lp3361
g57
(g58
g59
NtRp3362
(dp3363
g62
(dp3364
g70
I3
ssg71
g3358
sg64
(lp3365
S''
asbasbasbag57
(g73
g59
NtRp3366
(dp3367
g62
(dp3368
sg71
g3211
sg64
(lp3369
g57
(g78
g59
NtRp3370
(dp3371
g62
(dp3372
g82
g83
ssg71
g3366
sg64
(lp3373
S'reset_password_key'
p3374
asbag57
(g78
g59
NtRp3375
(dp3376
g62
(dp3377
g89
g90
ssg71
g3366
sg64
(lp3378
S':'
asbag57
(g78
g59
NtRp3379
(dp3380
g62
(dp3381
sg71
g3366
sg64
(lp3382
g57
(g58
g59
NtRp3383
(dp3384
g62
(dp3385
g70
I3
ssg71
g3379
sg64
(lp3386
S''
asbasbasbasbasbasbasbasbasbasbasbasbasbsS'etype'
p3387
S"<type 'exceptions.NameError'>"
p3388
sS'date'
p3389
S'Tue Feb 07 16:37:48 2012'
p3390
sS'response'
p3391
g57
(g58
g59
NtRp3392
(dp3393
g62
(dp3394
sg64
(lp3395
g57
(g66
g59
NtRp3396
(dp3397
g62
(dp3398
g70
I5
ssg71
Nsg64
(lp3399
g57
(g73
g59
NtRp3400
(dp3401
g62
(dp3402
sg71
g3396
sg64
(lp3403
g57
(g78
g59
NtRp3404
(dp3405
g62
(dp3406
g82
g83
ssg71
g3400
sg64
(lp3407
g167
asbag57
(g78
g59
NtRp3408
(dp3409
g62
(dp3410
g89
g90
ssg71
g3400
sg64
(lp3411
S':'
asbag57
(g78
g59
NtRp3412
(dp3413
g62
(dp3414
sg71
g3400
sg64
(lp3415
g57
(g58
g59
NtRp3416
(dp3417
g62
(dp3418
g70
I5
ssg71
g3412
sg64
(lp3419
S'<cStringIO.StringO object at 0x0000000007AE1D88>'
p3420
asbasbasbag57
(g73
g59
NtRp3421
(dp3422
g62
(dp3423
sg71
g3396
sg64
(lp3424
g57
(g78
g59
NtRp3425
(dp3426
g62
(dp3427
g82
g83
ssg71
g3421
sg64
(lp3428
g233
asbag57
(g78
g59
NtRp3429
(dp3430
g62
(dp3431
g89
g90
ssg71
g3421
sg64
(lp3432
S':'
asbag57
(g78
g59
NtRp3433
(dp3434
g62
(dp3435
sg71
g3421
sg64
(lp3436
g57
(g58
g59
NtRp3437
(dp3438
g62
(dp3439
g70
I5
ssg71
g3433
sg64
(lp3440
g57
(g66
g59
NtRp3441
(dp3442
g62
(dp3443
g70
I4
ssg71
Nsg64
(lp3444
g57
(g73
g59
NtRp3445
(dp3446
g62
(dp3447
sg71
g3441
sg64
(lp3448
g57
(g78
g59
NtRp3449
(dp3450
g62
(dp3451
g82
g83
ssg71
g3445
sg64
(lp3452
S'session_id_welcome'
p3453
asbag57
(g78
g59
NtRp3454
(dp3455
g62
(dp3456
g89
g90
ssg71
g3445
sg64
(lp3457
S':'
asbag57
(g78
g59
NtRp3458
(dp3459
g62
(dp3460
sg71
g3445
sg64
(lp3461
g57
(g58
g59
NtRp3462
(dp3463
g62
(dp3464
g70
I4
ssg71
g3458
sg64
(lp3465
g57
(g66
g59
NtRp3466
(dp3467
g62
(dp3468
g70
I3
ssg71
Nsg64
(lp3469
g57
(g73
g59
NtRp3470
(dp3471
g62
(dp3472
sg71
g3466
sg64
(lp3473
g57
(g78
g59
NtRp3474
(dp3475
g62
(dp3476
g82
g83
ssg71
g3470
sg64
(lp3477
g283
asbag57
(g78
g59
NtRp3478
(dp3479
g62
(dp3480
g89
g90
ssg71
g3470
sg64
(lp3481
S':'
asbag57
(g78
g59
NtRp3482
(dp3483
g62
(dp3484
sg71
g3470
sg64
(lp3485
g57
(g58
g59
NtRp3486
(dp3487
g62
(dp3488
g70
I3
ssg71
g3482
sg64
(lp3489
S''
asbasbasbag57
(g73
g59
NtRp3490
(dp3491
g62
(dp3492
sg71
g3466
sg64
(lp3493
g57
(g78
g59
NtRp3494
(dp3495
g62
(dp3496
g82
g83
ssg71
g3490
sg64
(lp3497
g304
asbag57
(g78
g59
NtRp3498
(dp3499
g62
(dp3500
g89
g90
ssg71
g3490
sg64
(lp3501
S':'
asbag57
(g78
g59
NtRp3502
(dp3503
g62
(dp3504
sg71
g3490
sg64
(lp3505
g57
(g58
g59
NtRp3506
(dp3507
g62
(dp3508
g70
I3
ssg71
g3502
sg64
(lp3509
S''
asbasbasbag57
(g73
g59
NtRp3510
(dp3511
g62
(dp3512
sg71
g3466
sg64
(lp3513
g57
(g78
g59
NtRp3514
(dp3515
g62
(dp3516
g82
g83
ssg71
g3510
sg64
(lp3517
g325
asbag57
(g78
g59
NtRp3518
(dp3519
g62
(dp3520
g89
g90
ssg71
g3510
sg64
(lp3521
S':'
asbag57
(g78
g59
NtRp3522
(dp3523
g62
(dp3524
sg71
g3510
sg64
(lp3525
g57
(g58
g59
NtRp3526
(dp3527
g62
(dp3528
g70
I3
ssg71
g3522
sg64
(lp3529
S''
asbasbasbag57
(g73
g59
NtRp3530
(dp3531
g62
(dp3532
sg71
g3466
sg64
(lp3533
g57
(g78
g59
NtRp3534
(dp3535
g62
(dp3536
g82
g83
ssg71
g3530
sg64
(lp3537
g346
asbag57
(g78
g59
NtRp3538
(dp3539
g62
(dp3540
g89
g90
ssg71
g3530
sg64
(lp3541
S':'
asbag57
(g78
g59
NtRp3542
(dp3543
g62
(dp3544
sg71
g3530
sg64
(lp3545
g57
(g58
g59
NtRp3546
(dp3547
g62
(dp3548
g70
I3
ssg71
g3542
sg64
(lp3549
S''
asbasbasbag57
(g73
g59
NtRp3550
(dp3551
g62
(dp3552
sg71
g3466
sg64
(lp3553
g57
(g78
g59
NtRp3554
(dp3555
g62
(dp3556
g82
g83
ssg71
g3550
sg64
(lp3557
g367
asbag57
(g78
g59
NtRp3558
(dp3559
g62
(dp3560
g89
g90
ssg71
g3550
sg64
(lp3561
S':'
asbag57
(g78
g59
NtRp3562
(dp3563
g62
(dp3564
sg71
g3550
sg64
(lp3565
g57
(g58
g59
NtRp3566
(dp3567
g62
(dp3568
g70
I3
ssg71
g3562
sg64
(lp3569
S''
asbasbasbag57
(g73
g59
NtRp3570
(dp3571
g62
(dp3572
sg71
g3466
sg64
(lp3573
g57
(g78
g59
NtRp3574
(dp3575
g62
(dp3576
g82
g83
ssg71
g3570
sg64
(lp3577
g388
asbag57
(g78
g59
NtRp3578
(dp3579
g62
(dp3580
g89
g90
ssg71
g3570
sg64
(lp3581
S':'
asbag57
(g78
g59
NtRp3582
(dp3583
g62
(dp3584
sg71
g3570
sg64
(lp3585
g57
(g58
g59
NtRp3586
(dp3587
g62
(dp3588
g70
I3
ssg71
g3582
sg64
(lp3589
S'/'
asbasbasbag57
(g73
g59
NtRp3590
(dp3591
g62
(dp3592
sg71
g3466
sg64
(lp3593
g57
(g78
g59
NtRp3594
(dp3595
g62
(dp3596
g82
g83
ssg71
g3590
sg64
(lp3597
g409
asbag57
(g78
g59
NtRp3598
(dp3599
g62
(dp3600
g89
g90
ssg71
g3590
sg64
(lp3601
S':'
asbag57
(g78
g59
NtRp3602
(dp3603
g62
(dp3604
sg71
g3590
sg64
(lp3605
g57
(g58
g59
NtRp3606
(dp3607
g62
(dp3608
g70
I3
ssg71
g3602
sg64
(lp3609
S''
asbasbasbag57
(g73
g59
NtRp3610
(dp3611
g62
(dp3612
sg71
g3466
sg64
(lp3613
g57
(g78
g59
NtRp3614
(dp3615
g62
(dp3616
g82
g83
ssg71
g3610
sg64
(lp3617
g430
asbag57
(g78
g59
NtRp3618
(dp3619
g62
(dp3620
g89
g90
ssg71
g3610
sg64
(lp3621
S':'
asbag57
(g78
g59
NtRp3622
(dp3623
g62
(dp3624
sg71
g3610
sg64
(lp3625
g57
(g58
g59
NtRp3626
(dp3627
g62
(dp3628
g70
I3
ssg71
g3622
sg64
(lp3629
S''
asbasbasbasbasbasbasbasbasbasbasbag57
(g73
g59
NtRp3630
(dp3631
g62
(dp3632
sg71
g3396
sg64
(lp3633
g57
(g78
g59
NtRp3634
(dp3635
g62
(dp3636
g82
g83
ssg71
g3630
sg64
(lp3637
S'files'
p3638
asbag57
(g78
g59
NtRp3639
(dp3640
g62
(dp3641
g89
g90
ssg71
g3630
sg64
(lp3642
S':'
asbag57
(g78
g59
NtRp3643
(dp3644
g62
(dp3645
sg71
g3630
sg64
(lp3646
g57
(g58
g59
NtRp3647
(dp3648
g62
(dp3649
g70
I5
ssg71
g3643
sg64
(lp3650
g57
(g66
g59
NtRp3651
(dp3652
g62
(dp3653
g70
I4
ssg71
Nsg64
(lp3654
g57
(g73
g59
NtRp3655
(dp3656
g62
(dp3657
sg71
g3651
sg64
(lp3658
g57
(g78
g59
NtRp3659
(dp3660
g62
(dp3661
sg71
g3655
sg64
(lp3662
g57
(g58
g59
NtRp3663
(dp3664
g62
(dp3665
g70
I4
ssg71
g3659
sg64
(lp3666
S'/welcome/static/js/jquery.js'
p3667
asbasbasbag57
(g73
g59
NtRp3668
(dp3669
g62
(dp3670
sg71
g3651
sg64
(lp3671
g57
(g78
g59
NtRp3672
(dp3673
g62
(dp3674
sg71
g3668
sg64
(lp3675
g57
(g58
g59
NtRp3676
(dp3677
g62
(dp3678
g70
I4
ssg71
g3672
sg64
(lp3679
S'/welcome/static/css/calendar.css'
p3680
asbasbasbag57
(g73
g59
NtRp3681
(dp3682
g62
(dp3683
sg71
g3651
sg64
(lp3684
g57
(g78
g59
NtRp3685
(dp3686
g62
(dp3687
sg71
g3681
sg64
(lp3688
g57
(g58
g59
NtRp3689
(dp3690
g62
(dp3691
g70
I4
ssg71
g3685
sg64
(lp3692
S'/welcome/static/js/calendar.js'
p3693
asbasbasbag57
(g73
g59
NtRp3694
(dp3695
g62
(dp3696
sg71
g3651
sg64
(lp3697
g57
(g78
g59
NtRp3698
(dp3699
g62
(dp3700
sg71
g3694
sg64
(lp3701
g57
(g58
g59
NtRp3702
(dp3703
g62
(dp3704
g70
I4
ssg71
g3698
sg64
(lp3705
S'/welcome/static/js/web2py.js'
p3706
asbasbasbag57
(g73
g59
NtRp3707
(dp3708
g62
(dp3709
sg71
g3651
sg64
(lp3710
g57
(g78
g59
NtRp3711
(dp3712
g62
(dp3713
sg71
g3707
sg64
(lp3714
g57
(g58
g59
NtRp3715
(dp3716
g62
(dp3717
g70
I4
ssg71
g3711
sg64
(lp3718
S'/welcome/static/css/skeleton.css'
p3719
asbasbasbag57
(g73
g59
NtRp3720
(dp3721
g62
(dp3722
sg71
g3651
sg64
(lp3723
g57
(g78
g59
NtRp3724
(dp3725
g62
(dp3726
sg71
g3720
sg64
(lp3727
g57
(g58
g59
NtRp3728
(dp3729
g62
(dp3730
g70
I4
ssg71
g3724
sg64
(lp3731
S'/welcome/static/css/web2py.css'
p3732
asbasbasbag57
(g73
g59
NtRp3733
(dp3734
g62
(dp3735
sg71
g3651
sg64
(lp3736
g57
(g78
g59
NtRp3737
(dp3738
g62
(dp3739
sg71
g3733
sg64
(lp3740
g57
(g58
g59
NtRp3741
(dp3742
g62
(dp3743
g70
I4
ssg71
g3737
sg64
(lp3744
S'/welcome/static/css/superfish.css'
p3745
asbasbasbag57
(g73
g59
NtRp3746
(dp3747
g62
(dp3748
sg71
g3651
sg64
(lp3749
g57
(g78
g59
NtRp3750
(dp3751
g62
(dp3752
sg71
g3746
sg64
(lp3753
g57
(g58
g59
NtRp3754
(dp3755
g62
(dp3756
g70
I4
ssg71
g3750
sg64
(lp3757
S'/welcome/static/js/superfish.js'
p3758
asbasbasbasbasbasbasbag57
(g73
g59
NtRp3759
(dp3760
g62
(dp3761
sg71
g3396
sg64
(lp3762
g57
(g78
g59
NtRp3763
(dp3764
g62
(dp3765
g82
g83
ssg71
g3759
sg64
(lp3766
S'flash'
p3767
asbag57
(g78
g59
NtRp3768
(dp3769
g62
(dp3770
g89
g90
ssg71
g3759
sg64
(lp3771
S':'
asbag57
(g78
g59
NtRp3772
(dp3773
g62
(dp3774
sg71
g3759
sg64
(lp3775
g57
(g58
g59
NtRp3776
(dp3777
g62
(dp3778
g70
I5
ssg71
g3772
sg64
(lp3779
S''
asbasbasbag57
(g73
g59
NtRp3780
(dp3781
g62
(dp3782
sg71
g3396
sg64
(lp3783
g57
(g78
g59
NtRp3784
(dp3785
g62
(dp3786
g82
g83
ssg71
g3780
sg64
(lp3787
S'generic_patterns'
p3788
asbag57
(g78
g59
NtRp3789
(dp3790
g62
(dp3791
g89
g90
ssg71
g3780
sg64
(lp3792
S':'
asbag57
(g78
g59
NtRp3793
(dp3794
g62
(dp3795
sg71
g3780
sg64
(lp3796
g57
(g58
g59
NtRp3797
(dp3798
g62
(dp3799
g70
I5
ssg71
g3793
sg64
(lp3800
g57
(g66
g59
NtRp3801
(dp3802
g62
(dp3803
g70
I4
ssg71
Nsg64
(lp3804
g57
(g73
g59
NtRp3805
(dp3806
g62
(dp3807
sg71
g3801
sg64
(lp3808
g57
(g78
g59
NtRp3809
(dp3810
g62
(dp3811
sg71
g3805
sg64
(lp3812
g57
(g58
g59
NtRp3813
(dp3814
g62
(dp3815
g70
I4
ssg71
g3809
sg64
(lp3816
S'*'
asbasbasbasbasbasbasbag57
(g73
g59
NtRp3817
(dp3818
g62
(dp3819
sg71
g3396
sg64
(lp3820
g57
(g78
g59
NtRp3821
(dp3822
g62
(dp3823
g82
g83
ssg71
g3817
sg64
(lp3824
S'headers'
p3825
asbag57
(g78
g59
NtRp3826
(dp3827
g62
(dp3828
g89
g90
ssg71
g3817
sg64
(lp3829
S':'
asbag57
(g78
g59
NtRp3830
(dp3831
g62
(dp3832
sg71
g3817
sg64
(lp3833
g57
(g58
g59
NtRp3834
(dp3835
g62
(dp3836
g70
I5
ssg71
g3830
sg64
(lp3837
g57
(g66
g59
NtRp3838
(dp3839
g62
(dp3840
g70
I4
ssg71
Nsg64
(lp3841
g57
(g73
g59
NtRp3842
(dp3843
g62
(dp3844
sg71
g3838
sg64
(lp3845
g57
(g78
g59
NtRp3846
(dp3847
g62
(dp3848
g82
g83
ssg71
g3842
sg64
(lp3849
S'Cache-Control'
p3850
asbag57
(g78
g59
NtRp3851
(dp3852
g62
(dp3853
g89
g90
ssg71
g3842
sg64
(lp3854
S':'
asbag57
(g78
g59
NtRp3855
(dp3856
g62
(dp3857
sg71
g3842
sg64
(lp3858
g57
(g58
g59
NtRp3859
(dp3860
g62
(dp3861
g70
I4
ssg71
g3855
sg64
(lp3862
S'no-store, no-cache, must-revalidate, post-check=0, pre-check=0'
p3863
asbasbasbag57
(g73
g59
NtRp3864
(dp3865
g62
(dp3866
sg71
g3838
sg64
(lp3867
g57
(g78
g59
NtRp3868
(dp3869
g62
(dp3870
g82
g83
ssg71
g3864
sg64
(lp3871
S'Content-Type'
p3872
asbag57
(g78
g59
NtRp3873
(dp3874
g62
(dp3875
g89
g90
ssg71
g3864
sg64
(lp3876
S':'
asbag57
(g78
g59
NtRp3877
(dp3878
g62
(dp3879
sg71
g3864
sg64
(lp3880
g57
(g58
g59
NtRp3881
(dp3882
g62
(dp3883
g70
I4
ssg71
g3877
sg64
(lp3884
S'text/html; charset=utf-8'
p3885
asbasbasbag57
(g73
g59
NtRp3886
(dp3887
g62
(dp3888
sg71
g3838
sg64
(lp3889
g57
(g78
g59
NtRp3890
(dp3891
g62
(dp3892
g82
g83
ssg71
g3886
sg64
(lp3893
S'Expires'
p3894
asbag57
(g78
g59
NtRp3895
(dp3896
g62
(dp3897
g89
g90
ssg71
g3886
sg64
(lp3898
S':'
asbag57
(g78
g59
NtRp3899
(dp3900
g62
(dp3901
sg71
g3886
sg64
(lp3902
g57
(g58
g59
NtRp3903
(dp3904
g62
(dp3905
g70
I4
ssg71
g3899
sg64
(lp3906
S'Tue, 07 Feb 2012 21:37:48 GMT'
p3907
asbasbasbag57
(g73
g59
NtRp3908
(dp3909
g62
(dp3910
sg71
g3838
sg64
(lp3911
g57
(g78
g59
NtRp3912
(dp3913
g62
(dp3914
g82
g83
ssg71
g3908
sg64
(lp3915
S'Pragma'
p3916
asbag57
(g78
g59
NtRp3917
(dp3918
g62
(dp3919
g89
g90
ssg71
g3908
sg64
(lp3920
S':'
asbag57
(g78
g59
NtRp3921
(dp3922
g62
(dp3923
sg71
g3908
sg64
(lp3924
g57
(g58
g59
NtRp3925
(dp3926
g62
(dp3927
g70
I4
ssg71
g3921
sg64
(lp3928
S'no-cache'
p3929
asbasbasbag57
(g73
g59
NtRp3930
(dp3931
g62
(dp3932
sg71
g3838
sg64
(lp3933
g57
(g78
g59
NtRp3934
(dp3935
g62
(dp3936
g82
g83
ssg71
g3930
sg64
(lp3937
S'X-Powered-By'
p3938
asbag57
(g78
g59
NtRp3939
(dp3940
g62
(dp3941
g89
g90
ssg71
g3930
sg64
(lp3942
S':'
asbag57
(g78
g59
NtRp3943
(dp3944
g62
(dp3945
sg71
g3930
sg64
(lp3946
g57
(g58
g59
NtRp3947
(dp3948
g62
(dp3949
g70
I4
ssg71
g3943
sg64
(lp3950
S'web2py'
p3951
asbasbasbasbasbasbasbag57
(g73
g59
NtRp3952
(dp3953
g62
(dp3954
sg71
g3396
sg64
(lp3955
g57
(g78
g59
NtRp3956
(dp3957
g62
(dp3958
g82
g83
ssg71
g3952
sg64
(lp3959
S'menu'
p3960
asbag57
(g78
g59
NtRp3961
(dp3962
g62
(dp3963
g89
g90
ssg71
g3952
sg64
(lp3964
S':'
asbag57
(g78
g59
NtRp3965
(dp3966
g62
(dp3967
sg71
g3952
sg64
(lp3968
g57
(g58
g59
NtRp3969
(dp3970
g62
(dp3971
g70
I5
ssg71
g3965
sg64
(lp3972
g57
(g66
g59
NtRp3973
(dp3974
g62
(dp3975
g70
I4
ssg71
Nsg64
(lp3976
g57
(g73
g59
NtRp3977
(dp3978
g62
(dp3979
sg71
g3973
sg64
(lp3980
g57
(g78
g59
NtRp3981
(dp3982
g62
(dp3983
sg71
g3977
sg64
(lp3984
g57
(g58
g59
NtRp3985
(dp3986
g62
(dp3987
g70
I4
ssg71
g3981
sg64
(lp3988
g57
(g66
g59
NtRp3989
(dp3990
g62
(dp3991
g70
I3
ssg71
Nsg64
(lp3992
g57
(g73
g59
NtRp3993
(dp3994
g62
(dp3995
sg71
g3989
sg64
(lp3996
g57
(g78
g59
NtRp3997
(dp3998
g62
(dp3999
sg71
g3993
sg64
(lp4000
g57
(g58
g59
NtRp4001
(dp4002
g62
(dp4003
g70
I3
ssg71
g3997
sg64
(lp4004
cgluon.languages
lazyT_unpickle
p4005
(S't\x04\x00\x00\x00Home'
tRp4006
asbasbasbag57
(g73
g59
NtRp4007
(dp4008
g62
(dp4009
sg71
g3989
sg64
(lp4010
g57
(g78
g59
NtRp4011
(dp4012
g62
(dp4013
sg71
g4007
sg64
(lp4014
g57
(g58
g59
NtRp4015
(dp4016
g62
(dp4017
g70
I3
ssg71
g4011
sg64
(lp4018
g100
asbasbasbag57
(g73
g59
NtRp4019
(dp4020
g62
(dp4021
sg71
g3989
sg64
(lp4022
g57
(g78
g59
NtRp4023
(dp4024
g62
(dp4025
sg71
g4019
sg64
(lp4026
g57
(g58
g59
NtRp4027
(dp4028
g62
(dp4029
g70
I3
ssg71
g4023
sg64
(lp4030
S'/welcome/default/index'
p4031
asbasbasbag57
(g73
g59
NtRp4032
(dp4033
g62
(dp4034
sg71
g3989
sg64
(lp4035
g57
(g78
g59
NtRp4036
(dp4037
g62
(dp4038
sg71
g4032
sg64
(lp4039
g57
(g58
g59
NtRp4040
(dp4041
g62
(dp4042
g70
I3
ssg71
g4036
sg64
(lp4043
g57
(g66
g59
NtRp4044
(dp4045
g62
(dp4046
g70
I2
ssg71
Nsg64
(lp4047
sbasbasbasbasbasbasbasbasbasbasbasbag57
(g73
g59
NtRp4048
(dp4049
g62
(dp4050
sg71
g3396
sg64
(lp4051
g57
(g78
g59
NtRp4052
(dp4053
g62
(dp4054
g82
g83
ssg71
g4048
sg64
(lp4055
S'meta'
p4056
asbag57
(g78
g59
NtRp4057
(dp4058
g62
(dp4059
g89
g90
ssg71
g4048
sg64
(lp4060
S':'
asbag57
(g78
g59
NtRp4061
(dp4062
g62
(dp4063
sg71
g4048
sg64
(lp4064
g57
(g58
g59
NtRp4065
(dp4066
g62
(dp4067
g70
I5
ssg71
g4061
sg64
(lp4068
g57
(g66
g59
NtRp4069
(dp4070
g62
(dp4071
g70
I4
ssg71
Nsg64
(lp4072
g57
(g73
g59
NtRp4073
(dp4074
g62
(dp4075
sg71
g4069
sg64
(lp4076
g57
(g78
g59
NtRp4077
(dp4078
g62
(dp4079
g82
g83
ssg71
g4073
sg64
(lp4080
S'author'
p4081
asbag57
(g78
g59
NtRp4082
(dp4083
g62
(dp4084
g89
g90
ssg71
g4073
sg64
(lp4085
S':'
asbag57
(g78
g59
NtRp4086
(dp4087
g62
(dp4088
sg71
g4073
sg64
(lp4089
g57
(g58
g59
NtRp4090
(dp4091
g62
(dp4092
g70
I4
ssg71
g4086
sg64
(lp4093
S'Your Name <you@example.com>'
p4094
asbasbasbag57
(g73
g59
NtRp4095
(dp4096
g62
(dp4097
sg71
g4069
sg64
(lp4098
g57
(g78
g59
NtRp4099
(dp4100
g62
(dp4101
g82
g83
ssg71
g4095
sg64
(lp4102
S'copyright'
p4103
asbag57
(g78
g59
NtRp4104
(dp4105
g62
(dp4106
g89
g90
ssg71
g4095
sg64
(lp4107
S':'
asbag57
(g78
g59
NtRp4108
(dp4109
g62
(dp4110
sg71
g4095
sg64
(lp4111
g57
(g58
g59
NtRp4112
(dp4113
g62
(dp4114
g70
I4
ssg71
g4108
sg64
(lp4115
S'Copyright 2011'
p4116
asbasbasbag57
(g73
g59
NtRp4117
(dp4118
g62
(dp4119
sg71
g4069
sg64
(lp4120
g57
(g78
g59
NtRp4121
(dp4122
g62
(dp4123
g82
g83
ssg71
g4117
sg64
(lp4124
S'description'
p4125
asbag57
(g78
g59
NtRp4126
(dp4127
g62
(dp4128
g89
g90
ssg71
g4117
sg64
(lp4129
S':'
asbag57
(g78
g59
NtRp4130
(dp4131
g62
(dp4132
sg71
g4117
sg64
(lp4133
g57
(g58
g59
NtRp4134
(dp4135
g62
(dp4136
g70
I4
ssg71
g4130
sg64
(lp4137
S'a cool new app'
p4138
asbasbasbag57
(g73
g59
NtRp4139
(dp4140
g62
(dp4141
sg71
g4069
sg64
(lp4142
g57
(g78
g59
NtRp4143
(dp4144
g62
(dp4145
g82
g83
ssg71
g4139
sg64
(lp4146
S'generator'
p4147
asbag57
(g78
g59
NtRp4148
(dp4149
g62
(dp4150
g89
g90
ssg71
g4139
sg64
(lp4151
S':'
asbag57
(g78
g59
NtRp4152
(dp4153
g62
(dp4154
sg71
g4139
sg64
(lp4155
g57
(g58
g59
NtRp4156
(dp4157
g62
(dp4158
g70
I4
ssg71
g4152
sg64
(lp4159
S'Web2py Web Framework'
p4160
asbasbasbag57
(g73
g59
NtRp4161
(dp4162
g62
(dp4163
sg71
g4069
sg64
(lp4164
g57
(g78
g59
NtRp4165
(dp4166
g62
(dp4167
g82
g83
ssg71
g4161
sg64
(lp4168
S'keywords'
p4169
asbag57
(g78
g59
NtRp4170
(dp4171
g62
(dp4172
g89
g90
ssg71
g4161
sg64
(lp4173
S':'
asbag57
(g78
g59
NtRp4174
(dp4175
g62
(dp4176
sg71
g4161
sg64
(lp4177
g57
(g58
g59
NtRp4178
(dp4179
g62
(dp4180
g70
I4
ssg71
g4174
sg64
(lp4181
S'web2py, python, framework'
p4182
asbasbasbasbasbasbasbag57
(g73
g59
NtRp4183
(dp4184
g62
(dp4185
sg71
g3396
sg64
(lp4186
g57
(g78
g59
NtRp4187
(dp4188
g62
(dp4189
g82
g83
ssg71
g4183
sg64
(lp4190
S'postprocessing'
p4191
asbag57
(g78
g59
NtRp4192
(dp4193
g62
(dp4194
g89
g90
ssg71
g4183
sg64
(lp4195
S':'
asbag57
(g78
g59
NtRp4196
(dp4197
g62
(dp4198
sg71
g4183
sg64
(lp4199
g57
(g58
g59
NtRp4200
(dp4201
g62
(dp4202
g70
I5
ssg71
g4196
sg64
(lp4203
g57
(g66
g59
NtRp4204
(dp4205
g62
(dp4206
g70
I4
ssg71
Nsg64
(lp4207
sbasbasbasbag57
(g73
g59
NtRp4208
(dp4209
g62
(dp4210
sg71
g3396
sg64
(lp4211
g57
(g78
g59
NtRp4212
(dp4213
g62
(dp4214
g82
g83
ssg71
g4208
sg64
(lp4215
S'session_file'
p4216
asbag57
(g78
g59
NtRp4217
(dp4218
g62
(dp4219
g89
g90
ssg71
g4208
sg64
(lp4220
S':'
asbag57
(g78
g59
NtRp4221
(dp4222
g62
(dp4223
sg71
g4208
sg64
(lp4224
g57
(g58
g59
NtRp4225
(dp4226
g62
(dp4227
g70
I5
ssg71
g4221
sg64
(lp4228
S"<open file 'C:\\Users\\mellinja\\Documents\\SC2Tracker\\SC2TourneyTracker\\web2py\\applications\\welcome\\sessions\\127.0.0.1-5b61f96d-52a5-4e52-805f-552fe78bcf40', mode 'rb+' at 0x000000000942FC00>"
p4229
asbasbasbag57
(g73
g59
NtRp4230
(dp4231
g62
(dp4232
sg71
g3396
sg64
(lp4233
g57
(g78
g59
NtRp4234
(dp4235
g62
(dp4236
g82
g83
ssg71
g4230
sg64
(lp4237
S'session_filename'
p4238
asbag57
(g78
g59
NtRp4239
(dp4240
g62
(dp4241
g89
g90
ssg71
g4230
sg64
(lp4242
S':'
asbag57
(g78
g59
NtRp4243
(dp4244
g62
(dp4245
sg71
g4230
sg64
(lp4246
g57
(g58
g59
NtRp4247
(dp4248
g62
(dp4249
g70
I5
ssg71
g4243
sg64
(lp4250
S'C:\\Users\\mellinja\\Documents\\SC2Tracker\\SC2TourneyTracker\\web2py\\applications\\welcome\\sessions\\127.0.0.1-5b61f96d-52a5-4e52-805f-552fe78bcf40'
p4251
asbasbasbag57
(g73
g59
NtRp4252
(dp4253
g62
(dp4254
sg71
g3396
sg64
(lp4255
g57
(g78
g59
NtRp4256
(dp4257
g62
(dp4258
g82
g83
ssg71
g4252
sg64
(lp4259
S'session_id'
p4260
asbag57
(g78
g59
NtRp4261
(dp4262
g62
(dp4263
g89
g90
ssg71
g4252
sg64
(lp4264
S':'
asbag57
(g78
g59
NtRp4265
(dp4266
g62
(dp4267
sg71
g4252
sg64
(lp4268
g57
(g58
g59
NtRp4269
(dp4270
g62
(dp4271
g70
I5
ssg71
g4265
sg64
(lp4272
S'127.0.0.1-5b61f96d-52a5-4e52-805f-552fe78bcf40'
p4273
asbasbasbag57
(g73
g59
NtRp4274
(dp4275
g62
(dp4276
sg71
g3396
sg64
(lp4277
g57
(g78
g59
NtRp4278
(dp4279
g62
(dp4280
g82
g83
ssg71
g4274
sg64
(lp4281
S'session_id_name'
p4282
asbag57
(g78
g59
NtRp4283
(dp4284
g62
(dp4285
g89
g90
ssg71
g4274
sg64
(lp4286
S':'
asbag57
(g78
g59
NtRp4287
(dp4288
g62
(dp4289
sg71
g4274
sg64
(lp4290
g57
(g58
g59
NtRp4291
(dp4292
g62
(dp4293
g70
I5
ssg71
g4287
sg64
(lp4294
g3453
asbasbasbag57
(g73
g59
NtRp4295
(dp4296
g62
(dp4297
sg71
g3396
sg64
(lp4298
g57
(g78
g59
NtRp4299
(dp4300
g62
(dp4301
g82
g83
ssg71
g4295
sg64
(lp4302
S'session_locked'
p4303
asbag57
(g78
g59
NtRp4304
(dp4305
g62
(dp4306
g89
g90
ssg71
g4295
sg64
(lp4307
S':'
asbag57
(g78
g59
NtRp4308
(dp4309
g62
(dp4310
sg71
g4295
sg64
(lp4311
g57
(g58
g59
NtRp4312
(dp4313
g62
(dp4314
g70
I5
ssg71
g4308
sg64
(lp4315
g1690
asbasbasbag57
(g73
g59
NtRp4316
(dp4317
g62
(dp4318
sg71
g3396
sg64
(lp4319
g57
(g78
g59
NtRp4320
(dp4321
g62
(dp4322
g82
g83
ssg71
g4316
sg64
(lp4323
S'session_new'
p4324
asbag57
(g78
g59
NtRp4325
(dp4326
g62
(dp4327
g89
g90
ssg71
g4316
sg64
(lp4328
S':'
asbag57
(g78
g59
NtRp4329
(dp4330
g62
(dp4331
sg71
g4316
sg64
(lp4332
g57
(g58
g59
NtRp4333
(dp4334
g62
(dp4335
g70
I5
ssg71
g4329
sg64
(lp4336
g100
asbasbasbag57
(g73
g59
NtRp4337
(dp4338
g62
(dp4339
sg71
g3396
sg64
(lp4340
g57
(g78
g59
NtRp4341
(dp4342
g62
(dp4343
g82
g83
ssg71
g4337
sg64
(lp4344
S'status'
p4345
asbag57
(g78
g59
NtRp4346
(dp4347
g62
(dp4348
g89
g90
ssg71
g4337
sg64
(lp4349
S':'
asbag57
(g78
g59
NtRp4350
(dp4351
g62
(dp4352
sg71
g4337
sg64
(lp4353
g57
(g58
g59
NtRp4354
(dp4355
g62
(dp4356
g70
I5
ssg71
g4350
sg64
(lp4357
S'200'
p4358
asbasbasbag57
(g73
g59
NtRp4359
(dp4360
g62
(dp4361
sg71
g3396
sg64
(lp4362
g57
(g78
g59
NtRp4363
(dp4364
g62
(dp4365
g82
g83
ssg71
g4359
sg64
(lp4366
S'subtitle'
p4367
asbag57
(g78
g59
NtRp4368
(dp4369
g62
(dp4370
g89
g90
ssg71
g4359
sg64
(lp4371
S':'
asbag57
(g78
g59
NtRp4372
(dp4373
g62
(dp4374
sg71
g4359
sg64
(lp4375
g57
(g58
g59
NtRp4376
(dp4377
g62
(dp4378
g70
I5
ssg71
g4372
sg64
(lp4379
g4005
(S's2\x00\x00\x00Starcraft II Custom Tournament Tracker Version 0.1'
tRp4380
asbasbasbag57
(g73
g59
NtRp4381
(dp4382
g62
(dp4383
sg71
g3396
sg64
(lp4384
g57
(g78
g59
NtRp4385
(dp4386
g62
(dp4387
g82
g83
ssg71
g4381
sg64
(lp4388
S'title'
p4389
asbag57
(g78
g59
NtRp4390
(dp4391
g62
(dp4392
g89
g90
ssg71
g4381
sg64
(lp4393
S':'
asbag57
(g78
g59
NtRp4394
(dp4395
g62
(dp4396
sg71
g4381
sg64
(lp4397
g57
(g58
g59
NtRp4398
(dp4399
g62
(dp4400
g70
I5
ssg71
g4394
sg64
(lp4401
S'SC2CTT v0.1'
p4402
asbasbasbag57
(g73
g59
NtRp4403
(dp4404
g62
(dp4405
sg71
g3396
sg64
(lp4406
g57
(g78
g59
NtRp4407
(dp4408
g62
(dp4409
g82
g83
ssg71
g4403
sg64
(lp4410
g2375
asbag57
(g78
g59
NtRp4411
(dp4412
g62
(dp4413
g89
g90
ssg71
g4403
sg64
(lp4414
S':'
asbag57
(g78
g59
NtRp4415
(dp4416
g62
(dp4417
sg71
g4403
sg64
(lp4418
g57
(g58
g59
NtRp4419
(dp4420
g62
(dp4421
g70
I5
ssg71
g4415
sg64
(lp4422
g2388
asbasbasbag57
(g73
g59
NtRp4423
(dp4424
g62
(dp4425
sg71
g3396
sg64
(lp4426
g57
(g78
g59
NtRp4427
(dp4428
g62
(dp4429
g82
g83
ssg71
g4423
sg64
(lp4430
S'view'
p4431
asbag57
(g78
g59
NtRp4432
(dp4433
g62
(dp4434
g89
g90
ssg71
g4423
sg64
(lp4435
S':'
asbag57
(g78
g59
NtRp4436
(dp4437
g62
(dp4438
sg71
g4423
sg64
(lp4439
g57
(g58
g59
NtRp4440
(dp4441
g62
(dp4442
g70
I5
ssg71
g4436
sg64
(lp4443
S'tournament/show.html'
p4444
asbasbasbasbasbsS'locals'
p4445
(dp4446
S'Service'
p4447
S"<class 'gluon.tools.Service'>"
p4448
sS'OBJECT'
p4449
S"<class 'gluon.html.OBJECT'>"
p4450
sS'SQLDB'
p4451
S"<class 'gluon.dal.DAL'>"
p4452
sg3090
S"<Storage {'_formkey[profile]': 'bd24b323-a0e3-49...sword]': 'c729ed9f-5853-46a4-a7cc-b6d6823df209'}>"
p4453
sS'LINK'
p4454
S"<class 'gluon.html.LINK'>"
p4455
sS'BR'
p4456
S"<class 'gluon.html.BR'>"
p4457
sS'local_import'
p4458
S'<function <lambda>>'
p4459
sS'OPTGROUP'
p4460
S"<class 'gluon.html.OPTGROUP'>"
p4461
sS'PRE'
p4462
S"<class 'gluon.html.PRE'>"
p4463
sS'IS_INT_IN_RANGE'
p4464
S"<class 'gluon.validators.IS_INT_IN_RANGE'>"
p4465
sS'left_sidebar_enabled'
p4466
g100
sS'IS_LOWER'
p4467
S"<class 'gluon.validators.IS_LOWER'>"
p4468
sS'IS_STRONG'
p4469
S"<class 'gluon.validators.IS_STRONG'>"
p4470
sS'cache'
p4471
S'<gluon.cache.Cache object>'
p4472
sS'IS_IN_DB'
p4473
S"<class 'gluon.validators.IS_IN_DB'>"
p4474
sS'TAG'
p4475
S'<gluon.html.__TAG__ object>'
p4476
sS'SQLField'
p4477
S"<class 'gluon.dal.Field'>"
p4478
sS'mail'
p4479
S'<gluon.tools.Mail object>'
p4480
sS'BODY'
p4481
S"<class 'gluon.html.BODY'>"
p4482
sS'IS_DATE_IN_RANGE'
p4483
S"<class 'gluon.validators.IS_DATE_IN_RANGE'>"
p4484
sS'TH'
p4485
S"<class 'gluon.html.TH'>"
p4486
sS'URL'
p4487
S'<function URL>'
p4488
sS'__file__'
p4489
S"r'C:\\Users\\mellinja\\Documents\\SC2Tracker\\SC2Tourne...y\\applications\\welcome\\views\\tournament/show.html'"
p4490
sS'db'
p4491
S"<DAL {'auth_event': <Table {'origin': <gluon.dal...gluon.dal.Field object at 0x0000000009DB22B0>}>}>"
p4492
sS'auth'
p4493
S'<gluon.tools.Auth object>'
p4494
sS'P'
S"<class 'gluon.html.P'>"
p4495
sS'TFOOT'
p4496
S"<class 'gluon.html.TFOOT'>"
p4497
sS'XHTML'
p4498
S"<class 'gluon.html.XHTML'>"
p4499
sS'ON'
p4500
g1690
sS'OL'
p4501
S"<class 'gluon.html.OL'>"
p4502
sS'TEXTAREA'
p4503
S"<class 'gluon.html.TEXTAREA'>"
p4504
sS'MENU'
p4505
S"<class 'gluon.html.MENU'>"
p4506
sS'LOAD'
p4507
S'<function LOAD>'
p4508
sS'CODE'
p4509
S"<class 'gluon.html.CODE'>"
p4510
sS'HTTP'
p4511
S"<class 'gluon.http.HTTP'>"
p4512
sS'HR'
p4513
S"<class 'gluon.html.HR'>"
p4514
sS'IS_DATETIME'
p4515
S"<class 'gluon.validators.IS_DATETIME'>"
p4516
sS'HEAD'
p4517
S"<class 'gluon.html.HEAD'>"
p4518
sS'LABEL'
p4519
S"<class 'gluon.html.LABEL'>"
p4520
sS'CLEANUP'
p4521
S"<class 'gluon.validators.CLEANUP'>"
p4522
sS'plugins'
p4523
S'<gluon.tools.PluginManager object>'
p4524
sS'SELECT'
p4525
S"<class 'gluon.html.SELECT'>"
p4526
sS'use_janrain'
p4527
S'<function use_janrain>'
p4528
sS'CENTER'
p4529
S"<class 'gluon.html.CENTER'>"
p4530
sS'prettydate'
p4531
S'<function prettydate>'
p4532
sS'Crud'
p4533
S"<class 'gluon.tools.Crud'>"
p4534
sS'Auth'
p4535
S"<class 'gluon.tools.Auth'>"
p4536
sS'__builtins__'
p4537
S"{'ArithmeticError': <type 'exceptions.ArithmeticError'>, 'AssertionError': <type 'exceptions.AssertionError'>, 'AttributeError': <type 'exceptions.AttributeError'>, 'BaseException': <type 'exceptions.BaseException'>, 'BufferError': <type 'exceptions.BufferError'>, 'BytesWarning': <type 'exceptions.BytesWarning'>, 'DeprecationWarning': <type 'exceptions.DeprecationWarning'>, 'EOFError': <type 'exceptions.EOFError'>, 'Ellipsis': Ellipsis, 'EnvironmentError': <type 'exceptions.EnvironmentError'>, ...}"
p4538
sS'HTML'
p4539
S"<class 'gluon.html.HTML'>"
p4540
sS'SQLFORM'
p4541
S"<class 'gluon.sqlhtml.SQLFORM'>"
p4542
sS'EM'
p4543
S"<class 'gluon.html.EM'>"
p4544
sS'redirect'
p4545
S'<function redirect>'
p4546
sS'FIELDSET'
p4547
S"<class 'gluon.html.FIELDSET'>"
p4548
sS'IS_EQUAL_TO'
p4549
S"<class 'gluon.validators.IS_EQUAL_TO'>"
p4550
sS'embed64'
p4551
S'<function embed64>'
p4552
sS'IS_LIST_OF'
p4553
S"<class 'gluon.validators.IS_LIST_OF'>"
p4554
sS'INPUT'
p4555
S"<class 'gluon.html.INPUT'>"
p4556
sS'EMBED'
p4557
S"<class 'gluon.html.EMBED'>"
p4558
sS'_'
S'<function _>'
p4559
sS'FORM'
p4560
S"<class 'gluon.html.FORM'>"
p4561
sS'H2'
p4562
S"<class 'gluon.html.H2'>"
p4563
sS'H3'
p4564
S"<class 'gluon.html.H3'>"
p4565
sS'BUTTON'
p4566
S"<class 'gluon.html.BUTTON'>"
p4567
sS'H1'
p4568
S"<class 'gluon.html.H1'>"
p4569
sS'H6'
p4570
S"<class 'gluon.html.H6'>"
p4571
sS'H4'
p4572
S"<class 'gluon.html.H4'>"
p4573
sS'H5'
p4574
S"<class 'gluon.html.H5'>"
p4575
sS'UL'
p4576
S"<class 'gluon.html.UL'>"
p4577
sS'IS_UPPER'
p4578
S"<class 'gluon.validators.IS_UPPER'>"
p4579
sS'xmlescape'
p4580
S'<function xmlescape>'
p4581
sS'IS_TIME'
p4582
S"<class 'gluon.validators.IS_TIME'>"
p4583
sS'OPTION'
p4584
S"<class 'gluon.html.OPTION'>"
p4585
sS'TITLE'
p4586
S"<class 'gluon.html.TITLE'>"
p4587
sS'CRYPT'
p4588
S"<class 'gluon.validators.CRYPT'>"
p4589
sS'IS_EMPTY_OR'
p4590
S"<class 'gluon.validators.IS_EMPTY_OR'>"
p4591
sS'MARKMIN'
p4592
S"<class 'gluon.html.MARKMIN'>"
p4593
sS'COL'
p4594
S"<class 'gluon.html.COL'>"
p4595
sS'service'
p4596
S'<gluon.tools.Service object>'
p4597
sS'SCRIPT'
p4598
S"<class 'gluon.html.SCRIPT'>"
p4599
sS'is_mobile'
p4600
g100
sS'TABLE'
p4601
S"<class 'gluon.html.TABLE'>"
p4602
sS'IS_IPV4'
p4603
S"<class 'gluon.validators.IS_IPV4'>"
p4604
sS'IS_LENGTH'
p4605
S"<class 'gluon.validators.IS_LENGTH'>"
p4606
sS'XML'
p4607
S"<class 'gluon.html.XML'>"
p4608
sS'B'
S"<class 'gluon.html.B'>"
p4609
sS'IMG'
p4610
S"<class 'gluon.html.IMG'>"
p4611
sS'SQLTABLE'
p4612
S"<class 'gluon.sqlhtml.SQLTABLE'>"
p4613
sS'IS_MATCH'
p4614
S"<class 'gluon.validators.IS_MATCH'>"
p4615
sS'IS_ALPHANUMERIC'
p4616
S"<class 'gluon.validators.IS_ALPHANUMERIC'>"
p4617
sS'SPAN'
p4618
S"<class 'gluon.html.SPAN'>"
p4619
sS'IS_SLUG'
p4620
S"<class 'gluon.validators.IS_SLUG'>"
p4621
sS'BEAUTIFY'
p4622
S"<class 'gluon.html.BEAUTIFY'>"
p4623
sS'META'
p4624
S"<class 'gluon.html.META'>"
p4625
sS'IS_DATE'
p4626
S"<class 'gluon.validators.IS_DATE'>"
p4627
sS'IS_EMAIL'
p4628
S"<class 'gluon.validators.IS_EMAIL'>"
p4629
sS'IS_NOT_EMPTY'
p4630
S"<class 'gluon.validators.IS_NOT_EMPTY'>"
p4631
sS'IS_FLOAT_IN_RANGE'
p4632
S"<class 'gluon.validators.IS_FLOAT_IN_RANGE'>"
p4633
sS'TBODY'
p4634
S"<class 'gluon.html.TBODY'>"
p4635
sS'CAT'
p4636
S"<class 'gluon.html.CAT'>"
p4637
sS'Field'
p4638
S"<class 'gluon.dal.Field'>"
p4639
sS'middle_columns'
p4640
S"'sixteen'"
p4641
sS'DIV'
p4642
S"<class 'gluon.html.DIV'>"
p4643
sS'LEGEND'
p4644
S"<class 'gluon.html.LEGEND'>"
p4645
sS'COLGROUP'
p4646
S"<class 'gluon.html.COLGROUP'>"
p4647
sS'DAL'
p4648
S"<class 'gluon.dal.DAL'>"
p4649
sS'TT'
p4650
S"<class 'gluon.html.TT'>"
p4651
sS'TR'
p4652
S"<class 'gluon.html.TR'>"
p4653
sS'LI'
p4654
S"<class 'gluon.html.LI'>"
p4655
sS'right_sidebar_enabled'
p4656
g100
sS'IFRAME'
p4657
S"<class 'gluon.html.IFRAME'>"
p4658
sS'test'
p4659
S"[(7, 'TestTourney', 1, 1)]"
p4660
sS'TD'
p4661
S"<class 'gluon.html.TD'>"
p4662
sS'PluginManager'
p4663
S"<class 'gluon.tools.PluginManager'>"
p4664
sS'IS_URL'
p4665
S"<class 'gluon.validators.IS_URL'>"
p4666
sS'A'
S"<class 'gluon.html.A'>"
p4667
sS'STYLE'
p4668
S"<class 'gluon.html.STYLE'>"
p4669
sS'IS_DATETIME_IN_RANGE'
p4670
S"<class 'gluon.validators.IS_DATETIME_IN_RANGE'>"
p4671
sS'IS_IMAGE'
p4672
S"<class 'gluon.validators.IS_IMAGE'>"
p4673
sS'I'
S"<class 'gluon.html.I'>"
p4674
sS'crud'
p4675
S'<gluon.tools.Crud object>'
p4676
sS'IS_NOT_IN_DB'
p4677
S"<class 'gluon.validators.IS_NOT_IN_DB'>"
p4678
sg3391
S"<Storage {'body': <cStringIO.StringO object at 0...0000000790D438>, 'view': 'tournament/show.html'}>"
p4679
sS'THEAD'
p4680
S"<class 'gluon.html.THEAD'>"
p4681
sS'IS_NULL_OR'
p4682
S"<class 'gluon.validators.IS_EMPTY_OR'>"
p4683
sg56
S"<Storage {'body': <cStringIO.StringO object at 0..._vars': <Storage {}>, 'post_vars': <Storage {}>}>"
p4684
sS'IS_EXPR'
p4685
S"<class 'gluon.validators.IS_EXPR'>"
p4686
sS'T'
S'<gluon.languages.translator object>'
p4687
sS'IS_IN_SET'
p4688
S"<class 'gluon.validators.IS_IN_SET'>"
p4689
sS'IS_UPLOAD_FILENAME'
p4690
S"<class 'gluon.validators.IS_UPLOAD_FILENAME'>"
p4691
sS'IS_DECIMAL_IN_RANGE'
p4692
S"<class 'gluon.validators.IS_DECIMAL_IN_RANGE'>"
p4693
sssS'traceback'
p4694
S'Traceback (most recent call last):\n  File "C:\\Users\\mellinja\\Documents\\SC2Tracker\\SC2TourneyTracker\\web2py\\gluon\\restricted.py", line 204, in restricted\n    exec ccode in environment\n  File "C:\\Users\\mellinja\\Documents\\SC2Tracker\\SC2TourneyTracker\\web2py\\applications\\welcome\\views\\tournament/show.html", line 78, in <module>\nNameError: name \'form\' is not defined\n'
p4695
s.