(dp1
S'output'
p2
S"<class 'pyodbc.ProgrammingError'> ('42000', '[42000] [Microsoft][ODBC SQL Server Driver]Syntax error or access violation (0) (SQLExecDirectW)')"
p3
sS'layer'
p4
S'C:\\Users\\mellinja\\Documents\\SC2Tracker\\SC2Tracker2\\web2py\\applications\\welcome\\controllers/tournament.py'
p5
sS'code'
p6
S'# coding: utf8\n#\ndef index(): \n    #db = DAL(\'mssql://cheungkt:mechanes5@whale.cs.rose-hulman.edu/SC2tracker\')\n    tournies = db.executesql(\'SELECT Name, ID FROM Tournament\')\n    return dict(tournament = tournies)\n    \ndef show():\n    \n    tourny = db.executesql(\'SELECT * FROM Tournament WHERE ID = \' + str(request.args(0)))\n    pids = db(db.Player.Auth_User_ID == auth.user_id).select()\n    pnames = []\n    for player in pids:\n        pnames += db.executesql("SELECT InGameName FROM Player WHERE ID = "+str(player))\n    form = FORM(\'Join as: \',INPUT(_name = \'In_Game_Name\', requires=IS_IN_SET(pnames)), INPUT(_type = \'submit\'))\n    return dict(tourny = tourny,form = form)\n\nresponse._vars=response._caller(show)\n'
p7
sS'snapshot'
p8
(dp9
S'exception'
p10
(dp11
S'__module__'
p12
S"'pyodbc'"
p13
sS'__getslice__'
p14
S"<method-wrapper '__getslice__' of ProgrammingError object>"
p15
sS'__str__'
p16
S"<method-wrapper '__str__' of ProgrammingError object>"
p17
sS'__reduce__'
p18
S'<built-in method __reduce__ of ProgrammingError object>'
p19
sS'__dict__'
p20
S'{}'
p21
sS'__sizeof__'
p22
S'<built-in method __sizeof__ of ProgrammingError object>'
p23
sS'__weakref__'
p24
S'None'
p25
sS'__init__'
p26
S"<method-wrapper '__init__' of ProgrammingError object>"
p27
sS'__setattr__'
p28
S"<method-wrapper '__setattr__' of ProgrammingError object>"
p29
sS'__reduce_ex__'
p30
S'<built-in method __reduce_ex__ of ProgrammingError object>'
p31
sS'__new__'
p32
S'<built-in method __new__ of type object>'
p33
sS'__format__'
p34
S'<built-in method __format__ of ProgrammingError object>'
p35
sS'__class__'
p36
S"<class 'pyodbc.ProgrammingError'>"
p37
sS'__doc__'
p38
S"'Exception raised for programming errors, e.g. ta...ement, wrong number of parameters\\nspecified, etc.'"
p39
sS'__getitem__'
p40
S"<method-wrapper '__getitem__' of ProgrammingError object>"
p41
sS'__setstate__'
p42
S'<built-in method __setstate__ of ProgrammingError object>'
p43
sS'__getattribute__'
p44
S"<method-wrapper '__getattribute__' of ProgrammingError object>"
p45
sS'args'
p46
S"('42000', '[42000] [Microsoft][ODBC SQL Server Driver]Syntax error or access violation (0) (SQLExecDirectW)')"
p47
sS'__subclasshook__'
p48
S'<built-in method __subclasshook__ of type object>'
p49
sS'__unicode__'
p50
S'<built-in method __unicode__ of ProgrammingError object>'
p51
sS'__delattr__'
p52
S"<method-wrapper '__delattr__' of ProgrammingError object>"
p53
sS'__repr__'
p54
S"<method-wrapper '__repr__' of ProgrammingError object>"
p55
sS'__hash__'
p56
S"<method-wrapper '__hash__' of ProgrammingError object>"
p57
ssS'evalue'
p58
S"('42000', '[42000] [Microsoft][ODBC SQL Server Driver]Syntax error or access violation (0) (SQLExecDirectW)')"
p59
sS'request'
p60
ccopy_reg
_reconstructor
p61
(cgluon.html
BEAUTIFY
p62
c__builtin__
object
p63
NtRp64
(dp65
S'attributes'
p66
(dp67
sS'components'
p68
(lp69
g61
(cgluon.html
TABLE
p70
g63
NtRp71
(dp72
g66
(dp73
S'level'
p74
I5
ssS'parent'
p75
Nsg68
(lp76
g61
(cgluon.html
TR
p77
g63
NtRp78
(dp79
g66
(dp80
sg75
g71
sg68
(lp81
g61
(cgluon.html
TD
p82
g63
NtRp83
(dp84
g66
(dp85
S'_style'
p86
S'font-weight:bold;vertical-align:top'
p87
ssg75
g78
sg68
(lp88
S'ajax'
p89
asbag61
(g82
g63
NtRp90
(dp91
g66
(dp92
S'_valign'
p93
S'top'
p94
ssg75
g78
sg68
(lp95
S':'
asbag61
(g82
g63
NtRp96
(dp97
g66
(dp98
sg75
g78
sg68
(lp99
g61
(g62
g63
NtRp100
(dp101
g66
(dp102
g74
I5
ssg75
g96
sg68
(lp103
S'False'
p104
asbasbasbag61
(g77
g63
NtRp105
(dp106
g66
(dp107
sg75
g71
sg68
(lp108
g61
(g82
g63
NtRp109
(dp110
g66
(dp111
g86
g87
ssg75
g105
sg68
(lp112
S'application'
p113
asbag61
(g82
g63
NtRp114
(dp115
g66
(dp116
g93
g94
ssg75
g105
sg68
(lp117
S':'
asbag61
(g82
g63
NtRp118
(dp119
g66
(dp120
sg75
g105
sg68
(lp121
g61
(g62
g63
NtRp122
(dp123
g66
(dp124
g74
I5
ssg75
g118
sg68
(lp125
S'welcome'
p126
asbasbasbag61
(g77
g63
NtRp127
(dp128
g66
(dp129
sg75
g71
sg68
(lp130
g61
(g82
g63
NtRp131
(dp132
g66
(dp133
g86
g87
ssg75
g127
sg68
(lp134
g46
asbag61
(g82
g63
NtRp135
(dp136
g66
(dp137
g93
g94
ssg75
g127
sg68
(lp138
S':'
asbag61
(g82
g63
NtRp139
(dp140
g66
(dp141
sg75
g127
sg68
(lp142
g61
(g62
g63
NtRp143
(dp144
g66
(dp145
g74
I5
ssg75
g139
sg68
(lp146
g61
(g70
g63
NtRp147
(dp148
g66
(dp149
g74
I4
ssg75
Nsg68
(lp150
g61
(g77
g63
NtRp151
(dp152
g66
(dp153
sg75
g147
sg68
(lp154
g61
(g82
g63
NtRp155
(dp156
g66
(dp157
sg75
g151
sg68
(lp158
g61
(g62
g63
NtRp159
(dp160
g66
(dp161
g74
I4
ssg75
g155
sg68
(lp162
S'7'
asbasbasbasbasbasbasbag61
(g77
g63
NtRp163
(dp164
g66
(dp165
sg75
g71
sg68
(lp166
g61
(g82
g63
NtRp167
(dp168
g66
(dp169
g86
g87
ssg75
g163
sg68
(lp170
S'body'
p171
asbag61
(g82
g63
NtRp172
(dp173
g66
(dp174
g93
g94
ssg75
g163
sg68
(lp175
S':'
asbag61
(g82
g63
NtRp176
(dp177
g66
(dp178
sg75
g163
sg68
(lp179
g61
(g62
g63
NtRp180
(dp181
g66
(dp182
g74
I5
ssg75
g176
sg68
(lp183
S'<cStringIO.StringO object at 0x000000000887C768>'
p184
asbasbasbag61
(g77
g63
NtRp185
(dp186
g66
(dp187
sg75
g71
sg68
(lp188
g61
(g82
g63
NtRp189
(dp190
g66
(dp191
g86
g87
ssg75
g185
sg68
(lp192
S'client'
p193
asbag61
(g82
g63
NtRp194
(dp195
g66
(dp196
g93
g94
ssg75
g185
sg68
(lp197
S':'
asbag61
(g82
g63
NtRp198
(dp199
g66
(dp200
sg75
g185
sg68
(lp201
g61
(g62
g63
NtRp202
(dp203
g66
(dp204
g74
I5
ssg75
g198
sg68
(lp205
S'127.0.0.1'
p206
asbasbasbag61
(g77
g63
NtRp207
(dp208
g66
(dp209
sg75
g71
sg68
(lp210
g61
(g82
g63
NtRp211
(dp212
g66
(dp213
g86
g87
ssg75
g207
sg68
(lp214
S'controller'
p215
asbag61
(g82
g63
NtRp216
(dp217
g66
(dp218
g93
g94
ssg75
g207
sg68
(lp219
S':'
asbag61
(g82
g63
NtRp220
(dp221
g66
(dp222
sg75
g207
sg68
(lp223
g61
(g62
g63
NtRp224
(dp225
g66
(dp226
g74
I5
ssg75
g220
sg68
(lp227
S'tournament'
p228
asbasbasbag61
(g77
g63
NtRp229
(dp230
g66
(dp231
sg75
g71
sg68
(lp232
g61
(g82
g63
NtRp233
(dp234
g66
(dp235
g86
g87
ssg75
g229
sg68
(lp236
S'cookies'
p237
asbag61
(g82
g63
NtRp238
(dp239
g66
(dp240
g93
g94
ssg75
g229
sg68
(lp241
S':'
asbag61
(g82
g63
NtRp242
(dp243
g66
(dp244
sg75
g229
sg68
(lp245
g61
(g62
g63
NtRp246
(dp247
g66
(dp248
g74
I5
ssg75
g242
sg68
(lp249
g61
(g70
g63
NtRp250
(dp251
g66
(dp252
g74
I4
ssg75
Nsg68
(lp253
g61
(g77
g63
NtRp254
(dp255
g66
(dp256
sg75
g250
sg68
(lp257
g61
(g82
g63
NtRp258
(dp259
g66
(dp260
g86
g87
ssg75
g254
sg68
(lp261
S'session_id_admin'
p262
asbag61
(g82
g63
NtRp263
(dp264
g66
(dp265
g93
g94
ssg75
g254
sg68
(lp266
S':'
asbag61
(g82
g63
NtRp267
(dp268
g66
(dp269
sg75
g254
sg68
(lp270
g61
(g62
g63
NtRp271
(dp272
g66
(dp273
g74
I4
ssg75
g267
sg68
(lp274
g61
(g70
g63
NtRp275
(dp276
g66
(dp277
g74
I3
ssg75
Nsg68
(lp278
g61
(g77
g63
NtRp279
(dp280
g66
(dp281
sg75
g275
sg68
(lp282
g61
(g82
g63
NtRp283
(dp284
g66
(dp285
g86
g87
ssg75
g279
sg68
(lp286
S'comment'
p287
asbag61
(g82
g63
NtRp288
(dp289
g66
(dp290
g93
g94
ssg75
g279
sg68
(lp291
S':'
asbag61
(g82
g63
NtRp292
(dp293
g66
(dp294
sg75
g279
sg68
(lp295
g61
(g62
g63
NtRp296
(dp297
g66
(dp298
g74
I3
ssg75
g292
sg68
(lp299
S''
asbasbasbag61
(g77
g63
NtRp300
(dp301
g66
(dp302
sg75
g275
sg68
(lp303
g61
(g82
g63
NtRp304
(dp305
g66
(dp306
g86
g87
ssg75
g300
sg68
(lp307
S'domain'
p308
asbag61
(g82
g63
NtRp309
(dp310
g66
(dp311
g93
g94
ssg75
g300
sg68
(lp312
S':'
asbag61
(g82
g63
NtRp313
(dp314
g66
(dp315
sg75
g300
sg68
(lp316
g61
(g62
g63
NtRp317
(dp318
g66
(dp319
g74
I3
ssg75
g313
sg68
(lp320
S''
asbasbasbag61
(g77
g63
NtRp321
(dp322
g66
(dp323
sg75
g275
sg68
(lp324
g61
(g82
g63
NtRp325
(dp326
g66
(dp327
g86
g87
ssg75
g321
sg68
(lp328
S'expires'
p329
asbag61
(g82
g63
NtRp330
(dp331
g66
(dp332
g93
g94
ssg75
g321
sg68
(lp333
S':'
asbag61
(g82
g63
NtRp334
(dp335
g66
(dp336
sg75
g321
sg68
(lp337
g61
(g62
g63
NtRp338
(dp339
g66
(dp340
g74
I3
ssg75
g334
sg68
(lp341
S''
asbasbasbag61
(g77
g63
NtRp342
(dp343
g66
(dp344
sg75
g275
sg68
(lp345
g61
(g82
g63
NtRp346
(dp347
g66
(dp348
g86
g87
ssg75
g342
sg68
(lp349
S'httponly'
p350
asbag61
(g82
g63
NtRp351
(dp352
g66
(dp353
g93
g94
ssg75
g342
sg68
(lp354
S':'
asbag61
(g82
g63
NtRp355
(dp356
g66
(dp357
sg75
g342
sg68
(lp358
g61
(g62
g63
NtRp359
(dp360
g66
(dp361
g74
I3
ssg75
g355
sg68
(lp362
S''
asbasbasbag61
(g77
g63
NtRp363
(dp364
g66
(dp365
sg75
g275
sg68
(lp366
g61
(g82
g63
NtRp367
(dp368
g66
(dp369
g86
g87
ssg75
g363
sg68
(lp370
S'max-age'
p371
asbag61
(g82
g63
NtRp372
(dp373
g66
(dp374
g93
g94
ssg75
g363
sg68
(lp375
S':'
asbag61
(g82
g63
NtRp376
(dp377
g66
(dp378
sg75
g363
sg68
(lp379
g61
(g62
g63
NtRp380
(dp381
g66
(dp382
g74
I3
ssg75
g376
sg68
(lp383
S''
asbasbasbag61
(g77
g63
NtRp384
(dp385
g66
(dp386
sg75
g275
sg68
(lp387
g61
(g82
g63
NtRp388
(dp389
g66
(dp390
g86
g87
ssg75
g384
sg68
(lp391
S'path'
p392
asbag61
(g82
g63
NtRp393
(dp394
g66
(dp395
g93
g94
ssg75
g384
sg68
(lp396
S':'
asbag61
(g82
g63
NtRp397
(dp398
g66
(dp399
sg75
g384
sg68
(lp400
g61
(g62
g63
NtRp401
(dp402
g66
(dp403
g74
I3
ssg75
g397
sg68
(lp404
S''
asbasbasbag61
(g77
g63
NtRp405
(dp406
g66
(dp407
sg75
g275
sg68
(lp408
g61
(g82
g63
NtRp409
(dp410
g66
(dp411
g86
g87
ssg75
g405
sg68
(lp412
S'secure'
p413
asbag61
(g82
g63
NtRp414
(dp415
g66
(dp416
g93
g94
ssg75
g405
sg68
(lp417
S':'
asbag61
(g82
g63
NtRp418
(dp419
g66
(dp420
sg75
g405
sg68
(lp421
g61
(g62
g63
NtRp422
(dp423
g66
(dp424
g74
I3
ssg75
g418
sg68
(lp425
S''
asbasbasbag61
(g77
g63
NtRp426
(dp427
g66
(dp428
sg75
g275
sg68
(lp429
g61
(g82
g63
NtRp430
(dp431
g66
(dp432
g86
g87
ssg75
g426
sg68
(lp433
S'version'
p434
asbag61
(g82
g63
NtRp435
(dp436
g66
(dp437
g93
g94
ssg75
g426
sg68
(lp438
S':'
asbag61
(g82
g63
NtRp439
(dp440
g66
(dp441
sg75
g426
sg68
(lp442
g61
(g62
g63
NtRp443
(dp444
g66
(dp445
g74
I3
ssg75
g439
sg68
(lp446
S''
asbasbasbasbasbasbasbag61
(g77
g63
NtRp447
(dp448
g66
(dp449
sg75
g250
sg68
(lp450
g61
(g82
g63
NtRp451
(dp452
g66
(dp453
g86
g87
ssg75
g447
sg68
(lp454
S'session_id_welcome'
p455
asbag61
(g82
g63
NtRp456
(dp457
g66
(dp458
g93
g94
ssg75
g447
sg68
(lp459
S':'
asbag61
(g82
g63
NtRp460
(dp461
g66
(dp462
sg75
g447
sg68
(lp463
g61
(g62
g63
NtRp464
(dp465
g66
(dp466
g74
I4
ssg75
g460
sg68
(lp467
g61
(g70
g63
NtRp468
(dp469
g66
(dp470
g74
I3
ssg75
Nsg68
(lp471
g61
(g77
g63
NtRp472
(dp473
g66
(dp474
sg75
g468
sg68
(lp475
g61
(g82
g63
NtRp476
(dp477
g66
(dp478
g86
g87
ssg75
g472
sg68
(lp479
g287
asbag61
(g82
g63
NtRp480
(dp481
g66
(dp482
g93
g94
ssg75
g472
sg68
(lp483
S':'
asbag61
(g82
g63
NtRp484
(dp485
g66
(dp486
sg75
g472
sg68
(lp487
g61
(g62
g63
NtRp488
(dp489
g66
(dp490
g74
I3
ssg75
g484
sg68
(lp491
S''
asbasbasbag61
(g77
g63
NtRp492
(dp493
g66
(dp494
sg75
g468
sg68
(lp495
g61
(g82
g63
NtRp496
(dp497
g66
(dp498
g86
g87
ssg75
g492
sg68
(lp499
g308
asbag61
(g82
g63
NtRp500
(dp501
g66
(dp502
g93
g94
ssg75
g492
sg68
(lp503
S':'
asbag61
(g82
g63
NtRp504
(dp505
g66
(dp506
sg75
g492
sg68
(lp507
g61
(g62
g63
NtRp508
(dp509
g66
(dp510
g74
I3
ssg75
g504
sg68
(lp511
S''
asbasbasbag61
(g77
g63
NtRp512
(dp513
g66
(dp514
sg75
g468
sg68
(lp515
g61
(g82
g63
NtRp516
(dp517
g66
(dp518
g86
g87
ssg75
g512
sg68
(lp519
g329
asbag61
(g82
g63
NtRp520
(dp521
g66
(dp522
g93
g94
ssg75
g512
sg68
(lp523
S':'
asbag61
(g82
g63
NtRp524
(dp525
g66
(dp526
sg75
g512
sg68
(lp527
g61
(g62
g63
NtRp528
(dp529
g66
(dp530
g74
I3
ssg75
g524
sg68
(lp531
S''
asbasbasbag61
(g77
g63
NtRp532
(dp533
g66
(dp534
sg75
g468
sg68
(lp535
g61
(g82
g63
NtRp536
(dp537
g66
(dp538
g86
g87
ssg75
g532
sg68
(lp539
g350
asbag61
(g82
g63
NtRp540
(dp541
g66
(dp542
g93
g94
ssg75
g532
sg68
(lp543
S':'
asbag61
(g82
g63
NtRp544
(dp545
g66
(dp546
sg75
g532
sg68
(lp547
g61
(g62
g63
NtRp548
(dp549
g66
(dp550
g74
I3
ssg75
g544
sg68
(lp551
S''
asbasbasbag61
(g77
g63
NtRp552
(dp553
g66
(dp554
sg75
g468
sg68
(lp555
g61
(g82
g63
NtRp556
(dp557
g66
(dp558
g86
g87
ssg75
g552
sg68
(lp559
g371
asbag61
(g82
g63
NtRp560
(dp561
g66
(dp562
g93
g94
ssg75
g552
sg68
(lp563
S':'
asbag61
(g82
g63
NtRp564
(dp565
g66
(dp566
sg75
g552
sg68
(lp567
g61
(g62
g63
NtRp568
(dp569
g66
(dp570
g74
I3
ssg75
g564
sg68
(lp571
S''
asbasbasbag61
(g77
g63
NtRp572
(dp573
g66
(dp574
sg75
g468
sg68
(lp575
g61
(g82
g63
NtRp576
(dp577
g66
(dp578
g86
g87
ssg75
g572
sg68
(lp579
g392
asbag61
(g82
g63
NtRp580
(dp581
g66
(dp582
g93
g94
ssg75
g572
sg68
(lp583
S':'
asbag61
(g82
g63
NtRp584
(dp585
g66
(dp586
sg75
g572
sg68
(lp587
g61
(g62
g63
NtRp588
(dp589
g66
(dp590
g74
I3
ssg75
g584
sg68
(lp591
S''
asbasbasbag61
(g77
g63
NtRp592
(dp593
g66
(dp594
sg75
g468
sg68
(lp595
g61
(g82
g63
NtRp596
(dp597
g66
(dp598
g86
g87
ssg75
g592
sg68
(lp599
g413
asbag61
(g82
g63
NtRp600
(dp601
g66
(dp602
g93
g94
ssg75
g592
sg68
(lp603
S':'
asbag61
(g82
g63
NtRp604
(dp605
g66
(dp606
sg75
g592
sg68
(lp607
g61
(g62
g63
NtRp608
(dp609
g66
(dp610
g74
I3
ssg75
g604
sg68
(lp611
S''
asbasbasbag61
(g77
g63
NtRp612
(dp613
g66
(dp614
sg75
g468
sg68
(lp615
g61
(g82
g63
NtRp616
(dp617
g66
(dp618
g86
g87
ssg75
g612
sg68
(lp619
g434
asbag61
(g82
g63
NtRp620
(dp621
g66
(dp622
g93
g94
ssg75
g612
sg68
(lp623
S':'
asbag61
(g82
g63
NtRp624
(dp625
g66
(dp626
sg75
g612
sg68
(lp627
g61
(g62
g63
NtRp628
(dp629
g66
(dp630
g74
I3
ssg75
g624
sg68
(lp631
S''
asbasbasbasbasbasbasbasbasbasbasbag61
(g77
g63
NtRp632
(dp633
g66
(dp634
sg75
g71
sg68
(lp635
g61
(g82
g63
NtRp636
(dp637
g66
(dp638
g86
g87
ssg75
g632
sg68
(lp639
S'env'
p640
asbag61
(g82
g63
NtRp641
(dp642
g66
(dp643
g93
g94
ssg75
g632
sg68
(lp644
S':'
asbag61
(g82
g63
NtRp645
(dp646
g66
(dp647
sg75
g632
sg68
(lp648
g61
(g62
g63
NtRp649
(dp650
g66
(dp651
g74
I5
ssg75
g645
sg68
(lp652
g61
(g70
g63
NtRp653
(dp654
g66
(dp655
g74
I4
ssg75
Nsg68
(lp656
g61
(g77
g63
NtRp657
(dp658
g66
(dp659
sg75
g653
sg68
(lp660
g61
(g82
g63
NtRp661
(dp662
g66
(dp663
g86
g87
ssg75
g657
sg68
(lp664
S'app_folders'
p665
asbag61
(g82
g63
NtRp666
(dp667
g66
(dp668
g93
g94
ssg75
g657
sg68
(lp669
S':'
asbag61
(g82
g63
NtRp670
(dp671
g66
(dp672
sg75
g657
sg68
(lp673
g61
(g62
g63
NtRp674
(dp675
g66
(dp676
g74
I4
ssg75
g670
sg68
(lp677
S"set(['C:\\\\Users\\\\mellinja\\\\Documents\\\\SC2Tracker\\\\SC2Tracker2\\\\web2py\\\\applications\\\\welcome\\\\', 'C:\\\\Users\\\\mellinja\\\\Documents\\\\SC2Tracker\\\\SC2Tracker2\\\\web2py\\\\applications\\\\admin\\\\'])"
p678
asbasbasbag61
(g77
g63
NtRp679
(dp680
g66
(dp681
sg75
g653
sg68
(lp682
g61
(g82
g63
NtRp683
(dp684
g66
(dp685
g86
g87
ssg75
g679
sg68
(lp686
S'applications_parent'
p687
asbag61
(g82
g63
NtRp688
(dp689
g66
(dp690
g93
g94
ssg75
g679
sg68
(lp691
S':'
asbag61
(g82
g63
NtRp692
(dp693
g66
(dp694
sg75
g679
sg68
(lp695
g61
(g62
g63
NtRp696
(dp697
g66
(dp698
g74
I4
ssg75
g692
sg68
(lp699
S'C:\\Users\\mellinja\\Documents\\SC2Tracker\\SC2Tracker2\\web2py'
p700
asbasbasbag61
(g77
g63
NtRp701
(dp702
g66
(dp703
sg75
g653
sg68
(lp704
g61
(g82
g63
NtRp705
(dp706
g66
(dp707
g86
g87
ssg75
g701
sg68
(lp708
S'cmd_args'
p709
asbag61
(g82
g63
NtRp710
(dp711
g66
(dp712
g93
g94
ssg75
g701
sg68
(lp713
S':'
asbag61
(g82
g63
NtRp714
(dp715
g66
(dp716
sg75
g701
sg68
(lp717
g61
(g62
g63
NtRp718
(dp719
g66
(dp720
g74
I4
ssg75
g714
sg68
(lp721
g61
(g70
g63
NtRp722
(dp723
g66
(dp724
g74
I3
ssg75
Nsg68
(lp725
sbasbasbasbag61
(g77
g63
NtRp726
(dp727
g66
(dp728
sg75
g653
sg68
(lp729
g61
(g82
g63
NtRp730
(dp731
g66
(dp732
g86
g87
ssg75
g726
sg68
(lp733
S'cmd_options'
p734
asbag61
(g82
g63
NtRp735
(dp736
g66
(dp737
g93
g94
ssg75
g726
sg68
(lp738
S':'
asbag61
(g82
g63
NtRp739
(dp740
g66
(dp741
sg75
g726
sg68
(lp742
g61
(g62
g63
NtRp743
(dp744
g66
(dp745
g74
I4
ssg75
g739
sg68
(lp746
S"<Values at 0x37275c8: {'verbose': False, 'ip': '127.0.0.1', 'shutdown_timeout': 5, 'taskbar': False, 'nocron': False, 'pid_filename': 'httpserver.pid', 'maxthreads': None, 'softcron': False, 'server_name': 'mellinja-PC', 'bpython': False, 'nogui': False, 'port': 8000, 'extcron': False, 'debuglevel': 30, 'test': None, 'folder': 'C:\\\\Users\\\\mellinja\\\\Documents\\\\SC2Tracker\\\\SC2Tracker2\\\\web2py', 'config': '', 'import_models': False, 'winservice': '', 'shell': None, 'run': '', 'log_filename': 'httpserver.log', 'args': [''], 'socket_timeout': 1, 'ssl_ca_certificate': None, 'scheduler': None, 'profiler_filename': None, 'ssl_private_key': '', 'password': '<ask>', 'request_queue_size': 5, 'ssl_certificate': '', 'cronjob': False, 'numthreads': None, 'quiet': False, 'interfaces': None, 'minthreads': None, 'timeout': 10, 'plain': False, 'nobanner': False}>"
p747
asbasbasbag61
(g77
g63
NtRp748
(dp749
g66
(dp750
sg75
g653
sg68
(lp751
g61
(g82
g63
NtRp752
(dp753
g66
(dp754
g86
g87
ssg75
g748
sg68
(lp755
S'db_sessions'
p756
asbag61
(g82
g63
NtRp757
(dp758
g66
(dp759
g93
g94
ssg75
g748
sg68
(lp760
S':'
asbag61
(g82
g63
NtRp761
(dp762
g66
(dp763
sg75
g748
sg68
(lp764
g61
(g62
g63
NtRp765
(dp766
g66
(dp767
g74
I4
ssg75
g761
sg68
(lp768
S'set([])'
p769
asbasbasbag61
(g77
g63
NtRp770
(dp771
g66
(dp772
sg75
g653
sg68
(lp773
g61
(g82
g63
NtRp774
(dp775
g66
(dp776
g86
g87
ssg75
g770
sg68
(lp777
S'debugging'
p778
asbag61
(g82
g63
NtRp779
(dp780
g66
(dp781
g93
g94
ssg75
g770
sg68
(lp782
S':'
asbag61
(g82
g63
NtRp783
(dp784
g66
(dp785
sg75
g770
sg68
(lp786
g61
(g62
g63
NtRp787
(dp788
g66
(dp789
g74
I4
ssg75
g783
sg68
(lp790
g104
asbasbasbag61
(g77
g63
NtRp791
(dp792
g66
(dp793
sg75
g653
sg68
(lp794
g61
(g82
g63
NtRp795
(dp796
g66
(dp797
g86
g87
ssg75
g791
sg68
(lp798
S'gluon_parent'
p799
asbag61
(g82
g63
NtRp800
(dp801
g66
(dp802
g93
g94
ssg75
g791
sg68
(lp803
S':'
asbag61
(g82
g63
NtRp804
(dp805
g66
(dp806
sg75
g791
sg68
(lp807
g61
(g62
g63
NtRp808
(dp809
g66
(dp810
g74
I4
ssg75
g804
sg68
(lp811
S'C:\\Users\\mellinja\\Documents\\SC2Tracker\\SC2Tracker2\\web2py'
p812
asbasbasbag61
(g77
g63
NtRp813
(dp814
g66
(dp815
sg75
g653
sg68
(lp816
g61
(g82
g63
NtRp817
(dp818
g66
(dp819
g86
g87
ssg75
g813
sg68
(lp820
S'http_accept'
p821
asbag61
(g82
g63
NtRp822
(dp823
g66
(dp824
g93
g94
ssg75
g813
sg68
(lp825
S':'
asbag61
(g82
g63
NtRp826
(dp827
g66
(dp828
sg75
g813
sg68
(lp829
g61
(g62
g63
NtRp830
(dp831
g66
(dp832
g74
I4
ssg75
g826
sg68
(lp833
S'text/html,application/xhtml+xml,application/xml;q=0.9,*/*;q=0.8'
p834
asbasbasbag61
(g77
g63
NtRp835
(dp836
g66
(dp837
sg75
g653
sg68
(lp838
g61
(g82
g63
NtRp839
(dp840
g66
(dp841
g86
g87
ssg75
g835
sg68
(lp842
S'http_accept_charset'
p843
asbag61
(g82
g63
NtRp844
(dp845
g66
(dp846
g93
g94
ssg75
g835
sg68
(lp847
S':'
asbag61
(g82
g63
NtRp848
(dp849
g66
(dp850
sg75
g835
sg68
(lp851
g61
(g62
g63
NtRp852
(dp853
g66
(dp854
g74
I4
ssg75
g848
sg68
(lp855
S'ISO-8859-1,utf-8;q=0.7,*;q=0.3'
p856
asbasbasbag61
(g77
g63
NtRp857
(dp858
g66
(dp859
sg75
g653
sg68
(lp860
g61
(g82
g63
NtRp861
(dp862
g66
(dp863
g86
g87
ssg75
g857
sg68
(lp864
S'http_accept_encoding'
p865
asbag61
(g82
g63
NtRp866
(dp867
g66
(dp868
g93
g94
ssg75
g857
sg68
(lp869
S':'
asbag61
(g82
g63
NtRp870
(dp871
g66
(dp872
sg75
g857
sg68
(lp873
g61
(g62
g63
NtRp874
(dp875
g66
(dp876
g74
I4
ssg75
g870
sg68
(lp877
S'gzip,deflate,sdch'
p878
asbasbasbag61
(g77
g63
NtRp879
(dp880
g66
(dp881
sg75
g653
sg68
(lp882
g61
(g82
g63
NtRp883
(dp884
g66
(dp885
g86
g87
ssg75
g879
sg68
(lp886
S'http_accept_language'
p887
asbag61
(g82
g63
NtRp888
(dp889
g66
(dp890
g93
g94
ssg75
g879
sg68
(lp891
S':'
asbag61
(g82
g63
NtRp892
(dp893
g66
(dp894
sg75
g879
sg68
(lp895
g61
(g62
g63
NtRp896
(dp897
g66
(dp898
g74
I4
ssg75
g892
sg68
(lp899
S'en-US,en;q=0.8'
p900
asbasbasbag61
(g77
g63
NtRp901
(dp902
g66
(dp903
sg75
g653
sg68
(lp904
g61
(g82
g63
NtRp905
(dp906
g66
(dp907
g86
g87
ssg75
g901
sg68
(lp908
S'http_cache_control'
p909
asbag61
(g82
g63
NtRp910
(dp911
g66
(dp912
g93
g94
ssg75
g901
sg68
(lp913
S':'
asbag61
(g82
g63
NtRp914
(dp915
g66
(dp916
sg75
g901
sg68
(lp917
g61
(g62
g63
NtRp918
(dp919
g66
(dp920
g74
I4
ssg75
g914
sg68
(lp921
S'max-age=0'
p922
asbasbasbag61
(g77
g63
NtRp923
(dp924
g66
(dp925
sg75
g653
sg68
(lp926
g61
(g82
g63
NtRp927
(dp928
g66
(dp929
g86
g87
ssg75
g923
sg68
(lp930
S'http_connection'
p931
asbag61
(g82
g63
NtRp932
(dp933
g66
(dp934
g93
g94
ssg75
g923
sg68
(lp935
S':'
asbag61
(g82
g63
NtRp936
(dp937
g66
(dp938
sg75
g923
sg68
(lp939
g61
(g62
g63
NtRp940
(dp941
g66
(dp942
g74
I4
ssg75
g936
sg68
(lp943
S'keep-alive'
p944
asbasbasbag61
(g77
g63
NtRp945
(dp946
g66
(dp947
sg75
g653
sg68
(lp948
g61
(g82
g63
NtRp949
(dp950
g66
(dp951
g86
g87
ssg75
g945
sg68
(lp952
S'http_cookie'
p953
asbag61
(g82
g63
NtRp954
(dp955
g66
(dp956
g93
g94
ssg75
g945
sg68
(lp957
S':'
asbag61
(g82
g63
NtRp958
(dp959
g66
(dp960
sg75
g945
sg68
(lp961
g61
(g62
g63
NtRp962
(dp963
g66
(dp964
g74
I4
ssg75
g958
sg68
(lp965
S'session_id_welcome=127.0.0.1-a90ce443-1437-4832-bce2-e811b9654eea; session_id_admin=127.0.0.1-4a630a3d-354c-4fe8-8759-a1634a574f0b'
p966
asbasbasbag61
(g77
g63
NtRp967
(dp968
g66
(dp969
sg75
g653
sg68
(lp970
g61
(g82
g63
NtRp971
(dp972
g66
(dp973
g86
g87
ssg75
g967
sg68
(lp974
S'http_host'
p975
asbag61
(g82
g63
NtRp976
(dp977
g66
(dp978
g93
g94
ssg75
g967
sg68
(lp979
S':'
asbag61
(g82
g63
NtRp980
(dp981
g66
(dp982
sg75
g967
sg68
(lp983
g61
(g62
g63
NtRp984
(dp985
g66
(dp986
g74
I4
ssg75
g980
sg68
(lp987
S'127.0.0.1:8000'
p988
asbasbasbag61
(g77
g63
NtRp989
(dp990
g66
(dp991
sg75
g653
sg68
(lp992
g61
(g82
g63
NtRp993
(dp994
g66
(dp995
g86
g87
ssg75
g989
sg68
(lp996
S'http_referer'
p997
asbag61
(g82
g63
NtRp998
(dp999
g66
(dp1000
g93
g94
ssg75
g989
sg68
(lp1001
S':'
asbag61
(g82
g63
NtRp1002
(dp1003
g66
(dp1004
sg75
g989
sg68
(lp1005
g61
(g62
g63
NtRp1006
(dp1007
g66
(dp1008
g74
I4
ssg75
g1002
sg68
(lp1009
S'http://127.0.0.1:8000/welcome/tournament/index'
p1010
asbasbasbag61
(g77
g63
NtRp1011
(dp1012
g66
(dp1013
sg75
g653
sg68
(lp1014
g61
(g82
g63
NtRp1015
(dp1016
g66
(dp1017
g86
g87
ssg75
g1011
sg68
(lp1018
S'http_user_agent'
p1019
asbag61
(g82
g63
NtRp1020
(dp1021
g66
(dp1022
g93
g94
ssg75
g1011
sg68
(lp1023
S':'
asbag61
(g82
g63
NtRp1024
(dp1025
g66
(dp1026
sg75
g1011
sg68
(lp1027
g61
(g62
g63
NtRp1028
(dp1029
g66
(dp1030
g74
I4
ssg75
g1024
sg68
(lp1031
S'Mozilla/5.0 (Windows NT 6.1; WOW64) AppleWebKit/535.7 (KHTML, like Gecko) Chrome/16.0.912.77 Safari/535.7'
p1032
asbasbasbag61
(g77
g63
NtRp1033
(dp1034
g66
(dp1035
sg75
g653
sg68
(lp1036
g61
(g82
g63
NtRp1037
(dp1038
g66
(dp1039
g86
g87
ssg75
g1033
sg68
(lp1040
S'is_jython'
p1041
asbag61
(g82
g63
NtRp1042
(dp1043
g66
(dp1044
g93
g94
ssg75
g1033
sg68
(lp1045
S':'
asbag61
(g82
g63
NtRp1046
(dp1047
g66
(dp1048
sg75
g1033
sg68
(lp1049
g61
(g62
g63
NtRp1050
(dp1051
g66
(dp1052
g74
I4
ssg75
g1046
sg68
(lp1053
g104
asbasbasbag61
(g77
g63
NtRp1054
(dp1055
g66
(dp1056
sg75
g653
sg68
(lp1057
g61
(g82
g63
NtRp1058
(dp1059
g66
(dp1060
g86
g87
ssg75
g1054
sg68
(lp1061
S'is_pypy'
p1062
asbag61
(g82
g63
NtRp1063
(dp1064
g66
(dp1065
g93
g94
ssg75
g1054
sg68
(lp1066
S':'
asbag61
(g82
g63
NtRp1067
(dp1068
g66
(dp1069
sg75
g1054
sg68
(lp1070
g61
(g62
g63
NtRp1071
(dp1072
g66
(dp1073
g74
I4
ssg75
g1067
sg68
(lp1074
g104
asbasbasbag61
(g77
g63
NtRp1075
(dp1076
g66
(dp1077
sg75
g653
sg68
(lp1078
g61
(g82
g63
NtRp1079
(dp1080
g66
(dp1081
g86
g87
ssg75
g1075
sg68
(lp1082
S'path_info'
p1083
asbag61
(g82
g63
NtRp1084
(dp1085
g66
(dp1086
g93
g94
ssg75
g1075
sg68
(lp1087
S':'
asbag61
(g82
g63
NtRp1088
(dp1089
g66
(dp1090
sg75
g1075
sg68
(lp1091
g61
(g62
g63
NtRp1092
(dp1093
g66
(dp1094
g74
I4
ssg75
g1088
sg68
(lp1095
S'/welcome/tournament/show/7'
p1096
asbasbasbag61
(g77
g63
NtRp1097
(dp1098
g66
(dp1099
sg75
g653
sg68
(lp1100
g61
(g82
g63
NtRp1101
(dp1102
g66
(dp1103
g86
g87
ssg75
g1097
sg68
(lp1104
S'query_string'
p1105
asbag61
(g82
g63
NtRp1106
(dp1107
g66
(dp1108
g93
g94
ssg75
g1097
sg68
(lp1109
S':'
asbag61
(g82
g63
NtRp1110
(dp1111
g66
(dp1112
sg75
g1097
sg68
(lp1113
g61
(g62
g63
NtRp1114
(dp1115
g66
(dp1116
g74
I4
ssg75
g1110
sg68
(lp1117
S''
asbasbasbag61
(g77
g63
NtRp1118
(dp1119
g66
(dp1120
sg75
g653
sg68
(lp1121
g61
(g82
g63
NtRp1122
(dp1123
g66
(dp1124
g86
g87
ssg75
g1118
sg68
(lp1125
S'remote_addr'
p1126
asbag61
(g82
g63
NtRp1127
(dp1128
g66
(dp1129
g93
g94
ssg75
g1118
sg68
(lp1130
S':'
asbag61
(g82
g63
NtRp1131
(dp1132
g66
(dp1133
sg75
g1118
sg68
(lp1134
g61
(g62
g63
NtRp1135
(dp1136
g66
(dp1137
g74
I4
ssg75
g1131
sg68
(lp1138
g206
asbasbasbag61
(g77
g63
NtRp1139
(dp1140
g66
(dp1141
sg75
g653
sg68
(lp1142
g61
(g82
g63
NtRp1143
(dp1144
g66
(dp1145
g86
g87
ssg75
g1139
sg68
(lp1146
S'remote_port'
p1147
asbag61
(g82
g63
NtRp1148
(dp1149
g66
(dp1150
g93
g94
ssg75
g1139
sg68
(lp1151
S':'
asbag61
(g82
g63
NtRp1152
(dp1153
g66
(dp1154
sg75
g1139
sg68
(lp1155
g61
(g62
g63
NtRp1156
(dp1157
g66
(dp1158
g74
I4
ssg75
g1152
sg68
(lp1159
S'53692'
p1160
asbasbasbag61
(g77
g63
NtRp1161
(dp1162
g66
(dp1163
sg75
g653
sg68
(lp1164
g61
(g82
g63
NtRp1165
(dp1166
g66
(dp1167
g86
g87
ssg75
g1161
sg68
(lp1168
S'request_method'
p1169
asbag61
(g82
g63
NtRp1170
(dp1171
g66
(dp1172
g93
g94
ssg75
g1161
sg68
(lp1173
S':'
asbag61
(g82
g63
NtRp1174
(dp1175
g66
(dp1176
sg75
g1161
sg68
(lp1177
g61
(g62
g63
NtRp1178
(dp1179
g66
(dp1180
g74
I4
ssg75
g1174
sg68
(lp1181
S'GET'
p1182
asbasbasbag61
(g77
g63
NtRp1183
(dp1184
g66
(dp1185
sg75
g653
sg68
(lp1186
g61
(g82
g63
NtRp1187
(dp1188
g66
(dp1189
g86
g87
ssg75
g1183
sg68
(lp1190
S'script_name'
p1191
asbag61
(g82
g63
NtRp1192
(dp1193
g66
(dp1194
g93
g94
ssg75
g1183
sg68
(lp1195
S':'
asbag61
(g82
g63
NtRp1196
(dp1197
g66
(dp1198
sg75
g1183
sg68
(lp1199
g61
(g62
g63
NtRp1200
(dp1201
g66
(dp1202
g74
I4
ssg75
g1196
sg68
(lp1203
S''
asbasbasbag61
(g77
g63
NtRp1204
(dp1205
g66
(dp1206
sg75
g653
sg68
(lp1207
g61
(g82
g63
NtRp1208
(dp1209
g66
(dp1210
g86
g87
ssg75
g1204
sg68
(lp1211
S'server_name'
p1212
asbag61
(g82
g63
NtRp1213
(dp1214
g66
(dp1215
g93
g94
ssg75
g1204
sg68
(lp1216
S':'
asbag61
(g82
g63
NtRp1217
(dp1218
g66
(dp1219
sg75
g1204
sg68
(lp1220
g61
(g62
g63
NtRp1221
(dp1222
g66
(dp1223
g74
I4
ssg75
g1217
sg68
(lp1224
S'mellinja-PC'
p1225
asbasbasbag61
(g77
g63
NtRp1226
(dp1227
g66
(dp1228
sg75
g653
sg68
(lp1229
g61
(g82
g63
NtRp1230
(dp1231
g66
(dp1232
g86
g87
ssg75
g1226
sg68
(lp1233
S'server_port'
p1234
asbag61
(g82
g63
NtRp1235
(dp1236
g66
(dp1237
g93
g94
ssg75
g1226
sg68
(lp1238
S':'
asbag61
(g82
g63
NtRp1239
(dp1240
g66
(dp1241
sg75
g1226
sg68
(lp1242
g61
(g62
g63
NtRp1243
(dp1244
g66
(dp1245
g74
I4
ssg75
g1239
sg68
(lp1246
S'8000'
p1247
asbasbasbag61
(g77
g63
NtRp1248
(dp1249
g66
(dp1250
sg75
g653
sg68
(lp1251
g61
(g82
g63
NtRp1252
(dp1253
g66
(dp1254
g86
g87
ssg75
g1248
sg68
(lp1255
S'server_protocol'
p1256
asbag61
(g82
g63
NtRp1257
(dp1258
g66
(dp1259
g93
g94
ssg75
g1248
sg68
(lp1260
S':'
asbag61
(g82
g63
NtRp1261
(dp1262
g66
(dp1263
sg75
g1248
sg68
(lp1264
g61
(g62
g63
NtRp1265
(dp1266
g66
(dp1267
g74
I4
ssg75
g1261
sg68
(lp1268
S'HTTP/1.1'
p1269
asbasbasbag61
(g77
g63
NtRp1270
(dp1271
g66
(dp1272
sg75
g653
sg68
(lp1273
g61
(g82
g63
NtRp1274
(dp1275
g66
(dp1276
g86
g87
ssg75
g1270
sg68
(lp1277
S'server_software'
p1278
asbag61
(g82
g63
NtRp1279
(dp1280
g66
(dp1281
g93
g94
ssg75
g1270
sg68
(lp1282
S':'
asbag61
(g82
g63
NtRp1283
(dp1284
g66
(dp1285
sg75
g1270
sg68
(lp1286
g61
(g62
g63
NtRp1287
(dp1288
g66
(dp1289
g74
I4
ssg75
g1283
sg68
(lp1290
S'Rocket 1.2.4'
p1291
asbasbasbag61
(g77
g63
NtRp1292
(dp1293
g66
(dp1294
sg75
g653
sg68
(lp1295
g61
(g82
g63
NtRp1296
(dp1297
g66
(dp1298
g86
g87
ssg75
g1292
sg68
(lp1299
S'web2py_crontype'
p1300
asbag61
(g82
g63
NtRp1301
(dp1302
g66
(dp1303
g93
g94
ssg75
g1292
sg68
(lp1304
S':'
asbag61
(g82
g63
NtRp1305
(dp1306
g66
(dp1307
sg75
g1292
sg68
(lp1308
g61
(g62
g63
NtRp1309
(dp1310
g66
(dp1311
g74
I4
ssg75
g1305
sg68
(lp1312
S'hard'
p1313
asbasbasbag61
(g77
g63
NtRp1314
(dp1315
g66
(dp1316
sg75
g653
sg68
(lp1317
g61
(g82
g63
NtRp1318
(dp1319
g66
(dp1320
g86
g87
ssg75
g1314
sg68
(lp1321
S'web2py_path'
p1322
asbag61
(g82
g63
NtRp1323
(dp1324
g66
(dp1325
g93
g94
ssg75
g1314
sg68
(lp1326
S':'
asbag61
(g82
g63
NtRp1327
(dp1328
g66
(dp1329
sg75
g1314
sg68
(lp1330
g61
(g62
g63
NtRp1331
(dp1332
g66
(dp1333
g74
I4
ssg75
g1327
sg68
(lp1334
g700
asbasbasbag61
(g77
g63
NtRp1335
(dp1336
g66
(dp1337
sg75
g653
sg68
(lp1338
g61
(g82
g63
NtRp1339
(dp1340
g66
(dp1341
g86
g87
ssg75
g1335
sg68
(lp1342
S'web2py_version'
p1343
asbag61
(g82
g63
NtRp1344
(dp1345
g66
(dp1346
g93
g94
ssg75
g1335
sg68
(lp1347
S':'
asbag61
(g82
g63
NtRp1348
(dp1349
g66
(dp1350
sg75
g1335
sg68
(lp1351
g61
(g62
g63
NtRp1352
(dp1353
g66
(dp1354
g74
I4
ssg75
g1348
sg68
(lp1355
g61
(g70
g63
NtRp1356
(dp1357
g66
(dp1358
g74
I3
ssg75
Nsg68
(lp1359
g61
(g77
g63
NtRp1360
(dp1361
g66
(dp1362
sg75
g1356
sg68
(lp1363
g61
(g82
g63
NtRp1364
(dp1365
g66
(dp1366
sg75
g1360
sg68
(lp1367
g61
(g62
g63
NtRp1368
(dp1369
g66
(dp1370
g74
I3
ssg75
g1364
sg68
(lp1371
S'1'
asbasbasbag61
(g77
g63
NtRp1372
(dp1373
g66
(dp1374
sg75
g1356
sg68
(lp1375
g61
(g82
g63
NtRp1376
(dp1377
g66
(dp1378
sg75
g1372
sg68
(lp1379
g61
(g62
g63
NtRp1380
(dp1381
g66
(dp1382
g74
I3
ssg75
g1376
sg68
(lp1383
S'99'
p1384
asbasbasbag61
(g77
g63
NtRp1385
(dp1386
g66
(dp1387
sg75
g1356
sg68
(lp1388
g61
(g82
g63
NtRp1389
(dp1390
g66
(dp1391
sg75
g1385
sg68
(lp1392
g61
(g62
g63
NtRp1393
(dp1394
g66
(dp1395
g74
I3
ssg75
g1389
sg68
(lp1396
S'4'
asbasbasbag61
(g77
g63
NtRp1397
(dp1398
g66
(dp1399
sg75
g1356
sg68
(lp1400
g61
(g82
g63
NtRp1401
(dp1402
g66
(dp1403
sg75
g1397
sg68
(lp1404
g61
(g62
g63
NtRp1405
(dp1406
g66
(dp1407
g74
I3
ssg75
g1401
sg68
(lp1408
S'datetime.datetime(2011, 12, 14, 14, 46, 14)'
p1409
asbasbasbag61
(g77
g63
NtRp1410
(dp1411
g66
(dp1412
sg75
g1356
sg68
(lp1413
g61
(g82
g63
NtRp1414
(dp1415
g66
(dp1416
sg75
g1410
sg68
(lp1417
g61
(g62
g63
NtRp1418
(dp1419
g66
(dp1420
g74
I3
ssg75
g1414
sg68
(lp1421
S'stable'
p1422
asbasbasbasbasbasbasbag61
(g77
g63
NtRp1423
(dp1424
g66
(dp1425
sg75
g653
sg68
(lp1426
g61
(g82
g63
NtRp1427
(dp1428
g66
(dp1429
g86
g87
ssg75
g1423
sg68
(lp1430
S'wsgi_errors'
p1431
asbag61
(g82
g63
NtRp1432
(dp1433
g66
(dp1434
g93
g94
ssg75
g1423
sg68
(lp1435
S':'
asbag61
(g82
g63
NtRp1436
(dp1437
g66
(dp1438
sg75
g1423
sg68
(lp1439
g61
(g62
g63
NtRp1440
(dp1441
g66
(dp1442
g74
I4
ssg75
g1436
sg68
(lp1443
S"<open file '<stderr>', mode 'w' at 0x0000000001EF61E0>"
p1444
asbasbasbag61
(g77
g63
NtRp1445
(dp1446
g66
(dp1447
sg75
g653
sg68
(lp1448
g61
(g82
g63
NtRp1449
(dp1450
g66
(dp1451
g86
g87
ssg75
g1445
sg68
(lp1452
S'wsgi_file_wrapper'
p1453
asbag61
(g82
g63
NtRp1454
(dp1455
g66
(dp1456
g93
g94
ssg75
g1445
sg68
(lp1457
S':'
asbag61
(g82
g63
NtRp1458
(dp1459
g66
(dp1460
sg75
g1445
sg68
(lp1461
g61
(g62
g63
NtRp1462
(dp1463
g66
(dp1464
g74
I4
ssg75
g1458
sg68
(lp1465
S'<class wsgiref.util.FileWrapper at 0x000000000361C948>'
p1466
asbasbasbag61
(g77
g63
NtRp1467
(dp1468
g66
(dp1469
sg75
g653
sg68
(lp1470
g61
(g82
g63
NtRp1471
(dp1472
g66
(dp1473
g86
g87
ssg75
g1467
sg68
(lp1474
S'wsgi_input'
p1475
asbag61
(g82
g63
NtRp1476
(dp1477
g66
(dp1478
g93
g94
ssg75
g1467
sg68
(lp1479
S':'
asbag61
(g82
g63
NtRp1480
(dp1481
g66
(dp1482
sg75
g1467
sg68
(lp1483
g61
(g62
g63
NtRp1484
(dp1485
g66
(dp1486
g74
I4
ssg75
g1480
sg68
(lp1487
S'<socket._fileobject object at 0x00000000087A9A20>'
p1488
asbasbasbag61
(g77
g63
NtRp1489
(dp1490
g66
(dp1491
sg75
g653
sg68
(lp1492
g61
(g82
g63
NtRp1493
(dp1494
g66
(dp1495
g86
g87
ssg75
g1489
sg68
(lp1496
S'wsgi_multiprocess'
p1497
asbag61
(g82
g63
NtRp1498
(dp1499
g66
(dp1500
g93
g94
ssg75
g1489
sg68
(lp1501
S':'
asbag61
(g82
g63
NtRp1502
(dp1503
g66
(dp1504
sg75
g1489
sg68
(lp1505
g61
(g62
g63
NtRp1506
(dp1507
g66
(dp1508
g74
I4
ssg75
g1502
sg68
(lp1509
g104
asbasbasbag61
(g77
g63
NtRp1510
(dp1511
g66
(dp1512
sg75
g653
sg68
(lp1513
g61
(g82
g63
NtRp1514
(dp1515
g66
(dp1516
g86
g87
ssg75
g1510
sg68
(lp1517
S'wsgi_multithread'
p1518
asbag61
(g82
g63
NtRp1519
(dp1520
g66
(dp1521
g93
g94
ssg75
g1510
sg68
(lp1522
S':'
asbag61
(g82
g63
NtRp1523
(dp1524
g66
(dp1525
sg75
g1510
sg68
(lp1526
g61
(g62
g63
NtRp1527
(dp1528
g66
(dp1529
g74
I4
ssg75
g1523
sg68
(lp1530
S'True'
p1531
asbasbasbag61
(g77
g63
NtRp1532
(dp1533
g66
(dp1534
sg75
g653
sg68
(lp1535
g61
(g82
g63
NtRp1536
(dp1537
g66
(dp1538
g86
g87
ssg75
g1532
sg68
(lp1539
S'wsgi_run_once'
p1540
asbag61
(g82
g63
NtRp1541
(dp1542
g66
(dp1543
g93
g94
ssg75
g1532
sg68
(lp1544
S':'
asbag61
(g82
g63
NtRp1545
(dp1546
g66
(dp1547
sg75
g1532
sg68
(lp1548
g61
(g62
g63
NtRp1549
(dp1550
g66
(dp1551
g74
I4
ssg75
g1545
sg68
(lp1552
g104
asbasbasbag61
(g77
g63
NtRp1553
(dp1554
g66
(dp1555
sg75
g653
sg68
(lp1556
g61
(g82
g63
NtRp1557
(dp1558
g66
(dp1559
g86
g87
ssg75
g1553
sg68
(lp1560
S'wsgi_url_scheme'
p1561
asbag61
(g82
g63
NtRp1562
(dp1563
g66
(dp1564
g93
g94
ssg75
g1553
sg68
(lp1565
S':'
asbag61
(g82
g63
NtRp1566
(dp1567
g66
(dp1568
sg75
g1553
sg68
(lp1569
g61
(g62
g63
NtRp1570
(dp1571
g66
(dp1572
g74
I4
ssg75
g1566
sg68
(lp1573
S'http'
p1574
asbasbasbag61
(g77
g63
NtRp1575
(dp1576
g66
(dp1577
sg75
g653
sg68
(lp1578
g61
(g82
g63
NtRp1579
(dp1580
g66
(dp1581
g86
g87
ssg75
g1575
sg68
(lp1582
S'wsgi_version'
p1583
asbag61
(g82
g63
NtRp1584
(dp1585
g66
(dp1586
g93
g94
ssg75
g1575
sg68
(lp1587
S':'
asbag61
(g82
g63
NtRp1588
(dp1589
g66
(dp1590
sg75
g1575
sg68
(lp1591
g61
(g62
g63
NtRp1592
(dp1593
g66
(dp1594
g74
I4
ssg75
g1588
sg68
(lp1595
g61
(g70
g63
NtRp1596
(dp1597
g66
(dp1598
g74
I3
ssg75
Nsg68
(lp1599
g61
(g77
g63
NtRp1600
(dp1601
g66
(dp1602
sg75
g1596
sg68
(lp1603
g61
(g82
g63
NtRp1604
(dp1605
g66
(dp1606
sg75
g1600
sg68
(lp1607
g61
(g62
g63
NtRp1608
(dp1609
g66
(dp1610
g74
I3
ssg75
g1604
sg68
(lp1611
S'1'
asbasbasbag61
(g77
g63
NtRp1612
(dp1613
g66
(dp1614
sg75
g1596
sg68
(lp1615
g61
(g82
g63
NtRp1616
(dp1617
g66
(dp1618
sg75
g1612
sg68
(lp1619
g61
(g62
g63
NtRp1620
(dp1621
g66
(dp1622
g74
I3
ssg75
g1616
sg68
(lp1623
S'0'
asbasbasbasbasbasbasbasbasbasbasbag61
(g77
g63
NtRp1624
(dp1625
g66
(dp1626
sg75
g71
sg68
(lp1627
g61
(g82
g63
NtRp1628
(dp1629
g66
(dp1630
g86
g87
ssg75
g1624
sg68
(lp1631
S'extension'
p1632
asbag61
(g82
g63
NtRp1633
(dp1634
g66
(dp1635
g93
g94
ssg75
g1624
sg68
(lp1636
S':'
asbag61
(g82
g63
NtRp1637
(dp1638
g66
(dp1639
sg75
g1624
sg68
(lp1640
g61
(g62
g63
NtRp1641
(dp1642
g66
(dp1643
g74
I5
ssg75
g1637
sg68
(lp1644
S'html'
p1645
asbasbasbag61
(g77
g63
NtRp1646
(dp1647
g66
(dp1648
sg75
g71
sg68
(lp1649
g61
(g82
g63
NtRp1650
(dp1651
g66
(dp1652
g86
g87
ssg75
g1646
sg68
(lp1653
S'folder'
p1654
asbag61
(g82
g63
NtRp1655
(dp1656
g66
(dp1657
g93
g94
ssg75
g1646
sg68
(lp1658
S':'
asbag61
(g82
g63
NtRp1659
(dp1660
g66
(dp1661
sg75
g1646
sg68
(lp1662
g61
(g62
g63
NtRp1663
(dp1664
g66
(dp1665
g74
I5
ssg75
g1659
sg68
(lp1666
S'C:\\Users\\mellinja\\Documents\\SC2Tracker\\SC2Tracker2\\web2py\\applications\\welcome\\'
p1667
asbasbasbag61
(g77
g63
NtRp1668
(dp1669
g66
(dp1670
sg75
g71
sg68
(lp1671
g61
(g82
g63
NtRp1672
(dp1673
g66
(dp1674
g86
g87
ssg75
g1668
sg68
(lp1675
S'function'
p1676
asbag61
(g82
g63
NtRp1677
(dp1678
g66
(dp1679
g93
g94
ssg75
g1668
sg68
(lp1680
S':'
asbag61
(g82
g63
NtRp1681
(dp1682
g66
(dp1683
sg75
g1668
sg68
(lp1684
g61
(g62
g63
NtRp1685
(dp1686
g66
(dp1687
g74
I5
ssg75
g1681
sg68
(lp1688
S'show'
p1689
asbasbasbag61
(g77
g63
NtRp1690
(dp1691
g66
(dp1692
sg75
g71
sg68
(lp1693
g61
(g82
g63
NtRp1694
(dp1695
g66
(dp1696
g86
g87
ssg75
g1690
sg68
(lp1697
S'get_vars'
p1698
asbag61
(g82
g63
NtRp1699
(dp1700
g66
(dp1701
g93
g94
ssg75
g1690
sg68
(lp1702
S':'
asbag61
(g82
g63
NtRp1703
(dp1704
g66
(dp1705
sg75
g1690
sg68
(lp1706
g61
(g62
g63
NtRp1707
(dp1708
g66
(dp1709
g74
I5
ssg75
g1703
sg68
(lp1710
g61
(g70
g63
NtRp1711
(dp1712
g66
(dp1713
g74
I4
ssg75
Nsg68
(lp1714
sbasbasbasbag61
(g77
g63
NtRp1715
(dp1716
g66
(dp1717
sg75
g71
sg68
(lp1718
g61
(g82
g63
NtRp1719
(dp1720
g66
(dp1721
g86
g87
ssg75
g1715
sg68
(lp1722
S'global_settings'
p1723
asbag61
(g82
g63
NtRp1724
(dp1725
g66
(dp1726
g93
g94
ssg75
g1715
sg68
(lp1727
S':'
asbag61
(g82
g63
NtRp1728
(dp1729
g66
(dp1730
sg75
g1715
sg68
(lp1731
g61
(g62
g63
NtRp1732
(dp1733
g66
(dp1734
g74
I5
ssg75
g1728
sg68
(lp1735
g61
(g70
g63
NtRp1736
(dp1737
g66
(dp1738
g74
I4
ssg75
Nsg68
(lp1739
g61
(g77
g63
NtRp1740
(dp1741
g66
(dp1742
sg75
g1736
sg68
(lp1743
g61
(g82
g63
NtRp1744
(dp1745
g66
(dp1746
g86
g87
ssg75
g1740
sg68
(lp1747
g665
asbag61
(g82
g63
NtRp1748
(dp1749
g66
(dp1750
g93
g94
ssg75
g1740
sg68
(lp1751
S':'
asbag61
(g82
g63
NtRp1752
(dp1753
g66
(dp1754
sg75
g1740
sg68
(lp1755
g61
(g62
g63
NtRp1756
(dp1757
g66
(dp1758
g74
I4
ssg75
g1752
sg68
(lp1759
S"set(['C:\\\\Users\\\\mellinja\\\\Documents\\\\SC2Tracker\\\\SC2Tracker2\\\\web2py\\\\applications\\\\welcome\\\\', 'C:\\\\Users\\\\mellinja\\\\Documents\\\\SC2Tracker\\\\SC2Tracker2\\\\web2py\\\\applications\\\\admin\\\\'])"
p1760
asbasbasbag61
(g77
g63
NtRp1761
(dp1762
g66
(dp1763
sg75
g1736
sg68
(lp1764
g61
(g82
g63
NtRp1765
(dp1766
g66
(dp1767
g86
g87
ssg75
g1761
sg68
(lp1768
g687
asbag61
(g82
g63
NtRp1769
(dp1770
g66
(dp1771
g93
g94
ssg75
g1761
sg68
(lp1772
S':'
asbag61
(g82
g63
NtRp1773
(dp1774
g66
(dp1775
sg75
g1761
sg68
(lp1776
g61
(g62
g63
NtRp1777
(dp1778
g66
(dp1779
g74
I4
ssg75
g1773
sg68
(lp1780
g700
asbasbasbag61
(g77
g63
NtRp1781
(dp1782
g66
(dp1783
sg75
g1736
sg68
(lp1784
g61
(g82
g63
NtRp1785
(dp1786
g66
(dp1787
g86
g87
ssg75
g1781
sg68
(lp1788
g709
asbag61
(g82
g63
NtRp1789
(dp1790
g66
(dp1791
g93
g94
ssg75
g1781
sg68
(lp1792
S':'
asbag61
(g82
g63
NtRp1793
(dp1794
g66
(dp1795
sg75
g1781
sg68
(lp1796
g61
(g62
g63
NtRp1797
(dp1798
g66
(dp1799
g74
I4
ssg75
g1793
sg68
(lp1800
g61
(g70
g63
NtRp1801
(dp1802
g66
(dp1803
g74
I3
ssg75
Nsg68
(lp1804
sbasbasbasbag61
(g77
g63
NtRp1805
(dp1806
g66
(dp1807
sg75
g1736
sg68
(lp1808
g61
(g82
g63
NtRp1809
(dp1810
g66
(dp1811
g86
g87
ssg75
g1805
sg68
(lp1812
g734
asbag61
(g82
g63
NtRp1813
(dp1814
g66
(dp1815
g93
g94
ssg75
g1805
sg68
(lp1816
S':'
asbag61
(g82
g63
NtRp1817
(dp1818
g66
(dp1819
sg75
g1805
sg68
(lp1820
g61
(g62
g63
NtRp1821
(dp1822
g66
(dp1823
g74
I4
ssg75
g1817
sg68
(lp1824
S"<Values at 0x37275c8: {'verbose': False, 'ip': '127.0.0.1', 'shutdown_timeout': 5, 'taskbar': False, 'nocron': False, 'pid_filename': 'httpserver.pid', 'maxthreads': None, 'softcron': False, 'server_name': 'mellinja-PC', 'bpython': False, 'nogui': False, 'port': 8000, 'extcron': False, 'debuglevel': 30, 'test': None, 'folder': 'C:\\\\Users\\\\mellinja\\\\Documents\\\\SC2Tracker\\\\SC2Tracker2\\\\web2py', 'config': '', 'import_models': False, 'winservice': '', 'shell': None, 'run': '', 'log_filename': 'httpserver.log', 'args': [''], 'socket_timeout': 1, 'ssl_ca_certificate': None, 'scheduler': None, 'profiler_filename': None, 'ssl_private_key': '', 'password': '<ask>', 'request_queue_size': 5, 'ssl_certificate': '', 'cronjob': False, 'numthreads': None, 'quiet': False, 'interfaces': None, 'minthreads': None, 'timeout': 10, 'plain': False, 'nobanner': False}>"
p1825
asbasbasbag61
(g77
g63
NtRp1826
(dp1827
g66
(dp1828
sg75
g1736
sg68
(lp1829
g61
(g82
g63
NtRp1830
(dp1831
g66
(dp1832
g86
g87
ssg75
g1826
sg68
(lp1833
g756
asbag61
(g82
g63
NtRp1834
(dp1835
g66
(dp1836
g93
g94
ssg75
g1826
sg68
(lp1837
S':'
asbag61
(g82
g63
NtRp1838
(dp1839
g66
(dp1840
sg75
g1826
sg68
(lp1841
g61
(g62
g63
NtRp1842
(dp1843
g66
(dp1844
g74
I4
ssg75
g1838
sg68
(lp1845
S'set([])'
p1846
asbasbasbag61
(g77
g63
NtRp1847
(dp1848
g66
(dp1849
sg75
g1736
sg68
(lp1850
g61
(g82
g63
NtRp1851
(dp1852
g66
(dp1853
g86
g87
ssg75
g1847
sg68
(lp1854
g778
asbag61
(g82
g63
NtRp1855
(dp1856
g66
(dp1857
g93
g94
ssg75
g1847
sg68
(lp1858
S':'
asbag61
(g82
g63
NtRp1859
(dp1860
g66
(dp1861
sg75
g1847
sg68
(lp1862
g61
(g62
g63
NtRp1863
(dp1864
g66
(dp1865
g74
I4
ssg75
g1859
sg68
(lp1866
g104
asbasbasbag61
(g77
g63
NtRp1867
(dp1868
g66
(dp1869
sg75
g1736
sg68
(lp1870
g61
(g82
g63
NtRp1871
(dp1872
g66
(dp1873
g86
g87
ssg75
g1867
sg68
(lp1874
g799
asbag61
(g82
g63
NtRp1875
(dp1876
g66
(dp1877
g93
g94
ssg75
g1867
sg68
(lp1878
S':'
asbag61
(g82
g63
NtRp1879
(dp1880
g66
(dp1881
sg75
g1867
sg68
(lp1882
g61
(g62
g63
NtRp1883
(dp1884
g66
(dp1885
g74
I4
ssg75
g1879
sg68
(lp1886
g812
asbasbasbag61
(g77
g63
NtRp1887
(dp1888
g66
(dp1889
sg75
g1736
sg68
(lp1890
g61
(g82
g63
NtRp1891
(dp1892
g66
(dp1893
g86
g87
ssg75
g1887
sg68
(lp1894
g1041
asbag61
(g82
g63
NtRp1895
(dp1896
g66
(dp1897
g93
g94
ssg75
g1887
sg68
(lp1898
S':'
asbag61
(g82
g63
NtRp1899
(dp1900
g66
(dp1901
sg75
g1887
sg68
(lp1902
g61
(g62
g63
NtRp1903
(dp1904
g66
(dp1905
g74
I4
ssg75
g1899
sg68
(lp1906
g104
asbasbasbag61
(g77
g63
NtRp1907
(dp1908
g66
(dp1909
sg75
g1736
sg68
(lp1910
g61
(g82
g63
NtRp1911
(dp1912
g66
(dp1913
g86
g87
ssg75
g1907
sg68
(lp1914
g1062
asbag61
(g82
g63
NtRp1915
(dp1916
g66
(dp1917
g93
g94
ssg75
g1907
sg68
(lp1918
S':'
asbag61
(g82
g63
NtRp1919
(dp1920
g66
(dp1921
sg75
g1907
sg68
(lp1922
g61
(g62
g63
NtRp1923
(dp1924
g66
(dp1925
g74
I4
ssg75
g1919
sg68
(lp1926
g104
asbasbasbag61
(g77
g63
NtRp1927
(dp1928
g66
(dp1929
sg75
g1736
sg68
(lp1930
g61
(g82
g63
NtRp1931
(dp1932
g66
(dp1933
g86
g87
ssg75
g1927
sg68
(lp1934
g1300
asbag61
(g82
g63
NtRp1935
(dp1936
g66
(dp1937
g93
g94
ssg75
g1927
sg68
(lp1938
S':'
asbag61
(g82
g63
NtRp1939
(dp1940
g66
(dp1941
sg75
g1927
sg68
(lp1942
g61
(g62
g63
NtRp1943
(dp1944
g66
(dp1945
g74
I4
ssg75
g1939
sg68
(lp1946
g1313
asbasbasbag61
(g77
g63
NtRp1947
(dp1948
g66
(dp1949
sg75
g1736
sg68
(lp1950
g61
(g82
g63
NtRp1951
(dp1952
g66
(dp1953
g86
g87
ssg75
g1947
sg68
(lp1954
g1343
asbag61
(g82
g63
NtRp1955
(dp1956
g66
(dp1957
g93
g94
ssg75
g1947
sg68
(lp1958
S':'
asbag61
(g82
g63
NtRp1959
(dp1960
g66
(dp1961
sg75
g1947
sg68
(lp1962
g61
(g62
g63
NtRp1963
(dp1964
g66
(dp1965
g74
I4
ssg75
g1959
sg68
(lp1966
g61
(g70
g63
NtRp1967
(dp1968
g66
(dp1969
g74
I3
ssg75
Nsg68
(lp1970
g61
(g77
g63
NtRp1971
(dp1972
g66
(dp1973
sg75
g1967
sg68
(lp1974
g61
(g82
g63
NtRp1975
(dp1976
g66
(dp1977
sg75
g1971
sg68
(lp1978
g61
(g62
g63
NtRp1979
(dp1980
g66
(dp1981
g74
I3
ssg75
g1975
sg68
(lp1982
S'1'
asbasbasbag61
(g77
g63
NtRp1983
(dp1984
g66
(dp1985
sg75
g1967
sg68
(lp1986
g61
(g82
g63
NtRp1987
(dp1988
g66
(dp1989
sg75
g1983
sg68
(lp1990
g61
(g62
g63
NtRp1991
(dp1992
g66
(dp1993
g74
I3
ssg75
g1987
sg68
(lp1994
S'99'
p1995
asbasbasbag61
(g77
g63
NtRp1996
(dp1997
g66
(dp1998
sg75
g1967
sg68
(lp1999
g61
(g82
g63
NtRp2000
(dp2001
g66
(dp2002
sg75
g1996
sg68
(lp2003
g61
(g62
g63
NtRp2004
(dp2005
g66
(dp2006
g74
I3
ssg75
g2000
sg68
(lp2007
S'4'
asbasbasbag61
(g77
g63
NtRp2008
(dp2009
g66
(dp2010
sg75
g1967
sg68
(lp2011
g61
(g82
g63
NtRp2012
(dp2013
g66
(dp2014
sg75
g2008
sg68
(lp2015
g61
(g62
g63
NtRp2016
(dp2017
g66
(dp2018
g74
I3
ssg75
g2012
sg68
(lp2019
S'datetime.datetime(2011, 12, 14, 14, 46, 14)'
p2020
asbasbasbag61
(g77
g63
NtRp2021
(dp2022
g66
(dp2023
sg75
g1967
sg68
(lp2024
g61
(g82
g63
NtRp2025
(dp2026
g66
(dp2027
sg75
g2021
sg68
(lp2028
g61
(g62
g63
NtRp2029
(dp2030
g66
(dp2031
g74
I3
ssg75
g2025
sg68
(lp2032
g1422
asbasbasbasbasbasbasbasbasbasbasbag61
(g77
g63
NtRp2033
(dp2034
g66
(dp2035
sg75
g71
sg68
(lp2036
g61
(g82
g63
NtRp2037
(dp2038
g66
(dp2039
g86
g87
ssg75
g2033
sg68
(lp2040
S'is_https'
p2041
asbag61
(g82
g63
NtRp2042
(dp2043
g66
(dp2044
g93
g94
ssg75
g2033
sg68
(lp2045
S':'
asbag61
(g82
g63
NtRp2046
(dp2047
g66
(dp2048
sg75
g2033
sg68
(lp2049
g61
(g62
g63
NtRp2050
(dp2051
g66
(dp2052
g74
I5
ssg75
g2046
sg68
(lp2053
g104
asbasbasbag61
(g77
g63
NtRp2054
(dp2055
g66
(dp2056
sg75
g71
sg68
(lp2057
g61
(g82
g63
NtRp2058
(dp2059
g66
(dp2060
g86
g87
ssg75
g2054
sg68
(lp2061
S'is_local'
p2062
asbag61
(g82
g63
NtRp2063
(dp2064
g66
(dp2065
g93
g94
ssg75
g2054
sg68
(lp2066
S':'
asbag61
(g82
g63
NtRp2067
(dp2068
g66
(dp2069
sg75
g2054
sg68
(lp2070
g61
(g62
g63
NtRp2071
(dp2072
g66
(dp2073
g74
I5
ssg75
g2067
sg68
(lp2074
g1531
asbasbasbag61
(g77
g63
NtRp2075
(dp2076
g66
(dp2077
sg75
g71
sg68
(lp2078
g61
(g82
g63
NtRp2079
(dp2080
g66
(dp2081
g86
g87
ssg75
g2075
sg68
(lp2082
S'is_restful'
p2083
asbag61
(g82
g63
NtRp2084
(dp2085
g66
(dp2086
g93
g94
ssg75
g2075
sg68
(lp2087
S':'
asbag61
(g82
g63
NtRp2088
(dp2089
g66
(dp2090
sg75
g2075
sg68
(lp2091
g61
(g62
g63
NtRp2092
(dp2093
g66
(dp2094
g74
I5
ssg75
g2088
sg68
(lp2095
g104
asbasbasbag61
(g77
g63
NtRp2096
(dp2097
g66
(dp2098
sg75
g71
sg68
(lp2099
g61
(g82
g63
NtRp2100
(dp2101
g66
(dp2102
g86
g87
ssg75
g2096
sg68
(lp2103
S'now'
p2104
asbag61
(g82
g63
NtRp2105
(dp2106
g66
(dp2107
g93
g94
ssg75
g2096
sg68
(lp2108
S':'
asbag61
(g82
g63
NtRp2109
(dp2110
g66
(dp2111
sg75
g2096
sg68
(lp2112
g61
(g62
g63
NtRp2113
(dp2114
g66
(dp2115
g74
I5
ssg75
g2109
sg68
(lp2116
S'datetime.datetime(2012, 2, 13, 15, 43, 45, 825000)'
p2117
asbasbasbag61
(g77
g63
NtRp2118
(dp2119
g66
(dp2120
sg75
g71
sg68
(lp2121
g61
(g82
g63
NtRp2122
(dp2123
g66
(dp2124
g86
g87
ssg75
g2118
sg68
(lp2125
S'post_vars'
p2126
asbag61
(g82
g63
NtRp2127
(dp2128
g66
(dp2129
g93
g94
ssg75
g2118
sg68
(lp2130
S':'
asbag61
(g82
g63
NtRp2131
(dp2132
g66
(dp2133
sg75
g2118
sg68
(lp2134
g61
(g62
g63
NtRp2135
(dp2136
g66
(dp2137
g74
I5
ssg75
g2131
sg68
(lp2138
g61
(g70
g63
NtRp2139
(dp2140
g66
(dp2141
g74
I4
ssg75
Nsg68
(lp2142
sbasbasbasbag61
(g77
g63
NtRp2143
(dp2144
g66
(dp2145
sg75
g71
sg68
(lp2146
g61
(g82
g63
NtRp2147
(dp2148
g66
(dp2149
g86
g87
ssg75
g2143
sg68
(lp2150
S'raw_args'
p2151
asbag61
(g82
g63
NtRp2152
(dp2153
g66
(dp2154
g93
g94
ssg75
g2143
sg68
(lp2155
S':'
asbag61
(g82
g63
NtRp2156
(dp2157
g66
(dp2158
sg75
g2143
sg68
(lp2159
g61
(g62
g63
NtRp2160
(dp2161
g66
(dp2162
g74
I5
ssg75
g2156
sg68
(lp2163
S'7'
asbasbasbag61
(g77
g63
NtRp2164
(dp2165
g66
(dp2166
sg75
g71
sg68
(lp2167
g61
(g82
g63
NtRp2168
(dp2169
g66
(dp2170
g86
g87
ssg75
g2164
sg68
(lp2171
S'url'
p2172
asbag61
(g82
g63
NtRp2173
(dp2174
g66
(dp2175
g93
g94
ssg75
g2164
sg68
(lp2176
S':'
asbag61
(g82
g63
NtRp2177
(dp2178
g66
(dp2179
sg75
g2164
sg68
(lp2180
g61
(g62
g63
NtRp2181
(dp2182
g66
(dp2183
g74
I5
ssg75
g2177
sg68
(lp2184
S'/welcome/tournament/show/7'
p2185
asbasbasbag61
(g77
g63
NtRp2186
(dp2187
g66
(dp2188
sg75
g71
sg68
(lp2189
g61
(g82
g63
NtRp2190
(dp2191
g66
(dp2192
g86
g87
ssg75
g2186
sg68
(lp2193
S'utcnow'
p2194
asbag61
(g82
g63
NtRp2195
(dp2196
g66
(dp2197
g93
g94
ssg75
g2186
sg68
(lp2198
S':'
asbag61
(g82
g63
NtRp2199
(dp2200
g66
(dp2201
sg75
g2186
sg68
(lp2202
g61
(g62
g63
NtRp2203
(dp2204
g66
(dp2205
g74
I5
ssg75
g2199
sg68
(lp2206
S'datetime.datetime(2012, 2, 13, 20, 43, 45, 825000)'
p2207
asbasbasbag61
(g77
g63
NtRp2208
(dp2209
g66
(dp2210
sg75
g71
sg68
(lp2211
g61
(g82
g63
NtRp2212
(dp2213
g66
(dp2214
g86
g87
ssg75
g2208
sg68
(lp2215
S'uuid'
p2216
asbag61
(g82
g63
NtRp2217
(dp2218
g66
(dp2219
g93
g94
ssg75
g2208
sg68
(lp2220
S':'
asbag61
(g82
g63
NtRp2221
(dp2222
g66
(dp2223
sg75
g2208
sg68
(lp2224
g61
(g62
g63
NtRp2225
(dp2226
g66
(dp2227
g74
I5
ssg75
g2221
sg68
(lp2228
S'welcome/127.0.0.1.2012-02-13.15-43-45.e78266f5-41d6-4b92-8619-62314cbbea4f'
p2229
asbasbasbag61
(g77
g63
NtRp2230
(dp2231
g66
(dp2232
sg75
g71
sg68
(lp2233
g61
(g82
g63
NtRp2234
(dp2235
g66
(dp2236
g86
g87
ssg75
g2230
sg68
(lp2237
S'vars'
p2238
asbag61
(g82
g63
NtRp2239
(dp2240
g66
(dp2241
g93
g94
ssg75
g2230
sg68
(lp2242
S':'
asbag61
(g82
g63
NtRp2243
(dp2244
g66
(dp2245
sg75
g2230
sg68
(lp2246
g61
(g62
g63
NtRp2247
(dp2248
g66
(dp2249
g74
I5
ssg75
g2243
sg68
(lp2250
g61
(g70
g63
NtRp2251
(dp2252
g66
(dp2253
g74
I4
ssg75
Nsg68
(lp2254
sbasbasbasbag61
(g77
g63
NtRp2255
(dp2256
g66
(dp2257
sg75
g71
sg68
(lp2258
g61
(g82
g63
NtRp2259
(dp2260
g66
(dp2261
g86
g87
ssg75
g2255
sg68
(lp2262
S'wsgi'
p2263
asbag61
(g82
g63
NtRp2264
(dp2265
g66
(dp2266
g93
g94
ssg75
g2255
sg68
(lp2267
S':'
asbag61
(g82
g63
NtRp2268
(dp2269
g66
(dp2270
sg75
g2255
sg68
(lp2271
g61
(g62
g63
NtRp2272
(dp2273
g66
(dp2274
g74
I5
ssg75
g2268
sg68
(lp2275
g61
(g70
g63
NtRp2276
(dp2277
g66
(dp2278
g74
I4
ssg75
Nsg68
(lp2279
g61
(g77
g63
NtRp2280
(dp2281
g66
(dp2282
sg75
g2276
sg68
(lp2283
g61
(g82
g63
NtRp2284
(dp2285
g66
(dp2286
g86
g87
ssg75
g2280
sg68
(lp2287
S'environ'
p2288
asbag61
(g82
g63
NtRp2289
(dp2290
g66
(dp2291
g93
g94
ssg75
g2280
sg68
(lp2292
S':'
asbag61
(g82
g63
NtRp2293
(dp2294
g66
(dp2295
sg75
g2280
sg68
(lp2296
g61
(g62
g63
NtRp2297
(dp2298
g66
(dp2299
g74
I4
ssg75
g2293
sg68
(lp2300
g61
(g70
g63
NtRp2301
(dp2302
g66
(dp2303
g74
I3
ssg75
Nsg68
(lp2304
g61
(g77
g63
NtRp2305
(dp2306
g66
(dp2307
sg75
g2301
sg68
(lp2308
g61
(g82
g63
NtRp2309
(dp2310
g66
(dp2311
g86
g87
ssg75
g2305
sg68
(lp2312
S'HTTP_ACCEPT'
p2313
asbag61
(g82
g63
NtRp2314
(dp2315
g66
(dp2316
g93
g94
ssg75
g2305
sg68
(lp2317
S':'
asbag61
(g82
g63
NtRp2318
(dp2319
g66
(dp2320
sg75
g2305
sg68
(lp2321
g61
(g62
g63
NtRp2322
(dp2323
g66
(dp2324
g74
I3
ssg75
g2318
sg68
(lp2325
g834
asbasbasbag61
(g77
g63
NtRp2326
(dp2327
g66
(dp2328
sg75
g2301
sg68
(lp2329
g61
(g82
g63
NtRp2330
(dp2331
g66
(dp2332
g86
g87
ssg75
g2326
sg68
(lp2333
S'HTTP_ACCEPT_CHARSET'
p2334
asbag61
(g82
g63
NtRp2335
(dp2336
g66
(dp2337
g93
g94
ssg75
g2326
sg68
(lp2338
S':'
asbag61
(g82
g63
NtRp2339
(dp2340
g66
(dp2341
sg75
g2326
sg68
(lp2342
g61
(g62
g63
NtRp2343
(dp2344
g66
(dp2345
g74
I3
ssg75
g2339
sg68
(lp2346
g856
asbasbasbag61
(g77
g63
NtRp2347
(dp2348
g66
(dp2349
sg75
g2301
sg68
(lp2350
g61
(g82
g63
NtRp2351
(dp2352
g66
(dp2353
g86
g87
ssg75
g2347
sg68
(lp2354
S'HTTP_ACCEPT_ENCODING'
p2355
asbag61
(g82
g63
NtRp2356
(dp2357
g66
(dp2358
g93
g94
ssg75
g2347
sg68
(lp2359
S':'
asbag61
(g82
g63
NtRp2360
(dp2361
g66
(dp2362
sg75
g2347
sg68
(lp2363
g61
(g62
g63
NtRp2364
(dp2365
g66
(dp2366
g74
I3
ssg75
g2360
sg68
(lp2367
g878
asbasbasbag61
(g77
g63
NtRp2368
(dp2369
g66
(dp2370
sg75
g2301
sg68
(lp2371
g61
(g82
g63
NtRp2372
(dp2373
g66
(dp2374
g86
g87
ssg75
g2368
sg68
(lp2375
S'HTTP_ACCEPT_LANGUAGE'
p2376
asbag61
(g82
g63
NtRp2377
(dp2378
g66
(dp2379
g93
g94
ssg75
g2368
sg68
(lp2380
S':'
asbag61
(g82
g63
NtRp2381
(dp2382
g66
(dp2383
sg75
g2368
sg68
(lp2384
g61
(g62
g63
NtRp2385
(dp2386
g66
(dp2387
g74
I3
ssg75
g2381
sg68
(lp2388
g900
asbasbasbag61
(g77
g63
NtRp2389
(dp2390
g66
(dp2391
sg75
g2301
sg68
(lp2392
g61
(g82
g63
NtRp2393
(dp2394
g66
(dp2395
g86
g87
ssg75
g2389
sg68
(lp2396
S'HTTP_CACHE_CONTROL'
p2397
asbag61
(g82
g63
NtRp2398
(dp2399
g66
(dp2400
g93
g94
ssg75
g2389
sg68
(lp2401
S':'
asbag61
(g82
g63
NtRp2402
(dp2403
g66
(dp2404
sg75
g2389
sg68
(lp2405
g61
(g62
g63
NtRp2406
(dp2407
g66
(dp2408
g74
I3
ssg75
g2402
sg68
(lp2409
g922
asbasbasbag61
(g77
g63
NtRp2410
(dp2411
g66
(dp2412
sg75
g2301
sg68
(lp2413
g61
(g82
g63
NtRp2414
(dp2415
g66
(dp2416
g86
g87
ssg75
g2410
sg68
(lp2417
S'HTTP_CONNECTION'
p2418
asbag61
(g82
g63
NtRp2419
(dp2420
g66
(dp2421
g93
g94
ssg75
g2410
sg68
(lp2422
S':'
asbag61
(g82
g63
NtRp2423
(dp2424
g66
(dp2425
sg75
g2410
sg68
(lp2426
g61
(g62
g63
NtRp2427
(dp2428
g66
(dp2429
g74
I3
ssg75
g2423
sg68
(lp2430
g944
asbasbasbag61
(g77
g63
NtRp2431
(dp2432
g66
(dp2433
sg75
g2301
sg68
(lp2434
g61
(g82
g63
NtRp2435
(dp2436
g66
(dp2437
g86
g87
ssg75
g2431
sg68
(lp2438
S'HTTP_COOKIE'
p2439
asbag61
(g82
g63
NtRp2440
(dp2441
g66
(dp2442
g93
g94
ssg75
g2431
sg68
(lp2443
S':'
asbag61
(g82
g63
NtRp2444
(dp2445
g66
(dp2446
sg75
g2431
sg68
(lp2447
g61
(g62
g63
NtRp2448
(dp2449
g66
(dp2450
g74
I3
ssg75
g2444
sg68
(lp2451
g966
asbasbasbag61
(g77
g63
NtRp2452
(dp2453
g66
(dp2454
sg75
g2301
sg68
(lp2455
g61
(g82
g63
NtRp2456
(dp2457
g66
(dp2458
g86
g87
ssg75
g2452
sg68
(lp2459
S'HTTP_HOST'
p2460
asbag61
(g82
g63
NtRp2461
(dp2462
g66
(dp2463
g93
g94
ssg75
g2452
sg68
(lp2464
S':'
asbag61
(g82
g63
NtRp2465
(dp2466
g66
(dp2467
sg75
g2452
sg68
(lp2468
g61
(g62
g63
NtRp2469
(dp2470
g66
(dp2471
g74
I3
ssg75
g2465
sg68
(lp2472
g988
asbasbasbag61
(g77
g63
NtRp2473
(dp2474
g66
(dp2475
sg75
g2301
sg68
(lp2476
g61
(g82
g63
NtRp2477
(dp2478
g66
(dp2479
g86
g87
ssg75
g2473
sg68
(lp2480
S'HTTP_REFERER'
p2481
asbag61
(g82
g63
NtRp2482
(dp2483
g66
(dp2484
g93
g94
ssg75
g2473
sg68
(lp2485
S':'
asbag61
(g82
g63
NtRp2486
(dp2487
g66
(dp2488
sg75
g2473
sg68
(lp2489
g61
(g62
g63
NtRp2490
(dp2491
g66
(dp2492
g74
I3
ssg75
g2486
sg68
(lp2493
g1010
asbasbasbag61
(g77
g63
NtRp2494
(dp2495
g66
(dp2496
sg75
g2301
sg68
(lp2497
g61
(g82
g63
NtRp2498
(dp2499
g66
(dp2500
g86
g87
ssg75
g2494
sg68
(lp2501
S'HTTP_USER_AGENT'
p2502
asbag61
(g82
g63
NtRp2503
(dp2504
g66
(dp2505
g93
g94
ssg75
g2494
sg68
(lp2506
S':'
asbag61
(g82
g63
NtRp2507
(dp2508
g66
(dp2509
sg75
g2494
sg68
(lp2510
g61
(g62
g63
NtRp2511
(dp2512
g66
(dp2513
g74
I3
ssg75
g2507
sg68
(lp2514
g1032
asbasbasbag61
(g77
g63
NtRp2515
(dp2516
g66
(dp2517
sg75
g2301
sg68
(lp2518
g61
(g82
g63
NtRp2519
(dp2520
g66
(dp2521
g86
g87
ssg75
g2515
sg68
(lp2522
S'PATH_INFO'
p2523
asbag61
(g82
g63
NtRp2524
(dp2525
g66
(dp2526
g93
g94
ssg75
g2515
sg68
(lp2527
S':'
asbag61
(g82
g63
NtRp2528
(dp2529
g66
(dp2530
sg75
g2515
sg68
(lp2531
g61
(g62
g63
NtRp2532
(dp2533
g66
(dp2534
g74
I3
ssg75
g2528
sg68
(lp2535
g1096
asbasbasbag61
(g77
g63
NtRp2536
(dp2537
g66
(dp2538
sg75
g2301
sg68
(lp2539
g61
(g82
g63
NtRp2540
(dp2541
g66
(dp2542
g86
g87
ssg75
g2536
sg68
(lp2543
S'QUERY_STRING'
p2544
asbag61
(g82
g63
NtRp2545
(dp2546
g66
(dp2547
g93
g94
ssg75
g2536
sg68
(lp2548
S':'
asbag61
(g82
g63
NtRp2549
(dp2550
g66
(dp2551
sg75
g2536
sg68
(lp2552
g61
(g62
g63
NtRp2553
(dp2554
g66
(dp2555
g74
I3
ssg75
g2549
sg68
(lp2556
S''
asbasbasbag61
(g77
g63
NtRp2557
(dp2558
g66
(dp2559
sg75
g2301
sg68
(lp2560
g61
(g82
g63
NtRp2561
(dp2562
g66
(dp2563
g86
g87
ssg75
g2557
sg68
(lp2564
S'REMOTE_ADDR'
p2565
asbag61
(g82
g63
NtRp2566
(dp2567
g66
(dp2568
g93
g94
ssg75
g2557
sg68
(lp2569
S':'
asbag61
(g82
g63
NtRp2570
(dp2571
g66
(dp2572
sg75
g2557
sg68
(lp2573
g61
(g62
g63
NtRp2574
(dp2575
g66
(dp2576
g74
I3
ssg75
g2570
sg68
(lp2577
g206
asbasbasbag61
(g77
g63
NtRp2578
(dp2579
g66
(dp2580
sg75
g2301
sg68
(lp2581
g61
(g82
g63
NtRp2582
(dp2583
g66
(dp2584
g86
g87
ssg75
g2578
sg68
(lp2585
S'REMOTE_PORT'
p2586
asbag61
(g82
g63
NtRp2587
(dp2588
g66
(dp2589
g93
g94
ssg75
g2578
sg68
(lp2590
S':'
asbag61
(g82
g63
NtRp2591
(dp2592
g66
(dp2593
sg75
g2578
sg68
(lp2594
g61
(g62
g63
NtRp2595
(dp2596
g66
(dp2597
g74
I3
ssg75
g2591
sg68
(lp2598
g1160
asbasbasbag61
(g77
g63
NtRp2599
(dp2600
g66
(dp2601
sg75
g2301
sg68
(lp2602
g61
(g82
g63
NtRp2603
(dp2604
g66
(dp2605
g86
g87
ssg75
g2599
sg68
(lp2606
S'REQUEST_METHOD'
p2607
asbag61
(g82
g63
NtRp2608
(dp2609
g66
(dp2610
g93
g94
ssg75
g2599
sg68
(lp2611
S':'
asbag61
(g82
g63
NtRp2612
(dp2613
g66
(dp2614
sg75
g2599
sg68
(lp2615
g61
(g62
g63
NtRp2616
(dp2617
g66
(dp2618
g74
I3
ssg75
g2612
sg68
(lp2619
g1182
asbasbasbag61
(g77
g63
NtRp2620
(dp2621
g66
(dp2622
sg75
g2301
sg68
(lp2623
g61
(g82
g63
NtRp2624
(dp2625
g66
(dp2626
g86
g87
ssg75
g2620
sg68
(lp2627
S'SCRIPT_NAME'
p2628
asbag61
(g82
g63
NtRp2629
(dp2630
g66
(dp2631
g93
g94
ssg75
g2620
sg68
(lp2632
S':'
asbag61
(g82
g63
NtRp2633
(dp2634
g66
(dp2635
sg75
g2620
sg68
(lp2636
g61
(g62
g63
NtRp2637
(dp2638
g66
(dp2639
g74
I3
ssg75
g2633
sg68
(lp2640
S''
asbasbasbag61
(g77
g63
NtRp2641
(dp2642
g66
(dp2643
sg75
g2301
sg68
(lp2644
g61
(g82
g63
NtRp2645
(dp2646
g66
(dp2647
g86
g87
ssg75
g2641
sg68
(lp2648
S'SERVER_NAME'
p2649
asbag61
(g82
g63
NtRp2650
(dp2651
g66
(dp2652
g93
g94
ssg75
g2641
sg68
(lp2653
S':'
asbag61
(g82
g63
NtRp2654
(dp2655
g66
(dp2656
sg75
g2641
sg68
(lp2657
g61
(g62
g63
NtRp2658
(dp2659
g66
(dp2660
g74
I3
ssg75
g2654
sg68
(lp2661
g1225
asbasbasbag61
(g77
g63
NtRp2662
(dp2663
g66
(dp2664
sg75
g2301
sg68
(lp2665
g61
(g82
g63
NtRp2666
(dp2667
g66
(dp2668
g86
g87
ssg75
g2662
sg68
(lp2669
S'SERVER_PORT'
p2670
asbag61
(g82
g63
NtRp2671
(dp2672
g66
(dp2673
g93
g94
ssg75
g2662
sg68
(lp2674
S':'
asbag61
(g82
g63
NtRp2675
(dp2676
g66
(dp2677
sg75
g2662
sg68
(lp2678
g61
(g62
g63
NtRp2679
(dp2680
g66
(dp2681
g74
I3
ssg75
g2675
sg68
(lp2682
g1247
asbasbasbag61
(g77
g63
NtRp2683
(dp2684
g66
(dp2685
sg75
g2301
sg68
(lp2686
g61
(g82
g63
NtRp2687
(dp2688
g66
(dp2689
g86
g87
ssg75
g2683
sg68
(lp2690
S'SERVER_PROTOCOL'
p2691
asbag61
(g82
g63
NtRp2692
(dp2693
g66
(dp2694
g93
g94
ssg75
g2683
sg68
(lp2695
S':'
asbag61
(g82
g63
NtRp2696
(dp2697
g66
(dp2698
sg75
g2683
sg68
(lp2699
g61
(g62
g63
NtRp2700
(dp2701
g66
(dp2702
g74
I3
ssg75
g2696
sg68
(lp2703
g1269
asbasbasbag61
(g77
g63
NtRp2704
(dp2705
g66
(dp2706
sg75
g2301
sg68
(lp2707
g61
(g82
g63
NtRp2708
(dp2709
g66
(dp2710
g86
g87
ssg75
g2704
sg68
(lp2711
S'SERVER_SOFTWARE'
p2712
asbag61
(g82
g63
NtRp2713
(dp2714
g66
(dp2715
g93
g94
ssg75
g2704
sg68
(lp2716
S':'
asbag61
(g82
g63
NtRp2717
(dp2718
g66
(dp2719
sg75
g2704
sg68
(lp2720
g61
(g62
g63
NtRp2721
(dp2722
g66
(dp2723
g74
I3
ssg75
g2717
sg68
(lp2724
g1291
asbasbasbag61
(g77
g63
NtRp2725
(dp2726
g66
(dp2727
sg75
g2301
sg68
(lp2728
g61
(g82
g63
NtRp2729
(dp2730
g66
(dp2731
g86
g87
ssg75
g2725
sg68
(lp2732
S'wsgi.errors'
p2733
asbag61
(g82
g63
NtRp2734
(dp2735
g66
(dp2736
g93
g94
ssg75
g2725
sg68
(lp2737
S':'
asbag61
(g82
g63
NtRp2738
(dp2739
g66
(dp2740
sg75
g2725
sg68
(lp2741
g61
(g62
g63
NtRp2742
(dp2743
g66
(dp2744
g74
I3
ssg75
g2738
sg68
(lp2745
S"<open file '<stderr>', mode 'w' at 0x0000000001EF61E0>"
p2746
asbasbasbag61
(g77
g63
NtRp2747
(dp2748
g66
(dp2749
sg75
g2301
sg68
(lp2750
g61
(g82
g63
NtRp2751
(dp2752
g66
(dp2753
g86
g87
ssg75
g2747
sg68
(lp2754
S'wsgi.file_wrapper'
p2755
asbag61
(g82
g63
NtRp2756
(dp2757
g66
(dp2758
g93
g94
ssg75
g2747
sg68
(lp2759
S':'
asbag61
(g82
g63
NtRp2760
(dp2761
g66
(dp2762
sg75
g2747
sg68
(lp2763
g61
(g62
g63
NtRp2764
(dp2765
g66
(dp2766
g74
I3
ssg75
g2760
sg68
(lp2767
S'<class wsgiref.util.FileWrapper at 0x000000000361C948>'
p2768
asbasbasbag61
(g77
g63
NtRp2769
(dp2770
g66
(dp2771
sg75
g2301
sg68
(lp2772
g61
(g82
g63
NtRp2773
(dp2774
g66
(dp2775
g86
g87
ssg75
g2769
sg68
(lp2776
S'wsgi.input'
p2777
asbag61
(g82
g63
NtRp2778
(dp2779
g66
(dp2780
g93
g94
ssg75
g2769
sg68
(lp2781
S':'
asbag61
(g82
g63
NtRp2782
(dp2783
g66
(dp2784
sg75
g2769
sg68
(lp2785
g61
(g62
g63
NtRp2786
(dp2787
g66
(dp2788
g74
I3
ssg75
g2782
sg68
(lp2789
S'<cStringIO.StringO object at 0x000000000887C768>'
p2790
asbasbasbag61
(g77
g63
NtRp2791
(dp2792
g66
(dp2793
sg75
g2301
sg68
(lp2794
g61
(g82
g63
NtRp2795
(dp2796
g66
(dp2797
g86
g87
ssg75
g2791
sg68
(lp2798
S'wsgi.multiprocess'
p2799
asbag61
(g82
g63
NtRp2800
(dp2801
g66
(dp2802
g93
g94
ssg75
g2791
sg68
(lp2803
S':'
asbag61
(g82
g63
NtRp2804
(dp2805
g66
(dp2806
sg75
g2791
sg68
(lp2807
g61
(g62
g63
NtRp2808
(dp2809
g66
(dp2810
g74
I3
ssg75
g2804
sg68
(lp2811
g104
asbasbasbag61
(g77
g63
NtRp2812
(dp2813
g66
(dp2814
sg75
g2301
sg68
(lp2815
g61
(g82
g63
NtRp2816
(dp2817
g66
(dp2818
g86
g87
ssg75
g2812
sg68
(lp2819
S'wsgi.multithread'
p2820
asbag61
(g82
g63
NtRp2821
(dp2822
g66
(dp2823
g93
g94
ssg75
g2812
sg68
(lp2824
S':'
asbag61
(g82
g63
NtRp2825
(dp2826
g66
(dp2827
sg75
g2812
sg68
(lp2828
g61
(g62
g63
NtRp2829
(dp2830
g66
(dp2831
g74
I3
ssg75
g2825
sg68
(lp2832
g1531
asbasbasbag61
(g77
g63
NtRp2833
(dp2834
g66
(dp2835
sg75
g2301
sg68
(lp2836
g61
(g82
g63
NtRp2837
(dp2838
g66
(dp2839
g86
g87
ssg75
g2833
sg68
(lp2840
S'wsgi.run_once'
p2841
asbag61
(g82
g63
NtRp2842
(dp2843
g66
(dp2844
g93
g94
ssg75
g2833
sg68
(lp2845
S':'
asbag61
(g82
g63
NtRp2846
(dp2847
g66
(dp2848
sg75
g2833
sg68
(lp2849
g61
(g62
g63
NtRp2850
(dp2851
g66
(dp2852
g74
I3
ssg75
g2846
sg68
(lp2853
g104
asbasbasbag61
(g77
g63
NtRp2854
(dp2855
g66
(dp2856
sg75
g2301
sg68
(lp2857
g61
(g82
g63
NtRp2858
(dp2859
g66
(dp2860
g86
g87
ssg75
g2854
sg68
(lp2861
S'wsgi.url_scheme'
p2862
asbag61
(g82
g63
NtRp2863
(dp2864
g66
(dp2865
g93
g94
ssg75
g2854
sg68
(lp2866
S':'
asbag61
(g82
g63
NtRp2867
(dp2868
g66
(dp2869
sg75
g2854
sg68
(lp2870
g61
(g62
g63
NtRp2871
(dp2872
g66
(dp2873
g74
I3
ssg75
g2867
sg68
(lp2874
g1574
asbasbasbag61
(g77
g63
NtRp2875
(dp2876
g66
(dp2877
sg75
g2301
sg68
(lp2878
g61
(g82
g63
NtRp2879
(dp2880
g66
(dp2881
g86
g87
ssg75
g2875
sg68
(lp2882
S'wsgi.version'
p2883
asbag61
(g82
g63
NtRp2884
(dp2885
g66
(dp2886
g93
g94
ssg75
g2875
sg68
(lp2887
S':'
asbag61
(g82
g63
NtRp2888
(dp2889
g66
(dp2890
sg75
g2875
sg68
(lp2891
g61
(g62
g63
NtRp2892
(dp2893
g66
(dp2894
g74
I3
ssg75
g2888
sg68
(lp2895
S'1'
asbasbasbasbasbasbasbasbasbasbasbasbasbsS'frames'
p2896
(lp2897
(dp2898
S'file'
p2899
S'C:\\Users\\mellinja\\Documents\\SC2Tracker\\SC2Tracker2\\web2py\\gluon\\restricted.py'
p2900
sS'dump'
p2901
(dp2902
S'environment'
p2903
S"{'A': <class 'gluon.html.A'>, 'Auth': <class 'gluon.tools.Auth'>, 'B': <class 'gluon.html.B'>, 'BEAUTIFY': <class 'gluon.html.BEAUTIFY'>, 'BODY': <class 'gluon.html.BODY'>, 'BR': <class 'gluon.html.BR'>, 'BUTTON': <class 'gluon.html.BUTTON'>, 'CAT': <class 'gluon.html.CAT'>, 'CENTER': <class 'gluon.html.CENTER'>, 'CLEANUP': <class 'gluon.validators.CLEANUP'>, ...}"
p2904
sS'ccode'
p2905
S'<code object <module> at 0000000008AD7430, file ...tions\\welcome\\controllers/tournament.py", line 3>'
p2906
ssS'lnum'
p2907
I204
sS'lines'
p2908
(dp2909
I199
S'    try:'
p2910
sI200
S'        if type(code) == types.CodeType:'
p2911
sI201
S'            ccode = code'
p2912
sI202
S'        else:'
p2913
sI203
S'            ccode = compile2(code,layer)'
p2914
sI204
S'        exec ccode in environment'
p2915
sI205
S'    except HTTP:'
p2916
sI206
S'        raise'
p2917
sI207
S'    except RestrictedError:'
p2918
sI208
S'        # do not encapsulate (obfuscate) the original RestrictedError'
p2919
ssS'call'
p2920
S'(code="# coding: utf8\\n#\\ndef index(): \\n    #db = DAL(\'ms...m = form)\\n\\nresponse._vars=response._caller(show)\\n", environment={\'A\': <class \'gluon.html.A\'>, \'Auth\': <class \'gluon.tools.Auth\'>, \'B\': <class \'gluon.html.B\'>, \'BEAUTIFY\': <class \'gluon.html.BEAUTIFY\'>, \'BODY\': <class \'gluon.html.BODY\'>, \'BR\': <class \'gluon.html.BR\'>, \'BUTTON\': <class \'gluon.html.BUTTON\'>, \'CAT\': <class \'gluon.html.CAT\'>, \'CENTER\': <class \'gluon.html.CENTER\'>, \'CLEANUP\': <class \'gluon.validators.CLEANUP\'>, ...}, layer=r\'C:\\Users\\mellinja\\Documents\\SC2Tracker\\SC2Tracke...py\\applications\\welcome\\controllers/tournament.py\')'
p2921
sS'func'
p2922
S'restricted'
p2923
sa(dp2924
g2899
S'C:\\Users\\mellinja\\Documents\\SC2Tracker\\SC2Tracker2\\web2py\\applications\\welcome\\controllers\\tournament.py'
p2925
sg2901
(dp2926
S'tourny'
p2927
S'undefined'
p2928
sS'pid'
p2929
g2928
sS'form'
p2930
g2928
sS'builtindict'
p2931
S"<type 'dict'>"
p2932
sS'tpid'
p2933
g2928
ssg2907
I18
sg2908
(dp2934
I7
S''
sI8
S'def show():'
p2935
sI9
S''
sI10
S"    tourny = db.executesql('SELECT * FROM Tournament WHERE ID = ' + str(request.args(0)))"
p2936
sI11
S'    pids = db(db.Player.Auth_User_ID == auth.user_id).select()'
p2937
sI12
S'    pnames = []'
p2938
sI13
S'    for player in pids:'
p2939
sI14
S'        pnames += db.executesql("SELECT InGameName FROM Player WHERE ID = "+str(player))'
p2940
sI15
S"    form = FORM('Join as: ',INPUT(_name = 'In_Game_Name', requires=IS_IN_SET(pnames)), INPUT(_type = 'submit'))"
p2941
sI16
S'    return dict(tourny = tourny,form = form)'
p2942
ssg2920
S'()'
p2943
sg2922
S'<module>'
p2944
sa(dp2945
g2899
S'C:\\Users\\mellinja\\Documents\\SC2Tracker\\SC2Tracker2\\web2py\\gluon\\globals.py'
p2946
sg2901
(dp2947
S'self'
p2948
g2928
sS'f'
S'<function show>'
p2949
ssg2907
I172
sg2908
(dp2950
I167
S'        self.meta = Storage()      # used by web2py_ajax.html'
p2951
sI168
S'        self.menu = []             # used by the default view layout'
p2952
sI169
S'        self.files = []            # used by web2py_ajax.html'
p2953
sI170
S'        self.generic_patterns = [] # patterns to allow generic views'
p2954
sI171
S'        self._vars = None'
p2955
sI172
S'        self._caller = lambda f: f()'
p2956
sI173
S'        self._view_environment = None'
p2957
sI174
S'        self._custom_commit = None'
p2958
sI175
S'        self._custom_rollback = None'
p2959
sI176
S''
ssg2920
S'(f=<function show>)'
p2960
sg2922
S'<lambda>'
p2961
sa(dp2962
g2899
S'C:\\Users\\mellinja\\Documents\\SC2Tracker\\SC2Tracker2\\web2py\\applications\\welcome\\controllers\\tournament.py'
p2963
sg2901
(dp2964
S'global response'
p2965
S"<Storage {'body': <cStringIO.StringO object at 0...00000008CD6C18>, 'view': 'tournament/show.html'}>"
p2966
sS'response.flash'
p2967
S"''"
p2968
ssg2907
I14
sg2908
(dp2969
I7
S''
sI8
S'def show():'
p2970
sI9
S''
sI10
S"    tourny = db.executesql('SELECT * FROM Tournament WHERE ID = ' + str(request.args(0)))"
p2971
sI11
S'    pids = db(db.Player.Auth_User_ID == auth.user_id).select()'
p2972
sI12
S'    pnames = []'
p2973
sI13
S'    for player in pids:'
p2974
sI14
S'        pnames += db.executesql("SELECT InGameName FROM Player WHERE ID = "+str(player))'
p2975
sI15
S"    form = FORM('Join as: ',INPUT(_name = 'In_Game_Name', requires=IS_IN_SET(pnames)), INPUT(_type = 'submit'))"
p2976
sI16
S'    return dict(tourny = tourny,form = form)'
p2977
ssg2920
S'()'
p2978
sg2922
S'show'
p2979
sa(dp2980
g2899
S'C:\\Users\\mellinja\\Documents\\SC2Tracker\\SC2Tracker2\\web2py\\gluon\\dal.py'
p2981
sg2901
(dp2982
S'query'
p2983
S'"SELECT InGameName FROM Player WHERE ID = <Row {\'...ord\': <function <lambda> at 0x0000000008B024A8>}>"'
p2984
sS'self'
p2985
S"<DAL {'auth_event': <Table {'origin': <gluon.dal...gluon.dal.Field object at 0x0000000008AD8CF8>}>}>"
p2986
sS'self._adapter'
p2987
S'<gluon.dal.MSSQLAdapter object>'
p2988
sS'self._adapter.execute'
p2989
S'<bound method MSSQLAdapter.execute of <gluon.dal.MSSQLAdapter object>>'
p2990
ssg2907
I5170
sg2908
(dp2991
I5165
S'        --bmeredyk'
p2992
sI5166
S'        """'
p2993
sI5167
S'        if placeholders:'
p2994
sI5168
S'            self._adapter.execute(query, placeholders)'
p2995
sI5169
S'        else:'
p2996
sI5170
S'            self._adapter.execute(query)'
p2997
sI5171
S'        if as_dict:'
p2998
sI5172
S"            if not hasattr(self._adapter.cursor,'description'):"
p2999
sI5173
S'                raise RuntimeError, "database does not support executesql(...,as_dict=True)"'
p3000
sI5174
S'            # Non-DAL legacy db query, converts cursor results to dict.'
p3001
ssg2920
S'(self=<DAL {\'auth_event\': <Table {\'origin\': <gluon.dal...gluon.dal.Field object at 0x0000000008AD8CF8>}>}>, query="SELECT InGameName FROM Player WHERE ID = <Row {\'...ord\': <function <lambda> at 0x0000000008B024A8>}>", placeholders=None, as_dict=False)'
p3002
sg2922
S'executesql'
p3003
sa(dp3004
g2899
S'C:\\Users\\mellinja\\Documents\\SC2Tracker\\SC2Tracker2\\web2py\\gluon\\dal.py'
p3005
sg2901
(dp3006
S'a'
S'("SELECT InGameName FROM Player WHERE ID = <Row {\'...ord\': <function <lambda> at 0x0000000008B024A8>}>",)'
p3007
sS'self'
p3008
S'<gluon.dal.MSSQLAdapter object>'
p3009
sS'b'
g21
sS'self.log_execute'
p3010
S'<bound method MSSQLAdapter.log_execute of <gluon.dal.MSSQLAdapter object>>'
p3011
ssg2907
I1359
sg2908
(dp3012
I1354
S'        self.db._timings.append((a[0],time.time()-t0))'
p3013
sI1355
S'        del self.db._timings[:-TIMINGSSIZE]'
p3014
sI1356
S'        return ret'
p3015
sI1357
S''
sI1358
S'    def execute(self, *a, **b):'
p3016
sI1359
S'        return self.log_execute(*a, **b)'
p3017
sI1360
S''
sI1361
S'    def represent(self, obj, fieldtype):'
p3018
sI1362
S'        if isinstance(obj, CALLABLETYPES):'
p3019
sI1363
S'            obj = obj()'
p3020
ssg2920
S'(self=<gluon.dal.MSSQLAdapter object>, *a=("SELECT InGameName FROM Player WHERE ID = <Row {\'...ord\': <function <lambda> at 0x0000000008B024A8>}>",), **b={})'
p3021
sg2922
S'execute'
p3022
sa(dp3023
g2899
S'C:\\Users\\mellinja\\Documents\\SC2Tracker\\SC2Tracker2\\web2py\\gluon\\dal.py'
p3024
sg2901
(dp3025
S'a'
S'("SELECT InGameName FROM Player WHERE ID = <Row {\'...ord\': <function <lambda> at 0x0000000008B024A8>}>",)'
p3026
sS'b'
g21
sS'self'
p3027
S'<gluon.dal.MSSQLAdapter object>'
p3028
sS'ret'
p3029
g2928
sS'self.cursor'
p3030
S'<pyodbc.Cursor object>'
p3031
sS'self.cursor.execute'
p3032
S'<built-in method execute of pyodbc.Cursor object>'
p3033
ssg2907
I1353
sg2908
(dp3034
I1348
S'        self.execute(query)'
p3035
sI1349
S''
sI1350
S'    def log_execute(self, *a, **b):'
p3036
sI1351
S'        self.db._lastsql = a[0]'
p3037
sI1352
S'        t0 = time.time()'
p3038
sI1353
S'        ret = self.cursor.execute(*a, **b)'
p3039
sI1354
S'        self.db._timings.append((a[0],time.time()-t0))'
p3040
sI1355
S'        del self.db._timings[:-TIMINGSSIZE]'
p3041
sI1356
S'        return ret'
p3042
sI1357
S''
ssg2920
S'(self=<gluon.dal.MSSQLAdapter object>, *a=("SELECT InGameName FROM Player WHERE ID = <Row {\'...ord\': <function <lambda> at 0x0000000008B024A8>}>",), **b={})'
p3043
sg2922
S'log_execute'
p3044
sasS'pyver'
p3045
S'Python 2.7.2: C:\\Python27\\python.exe'
p3046
sS'session'
p3047
g61
(g62
g63
NtRp3048
(dp3049
g66
(dp3050
sg68
(lp3051
g61
(g70
g63
NtRp3052
(dp3053
g66
(dp3054
g74
I5
ssg75
Nsg68
(lp3055
g61
(g77
g63
NtRp3056
(dp3057
g66
(dp3058
sg75
g3052
sg68
(lp3059
g61
(g82
g63
NtRp3060
(dp3061
g66
(dp3062
g86
g87
ssg75
g3056
sg68
(lp3063
S'auth'
p3064
asbag61
(g82
g63
NtRp3065
(dp3066
g66
(dp3067
g93
g94
ssg75
g3056
sg68
(lp3068
S':'
asbag61
(g82
g63
NtRp3069
(dp3070
g66
(dp3071
sg75
g3056
sg68
(lp3072
g61
(g62
g63
NtRp3073
(dp3074
g66
(dp3075
g74
I5
ssg75
g3069
sg68
(lp3076
g61
(g70
g63
NtRp3077
(dp3078
g66
(dp3079
g74
I4
ssg75
Nsg68
(lp3080
g61
(g77
g63
NtRp3081
(dp3082
g66
(dp3083
sg75
g3077
sg68
(lp3084
g61
(g82
g63
NtRp3085
(dp3086
g66
(dp3087
g86
g87
ssg75
g3081
sg68
(lp3088
S'expiration'
p3089
asbag61
(g82
g63
NtRp3090
(dp3091
g66
(dp3092
g93
g94
ssg75
g3081
sg68
(lp3093
S':'
asbag61
(g82
g63
NtRp3094
(dp3095
g66
(dp3096
sg75
g3081
sg68
(lp3097
g61
(g62
g63
NtRp3098
(dp3099
g66
(dp3100
g74
I4
ssg75
g3094
sg68
(lp3101
S'2592000'
p3102
asbasbasbag61
(g77
g63
NtRp3103
(dp3104
g66
(dp3105
sg75
g3077
sg68
(lp3106
g61
(g82
g63
NtRp3107
(dp3108
g66
(dp3109
g86
g87
ssg75
g3103
sg68
(lp3110
S'hmac_key'
p3111
asbag61
(g82
g63
NtRp3112
(dp3113
g66
(dp3114
g93
g94
ssg75
g3103
sg68
(lp3115
S':'
asbag61
(g82
g63
NtRp3116
(dp3117
g66
(dp3118
sg75
g3103
sg68
(lp3119
g61
(g62
g63
NtRp3120
(dp3121
g66
(dp3122
g74
I4
ssg75
g3116
sg68
(lp3123
S'616f8e11-5d47-461b-8e3b-a55cdeab7c8b'
p3124
asbasbasbag61
(g77
g63
NtRp3125
(dp3126
g66
(dp3127
sg75
g3077
sg68
(lp3128
g61
(g82
g63
NtRp3129
(dp3130
g66
(dp3131
g86
g87
ssg75
g3125
sg68
(lp3132
S'last_visit'
p3133
asbag61
(g82
g63
NtRp3134
(dp3135
g66
(dp3136
g93
g94
ssg75
g3125
sg68
(lp3137
S':'
asbag61
(g82
g63
NtRp3138
(dp3139
g66
(dp3140
sg75
g3125
sg68
(lp3141
g61
(g62
g63
NtRp3142
(dp3143
g66
(dp3144
g74
I4
ssg75
g3138
sg68
(lp3145
S'datetime.datetime(2012, 2, 13, 14, 56, 57, 355000)'
p3146
asbasbasbag61
(g77
g63
NtRp3147
(dp3148
g66
(dp3149
sg75
g3077
sg68
(lp3150
g61
(g82
g63
NtRp3151
(dp3152
g66
(dp3153
g86
g87
ssg75
g3147
sg68
(lp3154
S'remember'
p3155
asbag61
(g82
g63
NtRp3156
(dp3157
g66
(dp3158
g93
g94
ssg75
g3147
sg68
(lp3159
S':'
asbag61
(g82
g63
NtRp3160
(dp3161
g66
(dp3162
sg75
g3147
sg68
(lp3163
g61
(g62
g63
NtRp3164
(dp3165
g66
(dp3166
g74
I4
ssg75
g3160
sg68
(lp3167
g104
asbasbasbag61
(g77
g63
NtRp3168
(dp3169
g66
(dp3170
sg75
g3077
sg68
(lp3171
g61
(g82
g63
NtRp3172
(dp3173
g66
(dp3174
g86
g87
ssg75
g3168
sg68
(lp3175
S'user'
p3176
asbag61
(g82
g63
NtRp3177
(dp3178
g66
(dp3179
g93
g94
ssg75
g3168
sg68
(lp3180
S':'
asbag61
(g82
g63
NtRp3181
(dp3182
g66
(dp3183
sg75
g3168
sg68
(lp3184
g61
(g62
g63
NtRp3185
(dp3186
g66
(dp3187
g74
I4
ssg75
g3181
sg68
(lp3188
g61
(g70
g63
NtRp3189
(dp3190
g66
(dp3191
g74
I3
ssg75
Nsg68
(lp3192
g61
(g77
g63
NtRp3193
(dp3194
g66
(dp3195
sg75
g3189
sg68
(lp3196
g61
(g82
g63
NtRp3197
(dp3198
g66
(dp3199
g86
g87
ssg75
g3193
sg68
(lp3200
S'email'
p3201
asbag61
(g82
g63
NtRp3202
(dp3203
g66
(dp3204
g93
g94
ssg75
g3193
sg68
(lp3205
S':'
asbag61
(g82
g63
NtRp3206
(dp3207
g66
(dp3208
sg75
g3193
sg68
(lp3209
g61
(g62
g63
NtRp3210
(dp3211
g66
(dp3212
g74
I3
ssg75
g3206
sg68
(lp3213
S'mellinja@gmail.com'
p3214
asbasbasbag61
(g77
g63
NtRp3215
(dp3216
g66
(dp3217
sg75
g3189
sg68
(lp3218
g61
(g82
g63
NtRp3219
(dp3220
g66
(dp3221
g86
g87
ssg75
g3215
sg68
(lp3222
S'first_name'
p3223
asbag61
(g82
g63
NtRp3224
(dp3225
g66
(dp3226
g93
g94
ssg75
g3215
sg68
(lp3227
S':'
asbag61
(g82
g63
NtRp3228
(dp3229
g66
(dp3230
sg75
g3215
sg68
(lp3231
g61
(g62
g63
NtRp3232
(dp3233
g66
(dp3234
g74
I3
ssg75
g3228
sg68
(lp3235
S'Jackson'
p3236
asbasbasbag61
(g77
g63
NtRp3237
(dp3238
g66
(dp3239
sg75
g3189
sg68
(lp3240
g61
(g82
g63
NtRp3241
(dp3242
g66
(dp3243
g86
g87
ssg75
g3237
sg68
(lp3244
S'id'
p3245
asbag61
(g82
g63
NtRp3246
(dp3247
g66
(dp3248
g93
g94
ssg75
g3237
sg68
(lp3249
S':'
asbag61
(g82
g63
NtRp3250
(dp3251
g66
(dp3252
sg75
g3237
sg68
(lp3253
g61
(g62
g63
NtRp3254
(dp3255
g66
(dp3256
g74
I3
ssg75
g3250
sg68
(lp3257
S'3'
asbasbasbag61
(g77
g63
NtRp3258
(dp3259
g66
(dp3260
sg75
g3189
sg68
(lp3261
g61
(g82
g63
NtRp3262
(dp3263
g66
(dp3264
g86
g87
ssg75
g3258
sg68
(lp3265
S'last_name'
p3266
asbag61
(g82
g63
NtRp3267
(dp3268
g66
(dp3269
g93
g94
ssg75
g3258
sg68
(lp3270
S':'
asbag61
(g82
g63
NtRp3271
(dp3272
g66
(dp3273
sg75
g3258
sg68
(lp3274
g61
(g62
g63
NtRp3275
(dp3276
g66
(dp3277
g74
I3
ssg75
g3271
sg68
(lp3278
S'Melling'
p3279
asbasbasbag61
(g77
g63
NtRp3280
(dp3281
g66
(dp3282
sg75
g3189
sg68
(lp3283
g61
(g82
g63
NtRp3284
(dp3285
g66
(dp3286
g86
g87
ssg75
g3280
sg68
(lp3287
S'password'
p3288
asbag61
(g82
g63
NtRp3289
(dp3290
g66
(dp3291
g93
g94
ssg75
g3280
sg68
(lp3292
S':'
asbag61
(g82
g63
NtRp3293
(dp3294
g66
(dp3295
sg75
g3280
sg68
(lp3296
g61
(g62
g63
NtRp3297
(dp3298
g66
(dp3299
g74
I3
ssg75
g3293
sg68
(lp3300
S'98beeff9538312abb10179bd86e0a5a2'
p3301
asbasbasbag61
(g77
g63
NtRp3302
(dp3303
g66
(dp3304
sg75
g3189
sg68
(lp3305
g61
(g82
g63
NtRp3306
(dp3307
g66
(dp3308
g86
g87
ssg75
g3302
sg68
(lp3309
S'registration_id'
p3310
asbag61
(g82
g63
NtRp3311
(dp3312
g66
(dp3313
g93
g94
ssg75
g3302
sg68
(lp3314
S':'
asbag61
(g82
g63
NtRp3315
(dp3316
g66
(dp3317
sg75
g3302
sg68
(lp3318
g61
(g62
g63
NtRp3319
(dp3320
g66
(dp3321
g74
I3
ssg75
g3315
sg68
(lp3322
S''
asbasbasbag61
(g77
g63
NtRp3323
(dp3324
g66
(dp3325
sg75
g3189
sg68
(lp3326
g61
(g82
g63
NtRp3327
(dp3328
g66
(dp3329
g86
g87
ssg75
g3323
sg68
(lp3330
S'registration_key'
p3331
asbag61
(g82
g63
NtRp3332
(dp3333
g66
(dp3334
g93
g94
ssg75
g3323
sg68
(lp3335
S':'
asbag61
(g82
g63
NtRp3336
(dp3337
g66
(dp3338
sg75
g3323
sg68
(lp3339
g61
(g62
g63
NtRp3340
(dp3341
g66
(dp3342
g74
I3
ssg75
g3336
sg68
(lp3343
S''
asbasbasbag61
(g77
g63
NtRp3344
(dp3345
g66
(dp3346
sg75
g3189
sg68
(lp3347
g61
(g82
g63
NtRp3348
(dp3349
g66
(dp3350
g86
g87
ssg75
g3344
sg68
(lp3351
S'reset_password_key'
p3352
asbag61
(g82
g63
NtRp3353
(dp3354
g66
(dp3355
g93
g94
ssg75
g3344
sg68
(lp3356
S':'
asbag61
(g82
g63
NtRp3357
(dp3358
g66
(dp3359
sg75
g3344
sg68
(lp3360
g61
(g62
g63
NtRp3361
(dp3362
g66
(dp3363
g74
I3
ssg75
g3357
sg68
(lp3364
S'1327597193-2590f763-191b-469c-bc47-fc293ee83460'
p3365
asbasbasbasbasbasbasbasbasbasbasbag61
(g77
g63
NtRp3366
(dp3367
g66
(dp3368
sg75
g3052
sg68
(lp3369
g61
(g82
g63
NtRp3370
(dp3371
g66
(dp3372
g86
g87
ssg75
g3366
sg68
(lp3373
S'last_query'
p3374
asbag61
(g82
g63
NtRp3375
(dp3376
g66
(dp3377
g93
g94
ssg75
g3366
sg68
(lp3378
S':'
asbag61
(g82
g63
NtRp3379
(dp3380
g66
(dp3381
sg75
g3366
sg68
(lp3382
g61
(g62
g63
NtRp3383
(dp3384
g66
(dp3385
g74
I5
ssg75
g3379
sg68
(lp3386
S'db.Players_in_Tournament.id>0'
p3387
asbasbasbasbasbsS'etype'
p3388
S"<class 'pyodbc.ProgrammingError'>"
p3389
sS'date'
p3390
S'Mon Feb 13 15:43:45 2012'
p3391
sS'response'
p3392
g61
(g62
g63
NtRp3393
(dp3394
g66
(dp3395
sg68
(lp3396
g61
(g70
g63
NtRp3397
(dp3398
g66
(dp3399
g74
I5
ssg75
Nsg68
(lp3400
g61
(g77
g63
NtRp3401
(dp3402
g66
(dp3403
sg75
g3397
sg68
(lp3404
g61
(g82
g63
NtRp3405
(dp3406
g66
(dp3407
g86
g87
ssg75
g3401
sg68
(lp3408
g171
asbag61
(g82
g63
NtRp3409
(dp3410
g66
(dp3411
g93
g94
ssg75
g3401
sg68
(lp3412
S':'
asbag61
(g82
g63
NtRp3413
(dp3414
g66
(dp3415
sg75
g3401
sg68
(lp3416
g61
(g62
g63
NtRp3417
(dp3418
g66
(dp3419
g74
I5
ssg75
g3413
sg68
(lp3420
S'<cStringIO.StringO object at 0x00000000085FD5A8>'
p3421
asbasbasbag61
(g77
g63
NtRp3422
(dp3423
g66
(dp3424
sg75
g3397
sg68
(lp3425
g61
(g82
g63
NtRp3426
(dp3427
g66
(dp3428
g86
g87
ssg75
g3422
sg68
(lp3429
g237
asbag61
(g82
g63
NtRp3430
(dp3431
g66
(dp3432
g93
g94
ssg75
g3422
sg68
(lp3433
S':'
asbag61
(g82
g63
NtRp3434
(dp3435
g66
(dp3436
sg75
g3422
sg68
(lp3437
g61
(g62
g63
NtRp3438
(dp3439
g66
(dp3440
g74
I5
ssg75
g3434
sg68
(lp3441
g61
(g70
g63
NtRp3442
(dp3443
g66
(dp3444
g74
I4
ssg75
Nsg68
(lp3445
g61
(g77
g63
NtRp3446
(dp3447
g66
(dp3448
sg75
g3442
sg68
(lp3449
g61
(g82
g63
NtRp3450
(dp3451
g66
(dp3452
g86
g87
ssg75
g3446
sg68
(lp3453
S'session_id_welcome'
p3454
asbag61
(g82
g63
NtRp3455
(dp3456
g66
(dp3457
g93
g94
ssg75
g3446
sg68
(lp3458
S':'
asbag61
(g82
g63
NtRp3459
(dp3460
g66
(dp3461
sg75
g3446
sg68
(lp3462
g61
(g62
g63
NtRp3463
(dp3464
g66
(dp3465
g74
I4
ssg75
g3459
sg68
(lp3466
g61
(g70
g63
NtRp3467
(dp3468
g66
(dp3469
g74
I3
ssg75
Nsg68
(lp3470
g61
(g77
g63
NtRp3471
(dp3472
g66
(dp3473
sg75
g3467
sg68
(lp3474
g61
(g82
g63
NtRp3475
(dp3476
g66
(dp3477
g86
g87
ssg75
g3471
sg68
(lp3478
g287
asbag61
(g82
g63
NtRp3479
(dp3480
g66
(dp3481
g93
g94
ssg75
g3471
sg68
(lp3482
S':'
asbag61
(g82
g63
NtRp3483
(dp3484
g66
(dp3485
sg75
g3471
sg68
(lp3486
g61
(g62
g63
NtRp3487
(dp3488
g66
(dp3489
g74
I3
ssg75
g3483
sg68
(lp3490
S''
asbasbasbag61
(g77
g63
NtRp3491
(dp3492
g66
(dp3493
sg75
g3467
sg68
(lp3494
g61
(g82
g63
NtRp3495
(dp3496
g66
(dp3497
g86
g87
ssg75
g3491
sg68
(lp3498
g308
asbag61
(g82
g63
NtRp3499
(dp3500
g66
(dp3501
g93
g94
ssg75
g3491
sg68
(lp3502
S':'
asbag61
(g82
g63
NtRp3503
(dp3504
g66
(dp3505
sg75
g3491
sg68
(lp3506
g61
(g62
g63
NtRp3507
(dp3508
g66
(dp3509
g74
I3
ssg75
g3503
sg68
(lp3510
S''
asbasbasbag61
(g77
g63
NtRp3511
(dp3512
g66
(dp3513
sg75
g3467
sg68
(lp3514
g61
(g82
g63
NtRp3515
(dp3516
g66
(dp3517
g86
g87
ssg75
g3511
sg68
(lp3518
g329
asbag61
(g82
g63
NtRp3519
(dp3520
g66
(dp3521
g93
g94
ssg75
g3511
sg68
(lp3522
S':'
asbag61
(g82
g63
NtRp3523
(dp3524
g66
(dp3525
sg75
g3511
sg68
(lp3526
g61
(g62
g63
NtRp3527
(dp3528
g66
(dp3529
g74
I3
ssg75
g3523
sg68
(lp3530
S''
asbasbasbag61
(g77
g63
NtRp3531
(dp3532
g66
(dp3533
sg75
g3467
sg68
(lp3534
g61
(g82
g63
NtRp3535
(dp3536
g66
(dp3537
g86
g87
ssg75
g3531
sg68
(lp3538
g350
asbag61
(g82
g63
NtRp3539
(dp3540
g66
(dp3541
g93
g94
ssg75
g3531
sg68
(lp3542
S':'
asbag61
(g82
g63
NtRp3543
(dp3544
g66
(dp3545
sg75
g3531
sg68
(lp3546
g61
(g62
g63
NtRp3547
(dp3548
g66
(dp3549
g74
I3
ssg75
g3543
sg68
(lp3550
S''
asbasbasbag61
(g77
g63
NtRp3551
(dp3552
g66
(dp3553
sg75
g3467
sg68
(lp3554
g61
(g82
g63
NtRp3555
(dp3556
g66
(dp3557
g86
g87
ssg75
g3551
sg68
(lp3558
g371
asbag61
(g82
g63
NtRp3559
(dp3560
g66
(dp3561
g93
g94
ssg75
g3551
sg68
(lp3562
S':'
asbag61
(g82
g63
NtRp3563
(dp3564
g66
(dp3565
sg75
g3551
sg68
(lp3566
g61
(g62
g63
NtRp3567
(dp3568
g66
(dp3569
g74
I3
ssg75
g3563
sg68
(lp3570
S''
asbasbasbag61
(g77
g63
NtRp3571
(dp3572
g66
(dp3573
sg75
g3467
sg68
(lp3574
g61
(g82
g63
NtRp3575
(dp3576
g66
(dp3577
g86
g87
ssg75
g3571
sg68
(lp3578
g392
asbag61
(g82
g63
NtRp3579
(dp3580
g66
(dp3581
g93
g94
ssg75
g3571
sg68
(lp3582
S':'
asbag61
(g82
g63
NtRp3583
(dp3584
g66
(dp3585
sg75
g3571
sg68
(lp3586
g61
(g62
g63
NtRp3587
(dp3588
g66
(dp3589
g74
I3
ssg75
g3583
sg68
(lp3590
S'/'
asbasbasbag61
(g77
g63
NtRp3591
(dp3592
g66
(dp3593
sg75
g3467
sg68
(lp3594
g61
(g82
g63
NtRp3595
(dp3596
g66
(dp3597
g86
g87
ssg75
g3591
sg68
(lp3598
g413
asbag61
(g82
g63
NtRp3599
(dp3600
g66
(dp3601
g93
g94
ssg75
g3591
sg68
(lp3602
S':'
asbag61
(g82
g63
NtRp3603
(dp3604
g66
(dp3605
sg75
g3591
sg68
(lp3606
g61
(g62
g63
NtRp3607
(dp3608
g66
(dp3609
g74
I3
ssg75
g3603
sg68
(lp3610
S''
asbasbasbag61
(g77
g63
NtRp3611
(dp3612
g66
(dp3613
sg75
g3467
sg68
(lp3614
g61
(g82
g63
NtRp3615
(dp3616
g66
(dp3617
g86
g87
ssg75
g3611
sg68
(lp3618
g434
asbag61
(g82
g63
NtRp3619
(dp3620
g66
(dp3621
g93
g94
ssg75
g3611
sg68
(lp3622
S':'
asbag61
(g82
g63
NtRp3623
(dp3624
g66
(dp3625
sg75
g3611
sg68
(lp3626
g61
(g62
g63
NtRp3627
(dp3628
g66
(dp3629
g74
I3
ssg75
g3623
sg68
(lp3630
S''
asbasbasbasbasbasbasbasbasbasbasbag61
(g77
g63
NtRp3631
(dp3632
g66
(dp3633
sg75
g3397
sg68
(lp3634
g61
(g82
g63
NtRp3635
(dp3636
g66
(dp3637
g86
g87
ssg75
g3631
sg68
(lp3638
S'files'
p3639
asbag61
(g82
g63
NtRp3640
(dp3641
g66
(dp3642
g93
g94
ssg75
g3631
sg68
(lp3643
S':'
asbag61
(g82
g63
NtRp3644
(dp3645
g66
(dp3646
sg75
g3631
sg68
(lp3647
g61
(g62
g63
NtRp3648
(dp3649
g66
(dp3650
g74
I5
ssg75
g3644
sg68
(lp3651
g61
(g70
g63
NtRp3652
(dp3653
g66
(dp3654
g74
I4
ssg75
Nsg68
(lp3655
sbasbasbasbag61
(g77
g63
NtRp3656
(dp3657
g66
(dp3658
sg75
g3397
sg68
(lp3659
g61
(g82
g63
NtRp3660
(dp3661
g66
(dp3662
g86
g87
ssg75
g3656
sg68
(lp3663
S'flash'
p3664
asbag61
(g82
g63
NtRp3665
(dp3666
g66
(dp3667
g93
g94
ssg75
g3656
sg68
(lp3668
S':'
asbag61
(g82
g63
NtRp3669
(dp3670
g66
(dp3671
sg75
g3656
sg68
(lp3672
g61
(g62
g63
NtRp3673
(dp3674
g66
(dp3675
g74
I5
ssg75
g3669
sg68
(lp3676
S''
asbasbasbag61
(g77
g63
NtRp3677
(dp3678
g66
(dp3679
sg75
g3397
sg68
(lp3680
g61
(g82
g63
NtRp3681
(dp3682
g66
(dp3683
g86
g87
ssg75
g3677
sg68
(lp3684
S'generic_patterns'
p3685
asbag61
(g82
g63
NtRp3686
(dp3687
g66
(dp3688
g93
g94
ssg75
g3677
sg68
(lp3689
S':'
asbag61
(g82
g63
NtRp3690
(dp3691
g66
(dp3692
sg75
g3677
sg68
(lp3693
g61
(g62
g63
NtRp3694
(dp3695
g66
(dp3696
g74
I5
ssg75
g3690
sg68
(lp3697
g61
(g70
g63
NtRp3698
(dp3699
g66
(dp3700
g74
I4
ssg75
Nsg68
(lp3701
g61
(g77
g63
NtRp3702
(dp3703
g66
(dp3704
sg75
g3698
sg68
(lp3705
g61
(g82
g63
NtRp3706
(dp3707
g66
(dp3708
sg75
g3702
sg68
(lp3709
g61
(g62
g63
NtRp3710
(dp3711
g66
(dp3712
g74
I4
ssg75
g3706
sg68
(lp3713
S'*'
asbasbasbasbasbasbasbag61
(g77
g63
NtRp3714
(dp3715
g66
(dp3716
sg75
g3397
sg68
(lp3717
g61
(g82
g63
NtRp3718
(dp3719
g66
(dp3720
g86
g87
ssg75
g3714
sg68
(lp3721
S'headers'
p3722
asbag61
(g82
g63
NtRp3723
(dp3724
g66
(dp3725
g93
g94
ssg75
g3714
sg68
(lp3726
S':'
asbag61
(g82
g63
NtRp3727
(dp3728
g66
(dp3729
sg75
g3714
sg68
(lp3730
g61
(g62
g63
NtRp3731
(dp3732
g66
(dp3733
g74
I5
ssg75
g3727
sg68
(lp3734
g61
(g70
g63
NtRp3735
(dp3736
g66
(dp3737
g74
I4
ssg75
Nsg68
(lp3738
g61
(g77
g63
NtRp3739
(dp3740
g66
(dp3741
sg75
g3735
sg68
(lp3742
g61
(g82
g63
NtRp3743
(dp3744
g66
(dp3745
g86
g87
ssg75
g3739
sg68
(lp3746
S'Cache-Control'
p3747
asbag61
(g82
g63
NtRp3748
(dp3749
g66
(dp3750
g93
g94
ssg75
g3739
sg68
(lp3751
S':'
asbag61
(g82
g63
NtRp3752
(dp3753
g66
(dp3754
sg75
g3739
sg68
(lp3755
g61
(g62
g63
NtRp3756
(dp3757
g66
(dp3758
g74
I4
ssg75
g3752
sg68
(lp3759
S'no-store, no-cache, must-revalidate, post-check=0, pre-check=0'
p3760
asbasbasbag61
(g77
g63
NtRp3761
(dp3762
g66
(dp3763
sg75
g3735
sg68
(lp3764
g61
(g82
g63
NtRp3765
(dp3766
g66
(dp3767
g86
g87
ssg75
g3761
sg68
(lp3768
S'Content-Type'
p3769
asbag61
(g82
g63
NtRp3770
(dp3771
g66
(dp3772
g93
g94
ssg75
g3761
sg68
(lp3773
S':'
asbag61
(g82
g63
NtRp3774
(dp3775
g66
(dp3776
sg75
g3761
sg68
(lp3777
g61
(g62
g63
NtRp3778
(dp3779
g66
(dp3780
g74
I4
ssg75
g3774
sg68
(lp3781
S'text/html; charset=utf-8'
p3782
asbasbasbag61
(g77
g63
NtRp3783
(dp3784
g66
(dp3785
sg75
g3735
sg68
(lp3786
g61
(g82
g63
NtRp3787
(dp3788
g66
(dp3789
g86
g87
ssg75
g3783
sg68
(lp3790
S'Expires'
p3791
asbag61
(g82
g63
NtRp3792
(dp3793
g66
(dp3794
g93
g94
ssg75
g3783
sg68
(lp3795
S':'
asbag61
(g82
g63
NtRp3796
(dp3797
g66
(dp3798
sg75
g3783
sg68
(lp3799
g61
(g62
g63
NtRp3800
(dp3801
g66
(dp3802
g74
I4
ssg75
g3796
sg68
(lp3803
S'Mon, 13 Feb 2012 20:43:45 GMT'
p3804
asbasbasbag61
(g77
g63
NtRp3805
(dp3806
g66
(dp3807
sg75
g3735
sg68
(lp3808
g61
(g82
g63
NtRp3809
(dp3810
g66
(dp3811
g86
g87
ssg75
g3805
sg68
(lp3812
S'Pragma'
p3813
asbag61
(g82
g63
NtRp3814
(dp3815
g66
(dp3816
g93
g94
ssg75
g3805
sg68
(lp3817
S':'
asbag61
(g82
g63
NtRp3818
(dp3819
g66
(dp3820
sg75
g3805
sg68
(lp3821
g61
(g62
g63
NtRp3822
(dp3823
g66
(dp3824
g74
I4
ssg75
g3818
sg68
(lp3825
S'no-cache'
p3826
asbasbasbag61
(g77
g63
NtRp3827
(dp3828
g66
(dp3829
sg75
g3735
sg68
(lp3830
g61
(g82
g63
NtRp3831
(dp3832
g66
(dp3833
g86
g87
ssg75
g3827
sg68
(lp3834
S'X-Powered-By'
p3835
asbag61
(g82
g63
NtRp3836
(dp3837
g66
(dp3838
g93
g94
ssg75
g3827
sg68
(lp3839
S':'
asbag61
(g82
g63
NtRp3840
(dp3841
g66
(dp3842
sg75
g3827
sg68
(lp3843
g61
(g62
g63
NtRp3844
(dp3845
g66
(dp3846
g74
I4
ssg75
g3840
sg68
(lp3847
S'web2py'
p3848
asbasbasbasbasbasbasbag61
(g77
g63
NtRp3849
(dp3850
g66
(dp3851
sg75
g3397
sg68
(lp3852
g61
(g82
g63
NtRp3853
(dp3854
g66
(dp3855
g86
g87
ssg75
g3849
sg68
(lp3856
S'menu'
p3857
asbag61
(g82
g63
NtRp3858
(dp3859
g66
(dp3860
g93
g94
ssg75
g3849
sg68
(lp3861
S':'
asbag61
(g82
g63
NtRp3862
(dp3863
g66
(dp3864
sg75
g3849
sg68
(lp3865
g61
(g62
g63
NtRp3866
(dp3867
g66
(dp3868
g74
I5
ssg75
g3862
sg68
(lp3869
g61
(g70
g63
NtRp3870
(dp3871
g66
(dp3872
g74
I4
ssg75
Nsg68
(lp3873
g61
(g77
g63
NtRp3874
(dp3875
g66
(dp3876
sg75
g3870
sg68
(lp3877
g61
(g82
g63
NtRp3878
(dp3879
g66
(dp3880
sg75
g3874
sg68
(lp3881
g61
(g62
g63
NtRp3882
(dp3883
g66
(dp3884
g74
I4
ssg75
g3878
sg68
(lp3885
g61
(g70
g63
NtRp3886
(dp3887
g66
(dp3888
g74
I3
ssg75
Nsg68
(lp3889
g61
(g77
g63
NtRp3890
(dp3891
g66
(dp3892
sg75
g3886
sg68
(lp3893
g61
(g82
g63
NtRp3894
(dp3895
g66
(dp3896
sg75
g3890
sg68
(lp3897
g61
(g62
g63
NtRp3898
(dp3899
g66
(dp3900
g74
I3
ssg75
g3894
sg68
(lp3901
cgluon.languages
lazyT_unpickle
p3902
(S't\x04\x00\x00\x00Home'
tRp3903
asbasbasbag61
(g77
g63
NtRp3904
(dp3905
g66
(dp3906
sg75
g3886
sg68
(lp3907
g61
(g82
g63
NtRp3908
(dp3909
g66
(dp3910
sg75
g3904
sg68
(lp3911
g61
(g62
g63
NtRp3912
(dp3913
g66
(dp3914
g74
I3
ssg75
g3908
sg68
(lp3915
g104
asbasbasbag61
(g77
g63
NtRp3916
(dp3917
g66
(dp3918
sg75
g3886
sg68
(lp3919
g61
(g82
g63
NtRp3920
(dp3921
g66
(dp3922
sg75
g3916
sg68
(lp3923
g61
(g62
g63
NtRp3924
(dp3925
g66
(dp3926
g74
I3
ssg75
g3920
sg68
(lp3927
S'/welcome/default/index'
p3928
asbasbasbag61
(g77
g63
NtRp3929
(dp3930
g66
(dp3931
sg75
g3886
sg68
(lp3932
g61
(g82
g63
NtRp3933
(dp3934
g66
(dp3935
sg75
g3929
sg68
(lp3936
g61
(g62
g63
NtRp3937
(dp3938
g66
(dp3939
g74
I3
ssg75
g3933
sg68
(lp3940
g61
(g70
g63
NtRp3941
(dp3942
g66
(dp3943
g74
I2
ssg75
Nsg68
(lp3944
sbasbasbasbasbasbasbasbasbasbasbasbag61
(g77
g63
NtRp3945
(dp3946
g66
(dp3947
sg75
g3397
sg68
(lp3948
g61
(g82
g63
NtRp3949
(dp3950
g66
(dp3951
g86
g87
ssg75
g3945
sg68
(lp3952
S'meta'
p3953
asbag61
(g82
g63
NtRp3954
(dp3955
g66
(dp3956
g93
g94
ssg75
g3945
sg68
(lp3957
S':'
asbag61
(g82
g63
NtRp3958
(dp3959
g66
(dp3960
sg75
g3945
sg68
(lp3961
g61
(g62
g63
NtRp3962
(dp3963
g66
(dp3964
g74
I5
ssg75
g3958
sg68
(lp3965
g61
(g70
g63
NtRp3966
(dp3967
g66
(dp3968
g74
I4
ssg75
Nsg68
(lp3969
g61
(g77
g63
NtRp3970
(dp3971
g66
(dp3972
sg75
g3966
sg68
(lp3973
g61
(g82
g63
NtRp3974
(dp3975
g66
(dp3976
g86
g87
ssg75
g3970
sg68
(lp3977
S'author'
p3978
asbag61
(g82
g63
NtRp3979
(dp3980
g66
(dp3981
g93
g94
ssg75
g3970
sg68
(lp3982
S':'
asbag61
(g82
g63
NtRp3983
(dp3984
g66
(dp3985
sg75
g3970
sg68
(lp3986
g61
(g62
g63
NtRp3987
(dp3988
g66
(dp3989
g74
I4
ssg75
g3983
sg68
(lp3990
S'Your Name <you@example.com>'
p3991
asbasbasbag61
(g77
g63
NtRp3992
(dp3993
g66
(dp3994
sg75
g3966
sg68
(lp3995
g61
(g82
g63
NtRp3996
(dp3997
g66
(dp3998
g86
g87
ssg75
g3992
sg68
(lp3999
S'copyright'
p4000
asbag61
(g82
g63
NtRp4001
(dp4002
g66
(dp4003
g93
g94
ssg75
g3992
sg68
(lp4004
S':'
asbag61
(g82
g63
NtRp4005
(dp4006
g66
(dp4007
sg75
g3992
sg68
(lp4008
g61
(g62
g63
NtRp4009
(dp4010
g66
(dp4011
g74
I4
ssg75
g4005
sg68
(lp4012
S'Copyright 2011'
p4013
asbasbasbag61
(g77
g63
NtRp4014
(dp4015
g66
(dp4016
sg75
g3966
sg68
(lp4017
g61
(g82
g63
NtRp4018
(dp4019
g66
(dp4020
g86
g87
ssg75
g4014
sg68
(lp4021
S'description'
p4022
asbag61
(g82
g63
NtRp4023
(dp4024
g66
(dp4025
g93
g94
ssg75
g4014
sg68
(lp4026
S':'
asbag61
(g82
g63
NtRp4027
(dp4028
g66
(dp4029
sg75
g4014
sg68
(lp4030
g61
(g62
g63
NtRp4031
(dp4032
g66
(dp4033
g74
I4
ssg75
g4027
sg68
(lp4034
S'a cool new app'
p4035
asbasbasbag61
(g77
g63
NtRp4036
(dp4037
g66
(dp4038
sg75
g3966
sg68
(lp4039
g61
(g82
g63
NtRp4040
(dp4041
g66
(dp4042
g86
g87
ssg75
g4036
sg68
(lp4043
S'generator'
p4044
asbag61
(g82
g63
NtRp4045
(dp4046
g66
(dp4047
g93
g94
ssg75
g4036
sg68
(lp4048
S':'
asbag61
(g82
g63
NtRp4049
(dp4050
g66
(dp4051
sg75
g4036
sg68
(lp4052
g61
(g62
g63
NtRp4053
(dp4054
g66
(dp4055
g74
I4
ssg75
g4049
sg68
(lp4056
S'Web2py Web Framework'
p4057
asbasbasbag61
(g77
g63
NtRp4058
(dp4059
g66
(dp4060
sg75
g3966
sg68
(lp4061
g61
(g82
g63
NtRp4062
(dp4063
g66
(dp4064
g86
g87
ssg75
g4058
sg68
(lp4065
S'keywords'
p4066
asbag61
(g82
g63
NtRp4067
(dp4068
g66
(dp4069
g93
g94
ssg75
g4058
sg68
(lp4070
S':'
asbag61
(g82
g63
NtRp4071
(dp4072
g66
(dp4073
sg75
g4058
sg68
(lp4074
g61
(g62
g63
NtRp4075
(dp4076
g66
(dp4077
g74
I4
ssg75
g4071
sg68
(lp4078
S'web2py, python, framework'
p4079
asbasbasbasbasbasbasbag61
(g77
g63
NtRp4080
(dp4081
g66
(dp4082
sg75
g3397
sg68
(lp4083
g61
(g82
g63
NtRp4084
(dp4085
g66
(dp4086
g86
g87
ssg75
g4080
sg68
(lp4087
S'postprocessing'
p4088
asbag61
(g82
g63
NtRp4089
(dp4090
g66
(dp4091
g93
g94
ssg75
g4080
sg68
(lp4092
S':'
asbag61
(g82
g63
NtRp4093
(dp4094
g66
(dp4095
sg75
g4080
sg68
(lp4096
g61
(g62
g63
NtRp4097
(dp4098
g66
(dp4099
g74
I5
ssg75
g4093
sg68
(lp4100
g61
(g70
g63
NtRp4101
(dp4102
g66
(dp4103
g74
I4
ssg75
Nsg68
(lp4104
sbasbasbasbag61
(g77
g63
NtRp4105
(dp4106
g66
(dp4107
sg75
g3397
sg68
(lp4108
g61
(g82
g63
NtRp4109
(dp4110
g66
(dp4111
g86
g87
ssg75
g4105
sg68
(lp4112
S'session_file'
p4113
asbag61
(g82
g63
NtRp4114
(dp4115
g66
(dp4116
g93
g94
ssg75
g4105
sg68
(lp4117
S':'
asbag61
(g82
g63
NtRp4118
(dp4119
g66
(dp4120
sg75
g4105
sg68
(lp4121
g61
(g62
g63
NtRp4122
(dp4123
g66
(dp4124
g74
I5
ssg75
g4118
sg68
(lp4125
S"<open file 'C:\\Users\\mellinja\\Documents\\SC2Tracker\\SC2Tracker2\\web2py\\applications\\welcome\\sessions\\127.0.0.1-a90ce443-1437-4832-bce2-e811b9654eea', mode 'rb+' at 0x00000000085ED150>"
p4126
asbasbasbag61
(g77
g63
NtRp4127
(dp4128
g66
(dp4129
sg75
g3397
sg68
(lp4130
g61
(g82
g63
NtRp4131
(dp4132
g66
(dp4133
g86
g87
ssg75
g4127
sg68
(lp4134
S'session_filename'
p4135
asbag61
(g82
g63
NtRp4136
(dp4137
g66
(dp4138
g93
g94
ssg75
g4127
sg68
(lp4139
S':'
asbag61
(g82
g63
NtRp4140
(dp4141
g66
(dp4142
sg75
g4127
sg68
(lp4143
g61
(g62
g63
NtRp4144
(dp4145
g66
(dp4146
g74
I5
ssg75
g4140
sg68
(lp4147
S'C:\\Users\\mellinja\\Documents\\SC2Tracker\\SC2Tracker2\\web2py\\applications\\welcome\\sessions\\127.0.0.1-a90ce443-1437-4832-bce2-e811b9654eea'
p4148
asbasbasbag61
(g77
g63
NtRp4149
(dp4150
g66
(dp4151
sg75
g3397
sg68
(lp4152
g61
(g82
g63
NtRp4153
(dp4154
g66
(dp4155
g86
g87
ssg75
g4149
sg68
(lp4156
S'session_id'
p4157
asbag61
(g82
g63
NtRp4158
(dp4159
g66
(dp4160
g93
g94
ssg75
g4149
sg68
(lp4161
S':'
asbag61
(g82
g63
NtRp4162
(dp4163
g66
(dp4164
sg75
g4149
sg68
(lp4165
g61
(g62
g63
NtRp4166
(dp4167
g66
(dp4168
g74
I5
ssg75
g4162
sg68
(lp4169
S'127.0.0.1-a90ce443-1437-4832-bce2-e811b9654eea'
p4170
asbasbasbag61
(g77
g63
NtRp4171
(dp4172
g66
(dp4173
sg75
g3397
sg68
(lp4174
g61
(g82
g63
NtRp4175
(dp4176
g66
(dp4177
g86
g87
ssg75
g4171
sg68
(lp4178
S'session_id_name'
p4179
asbag61
(g82
g63
NtRp4180
(dp4181
g66
(dp4182
g93
g94
ssg75
g4171
sg68
(lp4183
S':'
asbag61
(g82
g63
NtRp4184
(dp4185
g66
(dp4186
sg75
g4171
sg68
(lp4187
g61
(g62
g63
NtRp4188
(dp4189
g66
(dp4190
g74
I5
ssg75
g4184
sg68
(lp4191
g3454
asbasbasbag61
(g77
g63
NtRp4192
(dp4193
g66
(dp4194
sg75
g3397
sg68
(lp4195
g61
(g82
g63
NtRp4196
(dp4197
g66
(dp4198
g86
g87
ssg75
g4192
sg68
(lp4199
S'session_locked'
p4200
asbag61
(g82
g63
NtRp4201
(dp4202
g66
(dp4203
g93
g94
ssg75
g4192
sg68
(lp4204
S':'
asbag61
(g82
g63
NtRp4205
(dp4206
g66
(dp4207
sg75
g4192
sg68
(lp4208
g61
(g62
g63
NtRp4209
(dp4210
g66
(dp4211
g74
I5
ssg75
g4205
sg68
(lp4212
g1531
asbasbasbag61
(g77
g63
NtRp4213
(dp4214
g66
(dp4215
sg75
g3397
sg68
(lp4216
g61
(g82
g63
NtRp4217
(dp4218
g66
(dp4219
g86
g87
ssg75
g4213
sg68
(lp4220
S'session_new'
p4221
asbag61
(g82
g63
NtRp4222
(dp4223
g66
(dp4224
g93
g94
ssg75
g4213
sg68
(lp4225
S':'
asbag61
(g82
g63
NtRp4226
(dp4227
g66
(dp4228
sg75
g4213
sg68
(lp4229
g61
(g62
g63
NtRp4230
(dp4231
g66
(dp4232
g74
I5
ssg75
g4226
sg68
(lp4233
g104
asbasbasbag61
(g77
g63
NtRp4234
(dp4235
g66
(dp4236
sg75
g3397
sg68
(lp4237
g61
(g82
g63
NtRp4238
(dp4239
g66
(dp4240
g86
g87
ssg75
g4234
sg68
(lp4241
S'status'
p4242
asbag61
(g82
g63
NtRp4243
(dp4244
g66
(dp4245
g93
g94
ssg75
g4234
sg68
(lp4246
S':'
asbag61
(g82
g63
NtRp4247
(dp4248
g66
(dp4249
sg75
g4234
sg68
(lp4250
g61
(g62
g63
NtRp4251
(dp4252
g66
(dp4253
g74
I5
ssg75
g4247
sg68
(lp4254
S'200'
p4255
asbasbasbag61
(g77
g63
NtRp4256
(dp4257
g66
(dp4258
sg75
g3397
sg68
(lp4259
g61
(g82
g63
NtRp4260
(dp4261
g66
(dp4262
g86
g87
ssg75
g4256
sg68
(lp4263
S'subtitle'
p4264
asbag61
(g82
g63
NtRp4265
(dp4266
g66
(dp4267
g93
g94
ssg75
g4256
sg68
(lp4268
S':'
asbag61
(g82
g63
NtRp4269
(dp4270
g66
(dp4271
sg75
g4256
sg68
(lp4272
g61
(g62
g63
NtRp4273
(dp4274
g66
(dp4275
g74
I5
ssg75
g4269
sg68
(lp4276
g3902
(S's2\x00\x00\x00Starcraft II Custom Tournament Tracker Version 0.1'
tRp4277
asbasbasbag61
(g77
g63
NtRp4278
(dp4279
g66
(dp4280
sg75
g3397
sg68
(lp4281
g61
(g82
g63
NtRp4282
(dp4283
g66
(dp4284
g86
g87
ssg75
g4278
sg68
(lp4285
S'title'
p4286
asbag61
(g82
g63
NtRp4287
(dp4288
g66
(dp4289
g93
g94
ssg75
g4278
sg68
(lp4290
S':'
asbag61
(g82
g63
NtRp4291
(dp4292
g66
(dp4293
sg75
g4278
sg68
(lp4294
g61
(g62
g63
NtRp4295
(dp4296
g66
(dp4297
g74
I5
ssg75
g4291
sg68
(lp4298
S'SC2CTT v0.1'
p4299
asbasbasbag61
(g77
g63
NtRp4300
(dp4301
g66
(dp4302
sg75
g3397
sg68
(lp4303
g61
(g82
g63
NtRp4304
(dp4305
g66
(dp4306
g86
g87
ssg75
g4300
sg68
(lp4307
g2216
asbag61
(g82
g63
NtRp4308
(dp4309
g66
(dp4310
g93
g94
ssg75
g4300
sg68
(lp4311
S':'
asbag61
(g82
g63
NtRp4312
(dp4313
g66
(dp4314
sg75
g4300
sg68
(lp4315
g61
(g62
g63
NtRp4316
(dp4317
g66
(dp4318
g74
I5
ssg75
g4312
sg68
(lp4319
g2229
asbasbasbag61
(g77
g63
NtRp4320
(dp4321
g66
(dp4322
sg75
g3397
sg68
(lp4323
g61
(g82
g63
NtRp4324
(dp4325
g66
(dp4326
g86
g87
ssg75
g4320
sg68
(lp4327
S'view'
p4328
asbag61
(g82
g63
NtRp4329
(dp4330
g66
(dp4331
g93
g94
ssg75
g4320
sg68
(lp4332
S':'
asbag61
(g82
g63
NtRp4333
(dp4334
g66
(dp4335
sg75
g4320
sg68
(lp4336
g61
(g62
g63
NtRp4337
(dp4338
g66
(dp4339
g74
I5
ssg75
g4333
sg68
(lp4340
S'tournament/show.html'
p4341
asbasbasbasbasbsS'locals'
p4342
(dp4343
S'a'
S'("SELECT InGameName FROM Player WHERE ID = <Row {\'...ord\': <function <lambda> at 0x0000000008B024A8>}>",)'
p4344
sS'self'
p4345
S'<gluon.dal.MSSQLAdapter object>'
p4346
sS'b'
g21
sS't0'
p4347
S'1329165825.904'
p4348
sssS'traceback'
p4349
S'Traceback (most recent call last):\n  File "C:\\Users\\mellinja\\Documents\\SC2Tracker\\SC2Tracker2\\web2py\\gluon\\restricted.py", line 204, in restricted\n    exec ccode in environment\n  File "C:\\Users\\mellinja\\Documents\\SC2Tracker\\SC2Tracker2\\web2py\\applications\\welcome\\controllers/tournament.py", line 18, in <module>\n  File "C:\\Users\\mellinja\\Documents\\SC2Tracker\\SC2Tracker2\\web2py\\gluon\\globals.py", line 172, in <lambda>\n    self._caller = lambda f: f()\n  File "C:\\Users\\mellinja\\Documents\\SC2Tracker\\SC2Tracker2\\web2py\\applications\\welcome\\controllers/tournament.py", line 14, in show\n    pnames += db.executesql("SELECT InGameName FROM Player WHERE ID = "+str(player))\n  File "C:\\Users\\mellinja\\Documents\\SC2Tracker\\SC2Tracker2\\web2py\\gluon\\dal.py", line 5170, in executesql\n    self._adapter.execute(query)\n  File "C:\\Users\\mellinja\\Documents\\SC2Tracker\\SC2Tracker2\\web2py\\gluon\\dal.py", line 1359, in execute\n    return self.log_execute(*a, **b)\n  File "C:\\Users\\mellinja\\Documents\\SC2Tracker\\SC2Tracker2\\web2py\\gluon\\dal.py", line 1353, in log_execute\n    ret = self.cursor.execute(*a, **b)\nProgrammingError: (\'42000\', \'[42000] [Microsoft][ODBC SQL Server Driver]Syntax error or access violation (0) (SQLExecDirectW)\')\n'
p4350
s.