(dp1
S'output'
p2
S"<type 'exceptions.SyntaxError'> invalid syntax (tournament/show.html, line 79)"
p3
sS'layer'
p4
S'C:\\Users\\mellinja\\Documents\\SC2Tracker\\SC2TourneyTracker\\web2py\\applications\\welcome\\views\\tournament/show.html'
p5
sS'code'
p6
S'response.write(\'<!DOCTYPE html>\\r\\n<!-- paulirish.com/2008/conditional-stylesheets-vs-css-hacks-answer-neither/ -->\\r\\n<!--[if lt IE 7]><html class="ie ie6 ie-lte9 ie-lte8 ie-lte7 no-js" lang="\', escape=False)\nresponse.write(T.accepted_language or \'en\')\nresponse.write(\'"> <![endif]-->\\r\\n<!--[if IE 7]><html class="ie ie7 ie-lte9 ie-lte8 ie-lte7 no-js" lang="\', escape=False)\nresponse.write(T.accepted_language or \'en\')\nresponse.write(\'"> <![endif]-->\\r\\n<!--[if IE 8]><html class="ie ie8 ie-lte9 ie-lte8 no-js" lang="\', escape=False)\nresponse.write(T.accepted_language or \'en\')\nresponse.write(\'"> <![endif]-->\\r\\n<!--[if IE 9]><html class="ie9 ie-lte9 no-js" lang="\', escape=False)\nresponse.write(T.accepted_language or \'en\')\nresponse.write(\'"> <![endif]-->\\r\\n<!--[if (gt IE 9)|!(IE)]><!--> <html class="no-js" lang="\', escape=False)\nresponse.write(T.accepted_language or \'en\')\nresponse.write(\'"> <!--<![endif]-->\\r\\n<head>\\r\\n  <meta charset="utf-8" />\\r\\n  <!-- www.phpied.com/conditional-comments-block-downloads/ -->\\r\\n  <!-- Always force latest IE rendering engine\\r\\n       (even in intranet) & Chrome Frame\\r\\n       Remove this if you use the .htaccess -->\\r\\n  <!--[if IE]>\\r\\n    <meta http-equiv="X-UA-Compatible" content="IE=edge\', escape=False)\nresponse.write(not request.is_local and \',chrome=1\' or \'\')\nresponse.write(\'">\\r\\n  <![endif]-->\\r\\n  \\r\\n  <title>\', escape=False)\nresponse.write(response.title or request.application)\nresponse.write(\'</title>\\r\\n  \\r\\n  <!-- http://dev.w3.org/html5/markup/meta.name.html -->\\r\\n  <meta name="application-name" content="\', escape=False)\nresponse.write(request.application)\nresponse.write(\'" />\\r\\n  \\r\\n  <!-- Speaking of Google, don\\\'t forget to set your site up:\\r\\n       http://google.com/webmasters -->\\r\\n  <meta name="google-site-verification" content="" />\\r\\n\\r\\n  <!--  Mobile Viewport Fix\\r\\n      j.mp/mobileviewport & davidbcalhoun.com/2010/viewport-metatag\\r\\n      device-width: Occupy full width of the screen in its current orientation\\r\\n      initial-scale = 1.0 retains dimensions instead of zooming out if page height > device height\\r\\n      user-scalable = yes allows the user to zoom in -->\\r\\n  <meta name="viewport" content="width=device-width, initial-scale=1.0, user-scalable=yes">\\r\\n  \\r\\n  <!-- Place favicon.ico and apple-touch-icon.png in the root of your domain and delete these references -->\\r\\n  <link rel="shortcut icon" href="\', escape=False)\nresponse.write(URL(\'static\',\'favicon.ico\'))\nresponse.write(\'" type="image/x-icon">\\r\\n  <link rel="apple-touch-icon" href="\', escape=False)\nresponse.write(URL(\'static\',\'favicon.png\'))\nresponse.write(\'">\\r\\n\\r\\n  <!-- All JavaScript at the bottom, except for Modernizr which enables \\r\\n       HTML5 elements & feature detects -->\\r\\n  <script src="\', escape=False)\nresponse.write(URL(\'static\',\'js/modernizr.custom.js\'))\nresponse.write(\'"></script>  \\r\\n\\r\\n  <!-- include stylesheets -->\\r\\n  \', escape=False)\nresponse.files.append(URL(\'static\',\'css/skeleton.css\'))\nresponse.files.append(URL(\'static\',\'css/web2py.css\'))\nresponse.files.append(URL(\'static\',\'css/superfish.css\'))\nresponse.files.append(URL(\'static\',\'js/superfish.js\'))\nresponse.write(\'\\r\\n\\r\\n  \', escape=False)\nresponse.write(\'<script type="text/javascript"><!--\\r\\n    // These variables are used by the web2py_ajax_init function in web2py_ajax.js (which is loaded below).\\r\\n    var w2p_ajax_confirm_message = "\', escape=False)\nresponse.write(T(\'Are you sure you want to delete this object?\'))\nresponse.write(\'";\\r\\n    var w2p_ajax_date_format = "\', escape=False)\nresponse.write(T(\'%Y-%m-%d\'))\nresponse.write(\'";\\r\\n    var w2p_ajax_datetime_format = "\', escape=False)\nresponse.write(T(\'%Y-%m-%d %H:%M:%S\'))\nresponse.write(\'";\\r\\n    //--></script>\\r\\n\', escape=False)\nresponse.files.insert(0,URL(\'static\',\'js/jquery.js\'))\nresponse.files.insert(1,URL(\'static\',\'css/calendar.css\'))\nresponse.files.insert(2,URL(\'static\',\'js/calendar.js\'))\nresponse.files.insert(3,URL(\'static\',\'js/web2py.js\'))\nresponse.include_meta()\nresponse.include_files()\nresponse.write(\'\\r\\n\', escape=False)\nresponse.write(\'\\r\\n\\r\\n  <script type="text/javascript">\\r\\n    jQuery(function(){ jQuery(\\\'ul.sf-menu\\\').supersubs({minWidth:12,maxWidth:30,extraWidth:3}).superfish(); });\\r\\n  </script>\\r\\n\\r\\n  \', escape=False)\n# using sidebars need to know what sidebar you want to use\nleft_sidebar_enabled = globals().get(\'left_sidebar_enabled\',False)\nright_sidebar_enabled = globals().get(\'right_sidebar_enabled\',False)\nmiddle_columns = {0:\'sixteen\',1:\'twelve\',2:\'eight\'}[\n(left_sidebar_enabled and 1 or 0)+(right_sidebar_enabled and 1 or 0)]\nresponse.write(\'\\r\\n\\r\\n  <!-- uncomment here to load jquery-ui\\r\\n  <link rel="stylesheet" href="http://ajax.googleapis.com/ajax/libs/jqueryui/1.8.16/themes/base/jquery-ui.css" type="text/css" media="all" />\\r\\n  <script src="http://ajax.googleapis.com/ajax/libs/jqueryui/1.8.16/jquery-ui.min.js" type="text/javascript"></script>\\r\\n  uncomment to load jquery-ui //-->\\r\\n</head>\\r\\n<body>\\r\\n  <div class="wrapper"><!-- for sticky footer -->\\r\\n  \\r\\n    <div class="topbar">\\r\\n      <div class="container">    \\r\\n        <div class="sixteen columns">\\r\\n          <div id="navbar">\', escape=False)\nresponse.write(\'auth\' in globals() and auth.navbar(separators=(\' \',\' | \',\'\')))\nresponse.write(\'</div>\\r\\n          \', escape=False)\nis_mobile=request.user_agent().is_mobile\nresponse.write(\'\\r\\n          <div id="menu">\', escape=False)\nresponse.write(MENU(response.menu, _class=\'mobile-menu\' if is_mobile else \'sf-menu\',mobile=is_mobile))\nresponse.write(\'\\r\\n          </div>\\r\\n        </div>\\r\\n      </div>\\r\\n    </div><!-- topbar -->\\r\\n    \\r\\n    <div class="flash">\', escape=False)\nresponse.write(response.flash or \'\')\nresponse.write(\'</div>\\r\\n    \\r\\n    <div class="header">\\r\\n      <div class="container">         \\r\\n        <div class="sixteen columns">\\r\\n          <h1 class="remove-bottom" style="margin-top: .5em;">\\r\\n          \', escape=False)\nresponse.write(response.title or request.application)\nresponse.write(\'\\r\\n          </h1>\\r\\n          <h5>\', escape=False)\nresponse.write(response.subtitle or \'\')\nresponse.write(\'</h5>\\r\\n        </div>\\r\\n        <div class="sixteen columns">\\r\\n          <div class="statusbar clearfix">\\r\\n            \', escape=False)\nresponse.write(\'\\r\\n            <div class="breadcrumbs">\', escape=False)\nresponse.write(request.function.replace(\'_\', \' \').title())\nresponse.write(\'</div>\\r\\n            \', escape=False)\nresponse.write(\'\\r\\n            <!-- AddToAny BEGIN -->\\r\\n            <!--<div style="float:right; padding-top: .25em;" class="a2a_kit a2a_default_style">\\r\\n            <a class="a2a_dd" href="http://www.addtoany.com/share_save">Share</a></div>\\r\\n            <script type="text/javascript" src="http://static.addtoany.com/menu/page.js"></script>-->\\r\\n            <!-- AddToAny END -->\\r\\n          </div>\\r\\n        </div>\\r\\n      </div>\\r\\n    </div>\\r\\n\\r\\n    <div class="main">\\r\\n      <div class="container">                 \\r\\n        \', escape=False)\nif left_sidebar_enabled:\n    response.write(\'\\r\\n        <div class="four columns left-sidebar">\\r\\n          \', escape=False)\n    response.write(\'\\r\\n          <h3>Left Sidebar</h3>\\r\\n          <p></p>\\r\\n          \', escape=False)\n    response.write(\'\\r\\n        </div>\\r\\n        \', escape=False)\n    pass\nresponse.write(\'\\r\\n        \\r\\n        <div class="\', escape=False)\nresponse.write(middle_columns)\nresponse.write(\' columns center">\\r\\n          \', escape=False)\nresponse.write(\'\\r\\n          \', escape=False)\nresponse.write(\'\\r\\n<h1>This is the tournament/show.html template</h1>\\r\\n\', escape=False)\nresponse.write(test)\nresponse.write(\'\\r\\n<p>\\r\\n\', escape=False)\nresponse.write(A(T(\'Join this tournament\'), _href(\'welcome\',\'tournament\', \'show\'))\nresponse.write(\'\\r\\n</p>\\r\\n\', escape=False)\nresponse.write(\'\\r\\n          \', escape=False)\nresponse.write(\'\\r\\n        </div>\\r\\n        \\r\\n        \', escape=False)\nif right_sidebar_enabled:\n    response.write(\'\\r\\n        <div class="four columns">\\r\\n          \', escape=False)\n    response.write(\'\\r\\n          <h3>Right Sidebar</h3>\\r\\n          <p></p>\\r\\n          \', escape=False)\n    response.write(\'\\r\\n        </div>    \\r\\n        \', escape=False)\n    pass\nresponse.write(\'\\r\\n        \\r\\n      </div><!-- container -->\\r\\n    </div><!-- main -->\\r\\n    \\r\\n    <div class="push"></div>\\r\\n  </div><!-- wrapper -->\\r\\n\\r\\n  <div class="footer">\\r\\n    <div class="container">    \\r\\n      <div class="sixteen columns">\\r\\n        \', escape=False)\nresponse.write(\' <!-- this is default footer -->\\r\\n        <div class="footer-content clearfix">\\r\\n          <div class="copyright">\\r\\n\\t\\t\\t  \', escape=False)\nresponse.write(T(\'Copyright\'))\nresponse.write(\' &#169; 2012 <br />\\r\\n\\t\\t\\t  Kyle Cheung, Simon Liang, Jackson Melling\\r\\n\\t\\t  </div>\\r\\n          <div style="float: right;">\\r\\n            <a href="http://www.web2py.com/">\\r\\n            <img style="padding-bottom: 0;" src="\', escape=False)\nresponse.write(URL(\'static\',\'images/poweredby.png\'))\nresponse.write(\'"/>\\r\\n            </a>\\r\\n          </div>\\r\\n        </div>\\r\\n        \', escape=False)\nresponse.write(\' \\r\\n      </div>\\r\\n    </div><!-- container -->\\r\\n  </div><!-- footer -->\\r\\n  \\r\\n  <!--[if lt IE 7 ]>\\r\\n    <script src="\', escape=False)\nresponse.write(URL(\'static\',\'js/dd_belatedpng.js\'))\nresponse.write(\'"></script>\\r\\n    <script> DD_belatedPNG.fix(\\\'img, .png_bg\\\'); //fix any <img> or .png_bg background-images </script>\\r\\n    <![endif]-->\\r\\n  \', escape=False)\nif response.google_analytics_id:\n    response.write(\'<script type="text/javascript"> var _gaq = _gaq || []; _gaq.push([\\\'_setAccount\\\', \\\'\', escape=False)\n    response.write(response.google_analytics_id)\n    response.write("\']); _gaq.push([\'_trackPageview\']); (function() { var ga = document.createElement(\'script\'); ga.type = \'text/javascript\'; ga.async = true; ga.src = (\'https:\' == document.location.protocol ? \'https://ssl\' : \'http://www\') + \'.google-analytics.com/ga.js\'; var s = document.getElementsByTagName(\'script\')[0]; s.parentNode.insertBefore(ga, s); })(); </script> ", escape=False)\n    pass\nresponse.write(\'\\r\\n</body>\\r\\n</html>\\r\\n\', escape=False)'
p7
sS'snapshot'
p8
(dp9
S'exception'
p10
(dp11
S'__getslice__'
p12
S"<method-wrapper '__getslice__' of exceptions.SyntaxError object>"
p13
sS'text'
p14
S'"response.write(\'\\\\r\\\\n</p>\\\\r\\\\n\', escape=False)\\n"'
p15
sS'__str__'
p16
S"<method-wrapper '__str__' of exceptions.SyntaxError object>"
p17
sS'__reduce__'
p18
S'<built-in method __reduce__ of exceptions.SyntaxError object>'
p19
sS'__dict__'
p20
S'{}'
p21
sS'__sizeof__'
p22
S'<built-in method __sizeof__ of exceptions.SyntaxError object>'
p23
sS'__init__'
p24
S"<method-wrapper '__init__' of exceptions.SyntaxError object>"
p25
sS'__setattr__'
p26
S"<method-wrapper '__setattr__' of exceptions.SyntaxError object>"
p27
sS'__reduce_ex__'
p28
S'<built-in method __reduce_ex__ of exceptions.SyntaxError object>'
p29
sS'__new__'
p30
S'<built-in method __new__ of type object>'
p31
sS'__format__'
p32
S'<built-in method __format__ of exceptions.SyntaxError object>'
p33
sS'__class__'
p34
S"<type 'exceptions.SyntaxError'>"
p35
sS'filename'
p36
S"r'C:\\Users\\mellinja\\Documents\\SC2Tracker\\SC2Tourne...y\\applications\\welcome\\views\\tournament/show.html'"
p37
sS'lineno'
p38
S'79'
p39
sS'msg'
p40
S"'invalid syntax'"
p41
sS'__doc__'
p42
S"'Invalid syntax.'"
p43
sS'__getitem__'
p44
S"<method-wrapper '__getitem__' of exceptions.SyntaxError object>"
p45
sS'__setstate__'
p46
S'<built-in method __setstate__ of exceptions.SyntaxError object>'
p47
sS'__getattribute__'
p48
S"<method-wrapper '__getattribute__' of exceptions.SyntaxError object>"
p49
sS'print_file_and_line'
p50
S'None'
p51
sS'args'
p52
S'(\'invalid syntax\', (r\'C:\\Users\\mellinja\\Documents\\SC2Tracker\\SC2Tourne...y\\applications\\welcome\\views\\tournament/show.html\', 79, 8, "response.write(\'\\\\r\\\\n</p>\\\\r\\\\n\', escape=False)\\n"))'
p53
sS'__subclasshook__'
p54
S'<built-in method __subclasshook__ of type object>'
p55
sS'offset'
p56
S'8'
sS'__unicode__'
p57
S'<built-in method __unicode__ of exceptions.SyntaxError object>'
p58
sS'__delattr__'
p59
S"<method-wrapper '__delattr__' of exceptions.SyntaxError object>"
p60
sS'__repr__'
p61
S"<method-wrapper '__repr__' of exceptions.SyntaxError object>"
p62
sS'__hash__'
p63
S"<method-wrapper '__hash__' of exceptions.SyntaxError object>"
p64
ssS'evalue'
p65
S'invalid syntax (tournament/show.html, line 79)'
p66
sS'request'
p67
ccopy_reg
_reconstructor
p68
(cgluon.html
BEAUTIFY
p69
c__builtin__
object
p70
NtRp71
(dp72
S'attributes'
p73
(dp74
sS'components'
p75
(lp76
g68
(cgluon.html
TABLE
p77
g70
NtRp78
(dp79
g73
(dp80
S'level'
p81
I5
ssS'parent'
p82
Nsg75
(lp83
g68
(cgluon.html
TR
p84
g70
NtRp85
(dp86
g73
(dp87
sg82
g78
sg75
(lp88
g68
(cgluon.html
TD
p89
g70
NtRp90
(dp91
g73
(dp92
S'_style'
p93
S'font-weight:bold;vertical-align:top'
p94
ssg82
g85
sg75
(lp95
S'ajax'
p96
asbag68
(g89
g70
NtRp97
(dp98
g73
(dp99
S'_valign'
p100
S'top'
p101
ssg82
g85
sg75
(lp102
S':'
asbag68
(g89
g70
NtRp103
(dp104
g73
(dp105
sg82
g85
sg75
(lp106
g68
(g69
g70
NtRp107
(dp108
g73
(dp109
g81
I5
ssg82
g103
sg75
(lp110
S'False'
p111
asbasbasbag68
(g84
g70
NtRp112
(dp113
g73
(dp114
sg82
g78
sg75
(lp115
g68
(g89
g70
NtRp116
(dp117
g73
(dp118
g93
g94
ssg82
g112
sg75
(lp119
S'application'
p120
asbag68
(g89
g70
NtRp121
(dp122
g73
(dp123
g100
g101
ssg82
g112
sg75
(lp124
S':'
asbag68
(g89
g70
NtRp125
(dp126
g73
(dp127
sg82
g112
sg75
(lp128
g68
(g69
g70
NtRp129
(dp130
g73
(dp131
g81
I5
ssg82
g125
sg75
(lp132
S'welcome'
p133
asbasbasbag68
(g84
g70
NtRp134
(dp135
g73
(dp136
sg82
g78
sg75
(lp137
g68
(g89
g70
NtRp138
(dp139
g73
(dp140
g93
g94
ssg82
g134
sg75
(lp141
g52
asbag68
(g89
g70
NtRp142
(dp143
g73
(dp144
g100
g101
ssg82
g134
sg75
(lp145
S':'
asbag68
(g89
g70
NtRp146
(dp147
g73
(dp148
sg82
g134
sg75
(lp149
g68
(g69
g70
NtRp150
(dp151
g73
(dp152
g81
I5
ssg82
g146
sg75
(lp153
g68
(g77
g70
NtRp154
(dp155
g73
(dp156
g81
I4
ssg82
Nsg75
(lp157
g68
(g84
g70
NtRp158
(dp159
g73
(dp160
sg82
g154
sg75
(lp161
g68
(g89
g70
NtRp162
(dp163
g73
(dp164
sg82
g158
sg75
(lp165
g68
(g69
g70
NtRp166
(dp167
g73
(dp168
g81
I4
ssg82
g162
sg75
(lp169
S'7'
asbasbasbasbasbasbasbag68
(g84
g70
NtRp170
(dp171
g73
(dp172
sg82
g78
sg75
(lp173
g68
(g89
g70
NtRp174
(dp175
g73
(dp176
g93
g94
ssg82
g170
sg75
(lp177
S'body'
p178
asbag68
(g89
g70
NtRp179
(dp180
g73
(dp181
g100
g101
ssg82
g170
sg75
(lp182
S':'
asbag68
(g89
g70
NtRp183
(dp184
g73
(dp185
sg82
g170
sg75
(lp186
g68
(g69
g70
NtRp187
(dp188
g73
(dp189
g81
I5
ssg82
g183
sg75
(lp190
S'<cStringIO.StringO object at 0x0000000007898228>'
p191
asbasbasbag68
(g84
g70
NtRp192
(dp193
g73
(dp194
sg82
g78
sg75
(lp195
g68
(g89
g70
NtRp196
(dp197
g73
(dp198
g93
g94
ssg82
g192
sg75
(lp199
S'client'
p200
asbag68
(g89
g70
NtRp201
(dp202
g73
(dp203
g100
g101
ssg82
g192
sg75
(lp204
S':'
asbag68
(g89
g70
NtRp205
(dp206
g73
(dp207
sg82
g192
sg75
(lp208
g68
(g69
g70
NtRp209
(dp210
g73
(dp211
g81
I5
ssg82
g205
sg75
(lp212
S'127.0.0.1'
p213
asbasbasbag68
(g84
g70
NtRp214
(dp215
g73
(dp216
sg82
g78
sg75
(lp217
g68
(g89
g70
NtRp218
(dp219
g73
(dp220
g93
g94
ssg82
g214
sg75
(lp221
S'controller'
p222
asbag68
(g89
g70
NtRp223
(dp224
g73
(dp225
g100
g101
ssg82
g214
sg75
(lp226
S':'
asbag68
(g89
g70
NtRp227
(dp228
g73
(dp229
sg82
g214
sg75
(lp230
g68
(g69
g70
NtRp231
(dp232
g73
(dp233
g81
I5
ssg82
g227
sg75
(lp234
S'tournament'
p235
asbasbasbag68
(g84
g70
NtRp236
(dp237
g73
(dp238
sg82
g78
sg75
(lp239
g68
(g89
g70
NtRp240
(dp241
g73
(dp242
g93
g94
ssg82
g236
sg75
(lp243
S'cookies'
p244
asbag68
(g89
g70
NtRp245
(dp246
g73
(dp247
g100
g101
ssg82
g236
sg75
(lp248
S':'
asbag68
(g89
g70
NtRp249
(dp250
g73
(dp251
sg82
g236
sg75
(lp252
g68
(g69
g70
NtRp253
(dp254
g73
(dp255
g81
I5
ssg82
g249
sg75
(lp256
g68
(g77
g70
NtRp257
(dp258
g73
(dp259
g81
I4
ssg82
Nsg75
(lp260
g68
(g84
g70
NtRp261
(dp262
g73
(dp263
sg82
g257
sg75
(lp264
g68
(g89
g70
NtRp265
(dp266
g73
(dp267
g93
g94
ssg82
g261
sg75
(lp268
S'session_id_welcome'
p269
asbag68
(g89
g70
NtRp270
(dp271
g73
(dp272
g100
g101
ssg82
g261
sg75
(lp273
S':'
asbag68
(g89
g70
NtRp274
(dp275
g73
(dp276
sg82
g261
sg75
(lp277
g68
(g69
g70
NtRp278
(dp279
g73
(dp280
g81
I4
ssg82
g274
sg75
(lp281
g68
(g77
g70
NtRp282
(dp283
g73
(dp284
g81
I3
ssg82
Nsg75
(lp285
g68
(g84
g70
NtRp286
(dp287
g73
(dp288
sg82
g282
sg75
(lp289
g68
(g89
g70
NtRp290
(dp291
g73
(dp292
g93
g94
ssg82
g286
sg75
(lp293
S'comment'
p294
asbag68
(g89
g70
NtRp295
(dp296
g73
(dp297
g100
g101
ssg82
g286
sg75
(lp298
S':'
asbag68
(g89
g70
NtRp299
(dp300
g73
(dp301
sg82
g286
sg75
(lp302
g68
(g69
g70
NtRp303
(dp304
g73
(dp305
g81
I3
ssg82
g299
sg75
(lp306
S''
asbasbasbag68
(g84
g70
NtRp307
(dp308
g73
(dp309
sg82
g282
sg75
(lp310
g68
(g89
g70
NtRp311
(dp312
g73
(dp313
g93
g94
ssg82
g307
sg75
(lp314
S'domain'
p315
asbag68
(g89
g70
NtRp316
(dp317
g73
(dp318
g100
g101
ssg82
g307
sg75
(lp319
S':'
asbag68
(g89
g70
NtRp320
(dp321
g73
(dp322
sg82
g307
sg75
(lp323
g68
(g69
g70
NtRp324
(dp325
g73
(dp326
g81
I3
ssg82
g320
sg75
(lp327
S''
asbasbasbag68
(g84
g70
NtRp328
(dp329
g73
(dp330
sg82
g282
sg75
(lp331
g68
(g89
g70
NtRp332
(dp333
g73
(dp334
g93
g94
ssg82
g328
sg75
(lp335
S'expires'
p336
asbag68
(g89
g70
NtRp337
(dp338
g73
(dp339
g100
g101
ssg82
g328
sg75
(lp340
S':'
asbag68
(g89
g70
NtRp341
(dp342
g73
(dp343
sg82
g328
sg75
(lp344
g68
(g69
g70
NtRp345
(dp346
g73
(dp347
g81
I3
ssg82
g341
sg75
(lp348
S''
asbasbasbag68
(g84
g70
NtRp349
(dp350
g73
(dp351
sg82
g282
sg75
(lp352
g68
(g89
g70
NtRp353
(dp354
g73
(dp355
g93
g94
ssg82
g349
sg75
(lp356
S'httponly'
p357
asbag68
(g89
g70
NtRp358
(dp359
g73
(dp360
g100
g101
ssg82
g349
sg75
(lp361
S':'
asbag68
(g89
g70
NtRp362
(dp363
g73
(dp364
sg82
g349
sg75
(lp365
g68
(g69
g70
NtRp366
(dp367
g73
(dp368
g81
I3
ssg82
g362
sg75
(lp369
S''
asbasbasbag68
(g84
g70
NtRp370
(dp371
g73
(dp372
sg82
g282
sg75
(lp373
g68
(g89
g70
NtRp374
(dp375
g73
(dp376
g93
g94
ssg82
g370
sg75
(lp377
S'max-age'
p378
asbag68
(g89
g70
NtRp379
(dp380
g73
(dp381
g100
g101
ssg82
g370
sg75
(lp382
S':'
asbag68
(g89
g70
NtRp383
(dp384
g73
(dp385
sg82
g370
sg75
(lp386
g68
(g69
g70
NtRp387
(dp388
g73
(dp389
g81
I3
ssg82
g383
sg75
(lp390
S''
asbasbasbag68
(g84
g70
NtRp391
(dp392
g73
(dp393
sg82
g282
sg75
(lp394
g68
(g89
g70
NtRp395
(dp396
g73
(dp397
g93
g94
ssg82
g391
sg75
(lp398
S'path'
p399
asbag68
(g89
g70
NtRp400
(dp401
g73
(dp402
g100
g101
ssg82
g391
sg75
(lp403
S':'
asbag68
(g89
g70
NtRp404
(dp405
g73
(dp406
sg82
g391
sg75
(lp407
g68
(g69
g70
NtRp408
(dp409
g73
(dp410
g81
I3
ssg82
g404
sg75
(lp411
S''
asbasbasbag68
(g84
g70
NtRp412
(dp413
g73
(dp414
sg82
g282
sg75
(lp415
g68
(g89
g70
NtRp416
(dp417
g73
(dp418
g93
g94
ssg82
g412
sg75
(lp419
S'secure'
p420
asbag68
(g89
g70
NtRp421
(dp422
g73
(dp423
g100
g101
ssg82
g412
sg75
(lp424
S':'
asbag68
(g89
g70
NtRp425
(dp426
g73
(dp427
sg82
g412
sg75
(lp428
g68
(g69
g70
NtRp429
(dp430
g73
(dp431
g81
I3
ssg82
g425
sg75
(lp432
S''
asbasbasbag68
(g84
g70
NtRp433
(dp434
g73
(dp435
sg82
g282
sg75
(lp436
g68
(g89
g70
NtRp437
(dp438
g73
(dp439
g93
g94
ssg82
g433
sg75
(lp440
S'version'
p441
asbag68
(g89
g70
NtRp442
(dp443
g73
(dp444
g100
g101
ssg82
g433
sg75
(lp445
S':'
asbag68
(g89
g70
NtRp446
(dp447
g73
(dp448
sg82
g433
sg75
(lp449
g68
(g69
g70
NtRp450
(dp451
g73
(dp452
g81
I3
ssg82
g446
sg75
(lp453
S''
asbasbasbasbasbasbasbasbasbasbasbag68
(g84
g70
NtRp454
(dp455
g73
(dp456
sg82
g78
sg75
(lp457
g68
(g89
g70
NtRp458
(dp459
g73
(dp460
g93
g94
ssg82
g454
sg75
(lp461
S'env'
p462
asbag68
(g89
g70
NtRp463
(dp464
g73
(dp465
g100
g101
ssg82
g454
sg75
(lp466
S':'
asbag68
(g89
g70
NtRp467
(dp468
g73
(dp469
sg82
g454
sg75
(lp470
g68
(g69
g70
NtRp471
(dp472
g73
(dp473
g81
I5
ssg82
g467
sg75
(lp474
g68
(g77
g70
NtRp475
(dp476
g73
(dp477
g81
I4
ssg82
Nsg75
(lp478
g68
(g84
g70
NtRp479
(dp480
g73
(dp481
sg82
g475
sg75
(lp482
g68
(g89
g70
NtRp483
(dp484
g73
(dp485
g93
g94
ssg82
g479
sg75
(lp486
S'app_folders'
p487
asbag68
(g89
g70
NtRp488
(dp489
g73
(dp490
g100
g101
ssg82
g479
sg75
(lp491
S':'
asbag68
(g89
g70
NtRp492
(dp493
g73
(dp494
sg82
g479
sg75
(lp495
g68
(g69
g70
NtRp496
(dp497
g73
(dp498
g81
I4
ssg82
g492
sg75
(lp499
S"set(['C:\\\\Users\\\\mellinja\\\\Documents\\\\SC2Tracker\\\\SC2TourneyTracker\\\\web2py\\\\applications\\\\welcome\\\\'])"
p500
asbasbasbag68
(g84
g70
NtRp501
(dp502
g73
(dp503
sg82
g475
sg75
(lp504
g68
(g89
g70
NtRp505
(dp506
g73
(dp507
g93
g94
ssg82
g501
sg75
(lp508
S'applications_parent'
p509
asbag68
(g89
g70
NtRp510
(dp511
g73
(dp512
g100
g101
ssg82
g501
sg75
(lp513
S':'
asbag68
(g89
g70
NtRp514
(dp515
g73
(dp516
sg82
g501
sg75
(lp517
g68
(g69
g70
NtRp518
(dp519
g73
(dp520
g81
I4
ssg82
g514
sg75
(lp521
S'C:\\Users\\mellinja\\Documents\\SC2Tracker\\SC2TourneyTracker\\web2py'
p522
asbasbasbag68
(g84
g70
NtRp523
(dp524
g73
(dp525
sg82
g475
sg75
(lp526
g68
(g89
g70
NtRp527
(dp528
g73
(dp529
g93
g94
ssg82
g523
sg75
(lp530
S'cmd_args'
p531
asbag68
(g89
g70
NtRp532
(dp533
g73
(dp534
g100
g101
ssg82
g523
sg75
(lp535
S':'
asbag68
(g89
g70
NtRp536
(dp537
g73
(dp538
sg82
g523
sg75
(lp539
g68
(g69
g70
NtRp540
(dp541
g73
(dp542
g81
I4
ssg82
g536
sg75
(lp543
g68
(g77
g70
NtRp544
(dp545
g73
(dp546
g81
I3
ssg82
Nsg75
(lp547
sbasbasbasbag68
(g84
g70
NtRp548
(dp549
g73
(dp550
sg82
g475
sg75
(lp551
g68
(g89
g70
NtRp552
(dp553
g73
(dp554
g93
g94
ssg82
g548
sg75
(lp555
S'cmd_options'
p556
asbag68
(g89
g70
NtRp557
(dp558
g73
(dp559
g100
g101
ssg82
g548
sg75
(lp560
S':'
asbag68
(g89
g70
NtRp561
(dp562
g73
(dp563
sg82
g548
sg75
(lp564
g68
(g69
g70
NtRp565
(dp566
g73
(dp567
g81
I4
ssg82
g561
sg75
(lp568
S"<Values at 0x391d5c8: {'verbose': False, 'ip': '127.0.0.1', 'shutdown_timeout': 5, 'taskbar': False, 'nocron': False, 'pid_filename': 'httpserver.pid', 'maxthreads': None, 'softcron': False, 'server_name': 'mellinja-PC', 'bpython': False, 'nogui': False, 'port': 8000, 'extcron': False, 'debuglevel': 30, 'test': None, 'folder': 'C:\\\\Users\\\\mellinja\\\\Documents\\\\SC2Tracker\\\\SC2TourneyTracker\\\\web2py', 'config': '', 'import_models': False, 'winservice': '', 'shell': None, 'run': '', 'log_filename': 'httpserver.log', 'args': [''], 'socket_timeout': 1, 'ssl_ca_certificate': None, 'scheduler': None, 'profiler_filename': None, 'ssl_private_key': '', 'password': '<ask>', 'request_queue_size': 5, 'ssl_certificate': '', 'cronjob': False, 'numthreads': None, 'quiet': False, 'interfaces': None, 'minthreads': None, 'timeout': 10, 'plain': False, 'nobanner': False}>"
p569
asbasbasbag68
(g84
g70
NtRp570
(dp571
g73
(dp572
sg82
g475
sg75
(lp573
g68
(g89
g70
NtRp574
(dp575
g73
(dp576
g93
g94
ssg82
g570
sg75
(lp577
S'db_sessions'
p578
asbag68
(g89
g70
NtRp579
(dp580
g73
(dp581
g100
g101
ssg82
g570
sg75
(lp582
S':'
asbag68
(g89
g70
NtRp583
(dp584
g73
(dp585
sg82
g570
sg75
(lp586
g68
(g69
g70
NtRp587
(dp588
g73
(dp589
g81
I4
ssg82
g583
sg75
(lp590
S'set([])'
p591
asbasbasbag68
(g84
g70
NtRp592
(dp593
g73
(dp594
sg82
g475
sg75
(lp595
g68
(g89
g70
NtRp596
(dp597
g73
(dp598
g93
g94
ssg82
g592
sg75
(lp599
S'debugging'
p600
asbag68
(g89
g70
NtRp601
(dp602
g73
(dp603
g100
g101
ssg82
g592
sg75
(lp604
S':'
asbag68
(g89
g70
NtRp605
(dp606
g73
(dp607
sg82
g592
sg75
(lp608
g68
(g69
g70
NtRp609
(dp610
g73
(dp611
g81
I4
ssg82
g605
sg75
(lp612
g111
asbasbasbag68
(g84
g70
NtRp613
(dp614
g73
(dp615
sg82
g475
sg75
(lp616
g68
(g89
g70
NtRp617
(dp618
g73
(dp619
g93
g94
ssg82
g613
sg75
(lp620
S'gluon_parent'
p621
asbag68
(g89
g70
NtRp622
(dp623
g73
(dp624
g100
g101
ssg82
g613
sg75
(lp625
S':'
asbag68
(g89
g70
NtRp626
(dp627
g73
(dp628
sg82
g613
sg75
(lp629
g68
(g69
g70
NtRp630
(dp631
g73
(dp632
g81
I4
ssg82
g626
sg75
(lp633
S'C:\\Users\\mellinja\\Documents\\SC2Tracker\\SC2TourneyTracker\\web2py'
p634
asbasbasbag68
(g84
g70
NtRp635
(dp636
g73
(dp637
sg82
g475
sg75
(lp638
g68
(g89
g70
NtRp639
(dp640
g73
(dp641
g93
g94
ssg82
g635
sg75
(lp642
S'http_accept'
p643
asbag68
(g89
g70
NtRp644
(dp645
g73
(dp646
g100
g101
ssg82
g635
sg75
(lp647
S':'
asbag68
(g89
g70
NtRp648
(dp649
g73
(dp650
sg82
g635
sg75
(lp651
g68
(g69
g70
NtRp652
(dp653
g73
(dp654
g81
I4
ssg82
g648
sg75
(lp655
S'text/html,application/xhtml+xml,application/xml;q=0.9,*/*;q=0.8'
p656
asbasbasbag68
(g84
g70
NtRp657
(dp658
g73
(dp659
sg82
g475
sg75
(lp660
g68
(g89
g70
NtRp661
(dp662
g73
(dp663
g93
g94
ssg82
g657
sg75
(lp664
S'http_accept_charset'
p665
asbag68
(g89
g70
NtRp666
(dp667
g73
(dp668
g100
g101
ssg82
g657
sg75
(lp669
S':'
asbag68
(g89
g70
NtRp670
(dp671
g73
(dp672
sg82
g657
sg75
(lp673
g68
(g69
g70
NtRp674
(dp675
g73
(dp676
g81
I4
ssg82
g670
sg75
(lp677
S'ISO-8859-1,utf-8;q=0.7,*;q=0.3'
p678
asbasbasbag68
(g84
g70
NtRp679
(dp680
g73
(dp681
sg82
g475
sg75
(lp682
g68
(g89
g70
NtRp683
(dp684
g73
(dp685
g93
g94
ssg82
g679
sg75
(lp686
S'http_accept_encoding'
p687
asbag68
(g89
g70
NtRp688
(dp689
g73
(dp690
g100
g101
ssg82
g679
sg75
(lp691
S':'
asbag68
(g89
g70
NtRp692
(dp693
g73
(dp694
sg82
g679
sg75
(lp695
g68
(g69
g70
NtRp696
(dp697
g73
(dp698
g81
I4
ssg82
g692
sg75
(lp699
S'gzip,deflate,sdch'
p700
asbasbasbag68
(g84
g70
NtRp701
(dp702
g73
(dp703
sg82
g475
sg75
(lp704
g68
(g89
g70
NtRp705
(dp706
g73
(dp707
g93
g94
ssg82
g701
sg75
(lp708
S'http_accept_language'
p709
asbag68
(g89
g70
NtRp710
(dp711
g73
(dp712
g100
g101
ssg82
g701
sg75
(lp713
S':'
asbag68
(g89
g70
NtRp714
(dp715
g73
(dp716
sg82
g701
sg75
(lp717
g68
(g69
g70
NtRp718
(dp719
g73
(dp720
g81
I4
ssg82
g714
sg75
(lp721
S'en-US,en;q=0.8'
p722
asbasbasbag68
(g84
g70
NtRp723
(dp724
g73
(dp725
sg82
g475
sg75
(lp726
g68
(g89
g70
NtRp727
(dp728
g73
(dp729
g93
g94
ssg82
g723
sg75
(lp730
S'http_connection'
p731
asbag68
(g89
g70
NtRp732
(dp733
g73
(dp734
g100
g101
ssg82
g723
sg75
(lp735
S':'
asbag68
(g89
g70
NtRp736
(dp737
g73
(dp738
sg82
g723
sg75
(lp739
g68
(g69
g70
NtRp740
(dp741
g73
(dp742
g81
I4
ssg82
g736
sg75
(lp743
S'keep-alive'
p744
asbasbasbag68
(g84
g70
NtRp745
(dp746
g73
(dp747
sg82
g475
sg75
(lp748
g68
(g89
g70
NtRp749
(dp750
g73
(dp751
g93
g94
ssg82
g745
sg75
(lp752
S'http_cookie'
p753
asbag68
(g89
g70
NtRp754
(dp755
g73
(dp756
g100
g101
ssg82
g745
sg75
(lp757
S':'
asbag68
(g89
g70
NtRp758
(dp759
g73
(dp760
sg82
g745
sg75
(lp761
g68
(g69
g70
NtRp762
(dp763
g73
(dp764
g81
I4
ssg82
g758
sg75
(lp765
S'session_id_welcome=127.0.0.1-3577bb45-b3be-4c0f-be7b-edc2ad5f937c'
p766
asbasbasbag68
(g84
g70
NtRp767
(dp768
g73
(dp769
sg82
g475
sg75
(lp770
g68
(g89
g70
NtRp771
(dp772
g73
(dp773
g93
g94
ssg82
g767
sg75
(lp774
S'http_host'
p775
asbag68
(g89
g70
NtRp776
(dp777
g73
(dp778
g100
g101
ssg82
g767
sg75
(lp779
S':'
asbag68
(g89
g70
NtRp780
(dp781
g73
(dp782
sg82
g767
sg75
(lp783
g68
(g69
g70
NtRp784
(dp785
g73
(dp786
g81
I4
ssg82
g780
sg75
(lp787
S'127.0.0.1:8000'
p788
asbasbasbag68
(g84
g70
NtRp789
(dp790
g73
(dp791
sg82
g475
sg75
(lp792
g68
(g89
g70
NtRp793
(dp794
g73
(dp795
g93
g94
ssg82
g789
sg75
(lp796
S'http_referer'
p797
asbag68
(g89
g70
NtRp798
(dp799
g73
(dp800
g100
g101
ssg82
g789
sg75
(lp801
S':'
asbag68
(g89
g70
NtRp802
(dp803
g73
(dp804
sg82
g789
sg75
(lp805
g68
(g69
g70
NtRp806
(dp807
g73
(dp808
g81
I4
ssg82
g802
sg75
(lp809
S'http://127.0.0.1:8000/welcome/tournament/index'
p810
asbasbasbag68
(g84
g70
NtRp811
(dp812
g73
(dp813
sg82
g475
sg75
(lp814
g68
(g89
g70
NtRp815
(dp816
g73
(dp817
g93
g94
ssg82
g811
sg75
(lp818
S'http_user_agent'
p819
asbag68
(g89
g70
NtRp820
(dp821
g73
(dp822
g100
g101
ssg82
g811
sg75
(lp823
S':'
asbag68
(g89
g70
NtRp824
(dp825
g73
(dp826
sg82
g811
sg75
(lp827
g68
(g69
g70
NtRp828
(dp829
g73
(dp830
g81
I4
ssg82
g824
sg75
(lp831
S'Mozilla/5.0 (Windows NT 6.1; WOW64) AppleWebKit/535.7 (KHTML, like Gecko) Chrome/16.0.912.77 Safari/535.7'
p832
asbasbasbag68
(g84
g70
NtRp833
(dp834
g73
(dp835
sg82
g475
sg75
(lp836
g68
(g89
g70
NtRp837
(dp838
g73
(dp839
g93
g94
ssg82
g833
sg75
(lp840
S'is_jython'
p841
asbag68
(g89
g70
NtRp842
(dp843
g73
(dp844
g100
g101
ssg82
g833
sg75
(lp845
S':'
asbag68
(g89
g70
NtRp846
(dp847
g73
(dp848
sg82
g833
sg75
(lp849
g68
(g69
g70
NtRp850
(dp851
g73
(dp852
g81
I4
ssg82
g846
sg75
(lp853
g111
asbasbasbag68
(g84
g70
NtRp854
(dp855
g73
(dp856
sg82
g475
sg75
(lp857
g68
(g89
g70
NtRp858
(dp859
g73
(dp860
g93
g94
ssg82
g854
sg75
(lp861
S'is_pypy'
p862
asbag68
(g89
g70
NtRp863
(dp864
g73
(dp865
g100
g101
ssg82
g854
sg75
(lp866
S':'
asbag68
(g89
g70
NtRp867
(dp868
g73
(dp869
sg82
g854
sg75
(lp870
g68
(g69
g70
NtRp871
(dp872
g73
(dp873
g81
I4
ssg82
g867
sg75
(lp874
g111
asbasbasbag68
(g84
g70
NtRp875
(dp876
g73
(dp877
sg82
g475
sg75
(lp878
g68
(g89
g70
NtRp879
(dp880
g73
(dp881
g93
g94
ssg82
g875
sg75
(lp882
S'path_info'
p883
asbag68
(g89
g70
NtRp884
(dp885
g73
(dp886
g100
g101
ssg82
g875
sg75
(lp887
S':'
asbag68
(g89
g70
NtRp888
(dp889
g73
(dp890
sg82
g875
sg75
(lp891
g68
(g69
g70
NtRp892
(dp893
g73
(dp894
g81
I4
ssg82
g888
sg75
(lp895
S'/welcome/tournament/show/7'
p896
asbasbasbag68
(g84
g70
NtRp897
(dp898
g73
(dp899
sg82
g475
sg75
(lp900
g68
(g89
g70
NtRp901
(dp902
g73
(dp903
g93
g94
ssg82
g897
sg75
(lp904
S'query_string'
p905
asbag68
(g89
g70
NtRp906
(dp907
g73
(dp908
g100
g101
ssg82
g897
sg75
(lp909
S':'
asbag68
(g89
g70
NtRp910
(dp911
g73
(dp912
sg82
g897
sg75
(lp913
g68
(g69
g70
NtRp914
(dp915
g73
(dp916
g81
I4
ssg82
g910
sg75
(lp917
S''
asbasbasbag68
(g84
g70
NtRp918
(dp919
g73
(dp920
sg82
g475
sg75
(lp921
g68
(g89
g70
NtRp922
(dp923
g73
(dp924
g93
g94
ssg82
g918
sg75
(lp925
S'remote_addr'
p926
asbag68
(g89
g70
NtRp927
(dp928
g73
(dp929
g100
g101
ssg82
g918
sg75
(lp930
S':'
asbag68
(g89
g70
NtRp931
(dp932
g73
(dp933
sg82
g918
sg75
(lp934
g68
(g69
g70
NtRp935
(dp936
g73
(dp937
g81
I4
ssg82
g931
sg75
(lp938
g213
asbasbasbag68
(g84
g70
NtRp939
(dp940
g73
(dp941
sg82
g475
sg75
(lp942
g68
(g89
g70
NtRp943
(dp944
g73
(dp945
g93
g94
ssg82
g939
sg75
(lp946
S'remote_port'
p947
asbag68
(g89
g70
NtRp948
(dp949
g73
(dp950
g100
g101
ssg82
g939
sg75
(lp951
S':'
asbag68
(g89
g70
NtRp952
(dp953
g73
(dp954
sg82
g939
sg75
(lp955
g68
(g69
g70
NtRp956
(dp957
g73
(dp958
g81
I4
ssg82
g952
sg75
(lp959
S'49346'
p960
asbasbasbag68
(g84
g70
NtRp961
(dp962
g73
(dp963
sg82
g475
sg75
(lp964
g68
(g89
g70
NtRp965
(dp966
g73
(dp967
g93
g94
ssg82
g961
sg75
(lp968
S'request_method'
p969
asbag68
(g89
g70
NtRp970
(dp971
g73
(dp972
g100
g101
ssg82
g961
sg75
(lp973
S':'
asbag68
(g89
g70
NtRp974
(dp975
g73
(dp976
sg82
g961
sg75
(lp977
g68
(g69
g70
NtRp978
(dp979
g73
(dp980
g81
I4
ssg82
g974
sg75
(lp981
S'GET'
p982
asbasbasbag68
(g84
g70
NtRp983
(dp984
g73
(dp985
sg82
g475
sg75
(lp986
g68
(g89
g70
NtRp987
(dp988
g73
(dp989
g93
g94
ssg82
g983
sg75
(lp990
S'script_name'
p991
asbag68
(g89
g70
NtRp992
(dp993
g73
(dp994
g100
g101
ssg82
g983
sg75
(lp995
S':'
asbag68
(g89
g70
NtRp996
(dp997
g73
(dp998
sg82
g983
sg75
(lp999
g68
(g69
g70
NtRp1000
(dp1001
g73
(dp1002
g81
I4
ssg82
g996
sg75
(lp1003
S''
asbasbasbag68
(g84
g70
NtRp1004
(dp1005
g73
(dp1006
sg82
g475
sg75
(lp1007
g68
(g89
g70
NtRp1008
(dp1009
g73
(dp1010
g93
g94
ssg82
g1004
sg75
(lp1011
S'server_name'
p1012
asbag68
(g89
g70
NtRp1013
(dp1014
g73
(dp1015
g100
g101
ssg82
g1004
sg75
(lp1016
S':'
asbag68
(g89
g70
NtRp1017
(dp1018
g73
(dp1019
sg82
g1004
sg75
(lp1020
g68
(g69
g70
NtRp1021
(dp1022
g73
(dp1023
g81
I4
ssg82
g1017
sg75
(lp1024
S'mellinja-PC'
p1025
asbasbasbag68
(g84
g70
NtRp1026
(dp1027
g73
(dp1028
sg82
g475
sg75
(lp1029
g68
(g89
g70
NtRp1030
(dp1031
g73
(dp1032
g93
g94
ssg82
g1026
sg75
(lp1033
S'server_port'
p1034
asbag68
(g89
g70
NtRp1035
(dp1036
g73
(dp1037
g100
g101
ssg82
g1026
sg75
(lp1038
S':'
asbag68
(g89
g70
NtRp1039
(dp1040
g73
(dp1041
sg82
g1026
sg75
(lp1042
g68
(g69
g70
NtRp1043
(dp1044
g73
(dp1045
g81
I4
ssg82
g1039
sg75
(lp1046
S'8000'
p1047
asbasbasbag68
(g84
g70
NtRp1048
(dp1049
g73
(dp1050
sg82
g475
sg75
(lp1051
g68
(g89
g70
NtRp1052
(dp1053
g73
(dp1054
g93
g94
ssg82
g1048
sg75
(lp1055
S'server_protocol'
p1056
asbag68
(g89
g70
NtRp1057
(dp1058
g73
(dp1059
g100
g101
ssg82
g1048
sg75
(lp1060
S':'
asbag68
(g89
g70
NtRp1061
(dp1062
g73
(dp1063
sg82
g1048
sg75
(lp1064
g68
(g69
g70
NtRp1065
(dp1066
g73
(dp1067
g81
I4
ssg82
g1061
sg75
(lp1068
S'HTTP/1.1'
p1069
asbasbasbag68
(g84
g70
NtRp1070
(dp1071
g73
(dp1072
sg82
g475
sg75
(lp1073
g68
(g89
g70
NtRp1074
(dp1075
g73
(dp1076
g93
g94
ssg82
g1070
sg75
(lp1077
S'server_software'
p1078
asbag68
(g89
g70
NtRp1079
(dp1080
g73
(dp1081
g100
g101
ssg82
g1070
sg75
(lp1082
S':'
asbag68
(g89
g70
NtRp1083
(dp1084
g73
(dp1085
sg82
g1070
sg75
(lp1086
g68
(g69
g70
NtRp1087
(dp1088
g73
(dp1089
g81
I4
ssg82
g1083
sg75
(lp1090
S'Rocket 1.2.4'
p1091
asbasbasbag68
(g84
g70
NtRp1092
(dp1093
g73
(dp1094
sg82
g475
sg75
(lp1095
g68
(g89
g70
NtRp1096
(dp1097
g73
(dp1098
g93
g94
ssg82
g1092
sg75
(lp1099
S'web2py_crontype'
p1100
asbag68
(g89
g70
NtRp1101
(dp1102
g73
(dp1103
g100
g101
ssg82
g1092
sg75
(lp1104
S':'
asbag68
(g89
g70
NtRp1105
(dp1106
g73
(dp1107
sg82
g1092
sg75
(lp1108
g68
(g69
g70
NtRp1109
(dp1110
g73
(dp1111
g81
I4
ssg82
g1105
sg75
(lp1112
S'hard'
p1113
asbasbasbag68
(g84
g70
NtRp1114
(dp1115
g73
(dp1116
sg82
g475
sg75
(lp1117
g68
(g89
g70
NtRp1118
(dp1119
g73
(dp1120
g93
g94
ssg82
g1114
sg75
(lp1121
S'web2py_path'
p1122
asbag68
(g89
g70
NtRp1123
(dp1124
g73
(dp1125
g100
g101
ssg82
g1114
sg75
(lp1126
S':'
asbag68
(g89
g70
NtRp1127
(dp1128
g73
(dp1129
sg82
g1114
sg75
(lp1130
g68
(g69
g70
NtRp1131
(dp1132
g73
(dp1133
g81
I4
ssg82
g1127
sg75
(lp1134
g522
asbasbasbag68
(g84
g70
NtRp1135
(dp1136
g73
(dp1137
sg82
g475
sg75
(lp1138
g68
(g89
g70
NtRp1139
(dp1140
g73
(dp1141
g93
g94
ssg82
g1135
sg75
(lp1142
S'web2py_version'
p1143
asbag68
(g89
g70
NtRp1144
(dp1145
g73
(dp1146
g100
g101
ssg82
g1135
sg75
(lp1147
S':'
asbag68
(g89
g70
NtRp1148
(dp1149
g73
(dp1150
sg82
g1135
sg75
(lp1151
g68
(g69
g70
NtRp1152
(dp1153
g73
(dp1154
g81
I4
ssg82
g1148
sg75
(lp1155
g68
(g77
g70
NtRp1156
(dp1157
g73
(dp1158
g81
I3
ssg82
Nsg75
(lp1159
g68
(g84
g70
NtRp1160
(dp1161
g73
(dp1162
sg82
g1156
sg75
(lp1163
g68
(g89
g70
NtRp1164
(dp1165
g73
(dp1166
sg82
g1160
sg75
(lp1167
g68
(g69
g70
NtRp1168
(dp1169
g73
(dp1170
g81
I3
ssg82
g1164
sg75
(lp1171
S'1'
asbasbasbag68
(g84
g70
NtRp1172
(dp1173
g73
(dp1174
sg82
g1156
sg75
(lp1175
g68
(g89
g70
NtRp1176
(dp1177
g73
(dp1178
sg82
g1172
sg75
(lp1179
g68
(g69
g70
NtRp1180
(dp1181
g73
(dp1182
g81
I3
ssg82
g1176
sg75
(lp1183
S'99'
p1184
asbasbasbag68
(g84
g70
NtRp1185
(dp1186
g73
(dp1187
sg82
g1156
sg75
(lp1188
g68
(g89
g70
NtRp1189
(dp1190
g73
(dp1191
sg82
g1185
sg75
(lp1192
g68
(g69
g70
NtRp1193
(dp1194
g73
(dp1195
g81
I3
ssg82
g1189
sg75
(lp1196
S'4'
asbasbasbag68
(g84
g70
NtRp1197
(dp1198
g73
(dp1199
sg82
g1156
sg75
(lp1200
g68
(g89
g70
NtRp1201
(dp1202
g73
(dp1203
sg82
g1197
sg75
(lp1204
g68
(g69
g70
NtRp1205
(dp1206
g73
(dp1207
g81
I3
ssg82
g1201
sg75
(lp1208
S'datetime.datetime(2011, 12, 14, 14, 46, 14)'
p1209
asbasbasbag68
(g84
g70
NtRp1210
(dp1211
g73
(dp1212
sg82
g1156
sg75
(lp1213
g68
(g89
g70
NtRp1214
(dp1215
g73
(dp1216
sg82
g1210
sg75
(lp1217
g68
(g69
g70
NtRp1218
(dp1219
g73
(dp1220
g81
I3
ssg82
g1214
sg75
(lp1221
S'stable'
p1222
asbasbasbasbasbasbasbag68
(g84
g70
NtRp1223
(dp1224
g73
(dp1225
sg82
g475
sg75
(lp1226
g68
(g89
g70
NtRp1227
(dp1228
g73
(dp1229
g93
g94
ssg82
g1223
sg75
(lp1230
S'wsgi_errors'
p1231
asbag68
(g89
g70
NtRp1232
(dp1233
g73
(dp1234
g100
g101
ssg82
g1223
sg75
(lp1235
S':'
asbag68
(g89
g70
NtRp1236
(dp1237
g73
(dp1238
sg82
g1223
sg75
(lp1239
g68
(g69
g70
NtRp1240
(dp1241
g73
(dp1242
g81
I4
ssg82
g1236
sg75
(lp1243
S"<open file '<stderr>', mode 'w' at 0x00000000020161E0>"
p1244
asbasbasbag68
(g84
g70
NtRp1245
(dp1246
g73
(dp1247
sg82
g475
sg75
(lp1248
g68
(g89
g70
NtRp1249
(dp1250
g73
(dp1251
g93
g94
ssg82
g1245
sg75
(lp1252
S'wsgi_file_wrapper'
p1253
asbag68
(g89
g70
NtRp1254
(dp1255
g73
(dp1256
g100
g101
ssg82
g1245
sg75
(lp1257
S':'
asbag68
(g89
g70
NtRp1258
(dp1259
g73
(dp1260
sg82
g1245
sg75
(lp1261
g68
(g69
g70
NtRp1262
(dp1263
g73
(dp1264
g81
I4
ssg82
g1258
sg75
(lp1265
S'<class wsgiref.util.FileWrapper at 0x000000000380D828>'
p1266
asbasbasbag68
(g84
g70
NtRp1267
(dp1268
g73
(dp1269
sg82
g475
sg75
(lp1270
g68
(g89
g70
NtRp1271
(dp1272
g73
(dp1273
g93
g94
ssg82
g1267
sg75
(lp1274
S'wsgi_input'
p1275
asbag68
(g89
g70
NtRp1276
(dp1277
g73
(dp1278
g100
g101
ssg82
g1267
sg75
(lp1279
S':'
asbag68
(g89
g70
NtRp1280
(dp1281
g73
(dp1282
sg82
g1267
sg75
(lp1283
g68
(g69
g70
NtRp1284
(dp1285
g73
(dp1286
g81
I4
ssg82
g1280
sg75
(lp1287
S'<socket._fileobject object at 0x000000000789A4F8>'
p1288
asbasbasbag68
(g84
g70
NtRp1289
(dp1290
g73
(dp1291
sg82
g475
sg75
(lp1292
g68
(g89
g70
NtRp1293
(dp1294
g73
(dp1295
g93
g94
ssg82
g1289
sg75
(lp1296
S'wsgi_multiprocess'
p1297
asbag68
(g89
g70
NtRp1298
(dp1299
g73
(dp1300
g100
g101
ssg82
g1289
sg75
(lp1301
S':'
asbag68
(g89
g70
NtRp1302
(dp1303
g73
(dp1304
sg82
g1289
sg75
(lp1305
g68
(g69
g70
NtRp1306
(dp1307
g73
(dp1308
g81
I4
ssg82
g1302
sg75
(lp1309
g111
asbasbasbag68
(g84
g70
NtRp1310
(dp1311
g73
(dp1312
sg82
g475
sg75
(lp1313
g68
(g89
g70
NtRp1314
(dp1315
g73
(dp1316
g93
g94
ssg82
g1310
sg75
(lp1317
S'wsgi_multithread'
p1318
asbag68
(g89
g70
NtRp1319
(dp1320
g73
(dp1321
g100
g101
ssg82
g1310
sg75
(lp1322
S':'
asbag68
(g89
g70
NtRp1323
(dp1324
g73
(dp1325
sg82
g1310
sg75
(lp1326
g68
(g69
g70
NtRp1327
(dp1328
g73
(dp1329
g81
I4
ssg82
g1323
sg75
(lp1330
S'True'
p1331
asbasbasbag68
(g84
g70
NtRp1332
(dp1333
g73
(dp1334
sg82
g475
sg75
(lp1335
g68
(g89
g70
NtRp1336
(dp1337
g73
(dp1338
g93
g94
ssg82
g1332
sg75
(lp1339
S'wsgi_run_once'
p1340
asbag68
(g89
g70
NtRp1341
(dp1342
g73
(dp1343
g100
g101
ssg82
g1332
sg75
(lp1344
S':'
asbag68
(g89
g70
NtRp1345
(dp1346
g73
(dp1347
sg82
g1332
sg75
(lp1348
g68
(g69
g70
NtRp1349
(dp1350
g73
(dp1351
g81
I4
ssg82
g1345
sg75
(lp1352
g111
asbasbasbag68
(g84
g70
NtRp1353
(dp1354
g73
(dp1355
sg82
g475
sg75
(lp1356
g68
(g89
g70
NtRp1357
(dp1358
g73
(dp1359
g93
g94
ssg82
g1353
sg75
(lp1360
S'wsgi_url_scheme'
p1361
asbag68
(g89
g70
NtRp1362
(dp1363
g73
(dp1364
g100
g101
ssg82
g1353
sg75
(lp1365
S':'
asbag68
(g89
g70
NtRp1366
(dp1367
g73
(dp1368
sg82
g1353
sg75
(lp1369
g68
(g69
g70
NtRp1370
(dp1371
g73
(dp1372
g81
I4
ssg82
g1366
sg75
(lp1373
S'http'
p1374
asbasbasbag68
(g84
g70
NtRp1375
(dp1376
g73
(dp1377
sg82
g475
sg75
(lp1378
g68
(g89
g70
NtRp1379
(dp1380
g73
(dp1381
g93
g94
ssg82
g1375
sg75
(lp1382
S'wsgi_version'
p1383
asbag68
(g89
g70
NtRp1384
(dp1385
g73
(dp1386
g100
g101
ssg82
g1375
sg75
(lp1387
S':'
asbag68
(g89
g70
NtRp1388
(dp1389
g73
(dp1390
sg82
g1375
sg75
(lp1391
g68
(g69
g70
NtRp1392
(dp1393
g73
(dp1394
g81
I4
ssg82
g1388
sg75
(lp1395
g68
(g77
g70
NtRp1396
(dp1397
g73
(dp1398
g81
I3
ssg82
Nsg75
(lp1399
g68
(g84
g70
NtRp1400
(dp1401
g73
(dp1402
sg82
g1396
sg75
(lp1403
g68
(g89
g70
NtRp1404
(dp1405
g73
(dp1406
sg82
g1400
sg75
(lp1407
g68
(g69
g70
NtRp1408
(dp1409
g73
(dp1410
g81
I3
ssg82
g1404
sg75
(lp1411
S'1'
asbasbasbag68
(g84
g70
NtRp1412
(dp1413
g73
(dp1414
sg82
g1396
sg75
(lp1415
g68
(g89
g70
NtRp1416
(dp1417
g73
(dp1418
sg82
g1412
sg75
(lp1419
g68
(g69
g70
NtRp1420
(dp1421
g73
(dp1422
g81
I3
ssg82
g1416
sg75
(lp1423
S'0'
asbasbasbasbasbasbasbasbasbasbasbag68
(g84
g70
NtRp1424
(dp1425
g73
(dp1426
sg82
g78
sg75
(lp1427
g68
(g89
g70
NtRp1428
(dp1429
g73
(dp1430
g93
g94
ssg82
g1424
sg75
(lp1431
S'extension'
p1432
asbag68
(g89
g70
NtRp1433
(dp1434
g73
(dp1435
g100
g101
ssg82
g1424
sg75
(lp1436
S':'
asbag68
(g89
g70
NtRp1437
(dp1438
g73
(dp1439
sg82
g1424
sg75
(lp1440
g68
(g69
g70
NtRp1441
(dp1442
g73
(dp1443
g81
I5
ssg82
g1437
sg75
(lp1444
S'html'
p1445
asbasbasbag68
(g84
g70
NtRp1446
(dp1447
g73
(dp1448
sg82
g78
sg75
(lp1449
g68
(g89
g70
NtRp1450
(dp1451
g73
(dp1452
g93
g94
ssg82
g1446
sg75
(lp1453
S'folder'
p1454
asbag68
(g89
g70
NtRp1455
(dp1456
g73
(dp1457
g100
g101
ssg82
g1446
sg75
(lp1458
S':'
asbag68
(g89
g70
NtRp1459
(dp1460
g73
(dp1461
sg82
g1446
sg75
(lp1462
g68
(g69
g70
NtRp1463
(dp1464
g73
(dp1465
g81
I5
ssg82
g1459
sg75
(lp1466
S'C:\\Users\\mellinja\\Documents\\SC2Tracker\\SC2TourneyTracker\\web2py\\applications\\welcome\\'
p1467
asbasbasbag68
(g84
g70
NtRp1468
(dp1469
g73
(dp1470
sg82
g78
sg75
(lp1471
g68
(g89
g70
NtRp1472
(dp1473
g73
(dp1474
g93
g94
ssg82
g1468
sg75
(lp1475
S'function'
p1476
asbag68
(g89
g70
NtRp1477
(dp1478
g73
(dp1479
g100
g101
ssg82
g1468
sg75
(lp1480
S':'
asbag68
(g89
g70
NtRp1481
(dp1482
g73
(dp1483
sg82
g1468
sg75
(lp1484
g68
(g69
g70
NtRp1485
(dp1486
g73
(dp1487
g81
I5
ssg82
g1481
sg75
(lp1488
S'show'
p1489
asbasbasbag68
(g84
g70
NtRp1490
(dp1491
g73
(dp1492
sg82
g78
sg75
(lp1493
g68
(g89
g70
NtRp1494
(dp1495
g73
(dp1496
g93
g94
ssg82
g1490
sg75
(lp1497
S'get_vars'
p1498
asbag68
(g89
g70
NtRp1499
(dp1500
g73
(dp1501
g100
g101
ssg82
g1490
sg75
(lp1502
S':'
asbag68
(g89
g70
NtRp1503
(dp1504
g73
(dp1505
sg82
g1490
sg75
(lp1506
g68
(g69
g70
NtRp1507
(dp1508
g73
(dp1509
g81
I5
ssg82
g1503
sg75
(lp1510
g68
(g77
g70
NtRp1511
(dp1512
g73
(dp1513
g81
I4
ssg82
Nsg75
(lp1514
sbasbasbasbag68
(g84
g70
NtRp1515
(dp1516
g73
(dp1517
sg82
g78
sg75
(lp1518
g68
(g89
g70
NtRp1519
(dp1520
g73
(dp1521
g93
g94
ssg82
g1515
sg75
(lp1522
S'global_settings'
p1523
asbag68
(g89
g70
NtRp1524
(dp1525
g73
(dp1526
g100
g101
ssg82
g1515
sg75
(lp1527
S':'
asbag68
(g89
g70
NtRp1528
(dp1529
g73
(dp1530
sg82
g1515
sg75
(lp1531
g68
(g69
g70
NtRp1532
(dp1533
g73
(dp1534
g81
I5
ssg82
g1528
sg75
(lp1535
g68
(g77
g70
NtRp1536
(dp1537
g73
(dp1538
g81
I4
ssg82
Nsg75
(lp1539
g68
(g84
g70
NtRp1540
(dp1541
g73
(dp1542
sg82
g1536
sg75
(lp1543
g68
(g89
g70
NtRp1544
(dp1545
g73
(dp1546
g93
g94
ssg82
g1540
sg75
(lp1547
g487
asbag68
(g89
g70
NtRp1548
(dp1549
g73
(dp1550
g100
g101
ssg82
g1540
sg75
(lp1551
S':'
asbag68
(g89
g70
NtRp1552
(dp1553
g73
(dp1554
sg82
g1540
sg75
(lp1555
g68
(g69
g70
NtRp1556
(dp1557
g73
(dp1558
g81
I4
ssg82
g1552
sg75
(lp1559
S"set(['C:\\\\Users\\\\mellinja\\\\Documents\\\\SC2Tracker\\\\SC2TourneyTracker\\\\web2py\\\\applications\\\\welcome\\\\'])"
p1560
asbasbasbag68
(g84
g70
NtRp1561
(dp1562
g73
(dp1563
sg82
g1536
sg75
(lp1564
g68
(g89
g70
NtRp1565
(dp1566
g73
(dp1567
g93
g94
ssg82
g1561
sg75
(lp1568
g509
asbag68
(g89
g70
NtRp1569
(dp1570
g73
(dp1571
g100
g101
ssg82
g1561
sg75
(lp1572
S':'
asbag68
(g89
g70
NtRp1573
(dp1574
g73
(dp1575
sg82
g1561
sg75
(lp1576
g68
(g69
g70
NtRp1577
(dp1578
g73
(dp1579
g81
I4
ssg82
g1573
sg75
(lp1580
g522
asbasbasbag68
(g84
g70
NtRp1581
(dp1582
g73
(dp1583
sg82
g1536
sg75
(lp1584
g68
(g89
g70
NtRp1585
(dp1586
g73
(dp1587
g93
g94
ssg82
g1581
sg75
(lp1588
g531
asbag68
(g89
g70
NtRp1589
(dp1590
g73
(dp1591
g100
g101
ssg82
g1581
sg75
(lp1592
S':'
asbag68
(g89
g70
NtRp1593
(dp1594
g73
(dp1595
sg82
g1581
sg75
(lp1596
g68
(g69
g70
NtRp1597
(dp1598
g73
(dp1599
g81
I4
ssg82
g1593
sg75
(lp1600
g68
(g77
g70
NtRp1601
(dp1602
g73
(dp1603
g81
I3
ssg82
Nsg75
(lp1604
sbasbasbasbag68
(g84
g70
NtRp1605
(dp1606
g73
(dp1607
sg82
g1536
sg75
(lp1608
g68
(g89
g70
NtRp1609
(dp1610
g73
(dp1611
g93
g94
ssg82
g1605
sg75
(lp1612
g556
asbag68
(g89
g70
NtRp1613
(dp1614
g73
(dp1615
g100
g101
ssg82
g1605
sg75
(lp1616
S':'
asbag68
(g89
g70
NtRp1617
(dp1618
g73
(dp1619
sg82
g1605
sg75
(lp1620
g68
(g69
g70
NtRp1621
(dp1622
g73
(dp1623
g81
I4
ssg82
g1617
sg75
(lp1624
S"<Values at 0x391d5c8: {'verbose': False, 'ip': '127.0.0.1', 'shutdown_timeout': 5, 'taskbar': False, 'nocron': False, 'pid_filename': 'httpserver.pid', 'maxthreads': None, 'softcron': False, 'server_name': 'mellinja-PC', 'bpython': False, 'nogui': False, 'port': 8000, 'extcron': False, 'debuglevel': 30, 'test': None, 'folder': 'C:\\\\Users\\\\mellinja\\\\Documents\\\\SC2Tracker\\\\SC2TourneyTracker\\\\web2py', 'config': '', 'import_models': False, 'winservice': '', 'shell': None, 'run': '', 'log_filename': 'httpserver.log', 'args': [''], 'socket_timeout': 1, 'ssl_ca_certificate': None, 'scheduler': None, 'profiler_filename': None, 'ssl_private_key': '', 'password': '<ask>', 'request_queue_size': 5, 'ssl_certificate': '', 'cronjob': False, 'numthreads': None, 'quiet': False, 'interfaces': None, 'minthreads': None, 'timeout': 10, 'plain': False, 'nobanner': False}>"
p1625
asbasbasbag68
(g84
g70
NtRp1626
(dp1627
g73
(dp1628
sg82
g1536
sg75
(lp1629
g68
(g89
g70
NtRp1630
(dp1631
g73
(dp1632
g93
g94
ssg82
g1626
sg75
(lp1633
g578
asbag68
(g89
g70
NtRp1634
(dp1635
g73
(dp1636
g100
g101
ssg82
g1626
sg75
(lp1637
S':'
asbag68
(g89
g70
NtRp1638
(dp1639
g73
(dp1640
sg82
g1626
sg75
(lp1641
g68
(g69
g70
NtRp1642
(dp1643
g73
(dp1644
g81
I4
ssg82
g1638
sg75
(lp1645
S'set([])'
p1646
asbasbasbag68
(g84
g70
NtRp1647
(dp1648
g73
(dp1649
sg82
g1536
sg75
(lp1650
g68
(g89
g70
NtRp1651
(dp1652
g73
(dp1653
g93
g94
ssg82
g1647
sg75
(lp1654
g600
asbag68
(g89
g70
NtRp1655
(dp1656
g73
(dp1657
g100
g101
ssg82
g1647
sg75
(lp1658
S':'
asbag68
(g89
g70
NtRp1659
(dp1660
g73
(dp1661
sg82
g1647
sg75
(lp1662
g68
(g69
g70
NtRp1663
(dp1664
g73
(dp1665
g81
I4
ssg82
g1659
sg75
(lp1666
g111
asbasbasbag68
(g84
g70
NtRp1667
(dp1668
g73
(dp1669
sg82
g1536
sg75
(lp1670
g68
(g89
g70
NtRp1671
(dp1672
g73
(dp1673
g93
g94
ssg82
g1667
sg75
(lp1674
g621
asbag68
(g89
g70
NtRp1675
(dp1676
g73
(dp1677
g100
g101
ssg82
g1667
sg75
(lp1678
S':'
asbag68
(g89
g70
NtRp1679
(dp1680
g73
(dp1681
sg82
g1667
sg75
(lp1682
g68
(g69
g70
NtRp1683
(dp1684
g73
(dp1685
g81
I4
ssg82
g1679
sg75
(lp1686
g634
asbasbasbag68
(g84
g70
NtRp1687
(dp1688
g73
(dp1689
sg82
g1536
sg75
(lp1690
g68
(g89
g70
NtRp1691
(dp1692
g73
(dp1693
g93
g94
ssg82
g1687
sg75
(lp1694
g841
asbag68
(g89
g70
NtRp1695
(dp1696
g73
(dp1697
g100
g101
ssg82
g1687
sg75
(lp1698
S':'
asbag68
(g89
g70
NtRp1699
(dp1700
g73
(dp1701
sg82
g1687
sg75
(lp1702
g68
(g69
g70
NtRp1703
(dp1704
g73
(dp1705
g81
I4
ssg82
g1699
sg75
(lp1706
g111
asbasbasbag68
(g84
g70
NtRp1707
(dp1708
g73
(dp1709
sg82
g1536
sg75
(lp1710
g68
(g89
g70
NtRp1711
(dp1712
g73
(dp1713
g93
g94
ssg82
g1707
sg75
(lp1714
g862
asbag68
(g89
g70
NtRp1715
(dp1716
g73
(dp1717
g100
g101
ssg82
g1707
sg75
(lp1718
S':'
asbag68
(g89
g70
NtRp1719
(dp1720
g73
(dp1721
sg82
g1707
sg75
(lp1722
g68
(g69
g70
NtRp1723
(dp1724
g73
(dp1725
g81
I4
ssg82
g1719
sg75
(lp1726
g111
asbasbasbag68
(g84
g70
NtRp1727
(dp1728
g73
(dp1729
sg82
g1536
sg75
(lp1730
g68
(g89
g70
NtRp1731
(dp1732
g73
(dp1733
g93
g94
ssg82
g1727
sg75
(lp1734
g1100
asbag68
(g89
g70
NtRp1735
(dp1736
g73
(dp1737
g100
g101
ssg82
g1727
sg75
(lp1738
S':'
asbag68
(g89
g70
NtRp1739
(dp1740
g73
(dp1741
sg82
g1727
sg75
(lp1742
g68
(g69
g70
NtRp1743
(dp1744
g73
(dp1745
g81
I4
ssg82
g1739
sg75
(lp1746
g1113
asbasbasbag68
(g84
g70
NtRp1747
(dp1748
g73
(dp1749
sg82
g1536
sg75
(lp1750
g68
(g89
g70
NtRp1751
(dp1752
g73
(dp1753
g93
g94
ssg82
g1747
sg75
(lp1754
g1143
asbag68
(g89
g70
NtRp1755
(dp1756
g73
(dp1757
g100
g101
ssg82
g1747
sg75
(lp1758
S':'
asbag68
(g89
g70
NtRp1759
(dp1760
g73
(dp1761
sg82
g1747
sg75
(lp1762
g68
(g69
g70
NtRp1763
(dp1764
g73
(dp1765
g81
I4
ssg82
g1759
sg75
(lp1766
g68
(g77
g70
NtRp1767
(dp1768
g73
(dp1769
g81
I3
ssg82
Nsg75
(lp1770
g68
(g84
g70
NtRp1771
(dp1772
g73
(dp1773
sg82
g1767
sg75
(lp1774
g68
(g89
g70
NtRp1775
(dp1776
g73
(dp1777
sg82
g1771
sg75
(lp1778
g68
(g69
g70
NtRp1779
(dp1780
g73
(dp1781
g81
I3
ssg82
g1775
sg75
(lp1782
S'1'
asbasbasbag68
(g84
g70
NtRp1783
(dp1784
g73
(dp1785
sg82
g1767
sg75
(lp1786
g68
(g89
g70
NtRp1787
(dp1788
g73
(dp1789
sg82
g1783
sg75
(lp1790
g68
(g69
g70
NtRp1791
(dp1792
g73
(dp1793
g81
I3
ssg82
g1787
sg75
(lp1794
S'99'
p1795
asbasbasbag68
(g84
g70
NtRp1796
(dp1797
g73
(dp1798
sg82
g1767
sg75
(lp1799
g68
(g89
g70
NtRp1800
(dp1801
g73
(dp1802
sg82
g1796
sg75
(lp1803
g68
(g69
g70
NtRp1804
(dp1805
g73
(dp1806
g81
I3
ssg82
g1800
sg75
(lp1807
S'4'
asbasbasbag68
(g84
g70
NtRp1808
(dp1809
g73
(dp1810
sg82
g1767
sg75
(lp1811
g68
(g89
g70
NtRp1812
(dp1813
g73
(dp1814
sg82
g1808
sg75
(lp1815
g68
(g69
g70
NtRp1816
(dp1817
g73
(dp1818
g81
I3
ssg82
g1812
sg75
(lp1819
S'datetime.datetime(2011, 12, 14, 14, 46, 14)'
p1820
asbasbasbag68
(g84
g70
NtRp1821
(dp1822
g73
(dp1823
sg82
g1767
sg75
(lp1824
g68
(g89
g70
NtRp1825
(dp1826
g73
(dp1827
sg82
g1821
sg75
(lp1828
g68
(g69
g70
NtRp1829
(dp1830
g73
(dp1831
g81
I3
ssg82
g1825
sg75
(lp1832
g1222
asbasbasbasbasbasbasbasbasbasbasbag68
(g84
g70
NtRp1833
(dp1834
g73
(dp1835
sg82
g78
sg75
(lp1836
g68
(g89
g70
NtRp1837
(dp1838
g73
(dp1839
g93
g94
ssg82
g1833
sg75
(lp1840
S'is_https'
p1841
asbag68
(g89
g70
NtRp1842
(dp1843
g73
(dp1844
g100
g101
ssg82
g1833
sg75
(lp1845
S':'
asbag68
(g89
g70
NtRp1846
(dp1847
g73
(dp1848
sg82
g1833
sg75
(lp1849
g68
(g69
g70
NtRp1850
(dp1851
g73
(dp1852
g81
I5
ssg82
g1846
sg75
(lp1853
g111
asbasbasbag68
(g84
g70
NtRp1854
(dp1855
g73
(dp1856
sg82
g78
sg75
(lp1857
g68
(g89
g70
NtRp1858
(dp1859
g73
(dp1860
g93
g94
ssg82
g1854
sg75
(lp1861
S'is_local'
p1862
asbag68
(g89
g70
NtRp1863
(dp1864
g73
(dp1865
g100
g101
ssg82
g1854
sg75
(lp1866
S':'
asbag68
(g89
g70
NtRp1867
(dp1868
g73
(dp1869
sg82
g1854
sg75
(lp1870
g68
(g69
g70
NtRp1871
(dp1872
g73
(dp1873
g81
I5
ssg82
g1867
sg75
(lp1874
g1331
asbasbasbag68
(g84
g70
NtRp1875
(dp1876
g73
(dp1877
sg82
g78
sg75
(lp1878
g68
(g89
g70
NtRp1879
(dp1880
g73
(dp1881
g93
g94
ssg82
g1875
sg75
(lp1882
S'is_restful'
p1883
asbag68
(g89
g70
NtRp1884
(dp1885
g73
(dp1886
g100
g101
ssg82
g1875
sg75
(lp1887
S':'
asbag68
(g89
g70
NtRp1888
(dp1889
g73
(dp1890
sg82
g1875
sg75
(lp1891
g68
(g69
g70
NtRp1892
(dp1893
g73
(dp1894
g81
I5
ssg82
g1888
sg75
(lp1895
g111
asbasbasbag68
(g84
g70
NtRp1896
(dp1897
g73
(dp1898
sg82
g78
sg75
(lp1899
g68
(g89
g70
NtRp1900
(dp1901
g73
(dp1902
g93
g94
ssg82
g1896
sg75
(lp1903
S'now'
p1904
asbag68
(g89
g70
NtRp1905
(dp1906
g73
(dp1907
g100
g101
ssg82
g1896
sg75
(lp1908
S':'
asbag68
(g89
g70
NtRp1909
(dp1910
g73
(dp1911
sg82
g1896
sg75
(lp1912
g68
(g69
g70
NtRp1913
(dp1914
g73
(dp1915
g81
I5
ssg82
g1909
sg75
(lp1916
S'datetime.datetime(2012, 2, 9, 11, 54, 29, 124000)'
p1917
asbasbasbag68
(g84
g70
NtRp1918
(dp1919
g73
(dp1920
sg82
g78
sg75
(lp1921
g68
(g89
g70
NtRp1922
(dp1923
g73
(dp1924
g93
g94
ssg82
g1918
sg75
(lp1925
S'post_vars'
p1926
asbag68
(g89
g70
NtRp1927
(dp1928
g73
(dp1929
g100
g101
ssg82
g1918
sg75
(lp1930
S':'
asbag68
(g89
g70
NtRp1931
(dp1932
g73
(dp1933
sg82
g1918
sg75
(lp1934
g68
(g69
g70
NtRp1935
(dp1936
g73
(dp1937
g81
I5
ssg82
g1931
sg75
(lp1938
g68
(g77
g70
NtRp1939
(dp1940
g73
(dp1941
g81
I4
ssg82
Nsg75
(lp1942
sbasbasbasbag68
(g84
g70
NtRp1943
(dp1944
g73
(dp1945
sg82
g78
sg75
(lp1946
g68
(g89
g70
NtRp1947
(dp1948
g73
(dp1949
g93
g94
ssg82
g1943
sg75
(lp1950
S'raw_args'
p1951
asbag68
(g89
g70
NtRp1952
(dp1953
g73
(dp1954
g100
g101
ssg82
g1943
sg75
(lp1955
S':'
asbag68
(g89
g70
NtRp1956
(dp1957
g73
(dp1958
sg82
g1943
sg75
(lp1959
g68
(g69
g70
NtRp1960
(dp1961
g73
(dp1962
g81
I5
ssg82
g1956
sg75
(lp1963
S'7'
asbasbasbag68
(g84
g70
NtRp1964
(dp1965
g73
(dp1966
sg82
g78
sg75
(lp1967
g68
(g89
g70
NtRp1968
(dp1969
g73
(dp1970
g93
g94
ssg82
g1964
sg75
(lp1971
S'url'
p1972
asbag68
(g89
g70
NtRp1973
(dp1974
g73
(dp1975
g100
g101
ssg82
g1964
sg75
(lp1976
S':'
asbag68
(g89
g70
NtRp1977
(dp1978
g73
(dp1979
sg82
g1964
sg75
(lp1980
g68
(g69
g70
NtRp1981
(dp1982
g73
(dp1983
g81
I5
ssg82
g1977
sg75
(lp1984
S'/welcome/tournament/show/7'
p1985
asbasbasbag68
(g84
g70
NtRp1986
(dp1987
g73
(dp1988
sg82
g78
sg75
(lp1989
g68
(g89
g70
NtRp1990
(dp1991
g73
(dp1992
g93
g94
ssg82
g1986
sg75
(lp1993
S'utcnow'
p1994
asbag68
(g89
g70
NtRp1995
(dp1996
g73
(dp1997
g100
g101
ssg82
g1986
sg75
(lp1998
S':'
asbag68
(g89
g70
NtRp1999
(dp2000
g73
(dp2001
sg82
g1986
sg75
(lp2002
g68
(g69
g70
NtRp2003
(dp2004
g73
(dp2005
g81
I5
ssg82
g1999
sg75
(lp2006
S'datetime.datetime(2012, 2, 9, 16, 54, 29, 124000)'
p2007
asbasbasbag68
(g84
g70
NtRp2008
(dp2009
g73
(dp2010
sg82
g78
sg75
(lp2011
g68
(g89
g70
NtRp2012
(dp2013
g73
(dp2014
g93
g94
ssg82
g2008
sg75
(lp2015
S'uuid'
p2016
asbag68
(g89
g70
NtRp2017
(dp2018
g73
(dp2019
g100
g101
ssg82
g2008
sg75
(lp2020
S':'
asbag68
(g89
g70
NtRp2021
(dp2022
g73
(dp2023
sg82
g2008
sg75
(lp2024
g68
(g69
g70
NtRp2025
(dp2026
g73
(dp2027
g81
I5
ssg82
g2021
sg75
(lp2028
S'welcome/127.0.0.1.2012-02-09.11-54-29.a4dbf2de-c48a-4b69-9c0b-6653e4d80a78'
p2029
asbasbasbag68
(g84
g70
NtRp2030
(dp2031
g73
(dp2032
sg82
g78
sg75
(lp2033
g68
(g89
g70
NtRp2034
(dp2035
g73
(dp2036
g93
g94
ssg82
g2030
sg75
(lp2037
S'vars'
p2038
asbag68
(g89
g70
NtRp2039
(dp2040
g73
(dp2041
g100
g101
ssg82
g2030
sg75
(lp2042
S':'
asbag68
(g89
g70
NtRp2043
(dp2044
g73
(dp2045
sg82
g2030
sg75
(lp2046
g68
(g69
g70
NtRp2047
(dp2048
g73
(dp2049
g81
I5
ssg82
g2043
sg75
(lp2050
g68
(g77
g70
NtRp2051
(dp2052
g73
(dp2053
g81
I4
ssg82
Nsg75
(lp2054
sbasbasbasbag68
(g84
g70
NtRp2055
(dp2056
g73
(dp2057
sg82
g78
sg75
(lp2058
g68
(g89
g70
NtRp2059
(dp2060
g73
(dp2061
g93
g94
ssg82
g2055
sg75
(lp2062
S'wsgi'
p2063
asbag68
(g89
g70
NtRp2064
(dp2065
g73
(dp2066
g100
g101
ssg82
g2055
sg75
(lp2067
S':'
asbag68
(g89
g70
NtRp2068
(dp2069
g73
(dp2070
sg82
g2055
sg75
(lp2071
g68
(g69
g70
NtRp2072
(dp2073
g73
(dp2074
g81
I5
ssg82
g2068
sg75
(lp2075
g68
(g77
g70
NtRp2076
(dp2077
g73
(dp2078
g81
I4
ssg82
Nsg75
(lp2079
g68
(g84
g70
NtRp2080
(dp2081
g73
(dp2082
sg82
g2076
sg75
(lp2083
g68
(g89
g70
NtRp2084
(dp2085
g73
(dp2086
g93
g94
ssg82
g2080
sg75
(lp2087
S'environ'
p2088
asbag68
(g89
g70
NtRp2089
(dp2090
g73
(dp2091
g100
g101
ssg82
g2080
sg75
(lp2092
S':'
asbag68
(g89
g70
NtRp2093
(dp2094
g73
(dp2095
sg82
g2080
sg75
(lp2096
g68
(g69
g70
NtRp2097
(dp2098
g73
(dp2099
g81
I4
ssg82
g2093
sg75
(lp2100
g68
(g77
g70
NtRp2101
(dp2102
g73
(dp2103
g81
I3
ssg82
Nsg75
(lp2104
g68
(g84
g70
NtRp2105
(dp2106
g73
(dp2107
sg82
g2101
sg75
(lp2108
g68
(g89
g70
NtRp2109
(dp2110
g73
(dp2111
g93
g94
ssg82
g2105
sg75
(lp2112
S'HTTP_ACCEPT'
p2113
asbag68
(g89
g70
NtRp2114
(dp2115
g73
(dp2116
g100
g101
ssg82
g2105
sg75
(lp2117
S':'
asbag68
(g89
g70
NtRp2118
(dp2119
g73
(dp2120
sg82
g2105
sg75
(lp2121
g68
(g69
g70
NtRp2122
(dp2123
g73
(dp2124
g81
I3
ssg82
g2118
sg75
(lp2125
g656
asbasbasbag68
(g84
g70
NtRp2126
(dp2127
g73
(dp2128
sg82
g2101
sg75
(lp2129
g68
(g89
g70
NtRp2130
(dp2131
g73
(dp2132
g93
g94
ssg82
g2126
sg75
(lp2133
S'HTTP_ACCEPT_CHARSET'
p2134
asbag68
(g89
g70
NtRp2135
(dp2136
g73
(dp2137
g100
g101
ssg82
g2126
sg75
(lp2138
S':'
asbag68
(g89
g70
NtRp2139
(dp2140
g73
(dp2141
sg82
g2126
sg75
(lp2142
g68
(g69
g70
NtRp2143
(dp2144
g73
(dp2145
g81
I3
ssg82
g2139
sg75
(lp2146
g678
asbasbasbag68
(g84
g70
NtRp2147
(dp2148
g73
(dp2149
sg82
g2101
sg75
(lp2150
g68
(g89
g70
NtRp2151
(dp2152
g73
(dp2153
g93
g94
ssg82
g2147
sg75
(lp2154
S'HTTP_ACCEPT_ENCODING'
p2155
asbag68
(g89
g70
NtRp2156
(dp2157
g73
(dp2158
g100
g101
ssg82
g2147
sg75
(lp2159
S':'
asbag68
(g89
g70
NtRp2160
(dp2161
g73
(dp2162
sg82
g2147
sg75
(lp2163
g68
(g69
g70
NtRp2164
(dp2165
g73
(dp2166
g81
I3
ssg82
g2160
sg75
(lp2167
g700
asbasbasbag68
(g84
g70
NtRp2168
(dp2169
g73
(dp2170
sg82
g2101
sg75
(lp2171
g68
(g89
g70
NtRp2172
(dp2173
g73
(dp2174
g93
g94
ssg82
g2168
sg75
(lp2175
S'HTTP_ACCEPT_LANGUAGE'
p2176
asbag68
(g89
g70
NtRp2177
(dp2178
g73
(dp2179
g100
g101
ssg82
g2168
sg75
(lp2180
S':'
asbag68
(g89
g70
NtRp2181
(dp2182
g73
(dp2183
sg82
g2168
sg75
(lp2184
g68
(g69
g70
NtRp2185
(dp2186
g73
(dp2187
g81
I3
ssg82
g2181
sg75
(lp2188
g722
asbasbasbag68
(g84
g70
NtRp2189
(dp2190
g73
(dp2191
sg82
g2101
sg75
(lp2192
g68
(g89
g70
NtRp2193
(dp2194
g73
(dp2195
g93
g94
ssg82
g2189
sg75
(lp2196
S'HTTP_CONNECTION'
p2197
asbag68
(g89
g70
NtRp2198
(dp2199
g73
(dp2200
g100
g101
ssg82
g2189
sg75
(lp2201
S':'
asbag68
(g89
g70
NtRp2202
(dp2203
g73
(dp2204
sg82
g2189
sg75
(lp2205
g68
(g69
g70
NtRp2206
(dp2207
g73
(dp2208
g81
I3
ssg82
g2202
sg75
(lp2209
g744
asbasbasbag68
(g84
g70
NtRp2210
(dp2211
g73
(dp2212
sg82
g2101
sg75
(lp2213
g68
(g89
g70
NtRp2214
(dp2215
g73
(dp2216
g93
g94
ssg82
g2210
sg75
(lp2217
S'HTTP_COOKIE'
p2218
asbag68
(g89
g70
NtRp2219
(dp2220
g73
(dp2221
g100
g101
ssg82
g2210
sg75
(lp2222
S':'
asbag68
(g89
g70
NtRp2223
(dp2224
g73
(dp2225
sg82
g2210
sg75
(lp2226
g68
(g69
g70
NtRp2227
(dp2228
g73
(dp2229
g81
I3
ssg82
g2223
sg75
(lp2230
g766
asbasbasbag68
(g84
g70
NtRp2231
(dp2232
g73
(dp2233
sg82
g2101
sg75
(lp2234
g68
(g89
g70
NtRp2235
(dp2236
g73
(dp2237
g93
g94
ssg82
g2231
sg75
(lp2238
S'HTTP_HOST'
p2239
asbag68
(g89
g70
NtRp2240
(dp2241
g73
(dp2242
g100
g101
ssg82
g2231
sg75
(lp2243
S':'
asbag68
(g89
g70
NtRp2244
(dp2245
g73
(dp2246
sg82
g2231
sg75
(lp2247
g68
(g69
g70
NtRp2248
(dp2249
g73
(dp2250
g81
I3
ssg82
g2244
sg75
(lp2251
g788
asbasbasbag68
(g84
g70
NtRp2252
(dp2253
g73
(dp2254
sg82
g2101
sg75
(lp2255
g68
(g89
g70
NtRp2256
(dp2257
g73
(dp2258
g93
g94
ssg82
g2252
sg75
(lp2259
S'HTTP_REFERER'
p2260
asbag68
(g89
g70
NtRp2261
(dp2262
g73
(dp2263
g100
g101
ssg82
g2252
sg75
(lp2264
S':'
asbag68
(g89
g70
NtRp2265
(dp2266
g73
(dp2267
sg82
g2252
sg75
(lp2268
g68
(g69
g70
NtRp2269
(dp2270
g73
(dp2271
g81
I3
ssg82
g2265
sg75
(lp2272
g810
asbasbasbag68
(g84
g70
NtRp2273
(dp2274
g73
(dp2275
sg82
g2101
sg75
(lp2276
g68
(g89
g70
NtRp2277
(dp2278
g73
(dp2279
g93
g94
ssg82
g2273
sg75
(lp2280
S'HTTP_USER_AGENT'
p2281
asbag68
(g89
g70
NtRp2282
(dp2283
g73
(dp2284
g100
g101
ssg82
g2273
sg75
(lp2285
S':'
asbag68
(g89
g70
NtRp2286
(dp2287
g73
(dp2288
sg82
g2273
sg75
(lp2289
g68
(g69
g70
NtRp2290
(dp2291
g73
(dp2292
g81
I3
ssg82
g2286
sg75
(lp2293
g832
asbasbasbag68
(g84
g70
NtRp2294
(dp2295
g73
(dp2296
sg82
g2101
sg75
(lp2297
g68
(g89
g70
NtRp2298
(dp2299
g73
(dp2300
g93
g94
ssg82
g2294
sg75
(lp2301
S'PATH_INFO'
p2302
asbag68
(g89
g70
NtRp2303
(dp2304
g73
(dp2305
g100
g101
ssg82
g2294
sg75
(lp2306
S':'
asbag68
(g89
g70
NtRp2307
(dp2308
g73
(dp2309
sg82
g2294
sg75
(lp2310
g68
(g69
g70
NtRp2311
(dp2312
g73
(dp2313
g81
I3
ssg82
g2307
sg75
(lp2314
g896
asbasbasbag68
(g84
g70
NtRp2315
(dp2316
g73
(dp2317
sg82
g2101
sg75
(lp2318
g68
(g89
g70
NtRp2319
(dp2320
g73
(dp2321
g93
g94
ssg82
g2315
sg75
(lp2322
S'QUERY_STRING'
p2323
asbag68
(g89
g70
NtRp2324
(dp2325
g73
(dp2326
g100
g101
ssg82
g2315
sg75
(lp2327
S':'
asbag68
(g89
g70
NtRp2328
(dp2329
g73
(dp2330
sg82
g2315
sg75
(lp2331
g68
(g69
g70
NtRp2332
(dp2333
g73
(dp2334
g81
I3
ssg82
g2328
sg75
(lp2335
S''
asbasbasbag68
(g84
g70
NtRp2336
(dp2337
g73
(dp2338
sg82
g2101
sg75
(lp2339
g68
(g89
g70
NtRp2340
(dp2341
g73
(dp2342
g93
g94
ssg82
g2336
sg75
(lp2343
S'REMOTE_ADDR'
p2344
asbag68
(g89
g70
NtRp2345
(dp2346
g73
(dp2347
g100
g101
ssg82
g2336
sg75
(lp2348
S':'
asbag68
(g89
g70
NtRp2349
(dp2350
g73
(dp2351
sg82
g2336
sg75
(lp2352
g68
(g69
g70
NtRp2353
(dp2354
g73
(dp2355
g81
I3
ssg82
g2349
sg75
(lp2356
g213
asbasbasbag68
(g84
g70
NtRp2357
(dp2358
g73
(dp2359
sg82
g2101
sg75
(lp2360
g68
(g89
g70
NtRp2361
(dp2362
g73
(dp2363
g93
g94
ssg82
g2357
sg75
(lp2364
S'REMOTE_PORT'
p2365
asbag68
(g89
g70
NtRp2366
(dp2367
g73
(dp2368
g100
g101
ssg82
g2357
sg75
(lp2369
S':'
asbag68
(g89
g70
NtRp2370
(dp2371
g73
(dp2372
sg82
g2357
sg75
(lp2373
g68
(g69
g70
NtRp2374
(dp2375
g73
(dp2376
g81
I3
ssg82
g2370
sg75
(lp2377
g960
asbasbasbag68
(g84
g70
NtRp2378
(dp2379
g73
(dp2380
sg82
g2101
sg75
(lp2381
g68
(g89
g70
NtRp2382
(dp2383
g73
(dp2384
g93
g94
ssg82
g2378
sg75
(lp2385
S'REQUEST_METHOD'
p2386
asbag68
(g89
g70
NtRp2387
(dp2388
g73
(dp2389
g100
g101
ssg82
g2378
sg75
(lp2390
S':'
asbag68
(g89
g70
NtRp2391
(dp2392
g73
(dp2393
sg82
g2378
sg75
(lp2394
g68
(g69
g70
NtRp2395
(dp2396
g73
(dp2397
g81
I3
ssg82
g2391
sg75
(lp2398
g982
asbasbasbag68
(g84
g70
NtRp2399
(dp2400
g73
(dp2401
sg82
g2101
sg75
(lp2402
g68
(g89
g70
NtRp2403
(dp2404
g73
(dp2405
g93
g94
ssg82
g2399
sg75
(lp2406
S'SCRIPT_NAME'
p2407
asbag68
(g89
g70
NtRp2408
(dp2409
g73
(dp2410
g100
g101
ssg82
g2399
sg75
(lp2411
S':'
asbag68
(g89
g70
NtRp2412
(dp2413
g73
(dp2414
sg82
g2399
sg75
(lp2415
g68
(g69
g70
NtRp2416
(dp2417
g73
(dp2418
g81
I3
ssg82
g2412
sg75
(lp2419
S''
asbasbasbag68
(g84
g70
NtRp2420
(dp2421
g73
(dp2422
sg82
g2101
sg75
(lp2423
g68
(g89
g70
NtRp2424
(dp2425
g73
(dp2426
g93
g94
ssg82
g2420
sg75
(lp2427
S'SERVER_NAME'
p2428
asbag68
(g89
g70
NtRp2429
(dp2430
g73
(dp2431
g100
g101
ssg82
g2420
sg75
(lp2432
S':'
asbag68
(g89
g70
NtRp2433
(dp2434
g73
(dp2435
sg82
g2420
sg75
(lp2436
g68
(g69
g70
NtRp2437
(dp2438
g73
(dp2439
g81
I3
ssg82
g2433
sg75
(lp2440
g1025
asbasbasbag68
(g84
g70
NtRp2441
(dp2442
g73
(dp2443
sg82
g2101
sg75
(lp2444
g68
(g89
g70
NtRp2445
(dp2446
g73
(dp2447
g93
g94
ssg82
g2441
sg75
(lp2448
S'SERVER_PORT'
p2449
asbag68
(g89
g70
NtRp2450
(dp2451
g73
(dp2452
g100
g101
ssg82
g2441
sg75
(lp2453
S':'
asbag68
(g89
g70
NtRp2454
(dp2455
g73
(dp2456
sg82
g2441
sg75
(lp2457
g68
(g69
g70
NtRp2458
(dp2459
g73
(dp2460
g81
I3
ssg82
g2454
sg75
(lp2461
g1047
asbasbasbag68
(g84
g70
NtRp2462
(dp2463
g73
(dp2464
sg82
g2101
sg75
(lp2465
g68
(g89
g70
NtRp2466
(dp2467
g73
(dp2468
g93
g94
ssg82
g2462
sg75
(lp2469
S'SERVER_PROTOCOL'
p2470
asbag68
(g89
g70
NtRp2471
(dp2472
g73
(dp2473
g100
g101
ssg82
g2462
sg75
(lp2474
S':'
asbag68
(g89
g70
NtRp2475
(dp2476
g73
(dp2477
sg82
g2462
sg75
(lp2478
g68
(g69
g70
NtRp2479
(dp2480
g73
(dp2481
g81
I3
ssg82
g2475
sg75
(lp2482
g1069
asbasbasbag68
(g84
g70
NtRp2483
(dp2484
g73
(dp2485
sg82
g2101
sg75
(lp2486
g68
(g89
g70
NtRp2487
(dp2488
g73
(dp2489
g93
g94
ssg82
g2483
sg75
(lp2490
S'SERVER_SOFTWARE'
p2491
asbag68
(g89
g70
NtRp2492
(dp2493
g73
(dp2494
g100
g101
ssg82
g2483
sg75
(lp2495
S':'
asbag68
(g89
g70
NtRp2496
(dp2497
g73
(dp2498
sg82
g2483
sg75
(lp2499
g68
(g69
g70
NtRp2500
(dp2501
g73
(dp2502
g81
I3
ssg82
g2496
sg75
(lp2503
g1091
asbasbasbag68
(g84
g70
NtRp2504
(dp2505
g73
(dp2506
sg82
g2101
sg75
(lp2507
g68
(g89
g70
NtRp2508
(dp2509
g73
(dp2510
g93
g94
ssg82
g2504
sg75
(lp2511
S'wsgi.errors'
p2512
asbag68
(g89
g70
NtRp2513
(dp2514
g73
(dp2515
g100
g101
ssg82
g2504
sg75
(lp2516
S':'
asbag68
(g89
g70
NtRp2517
(dp2518
g73
(dp2519
sg82
g2504
sg75
(lp2520
g68
(g69
g70
NtRp2521
(dp2522
g73
(dp2523
g81
I3
ssg82
g2517
sg75
(lp2524
S"<open file '<stderr>', mode 'w' at 0x00000000020161E0>"
p2525
asbasbasbag68
(g84
g70
NtRp2526
(dp2527
g73
(dp2528
sg82
g2101
sg75
(lp2529
g68
(g89
g70
NtRp2530
(dp2531
g73
(dp2532
g93
g94
ssg82
g2526
sg75
(lp2533
S'wsgi.file_wrapper'
p2534
asbag68
(g89
g70
NtRp2535
(dp2536
g73
(dp2537
g100
g101
ssg82
g2526
sg75
(lp2538
S':'
asbag68
(g89
g70
NtRp2539
(dp2540
g73
(dp2541
sg82
g2526
sg75
(lp2542
g68
(g69
g70
NtRp2543
(dp2544
g73
(dp2545
g81
I3
ssg82
g2539
sg75
(lp2546
S'<class wsgiref.util.FileWrapper at 0x000000000380D828>'
p2547
asbasbasbag68
(g84
g70
NtRp2548
(dp2549
g73
(dp2550
sg82
g2101
sg75
(lp2551
g68
(g89
g70
NtRp2552
(dp2553
g73
(dp2554
g93
g94
ssg82
g2548
sg75
(lp2555
S'wsgi.input'
p2556
asbag68
(g89
g70
NtRp2557
(dp2558
g73
(dp2559
g100
g101
ssg82
g2548
sg75
(lp2560
S':'
asbag68
(g89
g70
NtRp2561
(dp2562
g73
(dp2563
sg82
g2548
sg75
(lp2564
g68
(g69
g70
NtRp2565
(dp2566
g73
(dp2567
g81
I3
ssg82
g2561
sg75
(lp2568
S'<cStringIO.StringO object at 0x0000000007898228>'
p2569
asbasbasbag68
(g84
g70
NtRp2570
(dp2571
g73
(dp2572
sg82
g2101
sg75
(lp2573
g68
(g89
g70
NtRp2574
(dp2575
g73
(dp2576
g93
g94
ssg82
g2570
sg75
(lp2577
S'wsgi.multiprocess'
p2578
asbag68
(g89
g70
NtRp2579
(dp2580
g73
(dp2581
g100
g101
ssg82
g2570
sg75
(lp2582
S':'
asbag68
(g89
g70
NtRp2583
(dp2584
g73
(dp2585
sg82
g2570
sg75
(lp2586
g68
(g69
g70
NtRp2587
(dp2588
g73
(dp2589
g81
I3
ssg82
g2583
sg75
(lp2590
g111
asbasbasbag68
(g84
g70
NtRp2591
(dp2592
g73
(dp2593
sg82
g2101
sg75
(lp2594
g68
(g89
g70
NtRp2595
(dp2596
g73
(dp2597
g93
g94
ssg82
g2591
sg75
(lp2598
S'wsgi.multithread'
p2599
asbag68
(g89
g70
NtRp2600
(dp2601
g73
(dp2602
g100
g101
ssg82
g2591
sg75
(lp2603
S':'
asbag68
(g89
g70
NtRp2604
(dp2605
g73
(dp2606
sg82
g2591
sg75
(lp2607
g68
(g69
g70
NtRp2608
(dp2609
g73
(dp2610
g81
I3
ssg82
g2604
sg75
(lp2611
g1331
asbasbasbag68
(g84
g70
NtRp2612
(dp2613
g73
(dp2614
sg82
g2101
sg75
(lp2615
g68
(g89
g70
NtRp2616
(dp2617
g73
(dp2618
g93
g94
ssg82
g2612
sg75
(lp2619
S'wsgi.run_once'
p2620
asbag68
(g89
g70
NtRp2621
(dp2622
g73
(dp2623
g100
g101
ssg82
g2612
sg75
(lp2624
S':'
asbag68
(g89
g70
NtRp2625
(dp2626
g73
(dp2627
sg82
g2612
sg75
(lp2628
g68
(g69
g70
NtRp2629
(dp2630
g73
(dp2631
g81
I3
ssg82
g2625
sg75
(lp2632
g111
asbasbasbag68
(g84
g70
NtRp2633
(dp2634
g73
(dp2635
sg82
g2101
sg75
(lp2636
g68
(g89
g70
NtRp2637
(dp2638
g73
(dp2639
g93
g94
ssg82
g2633
sg75
(lp2640
S'wsgi.url_scheme'
p2641
asbag68
(g89
g70
NtRp2642
(dp2643
g73
(dp2644
g100
g101
ssg82
g2633
sg75
(lp2645
S':'
asbag68
(g89
g70
NtRp2646
(dp2647
g73
(dp2648
sg82
g2633
sg75
(lp2649
g68
(g69
g70
NtRp2650
(dp2651
g73
(dp2652
g81
I3
ssg82
g2646
sg75
(lp2653
g1374
asbasbasbag68
(g84
g70
NtRp2654
(dp2655
g73
(dp2656
sg82
g2101
sg75
(lp2657
g68
(g89
g70
NtRp2658
(dp2659
g73
(dp2660
g93
g94
ssg82
g2654
sg75
(lp2661
S'wsgi.version'
p2662
asbag68
(g89
g70
NtRp2663
(dp2664
g73
(dp2665
g100
g101
ssg82
g2654
sg75
(lp2666
S':'
asbag68
(g89
g70
NtRp2667
(dp2668
g73
(dp2669
sg82
g2654
sg75
(lp2670
g68
(g69
g70
NtRp2671
(dp2672
g73
(dp2673
g81
I3
ssg82
g2667
sg75
(lp2674
S'1'
asbasbasbasbasbasbasbasbasbasbasbasbasbsS'frames'
p2675
(lp2676
(dp2677
S'file'
p2678
S'C:\\Users\\mellinja\\Documents\\SC2Tracker\\SC2TourneyTracker\\web2py\\gluon\\restricted.py'
p2679
sS'dump'
p2680
(dp2681
S'code'
p2682
S'r"response.write(\'<!DOCTYPE html>\\r\\n<!-- pauliris...write(\'\\r\\n</body>\\r\\n</html>\\r\\n\', escape=False)"'
p2683
sS'layer'
p2684
S"r'C:\\Users\\mellinja\\Documents\\SC2Tracker\\SC2Tourne...y\\applications\\welcome\\views\\tournament/show.html'"
p2685
sS'global compile2'
p2686
S'<function compile2>'
p2687
sS'ccode'
p2688
S'undefined'
p2689
ssS'lnum'
p2690
I203
sS'lines'
p2691
(dp2692
I198
S"    environment['__file__'] = layer"
p2693
sI199
S'    try:'
p2694
sI200
S'        if type(code) == types.CodeType:'
p2695
sI201
S'            ccode = code'
p2696
sI202
S'        else:'
p2697
sI203
S'            ccode = compile2(code,layer)'
p2698
sI204
S'        exec ccode in environment'
p2699
sI205
S'    except HTTP:'
p2700
sI206
S'        raise'
p2701
sI207
S'    except RestrictedError:'
p2702
ssS'call'
p2703
S'(code=r"response.write(\'<!DOCTYPE html>\\r\\n<!-- pauliris...write(\'\\r\\n</body>\\r\\n</html>\\r\\n\', escape=False)", environment={\'A\': <class \'gluon.html.A\'>, \'Auth\': <class \'gluon.tools.Auth\'>, \'B\': <class \'gluon.html.B\'>, \'BEAUTIFY\': <class \'gluon.html.BEAUTIFY\'>, \'BODY\': <class \'gluon.html.BODY\'>, \'BR\': <class \'gluon.html.BR\'>, \'BUTTON\': <class \'gluon.html.BUTTON\'>, \'CAT\': <class \'gluon.html.CAT\'>, \'CENTER\': <class \'gluon.html.CENTER\'>, \'CLEANUP\': <class \'gluon.validators.CLEANUP\'>, ...}, layer=r\'C:\\Users\\mellinja\\Documents\\SC2Tracker\\SC2Tourne...y\\applications\\welcome\\views\\tournament/show.html\')'
p2704
sS'func'
p2705
S'restricted'
p2706
sa(dp2707
g2678
S'C:\\Users\\mellinja\\Documents\\SC2Tracker\\SC2TourneyTracker\\web2py\\gluon\\restricted.py'
p2708
sg2680
(dp2709
S'builtincompile'
p2710
S'<built-in function compile>'
p2711
sS'code'
p2712
S'r"response.write(\'<!DOCTYPE html>\\r\\n<!-- pauliris...write(\'\\r\\n</body>\\r\\n</html>\\r\\n\', escape=False)"'
p2713
sS'code.rstrip'
p2714
S'<built-in method rstrip of str object>'
p2715
sS').replace'
p2716
g2689
sS'layer'
p2717
S"r'C:\\Users\\mellinja\\Documents\\SC2Tracker\\SC2Tourne...y\\applications\\welcome\\views\\tournament/show.html'"
p2718
ssg2690
I189
sg2691
(dp2719
I192
S'    """'
p2720
sI193
S'    runs code in environment and returns the output. if an exception occurs'
p2721
sI184
S''
sI185
S'def compile2(code,layer):'
p2722
sI186
S'    """'
p2723
sI187
S"    The +'\\n' is necessary else compile fails when code ends in a comment."
p2724
sI188
S'    """'
p2725
sI189
S"    return compile(code.rstrip().replace('\\r\\n','\\n')+'\\n', layer, 'exec')"
p2726
sI190
S''
sI191
S"def restricted(code, environment=None, layer='Unknown'):"
p2727
ssg2703
S'(code=r"response.write(\'<!DOCTYPE html>\\r\\n<!-- pauliris...write(\'\\r\\n</body>\\r\\n</html>\\r\\n\', escape=False)", layer=r\'C:\\Users\\mellinja\\Documents\\SC2Tracker\\SC2Tourne...y\\applications\\welcome\\views\\tournament/show.html\')'
p2728
sg2705
S'compile2'
p2729
sasS'pyver'
p2730
S'Python 2.7.2: C:\\Python27\\python.exe'
p2731
sS'session'
p2732
g68
(g69
g70
NtRp2733
(dp2734
g73
(dp2735
sg75
(lp2736
g68
(g77
g70
NtRp2737
(dp2738
g73
(dp2739
g81
I5
ssg82
Nsg75
(lp2740
sbasbsS'etype'
p2741
S"<type 'exceptions.SyntaxError'>"
p2742
sS'date'
p2743
S'Thu Feb 09 11:54:29 2012'
p2744
sS'response'
p2745
g68
(g69
g70
NtRp2746
(dp2747
g73
(dp2748
sg75
(lp2749
g68
(g77
g70
NtRp2750
(dp2751
g73
(dp2752
g81
I5
ssg82
Nsg75
(lp2753
g68
(g84
g70
NtRp2754
(dp2755
g73
(dp2756
sg82
g2750
sg75
(lp2757
g68
(g89
g70
NtRp2758
(dp2759
g73
(dp2760
g93
g94
ssg82
g2754
sg75
(lp2761
g178
asbag68
(g89
g70
NtRp2762
(dp2763
g73
(dp2764
g100
g101
ssg82
g2754
sg75
(lp2765
S':'
asbag68
(g89
g70
NtRp2766
(dp2767
g73
(dp2768
sg82
g2754
sg75
(lp2769
g68
(g69
g70
NtRp2770
(dp2771
g73
(dp2772
g81
I5
ssg82
g2766
sg75
(lp2773
S'<cStringIO.StringO object at 0x000000000786F928>'
p2774
asbasbasbag68
(g84
g70
NtRp2775
(dp2776
g73
(dp2777
sg82
g2750
sg75
(lp2778
g68
(g89
g70
NtRp2779
(dp2780
g73
(dp2781
g93
g94
ssg82
g2775
sg75
(lp2782
g244
asbag68
(g89
g70
NtRp2783
(dp2784
g73
(dp2785
g100
g101
ssg82
g2775
sg75
(lp2786
S':'
asbag68
(g89
g70
NtRp2787
(dp2788
g73
(dp2789
sg82
g2775
sg75
(lp2790
g68
(g69
g70
NtRp2791
(dp2792
g73
(dp2793
g81
I5
ssg82
g2787
sg75
(lp2794
g68
(g77
g70
NtRp2795
(dp2796
g73
(dp2797
g81
I4
ssg82
Nsg75
(lp2798
g68
(g84
g70
NtRp2799
(dp2800
g73
(dp2801
sg82
g2795
sg75
(lp2802
g68
(g89
g70
NtRp2803
(dp2804
g73
(dp2805
g93
g94
ssg82
g2799
sg75
(lp2806
S'session_id_welcome'
p2807
asbag68
(g89
g70
NtRp2808
(dp2809
g73
(dp2810
g100
g101
ssg82
g2799
sg75
(lp2811
S':'
asbag68
(g89
g70
NtRp2812
(dp2813
g73
(dp2814
sg82
g2799
sg75
(lp2815
g68
(g69
g70
NtRp2816
(dp2817
g73
(dp2818
g81
I4
ssg82
g2812
sg75
(lp2819
g68
(g77
g70
NtRp2820
(dp2821
g73
(dp2822
g81
I3
ssg82
Nsg75
(lp2823
g68
(g84
g70
NtRp2824
(dp2825
g73
(dp2826
sg82
g2820
sg75
(lp2827
g68
(g89
g70
NtRp2828
(dp2829
g73
(dp2830
g93
g94
ssg82
g2824
sg75
(lp2831
g294
asbag68
(g89
g70
NtRp2832
(dp2833
g73
(dp2834
g100
g101
ssg82
g2824
sg75
(lp2835
S':'
asbag68
(g89
g70
NtRp2836
(dp2837
g73
(dp2838
sg82
g2824
sg75
(lp2839
g68
(g69
g70
NtRp2840
(dp2841
g73
(dp2842
g81
I3
ssg82
g2836
sg75
(lp2843
S''
asbasbasbag68
(g84
g70
NtRp2844
(dp2845
g73
(dp2846
sg82
g2820
sg75
(lp2847
g68
(g89
g70
NtRp2848
(dp2849
g73
(dp2850
g93
g94
ssg82
g2844
sg75
(lp2851
g315
asbag68
(g89
g70
NtRp2852
(dp2853
g73
(dp2854
g100
g101
ssg82
g2844
sg75
(lp2855
S':'
asbag68
(g89
g70
NtRp2856
(dp2857
g73
(dp2858
sg82
g2844
sg75
(lp2859
g68
(g69
g70
NtRp2860
(dp2861
g73
(dp2862
g81
I3
ssg82
g2856
sg75
(lp2863
S''
asbasbasbag68
(g84
g70
NtRp2864
(dp2865
g73
(dp2866
sg82
g2820
sg75
(lp2867
g68
(g89
g70
NtRp2868
(dp2869
g73
(dp2870
g93
g94
ssg82
g2864
sg75
(lp2871
g336
asbag68
(g89
g70
NtRp2872
(dp2873
g73
(dp2874
g100
g101
ssg82
g2864
sg75
(lp2875
S':'
asbag68
(g89
g70
NtRp2876
(dp2877
g73
(dp2878
sg82
g2864
sg75
(lp2879
g68
(g69
g70
NtRp2880
(dp2881
g73
(dp2882
g81
I3
ssg82
g2876
sg75
(lp2883
S''
asbasbasbag68
(g84
g70
NtRp2884
(dp2885
g73
(dp2886
sg82
g2820
sg75
(lp2887
g68
(g89
g70
NtRp2888
(dp2889
g73
(dp2890
g93
g94
ssg82
g2884
sg75
(lp2891
g357
asbag68
(g89
g70
NtRp2892
(dp2893
g73
(dp2894
g100
g101
ssg82
g2884
sg75
(lp2895
S':'
asbag68
(g89
g70
NtRp2896
(dp2897
g73
(dp2898
sg82
g2884
sg75
(lp2899
g68
(g69
g70
NtRp2900
(dp2901
g73
(dp2902
g81
I3
ssg82
g2896
sg75
(lp2903
S''
asbasbasbag68
(g84
g70
NtRp2904
(dp2905
g73
(dp2906
sg82
g2820
sg75
(lp2907
g68
(g89
g70
NtRp2908
(dp2909
g73
(dp2910
g93
g94
ssg82
g2904
sg75
(lp2911
g378
asbag68
(g89
g70
NtRp2912
(dp2913
g73
(dp2914
g100
g101
ssg82
g2904
sg75
(lp2915
S':'
asbag68
(g89
g70
NtRp2916
(dp2917
g73
(dp2918
sg82
g2904
sg75
(lp2919
g68
(g69
g70
NtRp2920
(dp2921
g73
(dp2922
g81
I3
ssg82
g2916
sg75
(lp2923
S''
asbasbasbag68
(g84
g70
NtRp2924
(dp2925
g73
(dp2926
sg82
g2820
sg75
(lp2927
g68
(g89
g70
NtRp2928
(dp2929
g73
(dp2930
g93
g94
ssg82
g2924
sg75
(lp2931
g399
asbag68
(g89
g70
NtRp2932
(dp2933
g73
(dp2934
g100
g101
ssg82
g2924
sg75
(lp2935
S':'
asbag68
(g89
g70
NtRp2936
(dp2937
g73
(dp2938
sg82
g2924
sg75
(lp2939
g68
(g69
g70
NtRp2940
(dp2941
g73
(dp2942
g81
I3
ssg82
g2936
sg75
(lp2943
S'/'
asbasbasbag68
(g84
g70
NtRp2944
(dp2945
g73
(dp2946
sg82
g2820
sg75
(lp2947
g68
(g89
g70
NtRp2948
(dp2949
g73
(dp2950
g93
g94
ssg82
g2944
sg75
(lp2951
g420
asbag68
(g89
g70
NtRp2952
(dp2953
g73
(dp2954
g100
g101
ssg82
g2944
sg75
(lp2955
S':'
asbag68
(g89
g70
NtRp2956
(dp2957
g73
(dp2958
sg82
g2944
sg75
(lp2959
g68
(g69
g70
NtRp2960
(dp2961
g73
(dp2962
g81
I3
ssg82
g2956
sg75
(lp2963
S''
asbasbasbag68
(g84
g70
NtRp2964
(dp2965
g73
(dp2966
sg82
g2820
sg75
(lp2967
g68
(g89
g70
NtRp2968
(dp2969
g73
(dp2970
g93
g94
ssg82
g2964
sg75
(lp2971
g441
asbag68
(g89
g70
NtRp2972
(dp2973
g73
(dp2974
g100
g101
ssg82
g2964
sg75
(lp2975
S':'
asbag68
(g89
g70
NtRp2976
(dp2977
g73
(dp2978
sg82
g2964
sg75
(lp2979
g68
(g69
g70
NtRp2980
(dp2981
g73
(dp2982
g81
I3
ssg82
g2976
sg75
(lp2983
S''
asbasbasbasbasbasbasbasbasbasbasbag68
(g84
g70
NtRp2984
(dp2985
g73
(dp2986
sg82
g2750
sg75
(lp2987
g68
(g89
g70
NtRp2988
(dp2989
g73
(dp2990
g93
g94
ssg82
g2984
sg75
(lp2991
S'files'
p2992
asbag68
(g89
g70
NtRp2993
(dp2994
g73
(dp2995
g100
g101
ssg82
g2984
sg75
(lp2996
S':'
asbag68
(g89
g70
NtRp2997
(dp2998
g73
(dp2999
sg82
g2984
sg75
(lp3000
g68
(g69
g70
NtRp3001
(dp3002
g73
(dp3003
g81
I5
ssg82
g2997
sg75
(lp3004
g68
(g77
g70
NtRp3005
(dp3006
g73
(dp3007
g81
I4
ssg82
Nsg75
(lp3008
sbasbasbasbag68
(g84
g70
NtRp3009
(dp3010
g73
(dp3011
sg82
g2750
sg75
(lp3012
g68
(g89
g70
NtRp3013
(dp3014
g73
(dp3015
g93
g94
ssg82
g3009
sg75
(lp3016
S'flash'
p3017
asbag68
(g89
g70
NtRp3018
(dp3019
g73
(dp3020
g100
g101
ssg82
g3009
sg75
(lp3021
S':'
asbag68
(g89
g70
NtRp3022
(dp3023
g73
(dp3024
sg82
g3009
sg75
(lp3025
g68
(g69
g70
NtRp3026
(dp3027
g73
(dp3028
g81
I5
ssg82
g3022
sg75
(lp3029
S''
asbasbasbag68
(g84
g70
NtRp3030
(dp3031
g73
(dp3032
sg82
g2750
sg75
(lp3033
g68
(g89
g70
NtRp3034
(dp3035
g73
(dp3036
g93
g94
ssg82
g3030
sg75
(lp3037
S'generic_patterns'
p3038
asbag68
(g89
g70
NtRp3039
(dp3040
g73
(dp3041
g100
g101
ssg82
g3030
sg75
(lp3042
S':'
asbag68
(g89
g70
NtRp3043
(dp3044
g73
(dp3045
sg82
g3030
sg75
(lp3046
g68
(g69
g70
NtRp3047
(dp3048
g73
(dp3049
g81
I5
ssg82
g3043
sg75
(lp3050
g68
(g77
g70
NtRp3051
(dp3052
g73
(dp3053
g81
I4
ssg82
Nsg75
(lp3054
g68
(g84
g70
NtRp3055
(dp3056
g73
(dp3057
sg82
g3051
sg75
(lp3058
g68
(g89
g70
NtRp3059
(dp3060
g73
(dp3061
sg82
g3055
sg75
(lp3062
g68
(g69
g70
NtRp3063
(dp3064
g73
(dp3065
g81
I4
ssg82
g3059
sg75
(lp3066
S'*'
asbasbasbasbasbasbasbag68
(g84
g70
NtRp3067
(dp3068
g73
(dp3069
sg82
g2750
sg75
(lp3070
g68
(g89
g70
NtRp3071
(dp3072
g73
(dp3073
g93
g94
ssg82
g3067
sg75
(lp3074
S'headers'
p3075
asbag68
(g89
g70
NtRp3076
(dp3077
g73
(dp3078
g100
g101
ssg82
g3067
sg75
(lp3079
S':'
asbag68
(g89
g70
NtRp3080
(dp3081
g73
(dp3082
sg82
g3067
sg75
(lp3083
g68
(g69
g70
NtRp3084
(dp3085
g73
(dp3086
g81
I5
ssg82
g3080
sg75
(lp3087
g68
(g77
g70
NtRp3088
(dp3089
g73
(dp3090
g81
I4
ssg82
Nsg75
(lp3091
g68
(g84
g70
NtRp3092
(dp3093
g73
(dp3094
sg82
g3088
sg75
(lp3095
g68
(g89
g70
NtRp3096
(dp3097
g73
(dp3098
g93
g94
ssg82
g3092
sg75
(lp3099
S'Cache-Control'
p3100
asbag68
(g89
g70
NtRp3101
(dp3102
g73
(dp3103
g100
g101
ssg82
g3092
sg75
(lp3104
S':'
asbag68
(g89
g70
NtRp3105
(dp3106
g73
(dp3107
sg82
g3092
sg75
(lp3108
g68
(g69
g70
NtRp3109
(dp3110
g73
(dp3111
g81
I4
ssg82
g3105
sg75
(lp3112
S'no-store, no-cache, must-revalidate, post-check=0, pre-check=0'
p3113
asbasbasbag68
(g84
g70
NtRp3114
(dp3115
g73
(dp3116
sg82
g3088
sg75
(lp3117
g68
(g89
g70
NtRp3118
(dp3119
g73
(dp3120
g93
g94
ssg82
g3114
sg75
(lp3121
S'Content-Type'
p3122
asbag68
(g89
g70
NtRp3123
(dp3124
g73
(dp3125
g100
g101
ssg82
g3114
sg75
(lp3126
S':'
asbag68
(g89
g70
NtRp3127
(dp3128
g73
(dp3129
sg82
g3114
sg75
(lp3130
g68
(g69
g70
NtRp3131
(dp3132
g73
(dp3133
g81
I4
ssg82
g3127
sg75
(lp3134
S'text/html; charset=utf-8'
p3135
asbasbasbag68
(g84
g70
NtRp3136
(dp3137
g73
(dp3138
sg82
g3088
sg75
(lp3139
g68
(g89
g70
NtRp3140
(dp3141
g73
(dp3142
g93
g94
ssg82
g3136
sg75
(lp3143
S'Expires'
p3144
asbag68
(g89
g70
NtRp3145
(dp3146
g73
(dp3147
g100
g101
ssg82
g3136
sg75
(lp3148
S':'
asbag68
(g89
g70
NtRp3149
(dp3150
g73
(dp3151
sg82
g3136
sg75
(lp3152
g68
(g69
g70
NtRp3153
(dp3154
g73
(dp3155
g81
I4
ssg82
g3149
sg75
(lp3156
S'Thu, 09 Feb 2012 16:54:29 GMT'
p3157
asbasbasbag68
(g84
g70
NtRp3158
(dp3159
g73
(dp3160
sg82
g3088
sg75
(lp3161
g68
(g89
g70
NtRp3162
(dp3163
g73
(dp3164
g93
g94
ssg82
g3158
sg75
(lp3165
S'Pragma'
p3166
asbag68
(g89
g70
NtRp3167
(dp3168
g73
(dp3169
g100
g101
ssg82
g3158
sg75
(lp3170
S':'
asbag68
(g89
g70
NtRp3171
(dp3172
g73
(dp3173
sg82
g3158
sg75
(lp3174
g68
(g69
g70
NtRp3175
(dp3176
g73
(dp3177
g81
I4
ssg82
g3171
sg75
(lp3178
S'no-cache'
p3179
asbasbasbag68
(g84
g70
NtRp3180
(dp3181
g73
(dp3182
sg82
g3088
sg75
(lp3183
g68
(g89
g70
NtRp3184
(dp3185
g73
(dp3186
g93
g94
ssg82
g3180
sg75
(lp3187
S'X-Powered-By'
p3188
asbag68
(g89
g70
NtRp3189
(dp3190
g73
(dp3191
g100
g101
ssg82
g3180
sg75
(lp3192
S':'
asbag68
(g89
g70
NtRp3193
(dp3194
g73
(dp3195
sg82
g3180
sg75
(lp3196
g68
(g69
g70
NtRp3197
(dp3198
g73
(dp3199
g81
I4
ssg82
g3193
sg75
(lp3200
S'web2py'
p3201
asbasbasbasbasbasbasbag68
(g84
g70
NtRp3202
(dp3203
g73
(dp3204
sg82
g2750
sg75
(lp3205
g68
(g89
g70
NtRp3206
(dp3207
g73
(dp3208
g93
g94
ssg82
g3202
sg75
(lp3209
S'menu'
p3210
asbag68
(g89
g70
NtRp3211
(dp3212
g73
(dp3213
g100
g101
ssg82
g3202
sg75
(lp3214
S':'
asbag68
(g89
g70
NtRp3215
(dp3216
g73
(dp3217
sg82
g3202
sg75
(lp3218
g68
(g69
g70
NtRp3219
(dp3220
g73
(dp3221
g81
I5
ssg82
g3215
sg75
(lp3222
g68
(g77
g70
NtRp3223
(dp3224
g73
(dp3225
g81
I4
ssg82
Nsg75
(lp3226
g68
(g84
g70
NtRp3227
(dp3228
g73
(dp3229
sg82
g3223
sg75
(lp3230
g68
(g89
g70
NtRp3231
(dp3232
g73
(dp3233
sg82
g3227
sg75
(lp3234
g68
(g69
g70
NtRp3235
(dp3236
g73
(dp3237
g81
I4
ssg82
g3231
sg75
(lp3238
g68
(g77
g70
NtRp3239
(dp3240
g73
(dp3241
g81
I3
ssg82
Nsg75
(lp3242
g68
(g84
g70
NtRp3243
(dp3244
g73
(dp3245
sg82
g3239
sg75
(lp3246
g68
(g89
g70
NtRp3247
(dp3248
g73
(dp3249
sg82
g3243
sg75
(lp3250
g68
(g69
g70
NtRp3251
(dp3252
g73
(dp3253
g81
I3
ssg82
g3247
sg75
(lp3254
cgluon.languages
lazyT_unpickle
p3255
(S't\x04\x00\x00\x00Home'
tRp3256
asbasbasbag68
(g84
g70
NtRp3257
(dp3258
g73
(dp3259
sg82
g3239
sg75
(lp3260
g68
(g89
g70
NtRp3261
(dp3262
g73
(dp3263
sg82
g3257
sg75
(lp3264
g68
(g69
g70
NtRp3265
(dp3266
g73
(dp3267
g81
I3
ssg82
g3261
sg75
(lp3268
g111
asbasbasbag68
(g84
g70
NtRp3269
(dp3270
g73
(dp3271
sg82
g3239
sg75
(lp3272
g68
(g89
g70
NtRp3273
(dp3274
g73
(dp3275
sg82
g3269
sg75
(lp3276
g68
(g69
g70
NtRp3277
(dp3278
g73
(dp3279
g81
I3
ssg82
g3273
sg75
(lp3280
S'/welcome/default/index'
p3281
asbasbasbag68
(g84
g70
NtRp3282
(dp3283
g73
(dp3284
sg82
g3239
sg75
(lp3285
g68
(g89
g70
NtRp3286
(dp3287
g73
(dp3288
sg82
g3282
sg75
(lp3289
g68
(g69
g70
NtRp3290
(dp3291
g73
(dp3292
g81
I3
ssg82
g3286
sg75
(lp3293
g68
(g77
g70
NtRp3294
(dp3295
g73
(dp3296
g81
I2
ssg82
Nsg75
(lp3297
sbasbasbasbasbasbasbasbasbasbasbasbag68
(g84
g70
NtRp3298
(dp3299
g73
(dp3300
sg82
g2750
sg75
(lp3301
g68
(g89
g70
NtRp3302
(dp3303
g73
(dp3304
g93
g94
ssg82
g3298
sg75
(lp3305
S'meta'
p3306
asbag68
(g89
g70
NtRp3307
(dp3308
g73
(dp3309
g100
g101
ssg82
g3298
sg75
(lp3310
S':'
asbag68
(g89
g70
NtRp3311
(dp3312
g73
(dp3313
sg82
g3298
sg75
(lp3314
g68
(g69
g70
NtRp3315
(dp3316
g73
(dp3317
g81
I5
ssg82
g3311
sg75
(lp3318
g68
(g77
g70
NtRp3319
(dp3320
g73
(dp3321
g81
I4
ssg82
Nsg75
(lp3322
g68
(g84
g70
NtRp3323
(dp3324
g73
(dp3325
sg82
g3319
sg75
(lp3326
g68
(g89
g70
NtRp3327
(dp3328
g73
(dp3329
g93
g94
ssg82
g3323
sg75
(lp3330
S'author'
p3331
asbag68
(g89
g70
NtRp3332
(dp3333
g73
(dp3334
g100
g101
ssg82
g3323
sg75
(lp3335
S':'
asbag68
(g89
g70
NtRp3336
(dp3337
g73
(dp3338
sg82
g3323
sg75
(lp3339
g68
(g69
g70
NtRp3340
(dp3341
g73
(dp3342
g81
I4
ssg82
g3336
sg75
(lp3343
S'Your Name <you@example.com>'
p3344
asbasbasbag68
(g84
g70
NtRp3345
(dp3346
g73
(dp3347
sg82
g3319
sg75
(lp3348
g68
(g89
g70
NtRp3349
(dp3350
g73
(dp3351
g93
g94
ssg82
g3345
sg75
(lp3352
S'copyright'
p3353
asbag68
(g89
g70
NtRp3354
(dp3355
g73
(dp3356
g100
g101
ssg82
g3345
sg75
(lp3357
S':'
asbag68
(g89
g70
NtRp3358
(dp3359
g73
(dp3360
sg82
g3345
sg75
(lp3361
g68
(g69
g70
NtRp3362
(dp3363
g73
(dp3364
g81
I4
ssg82
g3358
sg75
(lp3365
S'Copyright 2011'
p3366
asbasbasbag68
(g84
g70
NtRp3367
(dp3368
g73
(dp3369
sg82
g3319
sg75
(lp3370
g68
(g89
g70
NtRp3371
(dp3372
g73
(dp3373
g93
g94
ssg82
g3367
sg75
(lp3374
S'description'
p3375
asbag68
(g89
g70
NtRp3376
(dp3377
g73
(dp3378
g100
g101
ssg82
g3367
sg75
(lp3379
S':'
asbag68
(g89
g70
NtRp3380
(dp3381
g73
(dp3382
sg82
g3367
sg75
(lp3383
g68
(g69
g70
NtRp3384
(dp3385
g73
(dp3386
g81
I4
ssg82
g3380
sg75
(lp3387
S'a cool new app'
p3388
asbasbasbag68
(g84
g70
NtRp3389
(dp3390
g73
(dp3391
sg82
g3319
sg75
(lp3392
g68
(g89
g70
NtRp3393
(dp3394
g73
(dp3395
g93
g94
ssg82
g3389
sg75
(lp3396
S'generator'
p3397
asbag68
(g89
g70
NtRp3398
(dp3399
g73
(dp3400
g100
g101
ssg82
g3389
sg75
(lp3401
S':'
asbag68
(g89
g70
NtRp3402
(dp3403
g73
(dp3404
sg82
g3389
sg75
(lp3405
g68
(g69
g70
NtRp3406
(dp3407
g73
(dp3408
g81
I4
ssg82
g3402
sg75
(lp3409
S'Web2py Web Framework'
p3410
asbasbasbag68
(g84
g70
NtRp3411
(dp3412
g73
(dp3413
sg82
g3319
sg75
(lp3414
g68
(g89
g70
NtRp3415
(dp3416
g73
(dp3417
g93
g94
ssg82
g3411
sg75
(lp3418
S'keywords'
p3419
asbag68
(g89
g70
NtRp3420
(dp3421
g73
(dp3422
g100
g101
ssg82
g3411
sg75
(lp3423
S':'
asbag68
(g89
g70
NtRp3424
(dp3425
g73
(dp3426
sg82
g3411
sg75
(lp3427
g68
(g69
g70
NtRp3428
(dp3429
g73
(dp3430
g81
I4
ssg82
g3424
sg75
(lp3431
S'web2py, python, framework'
p3432
asbasbasbasbasbasbasbag68
(g84
g70
NtRp3433
(dp3434
g73
(dp3435
sg82
g2750
sg75
(lp3436
g68
(g89
g70
NtRp3437
(dp3438
g73
(dp3439
g93
g94
ssg82
g3433
sg75
(lp3440
S'postprocessing'
p3441
asbag68
(g89
g70
NtRp3442
(dp3443
g73
(dp3444
g100
g101
ssg82
g3433
sg75
(lp3445
S':'
asbag68
(g89
g70
NtRp3446
(dp3447
g73
(dp3448
sg82
g3433
sg75
(lp3449
g68
(g69
g70
NtRp3450
(dp3451
g73
(dp3452
g81
I5
ssg82
g3446
sg75
(lp3453
g68
(g77
g70
NtRp3454
(dp3455
g73
(dp3456
g81
I4
ssg82
Nsg75
(lp3457
sbasbasbasbag68
(g84
g70
NtRp3458
(dp3459
g73
(dp3460
sg82
g2750
sg75
(lp3461
g68
(g89
g70
NtRp3462
(dp3463
g73
(dp3464
g93
g94
ssg82
g3458
sg75
(lp3465
S'session_file'
p3466
asbag68
(g89
g70
NtRp3467
(dp3468
g73
(dp3469
g100
g101
ssg82
g3458
sg75
(lp3470
S':'
asbag68
(g89
g70
NtRp3471
(dp3472
g73
(dp3473
sg82
g3458
sg75
(lp3474
g68
(g69
g70
NtRp3475
(dp3476
g73
(dp3477
g81
I5
ssg82
g3471
sg75
(lp3478
S"<open file 'C:\\Users\\mellinja\\Documents\\SC2Tracker\\SC2TourneyTracker\\web2py\\applications\\welcome\\sessions\\127.0.0.1-3577bb45-b3be-4c0f-be7b-edc2ad5f937c', mode 'rb+' at 0x0000000007828B70>"
p3479
asbasbasbag68
(g84
g70
NtRp3480
(dp3481
g73
(dp3482
sg82
g2750
sg75
(lp3483
g68
(g89
g70
NtRp3484
(dp3485
g73
(dp3486
g93
g94
ssg82
g3480
sg75
(lp3487
S'session_filename'
p3488
asbag68
(g89
g70
NtRp3489
(dp3490
g73
(dp3491
g100
g101
ssg82
g3480
sg75
(lp3492
S':'
asbag68
(g89
g70
NtRp3493
(dp3494
g73
(dp3495
sg82
g3480
sg75
(lp3496
g68
(g69
g70
NtRp3497
(dp3498
g73
(dp3499
g81
I5
ssg82
g3493
sg75
(lp3500
S'C:\\Users\\mellinja\\Documents\\SC2Tracker\\SC2TourneyTracker\\web2py\\applications\\welcome\\sessions\\127.0.0.1-3577bb45-b3be-4c0f-be7b-edc2ad5f937c'
p3501
asbasbasbag68
(g84
g70
NtRp3502
(dp3503
g73
(dp3504
sg82
g2750
sg75
(lp3505
g68
(g89
g70
NtRp3506
(dp3507
g73
(dp3508
g93
g94
ssg82
g3502
sg75
(lp3509
S'session_id'
p3510
asbag68
(g89
g70
NtRp3511
(dp3512
g73
(dp3513
g100
g101
ssg82
g3502
sg75
(lp3514
S':'
asbag68
(g89
g70
NtRp3515
(dp3516
g73
(dp3517
sg82
g3502
sg75
(lp3518
g68
(g69
g70
NtRp3519
(dp3520
g73
(dp3521
g81
I5
ssg82
g3515
sg75
(lp3522
S'127.0.0.1-3577bb45-b3be-4c0f-be7b-edc2ad5f937c'
p3523
asbasbasbag68
(g84
g70
NtRp3524
(dp3525
g73
(dp3526
sg82
g2750
sg75
(lp3527
g68
(g89
g70
NtRp3528
(dp3529
g73
(dp3530
g93
g94
ssg82
g3524
sg75
(lp3531
S'session_id_name'
p3532
asbag68
(g89
g70
NtRp3533
(dp3534
g73
(dp3535
g100
g101
ssg82
g3524
sg75
(lp3536
S':'
asbag68
(g89
g70
NtRp3537
(dp3538
g73
(dp3539
sg82
g3524
sg75
(lp3540
g68
(g69
g70
NtRp3541
(dp3542
g73
(dp3543
g81
I5
ssg82
g3537
sg75
(lp3544
g2807
asbasbasbag68
(g84
g70
NtRp3545
(dp3546
g73
(dp3547
sg82
g2750
sg75
(lp3548
g68
(g89
g70
NtRp3549
(dp3550
g73
(dp3551
g93
g94
ssg82
g3545
sg75
(lp3552
S'session_locked'
p3553
asbag68
(g89
g70
NtRp3554
(dp3555
g73
(dp3556
g100
g101
ssg82
g3545
sg75
(lp3557
S':'
asbag68
(g89
g70
NtRp3558
(dp3559
g73
(dp3560
sg82
g3545
sg75
(lp3561
g68
(g69
g70
NtRp3562
(dp3563
g73
(dp3564
g81
I5
ssg82
g3558
sg75
(lp3565
g1331
asbasbasbag68
(g84
g70
NtRp3566
(dp3567
g73
(dp3568
sg82
g2750
sg75
(lp3569
g68
(g89
g70
NtRp3570
(dp3571
g73
(dp3572
g93
g94
ssg82
g3566
sg75
(lp3573
S'session_new'
p3574
asbag68
(g89
g70
NtRp3575
(dp3576
g73
(dp3577
g100
g101
ssg82
g3566
sg75
(lp3578
S':'
asbag68
(g89
g70
NtRp3579
(dp3580
g73
(dp3581
sg82
g3566
sg75
(lp3582
g68
(g69
g70
NtRp3583
(dp3584
g73
(dp3585
g81
I5
ssg82
g3579
sg75
(lp3586
g111
asbasbasbag68
(g84
g70
NtRp3587
(dp3588
g73
(dp3589
sg82
g2750
sg75
(lp3590
g68
(g89
g70
NtRp3591
(dp3592
g73
(dp3593
g93
g94
ssg82
g3587
sg75
(lp3594
S'status'
p3595
asbag68
(g89
g70
NtRp3596
(dp3597
g73
(dp3598
g100
g101
ssg82
g3587
sg75
(lp3599
S':'
asbag68
(g89
g70
NtRp3600
(dp3601
g73
(dp3602
sg82
g3587
sg75
(lp3603
g68
(g69
g70
NtRp3604
(dp3605
g73
(dp3606
g81
I5
ssg82
g3600
sg75
(lp3607
S'200'
p3608
asbasbasbag68
(g84
g70
NtRp3609
(dp3610
g73
(dp3611
sg82
g2750
sg75
(lp3612
g68
(g89
g70
NtRp3613
(dp3614
g73
(dp3615
g93
g94
ssg82
g3609
sg75
(lp3616
S'subtitle'
p3617
asbag68
(g89
g70
NtRp3618
(dp3619
g73
(dp3620
g100
g101
ssg82
g3609
sg75
(lp3621
S':'
asbag68
(g89
g70
NtRp3622
(dp3623
g73
(dp3624
sg82
g3609
sg75
(lp3625
g68
(g69
g70
NtRp3626
(dp3627
g73
(dp3628
g81
I5
ssg82
g3622
sg75
(lp3629
g3255
(S's2\x00\x00\x00Starcraft II Custom Tournament Tracker Version 0.1'
tRp3630
asbasbasbag68
(g84
g70
NtRp3631
(dp3632
g73
(dp3633
sg82
g2750
sg75
(lp3634
g68
(g89
g70
NtRp3635
(dp3636
g73
(dp3637
g93
g94
ssg82
g3631
sg75
(lp3638
S'title'
p3639
asbag68
(g89
g70
NtRp3640
(dp3641
g73
(dp3642
g100
g101
ssg82
g3631
sg75
(lp3643
S':'
asbag68
(g89
g70
NtRp3644
(dp3645
g73
(dp3646
sg82
g3631
sg75
(lp3647
g68
(g69
g70
NtRp3648
(dp3649
g73
(dp3650
g81
I5
ssg82
g3644
sg75
(lp3651
S'SC2CTT v0.1'
p3652
asbasbasbag68
(g84
g70
NtRp3653
(dp3654
g73
(dp3655
sg82
g2750
sg75
(lp3656
g68
(g89
g70
NtRp3657
(dp3658
g73
(dp3659
g93
g94
ssg82
g3653
sg75
(lp3660
g2016
asbag68
(g89
g70
NtRp3661
(dp3662
g73
(dp3663
g100
g101
ssg82
g3653
sg75
(lp3664
S':'
asbag68
(g89
g70
NtRp3665
(dp3666
g73
(dp3667
sg82
g3653
sg75
(lp3668
g68
(g69
g70
NtRp3669
(dp3670
g73
(dp3671
g81
I5
ssg82
g3665
sg75
(lp3672
g2029
asbasbasbag68
(g84
g70
NtRp3673
(dp3674
g73
(dp3675
sg82
g2750
sg75
(lp3676
g68
(g89
g70
NtRp3677
(dp3678
g73
(dp3679
g93
g94
ssg82
g3673
sg75
(lp3680
S'view'
p3681
asbag68
(g89
g70
NtRp3682
(dp3683
g73
(dp3684
g100
g101
ssg82
g3673
sg75
(lp3685
S':'
asbag68
(g89
g70
NtRp3686
(dp3687
g73
(dp3688
sg82
g3673
sg75
(lp3689
g68
(g69
g70
NtRp3690
(dp3691
g73
(dp3692
g81
I5
ssg82
g3686
sg75
(lp3693
S'tournament/show.html'
p3694
asbasbasbasbasbsS'locals'
p3695
(dp3696
g4
S"r'C:\\Users\\mellinja\\Documents\\SC2Tracker\\SC2Tourne...y\\applications\\welcome\\views\\tournament/show.html'"
p3697
sg6
S'r"response.write(\'<!DOCTYPE html>\\r\\n<!-- pauliris...write(\'\\r\\n</body>\\r\\n</html>\\r\\n\', escape=False)"'
p3698
sssS'traceback'
p3699
S'Traceback (most recent call last):\n  File "C:\\Users\\mellinja\\Documents\\SC2Tracker\\SC2TourneyTracker\\web2py\\gluon\\restricted.py", line 203, in restricted\n    ccode = compile2(code,layer)\n  File "C:\\Users\\mellinja\\Documents\\SC2Tracker\\SC2TourneyTracker\\web2py\\gluon\\restricted.py", line 189, in compile2\n    return compile(code.rstrip().replace(\'\\r\\n\',\'\\n\')+\'\\n\', layer, \'exec\')\n  File "C:\\Users\\mellinja\\Documents\\SC2Tracker\\SC2TourneyTracker\\web2py\\applications\\welcome\\views\\tournament/show.html", line 79\n    response.write(\'\\r\\n</p>\\r\\n\', escape=False)\n           ^\nSyntaxError: invalid syntax\n'
p3700
s.