(dp1
S'output'
p2
S"<type 'exceptions.SyntaxError'> invalid syntax (league/index.html, line 79)"
p3
sS'layer'
p4
S'C:\\Users\\liangh\\Desktop\\web2py\\applications\\welcome\\views\\league/index.html'
p5
sS'code'
p6
S'response.write(\'<!DOCTYPE html>\\r\\n<!-- paulirish.com/2008/conditional-stylesheets-vs-css-hacks-answer-neither/ -->\\r\\n<!--[if lt IE 7]><html class="ie ie6 ie-lte9 ie-lte8 ie-lte7 no-js" lang="\', escape=False)\nresponse.write(T.accepted_language or \'en\')\nresponse.write(\'"> <![endif]-->\\r\\n<!--[if IE 7]><html class="ie ie7 ie-lte9 ie-lte8 ie-lte7 no-js" lang="\', escape=False)\nresponse.write(T.accepted_language or \'en\')\nresponse.write(\'"> <![endif]-->\\r\\n<!--[if IE 8]><html class="ie ie8 ie-lte9 ie-lte8 no-js" lang="\', escape=False)\nresponse.write(T.accepted_language or \'en\')\nresponse.write(\'"> <![endif]-->\\r\\n<!--[if IE 9]><html class="ie9 ie-lte9 no-js" lang="\', escape=False)\nresponse.write(T.accepted_language or \'en\')\nresponse.write(\'"> <![endif]-->\\r\\n<!--[if (gt IE 9)|!(IE)]><!--> <html class="no-js" lang="\', escape=False)\nresponse.write(T.accepted_language or \'en\')\nresponse.write(\'"> <!--<![endif]-->\\r\\n<head>\\r\\n  <meta charset="utf-8" />\\r\\n  <!-- www.phpied.com/conditional-comments-block-downloads/ -->\\r\\n  <!-- Always force latest IE rendering engine\\r\\n       (even in intranet) & Chrome Frame\\r\\n       Remove this if you use the .htaccess -->\\r\\n  <!--[if IE]>\\r\\n    <meta http-equiv="X-UA-Compatible" content="IE=edge\', escape=False)\nresponse.write(not request.is_local and \',chrome=1\' or \'\')\nresponse.write(\'">\\r\\n  <![endif]-->\\r\\n  \\r\\n  <title>\', escape=False)\nresponse.write(response.title or request.application)\nresponse.write(\'</title>\\r\\n  \\r\\n  <!-- http://dev.w3.org/html5/markup/meta.name.html -->\\r\\n  <meta name="application-name" content="\', escape=False)\nresponse.write(request.application)\nresponse.write(\'" />\\r\\n  \\r\\n  <!-- Speaking of Google, don\\\'t forget to set your site up:\\r\\n       http://google.com/webmasters -->\\r\\n  <meta name="google-site-verification" content="" />\\r\\n\\r\\n  <!--  Mobile Viewport Fix\\r\\n      j.mp/mobileviewport & davidbcalhoun.com/2010/viewport-metatag\\r\\n      device-width: Occupy full width of the screen in its current orientation\\r\\n      initial-scale = 1.0 retains dimensions instead of zooming out if page height > device height\\r\\n      user-scalable = yes allows the user to zoom in -->\\r\\n  <meta name="viewport" content="width=device-width, initial-scale=1.0, user-scalable=yes">\\r\\n  \\r\\n  <!-- Place favicon.ico and apple-touch-icon.png in the root of your domain and delete these references -->\\r\\n  <link rel="shortcut icon" href="\', escape=False)\nresponse.write(URL(\'static\',\'favicon.ico\'))\nresponse.write(\'" type="image/x-icon">\\r\\n  <link rel="apple-touch-icon" href="\', escape=False)\nresponse.write(URL(\'static\',\'favicon.png\'))\nresponse.write(\'">\\r\\n\\r\\n  <!-- All JavaScript at the bottom, except for Modernizr which enables \\r\\n       HTML5 elements & feature detects -->\\r\\n  <script src="\', escape=False)\nresponse.write(URL(\'static\',\'js/modernizr.custom.js\'))\nresponse.write(\'"></script>  \\r\\n\\r\\n  <!-- include stylesheets -->\\r\\n  \', escape=False)\nresponse.files.append(URL(\'static\',\'css/skeleton.css\'))\nresponse.files.append(URL(\'static\',\'css/web2py.css\'))\nresponse.files.append(URL(\'static\',\'css/superfish.css\'))\nresponse.files.append(URL(\'static\',\'js/superfish.js\'))\nresponse.write(\'\\r\\n\\r\\n  \', escape=False)\nresponse.write(\'<script type="text/javascript"><!--\\n    // These variables are used by the web2py_ajax_init function in web2py_ajax.js (which is loaded below).\\n    var w2p_ajax_confirm_message = "\', escape=False)\nresponse.write(T(\'Are you sure you want to delete this object?\'))\nresponse.write(\'";\\n    var w2p_ajax_date_format = "\', escape=False)\nresponse.write(T(\'%Y-%m-%d\'))\nresponse.write(\'";\\n    var w2p_ajax_datetime_format = "\', escape=False)\nresponse.write(T(\'%Y-%m-%d %H:%M:%S\'))\nresponse.write(\'";\\n    //--></script>\\n\', escape=False)\nresponse.files.insert(0,URL(\'static\',\'js/jquery.js\'))\nresponse.files.insert(1,URL(\'static\',\'css/calendar.css\'))\nresponse.files.insert(2,URL(\'static\',\'js/calendar.js\'))\nresponse.files.insert(3,URL(\'static\',\'js/web2py.js\'))\nresponse.include_meta()\nresponse.include_files()\nresponse.write(\'\\n\', escape=False)\nresponse.write(\'\\r\\n\\r\\n  <script type="text/javascript">\\r\\n    jQuery(function(){ jQuery(\\\'ul.sf-menu\\\').supersubs({minWidth:12,maxWidth:30,extraWidth:3}).superfish(); });\\r\\n  </script>\\r\\n\\r\\n  \', escape=False)\n# using sidebars need to know what sidebar you want to use\nleft_sidebar_enabled = globals().get(\'left_sidebar_enabled\',False)\nright_sidebar_enabled = globals().get(\'right_sidebar_enabled\',False)\nmiddle_columns = {0:\'sixteen\',1:\'twelve\',2:\'eight\'}[\n(left_sidebar_enabled and 1 or 0)+(right_sidebar_enabled and 1 or 0)]\nresponse.write(\'\\r\\n\\r\\n  <!-- uncomment here to load jquery-ui\\r\\n  <link rel="stylesheet" href="http://ajax.googleapis.com/ajax/libs/jqueryui/1.8.16/themes/base/jquery-ui.css" type="text/css" media="all" />\\r\\n  <script src="http://ajax.googleapis.com/ajax/libs/jqueryui/1.8.16/jquery-ui.min.js" type="text/javascript"></script>\\r\\n  uncomment to load jquery-ui //-->\\r\\n</head>\\r\\n<body>\\r\\n  <div class="wrapper"><!-- for sticky footer -->\\r\\n  \\r\\n    <div class="topbar">\\r\\n      <div class="container">    \\r\\n        <div class="sixteen columns">\\r\\n          <div id="navbar">\', escape=False)\nresponse.write(\'auth\' in globals() and auth.navbar(separators=(\' \',\' | \',\'\')))\nresponse.write(\'</div>\\r\\n          \', escape=False)\nis_mobile=request.user_agent().is_mobile\nresponse.write(\'\\r\\n          <div id="menu">\', escape=False)\nresponse.write(MENU(response.menu, _class=\'mobile-menu\' if is_mobile else \'sf-menu\',mobile=is_mobile))\nresponse.write(\'\\r\\n          </div>\\r\\n        </div>\\r\\n      </div>\\r\\n    </div><!-- topbar -->\\r\\n    \\r\\n    <div class="flash">\', escape=False)\nresponse.write(response.flash or \'\')\nresponse.write(\'</div>\\r\\n    \\r\\n    <div class="header">\\r\\n      <div class="container">         \\r\\n        <div class="sixteen columns">\\r\\n          <h1 class="remove-bottom" style="margin-top: .5em;">\\r\\n          \', escape=False)\nresponse.write(response.title or request.application)\nresponse.write(\'\\r\\n          </h1>\\r\\n          <h5>\', escape=False)\nresponse.write(response.subtitle or \'\')\nresponse.write(\'</h5>\\r\\n        </div>\\r\\n        <div class="sixteen columns">\\r\\n          <div class="statusbar clearfix">\\r\\n            \', escape=False)\nresponse.write(\'\\r\\n            <div class="breadcrumbs">\', escape=False)\nresponse.write(request.function.replace(\'_\', \' \').title())\nresponse.write(\'</div>\\r\\n            \', escape=False)\nresponse.write(\'\\r\\n            <!-- AddToAny BEGIN -->\\r\\n            <div style="float:right; padding-top: .25em;" class="a2a_kit a2a_default_style">\\r\\n            <a class="a2a_dd" href="http://www.addtoany.com/share_save">Share</a></div>\\r\\n            <script type="text/javascript" src="http://static.addtoany.com/menu/page.js"></script>\\r\\n            <!-- AddToAny END -->\\r\\n          </div>\\r\\n        </div>\\r\\n      </div>\\r\\n    </div>\\r\\n\\r\\n    <div class="main">\\r\\n      <div class="container">                 \\r\\n        \', escape=False)\nif left_sidebar_enabled:\n    response.write(\'\\r\\n        <div class="four columns left-sidebar">\\r\\n          \', escape=False)\n    response.write(\'\\r\\n          <h3>Left Sidebar</h3>\\r\\n          <p></p>\\r\\n          \', escape=False)\n    response.write(\'\\r\\n        </div>\\r\\n        \', escape=False)\n    pass\nresponse.write(\'\\r\\n        \\r\\n        <div class="\', escape=False)\nresponse.write(middle_columns)\nresponse.write(\' columns center">\\r\\n          \', escape=False)\nresponse.write(\'\\r\\n          \', escape=False)\nresponse.write(\'\\r\\n<h1>Leagues</h1>\\r\\n<table>\\r\\n<tr><td>\', escape=False)\nresponse.write(B(\'League Name\'))\nresponse.write(\'</td><td>\', escape=False)\nresponse.write(B(\'League ID\')\nresponse.write(\'</td></tr>\\r\\n\', escape=False)\nfor row in league:\n    response.write(\'<tr><td>\', escape=False)\n    response.write(row[0])\n    response.write(\'</td><td>\', escape=False)\n    response.write(row[1])\n    response.write(\'</td></tr></li>\', escape=False)\n    pass\nresponse.write(\'\\r\\n</table>\\r\\n\', escape=False)\nresponse.write(\'\\r\\n          \', escape=False)\nresponse.write(\'\\r\\n        </div>\\r\\n        \\r\\n        \', escape=False)\nif right_sidebar_enabled:\n    response.write(\'\\r\\n        <div class="four columns">\\r\\n          \', escape=False)\n    response.write(\'\\r\\n          <h3>Right Sidebar</h3>\\r\\n          <p></p>\\r\\n          \', escape=False)\n    response.write(\'\\r\\n        </div>    \\r\\n        \', escape=False)\n    pass\nresponse.write(\'\\r\\n        \\r\\n      </div><!-- container -->\\r\\n    </div><!-- main -->\\r\\n    \\r\\n    <div class="push"></div>\\r\\n  </div><!-- wrapper -->\\r\\n\\r\\n  <div class="footer">\\r\\n    <div class="container">    \\r\\n      <div class="sixteen columns">\\r\\n        \', escape=False)\nresponse.write(\' <!-- this is default footer -->\\r\\n        <div class="footer-content clearfix">\\r\\n          <div class="copyright">\', escape=False)\nresponse.write(T(\'Copyright\'))\nresponse.write(\' &#169; 2011</div>\\r\\n          <div style="float: right;">\\r\\n            <a href="http://www.web2py.com/">\\r\\n            <img style="padding-bottom: 0;" src="\', escape=False)\nresponse.write(URL(\'static\',\'images/poweredby.png\'))\nresponse.write(\'"/>\\r\\n            </a>\\r\\n          </div>\\r\\n        </div>\\r\\n        \', escape=False)\nresponse.write(\' \\r\\n      </div>\\r\\n    </div><!-- container -->\\r\\n  </div><!-- footer -->\\r\\n  \\r\\n  <!--[if lt IE 7 ]>\\r\\n    <script src="\', escape=False)\nresponse.write(URL(\'static\',\'js/dd_belatedpng.js\'))\nresponse.write(\'"></script>\\r\\n    <script> DD_belatedPNG.fix(\\\'img, .png_bg\\\'); //fix any <img> or .png_bg background-images </script>\\r\\n    <![endif]-->\\r\\n  \', escape=False)\nif response.google_analytics_id:\n    response.write(\'<script type="text/javascript"> var _gaq = _gaq || []; _gaq.push([\\\'_setAccount\\\', \\\'\', escape=False)\n    response.write(response.google_analytics_id)\n    response.write("\']); _gaq.push([\'_trackPageview\']); (function() { var ga = document.createElement(\'script\'); ga.type = \'text/javascript\'; ga.async = true; ga.src = (\'https:\' == document.location.protocol ? \'https://ssl\' : \'http://www\') + \'.google-analytics.com/ga.js\'; var s = document.getElementsByTagName(\'script\')[0]; s.parentNode.insertBefore(ga, s); })(); </script> ", escape=False)\n    pass\nresponse.write(\'\\r\\n</body>\\r\\n</html>\\r\\n\', escape=False)'
p7
sS'snapshot'
p8
(dp9
S'exception'
p10
(dp11
S'__getslice__'
p12
S"<method-wrapper '__getslice__' of exceptions.SyntaxError object>"
p13
sS'text'
p14
S'"response.write(\'</td></tr>\\\\r\\\\n\', escape=False)\\n"'
p15
sS'__str__'
p16
S"<method-wrapper '__str__' of exceptions.SyntaxError object>"
p17
sS'__reduce__'
p18
S'<built-in method __reduce__ of exceptions.SyntaxError object>'
p19
sS'__dict__'
p20
S'{}'
p21
sS'__sizeof__'
p22
S'<built-in method __sizeof__ of exceptions.SyntaxError object>'
p23
sS'__init__'
p24
S"<method-wrapper '__init__' of exceptions.SyntaxError object>"
p25
sS'__setattr__'
p26
S"<method-wrapper '__setattr__' of exceptions.SyntaxError object>"
p27
sS'__reduce_ex__'
p28
S'<built-in method __reduce_ex__ of exceptions.SyntaxError object>'
p29
sS'__new__'
p30
S'<built-in method __new__ of type object>'
p31
sS'__format__'
p32
S'<built-in method __format__ of exceptions.SyntaxError object>'
p33
sS'__class__'
p34
S"<type 'exceptions.SyntaxError'>"
p35
sS'filename'
p36
S"r'C:\\Users\\liangh\\Desktop\\web2py\\applications\\welcome\\views\\league/index.html'"
p37
sS'lineno'
p38
S'79'
p39
sS'msg'
p40
S"'invalid syntax'"
p41
sS'__doc__'
p42
S"'Invalid syntax.'"
p43
sS'__getitem__'
p44
S"<method-wrapper '__getitem__' of exceptions.SyntaxError object>"
p45
sS'__setstate__'
p46
S'<built-in method __setstate__ of exceptions.SyntaxError object>'
p47
sS'__getattribute__'
p48
S"<method-wrapper '__getattribute__' of exceptions.SyntaxError object>"
p49
sS'print_file_and_line'
p50
S'None'
p51
sS'args'
p52
S'(\'invalid syntax\', (r\'C:\\Users\\liangh\\Desktop\\web2py\\applications\\welcome\\views\\league/index.html\', 79, 8, "response.write(\'</td></tr>\\\\r\\\\n\', escape=False)\\n"))'
p53
sS'__subclasshook__'
p54
S'<built-in method __subclasshook__ of type object>'
p55
sS'offset'
p56
S'8'
sS'__unicode__'
p57
S'<built-in method __unicode__ of exceptions.SyntaxError object>'
p58
sS'__delattr__'
p59
S"<method-wrapper '__delattr__' of exceptions.SyntaxError object>"
p60
sS'__repr__'
p61
S"<method-wrapper '__repr__' of exceptions.SyntaxError object>"
p62
sS'__hash__'
p63
S"<method-wrapper '__hash__' of exceptions.SyntaxError object>"
p64
ssS'evalue'
p65
S'invalid syntax (league/index.html, line 79)'
p66
sS'request'
p67
ccopy_reg
_reconstructor
p68
(cgluon.html
BEAUTIFY
p69
c__builtin__
object
p70
NtRp71
(dp72
S'attributes'
p73
(dp74
sS'components'
p75
(lp76
g68
(cgluon.html
TABLE
p77
g70
NtRp78
(dp79
g73
(dp80
S'level'
p81
I5
ssS'parent'
p82
Nsg75
(lp83
g68
(cgluon.html
TR
p84
g70
NtRp85
(dp86
g73
(dp87
sg82
g78
sg75
(lp88
g68
(cgluon.html
TD
p89
g70
NtRp90
(dp91
g73
(dp92
S'_style'
p93
S'font-weight:bold;vertical-align:top'
p94
ssg82
g85
sg75
(lp95
S'ajax'
p96
asbag68
(g89
g70
NtRp97
(dp98
g73
(dp99
S'_valign'
p100
S'top'
p101
ssg82
g85
sg75
(lp102
S':'
asbag68
(g89
g70
NtRp103
(dp104
g73
(dp105
sg82
g85
sg75
(lp106
g68
(g69
g70
NtRp107
(dp108
g73
(dp109
g81
I5
ssg82
g103
sg75
(lp110
S'False'
p111
asbasbasbag68
(g84
g70
NtRp112
(dp113
g73
(dp114
sg82
g78
sg75
(lp115
g68
(g89
g70
NtRp116
(dp117
g73
(dp118
g93
g94
ssg82
g112
sg75
(lp119
S'application'
p120
asbag68
(g89
g70
NtRp121
(dp122
g73
(dp123
g100
g101
ssg82
g112
sg75
(lp124
S':'
asbag68
(g89
g70
NtRp125
(dp126
g73
(dp127
sg82
g112
sg75
(lp128
g68
(g69
g70
NtRp129
(dp130
g73
(dp131
g81
I5
ssg82
g125
sg75
(lp132
S'welcome'
p133
asbasbasbag68
(g84
g70
NtRp134
(dp135
g73
(dp136
sg82
g78
sg75
(lp137
g68
(g89
g70
NtRp138
(dp139
g73
(dp140
g93
g94
ssg82
g134
sg75
(lp141
g52
asbag68
(g89
g70
NtRp142
(dp143
g73
(dp144
g100
g101
ssg82
g134
sg75
(lp145
S':'
asbag68
(g89
g70
NtRp146
(dp147
g73
(dp148
sg82
g134
sg75
(lp149
g68
(g69
g70
NtRp150
(dp151
g73
(dp152
g81
I5
ssg82
g146
sg75
(lp153
g68
(g77
g70
NtRp154
(dp155
g73
(dp156
g81
I4
ssg82
Nsg75
(lp157
sbasbasbasbag68
(g84
g70
NtRp158
(dp159
g73
(dp160
sg82
g78
sg75
(lp161
g68
(g89
g70
NtRp162
(dp163
g73
(dp164
g93
g94
ssg82
g158
sg75
(lp165
S'body'
p166
asbag68
(g89
g70
NtRp167
(dp168
g73
(dp169
g100
g101
ssg82
g158
sg75
(lp170
S':'
asbag68
(g89
g70
NtRp171
(dp172
g73
(dp173
sg82
g158
sg75
(lp174
g68
(g69
g70
NtRp175
(dp176
g73
(dp177
g81
I5
ssg82
g171
sg75
(lp178
S'<cStringIO.StringO object at 0x07E2A2A0>'
p179
asbasbasbag68
(g84
g70
NtRp180
(dp181
g73
(dp182
sg82
g78
sg75
(lp183
g68
(g89
g70
NtRp184
(dp185
g73
(dp186
g93
g94
ssg82
g180
sg75
(lp187
S'client'
p188
asbag68
(g89
g70
NtRp189
(dp190
g73
(dp191
g100
g101
ssg82
g180
sg75
(lp192
S':'
asbag68
(g89
g70
NtRp193
(dp194
g73
(dp195
sg82
g180
sg75
(lp196
g68
(g69
g70
NtRp197
(dp198
g73
(dp199
g81
I5
ssg82
g193
sg75
(lp200
S'137.112.117.19'
p201
asbasbasbag68
(g84
g70
NtRp202
(dp203
g73
(dp204
sg82
g78
sg75
(lp205
g68
(g89
g70
NtRp206
(dp207
g73
(dp208
g93
g94
ssg82
g202
sg75
(lp209
S'controller'
p210
asbag68
(g89
g70
NtRp211
(dp212
g73
(dp213
g100
g101
ssg82
g202
sg75
(lp214
S':'
asbag68
(g89
g70
NtRp215
(dp216
g73
(dp217
sg82
g202
sg75
(lp218
g68
(g69
g70
NtRp219
(dp220
g73
(dp221
g81
I5
ssg82
g215
sg75
(lp222
S'league'
p223
asbasbasbag68
(g84
g70
NtRp224
(dp225
g73
(dp226
sg82
g78
sg75
(lp227
g68
(g89
g70
NtRp228
(dp229
g73
(dp230
g93
g94
ssg82
g224
sg75
(lp231
S'cookies'
p232
asbag68
(g89
g70
NtRp233
(dp234
g73
(dp235
g100
g101
ssg82
g224
sg75
(lp236
S':'
asbag68
(g89
g70
NtRp237
(dp238
g73
(dp239
sg82
g224
sg75
(lp240
g68
(g69
g70
NtRp241
(dp242
g73
(dp243
g81
I5
ssg82
g237
sg75
(lp244
g68
(g77
g70
NtRp245
(dp246
g73
(dp247
g81
I4
ssg82
Nsg75
(lp248
g68
(g84
g70
NtRp249
(dp250
g73
(dp251
sg82
g245
sg75
(lp252
g68
(g89
g70
NtRp253
(dp254
g73
(dp255
g93
g94
ssg82
g249
sg75
(lp256
S'session_id_admin'
p257
asbag68
(g89
g70
NtRp258
(dp259
g73
(dp260
g100
g101
ssg82
g249
sg75
(lp261
S':'
asbag68
(g89
g70
NtRp262
(dp263
g73
(dp264
sg82
g249
sg75
(lp265
g68
(g69
g70
NtRp266
(dp267
g73
(dp268
g81
I4
ssg82
g262
sg75
(lp269
g68
(g77
g70
NtRp270
(dp271
g73
(dp272
g81
I3
ssg82
Nsg75
(lp273
g68
(g84
g70
NtRp274
(dp275
g73
(dp276
sg82
g270
sg75
(lp277
g68
(g89
g70
NtRp278
(dp279
g73
(dp280
g93
g94
ssg82
g274
sg75
(lp281
S'comment'
p282
asbag68
(g89
g70
NtRp283
(dp284
g73
(dp285
g100
g101
ssg82
g274
sg75
(lp286
S':'
asbag68
(g89
g70
NtRp287
(dp288
g73
(dp289
sg82
g274
sg75
(lp290
g68
(g69
g70
NtRp291
(dp292
g73
(dp293
g81
I3
ssg82
g287
sg75
(lp294
S''
asbasbasbag68
(g84
g70
NtRp295
(dp296
g73
(dp297
sg82
g270
sg75
(lp298
g68
(g89
g70
NtRp299
(dp300
g73
(dp301
g93
g94
ssg82
g295
sg75
(lp302
S'domain'
p303
asbag68
(g89
g70
NtRp304
(dp305
g73
(dp306
g100
g101
ssg82
g295
sg75
(lp307
S':'
asbag68
(g89
g70
NtRp308
(dp309
g73
(dp310
sg82
g295
sg75
(lp311
g68
(g69
g70
NtRp312
(dp313
g73
(dp314
g81
I3
ssg82
g308
sg75
(lp315
S''
asbasbasbag68
(g84
g70
NtRp316
(dp317
g73
(dp318
sg82
g270
sg75
(lp319
g68
(g89
g70
NtRp320
(dp321
g73
(dp322
g93
g94
ssg82
g316
sg75
(lp323
S'expires'
p324
asbag68
(g89
g70
NtRp325
(dp326
g73
(dp327
g100
g101
ssg82
g316
sg75
(lp328
S':'
asbag68
(g89
g70
NtRp329
(dp330
g73
(dp331
sg82
g316
sg75
(lp332
g68
(g69
g70
NtRp333
(dp334
g73
(dp335
g81
I3
ssg82
g329
sg75
(lp336
S''
asbasbasbag68
(g84
g70
NtRp337
(dp338
g73
(dp339
sg82
g270
sg75
(lp340
g68
(g89
g70
NtRp341
(dp342
g73
(dp343
g93
g94
ssg82
g337
sg75
(lp344
S'httponly'
p345
asbag68
(g89
g70
NtRp346
(dp347
g73
(dp348
g100
g101
ssg82
g337
sg75
(lp349
S':'
asbag68
(g89
g70
NtRp350
(dp351
g73
(dp352
sg82
g337
sg75
(lp353
g68
(g69
g70
NtRp354
(dp355
g73
(dp356
g81
I3
ssg82
g350
sg75
(lp357
S''
asbasbasbag68
(g84
g70
NtRp358
(dp359
g73
(dp360
sg82
g270
sg75
(lp361
g68
(g89
g70
NtRp362
(dp363
g73
(dp364
g93
g94
ssg82
g358
sg75
(lp365
S'max-age'
p366
asbag68
(g89
g70
NtRp367
(dp368
g73
(dp369
g100
g101
ssg82
g358
sg75
(lp370
S':'
asbag68
(g89
g70
NtRp371
(dp372
g73
(dp373
sg82
g358
sg75
(lp374
g68
(g69
g70
NtRp375
(dp376
g73
(dp377
g81
I3
ssg82
g371
sg75
(lp378
S''
asbasbasbag68
(g84
g70
NtRp379
(dp380
g73
(dp381
sg82
g270
sg75
(lp382
g68
(g89
g70
NtRp383
(dp384
g73
(dp385
g93
g94
ssg82
g379
sg75
(lp386
S'path'
p387
asbag68
(g89
g70
NtRp388
(dp389
g73
(dp390
g100
g101
ssg82
g379
sg75
(lp391
S':'
asbag68
(g89
g70
NtRp392
(dp393
g73
(dp394
sg82
g379
sg75
(lp395
g68
(g69
g70
NtRp396
(dp397
g73
(dp398
g81
I3
ssg82
g392
sg75
(lp399
S''
asbasbasbag68
(g84
g70
NtRp400
(dp401
g73
(dp402
sg82
g270
sg75
(lp403
g68
(g89
g70
NtRp404
(dp405
g73
(dp406
g93
g94
ssg82
g400
sg75
(lp407
S'secure'
p408
asbag68
(g89
g70
NtRp409
(dp410
g73
(dp411
g100
g101
ssg82
g400
sg75
(lp412
S':'
asbag68
(g89
g70
NtRp413
(dp414
g73
(dp415
sg82
g400
sg75
(lp416
g68
(g69
g70
NtRp417
(dp418
g73
(dp419
g81
I3
ssg82
g413
sg75
(lp420
S''
asbasbasbag68
(g84
g70
NtRp421
(dp422
g73
(dp423
sg82
g270
sg75
(lp424
g68
(g89
g70
NtRp425
(dp426
g73
(dp427
g93
g94
ssg82
g421
sg75
(lp428
S'version'
p429
asbag68
(g89
g70
NtRp430
(dp431
g73
(dp432
g100
g101
ssg82
g421
sg75
(lp433
S':'
asbag68
(g89
g70
NtRp434
(dp435
g73
(dp436
sg82
g421
sg75
(lp437
g68
(g69
g70
NtRp438
(dp439
g73
(dp440
g81
I3
ssg82
g434
sg75
(lp441
S''
asbasbasbasbasbasbasbag68
(g84
g70
NtRp442
(dp443
g73
(dp444
sg82
g245
sg75
(lp445
g68
(g89
g70
NtRp446
(dp447
g73
(dp448
g93
g94
ssg82
g442
sg75
(lp449
S'session_id_welcome'
p450
asbag68
(g89
g70
NtRp451
(dp452
g73
(dp453
g100
g101
ssg82
g442
sg75
(lp454
S':'
asbag68
(g89
g70
NtRp455
(dp456
g73
(dp457
sg82
g442
sg75
(lp458
g68
(g69
g70
NtRp459
(dp460
g73
(dp461
g81
I4
ssg82
g455
sg75
(lp462
g68
(g77
g70
NtRp463
(dp464
g73
(dp465
g81
I3
ssg82
Nsg75
(lp466
g68
(g84
g70
NtRp467
(dp468
g73
(dp469
sg82
g463
sg75
(lp470
g68
(g89
g70
NtRp471
(dp472
g73
(dp473
g93
g94
ssg82
g467
sg75
(lp474
g282
asbag68
(g89
g70
NtRp475
(dp476
g73
(dp477
g100
g101
ssg82
g467
sg75
(lp478
S':'
asbag68
(g89
g70
NtRp479
(dp480
g73
(dp481
sg82
g467
sg75
(lp482
g68
(g69
g70
NtRp483
(dp484
g73
(dp485
g81
I3
ssg82
g479
sg75
(lp486
S''
asbasbasbag68
(g84
g70
NtRp487
(dp488
g73
(dp489
sg82
g463
sg75
(lp490
g68
(g89
g70
NtRp491
(dp492
g73
(dp493
g93
g94
ssg82
g487
sg75
(lp494
g303
asbag68
(g89
g70
NtRp495
(dp496
g73
(dp497
g100
g101
ssg82
g487
sg75
(lp498
S':'
asbag68
(g89
g70
NtRp499
(dp500
g73
(dp501
sg82
g487
sg75
(lp502
g68
(g69
g70
NtRp503
(dp504
g73
(dp505
g81
I3
ssg82
g499
sg75
(lp506
S''
asbasbasbag68
(g84
g70
NtRp507
(dp508
g73
(dp509
sg82
g463
sg75
(lp510
g68
(g89
g70
NtRp511
(dp512
g73
(dp513
g93
g94
ssg82
g507
sg75
(lp514
g324
asbag68
(g89
g70
NtRp515
(dp516
g73
(dp517
g100
g101
ssg82
g507
sg75
(lp518
S':'
asbag68
(g89
g70
NtRp519
(dp520
g73
(dp521
sg82
g507
sg75
(lp522
g68
(g69
g70
NtRp523
(dp524
g73
(dp525
g81
I3
ssg82
g519
sg75
(lp526
S''
asbasbasbag68
(g84
g70
NtRp527
(dp528
g73
(dp529
sg82
g463
sg75
(lp530
g68
(g89
g70
NtRp531
(dp532
g73
(dp533
g93
g94
ssg82
g527
sg75
(lp534
g345
asbag68
(g89
g70
NtRp535
(dp536
g73
(dp537
g100
g101
ssg82
g527
sg75
(lp538
S':'
asbag68
(g89
g70
NtRp539
(dp540
g73
(dp541
sg82
g527
sg75
(lp542
g68
(g69
g70
NtRp543
(dp544
g73
(dp545
g81
I3
ssg82
g539
sg75
(lp546
S''
asbasbasbag68
(g84
g70
NtRp547
(dp548
g73
(dp549
sg82
g463
sg75
(lp550
g68
(g89
g70
NtRp551
(dp552
g73
(dp553
g93
g94
ssg82
g547
sg75
(lp554
g366
asbag68
(g89
g70
NtRp555
(dp556
g73
(dp557
g100
g101
ssg82
g547
sg75
(lp558
S':'
asbag68
(g89
g70
NtRp559
(dp560
g73
(dp561
sg82
g547
sg75
(lp562
g68
(g69
g70
NtRp563
(dp564
g73
(dp565
g81
I3
ssg82
g559
sg75
(lp566
S''
asbasbasbag68
(g84
g70
NtRp567
(dp568
g73
(dp569
sg82
g463
sg75
(lp570
g68
(g89
g70
NtRp571
(dp572
g73
(dp573
g93
g94
ssg82
g567
sg75
(lp574
g387
asbag68
(g89
g70
NtRp575
(dp576
g73
(dp577
g100
g101
ssg82
g567
sg75
(lp578
S':'
asbag68
(g89
g70
NtRp579
(dp580
g73
(dp581
sg82
g567
sg75
(lp582
g68
(g69
g70
NtRp583
(dp584
g73
(dp585
g81
I3
ssg82
g579
sg75
(lp586
S''
asbasbasbag68
(g84
g70
NtRp587
(dp588
g73
(dp589
sg82
g463
sg75
(lp590
g68
(g89
g70
NtRp591
(dp592
g73
(dp593
g93
g94
ssg82
g587
sg75
(lp594
g408
asbag68
(g89
g70
NtRp595
(dp596
g73
(dp597
g100
g101
ssg82
g587
sg75
(lp598
S':'
asbag68
(g89
g70
NtRp599
(dp600
g73
(dp601
sg82
g587
sg75
(lp602
g68
(g69
g70
NtRp603
(dp604
g73
(dp605
g81
I3
ssg82
g599
sg75
(lp606
S''
asbasbasbag68
(g84
g70
NtRp607
(dp608
g73
(dp609
sg82
g463
sg75
(lp610
g68
(g89
g70
NtRp611
(dp612
g73
(dp613
g93
g94
ssg82
g607
sg75
(lp614
g429
asbag68
(g89
g70
NtRp615
(dp616
g73
(dp617
g100
g101
ssg82
g607
sg75
(lp618
S':'
asbag68
(g89
g70
NtRp619
(dp620
g73
(dp621
sg82
g607
sg75
(lp622
g68
(g69
g70
NtRp623
(dp624
g73
(dp625
g81
I3
ssg82
g619
sg75
(lp626
S''
asbasbasbasbasbasbasbasbasbasbasbag68
(g84
g70
NtRp627
(dp628
g73
(dp629
sg82
g78
sg75
(lp630
g68
(g89
g70
NtRp631
(dp632
g73
(dp633
g93
g94
ssg82
g627
sg75
(lp634
S'env'
p635
asbag68
(g89
g70
NtRp636
(dp637
g73
(dp638
g100
g101
ssg82
g627
sg75
(lp639
S':'
asbag68
(g89
g70
NtRp640
(dp641
g73
(dp642
sg82
g627
sg75
(lp643
g68
(g69
g70
NtRp644
(dp645
g73
(dp646
g81
I5
ssg82
g640
sg75
(lp647
g68
(g77
g70
NtRp648
(dp649
g73
(dp650
g81
I4
ssg82
Nsg75
(lp651
g68
(g84
g70
NtRp652
(dp653
g73
(dp654
sg82
g648
sg75
(lp655
g68
(g89
g70
NtRp656
(dp657
g73
(dp658
g93
g94
ssg82
g652
sg75
(lp659
S'app_folders'
p660
asbag68
(g89
g70
NtRp661
(dp662
g73
(dp663
g100
g101
ssg82
g652
sg75
(lp664
S':'
asbag68
(g89
g70
NtRp665
(dp666
g73
(dp667
sg82
g652
sg75
(lp668
g68
(g69
g70
NtRp669
(dp670
g73
(dp671
g81
I4
ssg82
g665
sg75
(lp672
S"set(['C:\\\\Users\\\\liangh\\\\Desktop\\\\web2py\\\\applications\\\\sc2tourneytracker\\\\', 'C:\\\\Users\\\\liangh\\\\Desktop\\\\web2py\\\\applications\\\\examples\\\\', 'C:\\\\Users\\\\liangh\\\\Desktop\\\\web2py\\\\applications\\\\Sc2tourneytracker\\\\', 'C:\\\\Users\\\\liangh\\\\Desktop\\\\web2py\\\\applications\\\\welcome\\\\', 'C:\\\\Users\\\\liangh\\\\Desktop\\\\web2py\\\\applications\\\\admin\\\\', 'C:\\\\Users\\\\liangh\\\\Desktop\\\\web2py\\\\applications\\\\SC2TourneyTracker\\\\'])"
p673
asbasbasbag68
(g84
g70
NtRp674
(dp675
g73
(dp676
sg82
g648
sg75
(lp677
g68
(g89
g70
NtRp678
(dp679
g73
(dp680
g93
g94
ssg82
g674
sg75
(lp681
S'applications_parent'
p682
asbag68
(g89
g70
NtRp683
(dp684
g73
(dp685
g100
g101
ssg82
g674
sg75
(lp686
S':'
asbag68
(g89
g70
NtRp687
(dp688
g73
(dp689
sg82
g674
sg75
(lp690
g68
(g69
g70
NtRp691
(dp692
g73
(dp693
g81
I4
ssg82
g687
sg75
(lp694
S'C:\\Users\\liangh\\Desktop\\web2py'
p695
asbasbasbag68
(g84
g70
NtRp696
(dp697
g73
(dp698
sg82
g648
sg75
(lp699
g68
(g89
g70
NtRp700
(dp701
g73
(dp702
g93
g94
ssg82
g696
sg75
(lp703
S'cmd_args'
p704
asbag68
(g89
g70
NtRp705
(dp706
g73
(dp707
g100
g101
ssg82
g696
sg75
(lp708
S':'
asbag68
(g89
g70
NtRp709
(dp710
g73
(dp711
sg82
g696
sg75
(lp712
g68
(g69
g70
NtRp713
(dp714
g73
(dp715
g81
I4
ssg82
g709
sg75
(lp716
g68
(g77
g70
NtRp717
(dp718
g73
(dp719
g81
I3
ssg82
Nsg75
(lp720
sbasbasbasbag68
(g84
g70
NtRp721
(dp722
g73
(dp723
sg82
g648
sg75
(lp724
g68
(g89
g70
NtRp725
(dp726
g73
(dp727
g93
g94
ssg82
g721
sg75
(lp728
S'cmd_options'
p729
asbag68
(g89
g70
NtRp730
(dp731
g73
(dp732
g100
g101
ssg82
g721
sg75
(lp733
S':'
asbag68
(g89
g70
NtRp734
(dp735
g73
(dp736
sg82
g721
sg75
(lp737
g68
(g69
g70
NtRp738
(dp739
g73
(dp740
g81
I4
ssg82
g734
sg75
(lp741
S"<Values at 0x29122d8: {'verbose': False, 'ip': '127.0.0.1', 'shutdown_timeout': 5, 'taskbar': False, 'nocron': False, 'pid_filename': 'httpserver.pid', 'maxthreads': None, 'softcron': False, 'server_name': 'LIANGH-1', 'bpython': False, 'nogui': False, 'port': 8000, 'extcron': False, 'debuglevel': 30, 'test': None, 'folder': 'C:\\\\Users\\\\liangh\\\\Desktop\\\\web2py', 'config': '', 'import_models': False, 'winservice': '', 'shell': None, 'run': '', 'log_filename': 'httpserver.log', 'args': [''], 'socket_timeout': 1, 'ssl_ca_certificate': None, 'scheduler': None, 'profiler_filename': None, 'ssl_private_key': '', 'password': '<ask>', 'request_queue_size': 5, 'ssl_certificate': '', 'cronjob': False, 'numthreads': None, 'quiet': False, 'interfaces': None, 'minthreads': None, 'timeout': 10, 'plain': False, 'nobanner': False}>"
p742
asbasbasbag68
(g84
g70
NtRp743
(dp744
g73
(dp745
sg82
g648
sg75
(lp746
g68
(g89
g70
NtRp747
(dp748
g73
(dp749
g93
g94
ssg82
g743
sg75
(lp750
S'db_sessions'
p751
asbag68
(g89
g70
NtRp752
(dp753
g73
(dp754
g100
g101
ssg82
g743
sg75
(lp755
S':'
asbag68
(g89
g70
NtRp756
(dp757
g73
(dp758
sg82
g743
sg75
(lp759
g68
(g69
g70
NtRp760
(dp761
g73
(dp762
g81
I4
ssg82
g756
sg75
(lp763
S'set([])'
p764
asbasbasbag68
(g84
g70
NtRp765
(dp766
g73
(dp767
sg82
g648
sg75
(lp768
g68
(g89
g70
NtRp769
(dp770
g73
(dp771
g93
g94
ssg82
g765
sg75
(lp772
S'debugging'
p773
asbag68
(g89
g70
NtRp774
(dp775
g73
(dp776
g100
g101
ssg82
g765
sg75
(lp777
S':'
asbag68
(g89
g70
NtRp778
(dp779
g73
(dp780
sg82
g765
sg75
(lp781
g68
(g69
g70
NtRp782
(dp783
g73
(dp784
g81
I4
ssg82
g778
sg75
(lp785
g111
asbasbasbag68
(g84
g70
NtRp786
(dp787
g73
(dp788
sg82
g648
sg75
(lp789
g68
(g89
g70
NtRp790
(dp791
g73
(dp792
g93
g94
ssg82
g786
sg75
(lp793
S'gluon_parent'
p794
asbag68
(g89
g70
NtRp795
(dp796
g73
(dp797
g100
g101
ssg82
g786
sg75
(lp798
S':'
asbag68
(g89
g70
NtRp799
(dp800
g73
(dp801
sg82
g786
sg75
(lp802
g68
(g69
g70
NtRp803
(dp804
g73
(dp805
g81
I4
ssg82
g799
sg75
(lp806
S'C:\\Users\\liangh\\Desktop\\web2py'
p807
asbasbasbag68
(g84
g70
NtRp808
(dp809
g73
(dp810
sg82
g648
sg75
(lp811
g68
(g89
g70
NtRp812
(dp813
g73
(dp814
g93
g94
ssg82
g808
sg75
(lp815
S'http_accept'
p816
asbag68
(g89
g70
NtRp817
(dp818
g73
(dp819
g100
g101
ssg82
g808
sg75
(lp820
S':'
asbag68
(g89
g70
NtRp821
(dp822
g73
(dp823
sg82
g808
sg75
(lp824
g68
(g69
g70
NtRp825
(dp826
g73
(dp827
g81
I4
ssg82
g821
sg75
(lp828
S'text/html,application/xhtml+xml,application/xml;q=0.9,*/*;q=0.8'
p829
asbasbasbag68
(g84
g70
NtRp830
(dp831
g73
(dp832
sg82
g648
sg75
(lp833
g68
(g89
g70
NtRp834
(dp835
g73
(dp836
g93
g94
ssg82
g830
sg75
(lp837
S'http_accept_charset'
p838
asbag68
(g89
g70
NtRp839
(dp840
g73
(dp841
g100
g101
ssg82
g830
sg75
(lp842
S':'
asbag68
(g89
g70
NtRp843
(dp844
g73
(dp845
sg82
g830
sg75
(lp846
g68
(g69
g70
NtRp847
(dp848
g73
(dp849
g81
I4
ssg82
g843
sg75
(lp850
S'ISO-8859-1,utf-8;q=0.7,*;q=0.3'
p851
asbasbasbag68
(g84
g70
NtRp852
(dp853
g73
(dp854
sg82
g648
sg75
(lp855
g68
(g89
g70
NtRp856
(dp857
g73
(dp858
g93
g94
ssg82
g852
sg75
(lp859
S'http_accept_encoding'
p860
asbag68
(g89
g70
NtRp861
(dp862
g73
(dp863
g100
g101
ssg82
g852
sg75
(lp864
S':'
asbag68
(g89
g70
NtRp865
(dp866
g73
(dp867
sg82
g852
sg75
(lp868
g68
(g69
g70
NtRp869
(dp870
g73
(dp871
g81
I4
ssg82
g865
sg75
(lp872
S'gzip,deflate,sdch'
p873
asbasbasbag68
(g84
g70
NtRp874
(dp875
g73
(dp876
sg82
g648
sg75
(lp877
g68
(g89
g70
NtRp878
(dp879
g73
(dp880
g93
g94
ssg82
g874
sg75
(lp881
S'http_accept_language'
p882
asbag68
(g89
g70
NtRp883
(dp884
g73
(dp885
g100
g101
ssg82
g874
sg75
(lp886
S':'
asbag68
(g89
g70
NtRp887
(dp888
g73
(dp889
sg82
g874
sg75
(lp890
g68
(g69
g70
NtRp891
(dp892
g73
(dp893
g81
I4
ssg82
g887
sg75
(lp894
S'en-US,en;q=0.8'
p895
asbasbasbag68
(g84
g70
NtRp896
(dp897
g73
(dp898
sg82
g648
sg75
(lp899
g68
(g89
g70
NtRp900
(dp901
g73
(dp902
g93
g94
ssg82
g896
sg75
(lp903
S'http_connection'
p904
asbag68
(g89
g70
NtRp905
(dp906
g73
(dp907
g100
g101
ssg82
g896
sg75
(lp908
S':'
asbag68
(g89
g70
NtRp909
(dp910
g73
(dp911
sg82
g896
sg75
(lp912
g68
(g69
g70
NtRp913
(dp914
g73
(dp915
g81
I4
ssg82
g909
sg75
(lp916
S'keep-alive'
p917
asbasbasbag68
(g84
g70
NtRp918
(dp919
g73
(dp920
sg82
g648
sg75
(lp921
g68
(g89
g70
NtRp922
(dp923
g73
(dp924
g93
g94
ssg82
g918
sg75
(lp925
S'http_cookie'
p926
asbag68
(g89
g70
NtRp927
(dp928
g73
(dp929
g100
g101
ssg82
g918
sg75
(lp930
S':'
asbag68
(g89
g70
NtRp931
(dp932
g73
(dp933
sg82
g918
sg75
(lp934
g68
(g69
g70
NtRp935
(dp936
g73
(dp937
g81
I4
ssg82
g931
sg75
(lp938
S'session_id_admin=137.112.117.19-ebe523dc-a6b8-4916-b105-0ffaf1353446; session_id_welcome=137.112.117.19-b7feea4f-bb48-44b0-b0f7-071e46d9d712'
p939
asbasbasbag68
(g84
g70
NtRp940
(dp941
g73
(dp942
sg82
g648
sg75
(lp943
g68
(g89
g70
NtRp944
(dp945
g73
(dp946
g93
g94
ssg82
g940
sg75
(lp947
S'http_host'
p948
asbag68
(g89
g70
NtRp949
(dp950
g73
(dp951
g100
g101
ssg82
g940
sg75
(lp952
S':'
asbag68
(g89
g70
NtRp953
(dp954
g73
(dp955
sg82
g940
sg75
(lp956
g68
(g69
g70
NtRp957
(dp958
g73
(dp959
g81
I4
ssg82
g953
sg75
(lp960
S'137.112.117.19:8000'
p961
asbasbasbag68
(g84
g70
NtRp962
(dp963
g73
(dp964
sg82
g648
sg75
(lp965
g68
(g89
g70
NtRp966
(dp967
g73
(dp968
g93
g94
ssg82
g962
sg75
(lp969
S'http_referer'
p970
asbag68
(g89
g70
NtRp971
(dp972
g73
(dp973
g100
g101
ssg82
g962
sg75
(lp974
S':'
asbag68
(g89
g70
NtRp975
(dp976
g73
(dp977
sg82
g962
sg75
(lp978
g68
(g69
g70
NtRp979
(dp980
g73
(dp981
g81
I4
ssg82
g975
sg75
(lp982
S'http://137.112.117.19:8000/welcome/default/index'
p983
asbasbasbag68
(g84
g70
NtRp984
(dp985
g73
(dp986
sg82
g648
sg75
(lp987
g68
(g89
g70
NtRp988
(dp989
g73
(dp990
g93
g94
ssg82
g984
sg75
(lp991
S'http_user_agent'
p992
asbag68
(g89
g70
NtRp993
(dp994
g73
(dp995
g100
g101
ssg82
g984
sg75
(lp996
S':'
asbag68
(g89
g70
NtRp997
(dp998
g73
(dp999
sg82
g984
sg75
(lp1000
g68
(g69
g70
NtRp1001
(dp1002
g73
(dp1003
g81
I4
ssg82
g997
sg75
(lp1004
S'Mozilla/5.0 (Windows NT 6.1) AppleWebKit/535.7 (KHTML, like Gecko) Chrome/16.0.912.75 Safari/535.7'
p1005
asbasbasbag68
(g84
g70
NtRp1006
(dp1007
g73
(dp1008
sg82
g648
sg75
(lp1009
g68
(g89
g70
NtRp1010
(dp1011
g73
(dp1012
g93
g94
ssg82
g1006
sg75
(lp1013
S'is_jython'
p1014
asbag68
(g89
g70
NtRp1015
(dp1016
g73
(dp1017
g100
g101
ssg82
g1006
sg75
(lp1018
S':'
asbag68
(g89
g70
NtRp1019
(dp1020
g73
(dp1021
sg82
g1006
sg75
(lp1022
g68
(g69
g70
NtRp1023
(dp1024
g73
(dp1025
g81
I4
ssg82
g1019
sg75
(lp1026
g111
asbasbasbag68
(g84
g70
NtRp1027
(dp1028
g73
(dp1029
sg82
g648
sg75
(lp1030
g68
(g89
g70
NtRp1031
(dp1032
g73
(dp1033
g93
g94
ssg82
g1027
sg75
(lp1034
S'is_pypy'
p1035
asbag68
(g89
g70
NtRp1036
(dp1037
g73
(dp1038
g100
g101
ssg82
g1027
sg75
(lp1039
S':'
asbag68
(g89
g70
NtRp1040
(dp1041
g73
(dp1042
sg82
g1027
sg75
(lp1043
g68
(g69
g70
NtRp1044
(dp1045
g73
(dp1046
g81
I4
ssg82
g1040
sg75
(lp1047
g111
asbasbasbag68
(g84
g70
NtRp1048
(dp1049
g73
(dp1050
sg82
g648
sg75
(lp1051
g68
(g89
g70
NtRp1052
(dp1053
g73
(dp1054
g93
g94
ssg82
g1048
sg75
(lp1055
S'path_info'
p1056
asbag68
(g89
g70
NtRp1057
(dp1058
g73
(dp1059
g100
g101
ssg82
g1048
sg75
(lp1060
S':'
asbag68
(g89
g70
NtRp1061
(dp1062
g73
(dp1063
sg82
g1048
sg75
(lp1064
g68
(g69
g70
NtRp1065
(dp1066
g73
(dp1067
g81
I4
ssg82
g1061
sg75
(lp1068
S'/welcome/league/index'
p1069
asbasbasbag68
(g84
g70
NtRp1070
(dp1071
g73
(dp1072
sg82
g648
sg75
(lp1073
g68
(g89
g70
NtRp1074
(dp1075
g73
(dp1076
g93
g94
ssg82
g1070
sg75
(lp1077
S'query_string'
p1078
asbag68
(g89
g70
NtRp1079
(dp1080
g73
(dp1081
g100
g101
ssg82
g1070
sg75
(lp1082
S':'
asbag68
(g89
g70
NtRp1083
(dp1084
g73
(dp1085
sg82
g1070
sg75
(lp1086
g68
(g69
g70
NtRp1087
(dp1088
g73
(dp1089
g81
I4
ssg82
g1083
sg75
(lp1090
S''
asbasbasbag68
(g84
g70
NtRp1091
(dp1092
g73
(dp1093
sg82
g648
sg75
(lp1094
g68
(g89
g70
NtRp1095
(dp1096
g73
(dp1097
g93
g94
ssg82
g1091
sg75
(lp1098
S'remote_addr'
p1099
asbag68
(g89
g70
NtRp1100
(dp1101
g73
(dp1102
g100
g101
ssg82
g1091
sg75
(lp1103
S':'
asbag68
(g89
g70
NtRp1104
(dp1105
g73
(dp1106
sg82
g1091
sg75
(lp1107
g68
(g69
g70
NtRp1108
(dp1109
g73
(dp1110
g81
I4
ssg82
g1104
sg75
(lp1111
g201
asbasbasbag68
(g84
g70
NtRp1112
(dp1113
g73
(dp1114
sg82
g648
sg75
(lp1115
g68
(g89
g70
NtRp1116
(dp1117
g73
(dp1118
g93
g94
ssg82
g1112
sg75
(lp1119
S'remote_port'
p1120
asbag68
(g89
g70
NtRp1121
(dp1122
g73
(dp1123
g100
g101
ssg82
g1112
sg75
(lp1124
S':'
asbag68
(g89
g70
NtRp1125
(dp1126
g73
(dp1127
sg82
g1112
sg75
(lp1128
g68
(g69
g70
NtRp1129
(dp1130
g73
(dp1131
g81
I4
ssg82
g1125
sg75
(lp1132
S'55795'
p1133
asbasbasbag68
(g84
g70
NtRp1134
(dp1135
g73
(dp1136
sg82
g648
sg75
(lp1137
g68
(g89
g70
NtRp1138
(dp1139
g73
(dp1140
g93
g94
ssg82
g1134
sg75
(lp1141
S'request_method'
p1142
asbag68
(g89
g70
NtRp1143
(dp1144
g73
(dp1145
g100
g101
ssg82
g1134
sg75
(lp1146
S':'
asbag68
(g89
g70
NtRp1147
(dp1148
g73
(dp1149
sg82
g1134
sg75
(lp1150
g68
(g69
g70
NtRp1151
(dp1152
g73
(dp1153
g81
I4
ssg82
g1147
sg75
(lp1154
S'GET'
p1155
asbasbasbag68
(g84
g70
NtRp1156
(dp1157
g73
(dp1158
sg82
g648
sg75
(lp1159
g68
(g89
g70
NtRp1160
(dp1161
g73
(dp1162
g93
g94
ssg82
g1156
sg75
(lp1163
S'script_name'
p1164
asbag68
(g89
g70
NtRp1165
(dp1166
g73
(dp1167
g100
g101
ssg82
g1156
sg75
(lp1168
S':'
asbag68
(g89
g70
NtRp1169
(dp1170
g73
(dp1171
sg82
g1156
sg75
(lp1172
g68
(g69
g70
NtRp1173
(dp1174
g73
(dp1175
g81
I4
ssg82
g1169
sg75
(lp1176
S''
asbasbasbag68
(g84
g70
NtRp1177
(dp1178
g73
(dp1179
sg82
g648
sg75
(lp1180
g68
(g89
g70
NtRp1181
(dp1182
g73
(dp1183
g93
g94
ssg82
g1177
sg75
(lp1184
S'server_name'
p1185
asbag68
(g89
g70
NtRp1186
(dp1187
g73
(dp1188
g100
g101
ssg82
g1177
sg75
(lp1189
S':'
asbag68
(g89
g70
NtRp1190
(dp1191
g73
(dp1192
sg82
g1177
sg75
(lp1193
g68
(g69
g70
NtRp1194
(dp1195
g73
(dp1196
g81
I4
ssg82
g1190
sg75
(lp1197
S'LIANGH-1'
p1198
asbasbasbag68
(g84
g70
NtRp1199
(dp1200
g73
(dp1201
sg82
g648
sg75
(lp1202
g68
(g89
g70
NtRp1203
(dp1204
g73
(dp1205
g93
g94
ssg82
g1199
sg75
(lp1206
S'server_port'
p1207
asbag68
(g89
g70
NtRp1208
(dp1209
g73
(dp1210
g100
g101
ssg82
g1199
sg75
(lp1211
S':'
asbag68
(g89
g70
NtRp1212
(dp1213
g73
(dp1214
sg82
g1199
sg75
(lp1215
g68
(g69
g70
NtRp1216
(dp1217
g73
(dp1218
g81
I4
ssg82
g1212
sg75
(lp1219
S'8000'
p1220
asbasbasbag68
(g84
g70
NtRp1221
(dp1222
g73
(dp1223
sg82
g648
sg75
(lp1224
g68
(g89
g70
NtRp1225
(dp1226
g73
(dp1227
g93
g94
ssg82
g1221
sg75
(lp1228
S'server_protocol'
p1229
asbag68
(g89
g70
NtRp1230
(dp1231
g73
(dp1232
g100
g101
ssg82
g1221
sg75
(lp1233
S':'
asbag68
(g89
g70
NtRp1234
(dp1235
g73
(dp1236
sg82
g1221
sg75
(lp1237
g68
(g69
g70
NtRp1238
(dp1239
g73
(dp1240
g81
I4
ssg82
g1234
sg75
(lp1241
S'HTTP/1.1'
p1242
asbasbasbag68
(g84
g70
NtRp1243
(dp1244
g73
(dp1245
sg82
g648
sg75
(lp1246
g68
(g89
g70
NtRp1247
(dp1248
g73
(dp1249
g93
g94
ssg82
g1243
sg75
(lp1250
S'server_software'
p1251
asbag68
(g89
g70
NtRp1252
(dp1253
g73
(dp1254
g100
g101
ssg82
g1243
sg75
(lp1255
S':'
asbag68
(g89
g70
NtRp1256
(dp1257
g73
(dp1258
sg82
g1243
sg75
(lp1259
g68
(g69
g70
NtRp1260
(dp1261
g73
(dp1262
g81
I4
ssg82
g1256
sg75
(lp1263
S'Rocket 1.2.4'
p1264
asbasbasbag68
(g84
g70
NtRp1265
(dp1266
g73
(dp1267
sg82
g648
sg75
(lp1268
g68
(g89
g70
NtRp1269
(dp1270
g73
(dp1271
g93
g94
ssg82
g1265
sg75
(lp1272
S'web2py_crontype'
p1273
asbag68
(g89
g70
NtRp1274
(dp1275
g73
(dp1276
g100
g101
ssg82
g1265
sg75
(lp1277
S':'
asbag68
(g89
g70
NtRp1278
(dp1279
g73
(dp1280
sg82
g1265
sg75
(lp1281
g68
(g69
g70
NtRp1282
(dp1283
g73
(dp1284
g81
I4
ssg82
g1278
sg75
(lp1285
S'hard'
p1286
asbasbasbag68
(g84
g70
NtRp1287
(dp1288
g73
(dp1289
sg82
g648
sg75
(lp1290
g68
(g89
g70
NtRp1291
(dp1292
g73
(dp1293
g93
g94
ssg82
g1287
sg75
(lp1294
S'web2py_path'
p1295
asbag68
(g89
g70
NtRp1296
(dp1297
g73
(dp1298
g100
g101
ssg82
g1287
sg75
(lp1299
S':'
asbag68
(g89
g70
NtRp1300
(dp1301
g73
(dp1302
sg82
g1287
sg75
(lp1303
g68
(g69
g70
NtRp1304
(dp1305
g73
(dp1306
g81
I4
ssg82
g1300
sg75
(lp1307
g695
asbasbasbag68
(g84
g70
NtRp1308
(dp1309
g73
(dp1310
sg82
g648
sg75
(lp1311
g68
(g89
g70
NtRp1312
(dp1313
g73
(dp1314
g93
g94
ssg82
g1308
sg75
(lp1315
S'web2py_version'
p1316
asbag68
(g89
g70
NtRp1317
(dp1318
g73
(dp1319
g100
g101
ssg82
g1308
sg75
(lp1320
S':'
asbag68
(g89
g70
NtRp1321
(dp1322
g73
(dp1323
sg82
g1308
sg75
(lp1324
g68
(g69
g70
NtRp1325
(dp1326
g73
(dp1327
g81
I4
ssg82
g1321
sg75
(lp1328
g68
(g77
g70
NtRp1329
(dp1330
g73
(dp1331
g81
I3
ssg82
Nsg75
(lp1332
g68
(g84
g70
NtRp1333
(dp1334
g73
(dp1335
sg82
g1329
sg75
(lp1336
g68
(g89
g70
NtRp1337
(dp1338
g73
(dp1339
sg82
g1333
sg75
(lp1340
g68
(g69
g70
NtRp1341
(dp1342
g73
(dp1343
g81
I3
ssg82
g1337
sg75
(lp1344
S'1'
asbasbasbag68
(g84
g70
NtRp1345
(dp1346
g73
(dp1347
sg82
g1329
sg75
(lp1348
g68
(g89
g70
NtRp1349
(dp1350
g73
(dp1351
sg82
g1345
sg75
(lp1352
g68
(g69
g70
NtRp1353
(dp1354
g73
(dp1355
g81
I3
ssg82
g1349
sg75
(lp1356
S'99'
p1357
asbasbasbag68
(g84
g70
NtRp1358
(dp1359
g73
(dp1360
sg82
g1329
sg75
(lp1361
g68
(g89
g70
NtRp1362
(dp1363
g73
(dp1364
sg82
g1358
sg75
(lp1365
g68
(g69
g70
NtRp1366
(dp1367
g73
(dp1368
g81
I3
ssg82
g1362
sg75
(lp1369
S'4'
asbasbasbag68
(g84
g70
NtRp1370
(dp1371
g73
(dp1372
sg82
g1329
sg75
(lp1373
g68
(g89
g70
NtRp1374
(dp1375
g73
(dp1376
sg82
g1370
sg75
(lp1377
g68
(g69
g70
NtRp1378
(dp1379
g73
(dp1380
g81
I3
ssg82
g1374
sg75
(lp1381
S'datetime.datetime(2011, 12, 14, 14, 46, 14)'
p1382
asbasbasbag68
(g84
g70
NtRp1383
(dp1384
g73
(dp1385
sg82
g1329
sg75
(lp1386
g68
(g89
g70
NtRp1387
(dp1388
g73
(dp1389
sg82
g1383
sg75
(lp1390
g68
(g69
g70
NtRp1391
(dp1392
g73
(dp1393
g81
I3
ssg82
g1387
sg75
(lp1394
S'stable'
p1395
asbasbasbasbasbasbasbag68
(g84
g70
NtRp1396
(dp1397
g73
(dp1398
sg82
g648
sg75
(lp1399
g68
(g89
g70
NtRp1400
(dp1401
g73
(dp1402
g93
g94
ssg82
g1396
sg75
(lp1403
S'wsgi_errors'
p1404
asbag68
(g89
g70
NtRp1405
(dp1406
g73
(dp1407
g100
g101
ssg82
g1396
sg75
(lp1408
S':'
asbag68
(g89
g70
NtRp1409
(dp1410
g73
(dp1411
sg82
g1396
sg75
(lp1412
g68
(g69
g70
NtRp1413
(dp1414
g73
(dp1415
g81
I4
ssg82
g1409
sg75
(lp1416
S"<open file '<stderr>', mode 'w' at 0x012050D0>"
p1417
asbasbasbag68
(g84
g70
NtRp1418
(dp1419
g73
(dp1420
sg82
g648
sg75
(lp1421
g68
(g89
g70
NtRp1422
(dp1423
g73
(dp1424
g93
g94
ssg82
g1418
sg75
(lp1425
S'wsgi_file_wrapper'
p1426
asbag68
(g89
g70
NtRp1427
(dp1428
g73
(dp1429
g100
g101
ssg82
g1418
sg75
(lp1430
S':'
asbag68
(g89
g70
NtRp1431
(dp1432
g73
(dp1433
sg82
g1418
sg75
(lp1434
g68
(g69
g70
NtRp1435
(dp1436
g73
(dp1437
g81
I4
ssg82
g1431
sg75
(lp1438
S'<class wsgiref.util.FileWrapper at 0x02843D88>'
p1439
asbasbasbag68
(g84
g70
NtRp1440
(dp1441
g73
(dp1442
sg82
g648
sg75
(lp1443
g68
(g89
g70
NtRp1444
(dp1445
g73
(dp1446
g93
g94
ssg82
g1440
sg75
(lp1447
S'wsgi_input'
p1448
asbag68
(g89
g70
NtRp1449
(dp1450
g73
(dp1451
g100
g101
ssg82
g1440
sg75
(lp1452
S':'
asbag68
(g89
g70
NtRp1453
(dp1454
g73
(dp1455
sg82
g1440
sg75
(lp1456
g68
(g69
g70
NtRp1457
(dp1458
g73
(dp1459
g81
I4
ssg82
g1453
sg75
(lp1460
S'<socket._fileobject object at 0x02F61B70>'
p1461
asbasbasbag68
(g84
g70
NtRp1462
(dp1463
g73
(dp1464
sg82
g648
sg75
(lp1465
g68
(g89
g70
NtRp1466
(dp1467
g73
(dp1468
g93
g94
ssg82
g1462
sg75
(lp1469
S'wsgi_multiprocess'
p1470
asbag68
(g89
g70
NtRp1471
(dp1472
g73
(dp1473
g100
g101
ssg82
g1462
sg75
(lp1474
S':'
asbag68
(g89
g70
NtRp1475
(dp1476
g73
(dp1477
sg82
g1462
sg75
(lp1478
g68
(g69
g70
NtRp1479
(dp1480
g73
(dp1481
g81
I4
ssg82
g1475
sg75
(lp1482
g111
asbasbasbag68
(g84
g70
NtRp1483
(dp1484
g73
(dp1485
sg82
g648
sg75
(lp1486
g68
(g89
g70
NtRp1487
(dp1488
g73
(dp1489
g93
g94
ssg82
g1483
sg75
(lp1490
S'wsgi_multithread'
p1491
asbag68
(g89
g70
NtRp1492
(dp1493
g73
(dp1494
g100
g101
ssg82
g1483
sg75
(lp1495
S':'
asbag68
(g89
g70
NtRp1496
(dp1497
g73
(dp1498
sg82
g1483
sg75
(lp1499
g68
(g69
g70
NtRp1500
(dp1501
g73
(dp1502
g81
I4
ssg82
g1496
sg75
(lp1503
S'True'
p1504
asbasbasbag68
(g84
g70
NtRp1505
(dp1506
g73
(dp1507
sg82
g648
sg75
(lp1508
g68
(g89
g70
NtRp1509
(dp1510
g73
(dp1511
g93
g94
ssg82
g1505
sg75
(lp1512
S'wsgi_run_once'
p1513
asbag68
(g89
g70
NtRp1514
(dp1515
g73
(dp1516
g100
g101
ssg82
g1505
sg75
(lp1517
S':'
asbag68
(g89
g70
NtRp1518
(dp1519
g73
(dp1520
sg82
g1505
sg75
(lp1521
g68
(g69
g70
NtRp1522
(dp1523
g73
(dp1524
g81
I4
ssg82
g1518
sg75
(lp1525
g111
asbasbasbag68
(g84
g70
NtRp1526
(dp1527
g73
(dp1528
sg82
g648
sg75
(lp1529
g68
(g89
g70
NtRp1530
(dp1531
g73
(dp1532
g93
g94
ssg82
g1526
sg75
(lp1533
S'wsgi_url_scheme'
p1534
asbag68
(g89
g70
NtRp1535
(dp1536
g73
(dp1537
g100
g101
ssg82
g1526
sg75
(lp1538
S':'
asbag68
(g89
g70
NtRp1539
(dp1540
g73
(dp1541
sg82
g1526
sg75
(lp1542
g68
(g69
g70
NtRp1543
(dp1544
g73
(dp1545
g81
I4
ssg82
g1539
sg75
(lp1546
S'http'
p1547
asbasbasbag68
(g84
g70
NtRp1548
(dp1549
g73
(dp1550
sg82
g648
sg75
(lp1551
g68
(g89
g70
NtRp1552
(dp1553
g73
(dp1554
g93
g94
ssg82
g1548
sg75
(lp1555
S'wsgi_version'
p1556
asbag68
(g89
g70
NtRp1557
(dp1558
g73
(dp1559
g100
g101
ssg82
g1548
sg75
(lp1560
S':'
asbag68
(g89
g70
NtRp1561
(dp1562
g73
(dp1563
sg82
g1548
sg75
(lp1564
g68
(g69
g70
NtRp1565
(dp1566
g73
(dp1567
g81
I4
ssg82
g1561
sg75
(lp1568
g68
(g77
g70
NtRp1569
(dp1570
g73
(dp1571
g81
I3
ssg82
Nsg75
(lp1572
g68
(g84
g70
NtRp1573
(dp1574
g73
(dp1575
sg82
g1569
sg75
(lp1576
g68
(g89
g70
NtRp1577
(dp1578
g73
(dp1579
sg82
g1573
sg75
(lp1580
g68
(g69
g70
NtRp1581
(dp1582
g73
(dp1583
g81
I3
ssg82
g1577
sg75
(lp1584
S'1'
asbasbasbag68
(g84
g70
NtRp1585
(dp1586
g73
(dp1587
sg82
g1569
sg75
(lp1588
g68
(g89
g70
NtRp1589
(dp1590
g73
(dp1591
sg82
g1585
sg75
(lp1592
g68
(g69
g70
NtRp1593
(dp1594
g73
(dp1595
g81
I3
ssg82
g1589
sg75
(lp1596
S'0'
asbasbasbasbasbasbasbasbasbasbasbag68
(g84
g70
NtRp1597
(dp1598
g73
(dp1599
sg82
g78
sg75
(lp1600
g68
(g89
g70
NtRp1601
(dp1602
g73
(dp1603
g93
g94
ssg82
g1597
sg75
(lp1604
S'extension'
p1605
asbag68
(g89
g70
NtRp1606
(dp1607
g73
(dp1608
g100
g101
ssg82
g1597
sg75
(lp1609
S':'
asbag68
(g89
g70
NtRp1610
(dp1611
g73
(dp1612
sg82
g1597
sg75
(lp1613
g68
(g69
g70
NtRp1614
(dp1615
g73
(dp1616
g81
I5
ssg82
g1610
sg75
(lp1617
S'html'
p1618
asbasbasbag68
(g84
g70
NtRp1619
(dp1620
g73
(dp1621
sg82
g78
sg75
(lp1622
g68
(g89
g70
NtRp1623
(dp1624
g73
(dp1625
g93
g94
ssg82
g1619
sg75
(lp1626
S'folder'
p1627
asbag68
(g89
g70
NtRp1628
(dp1629
g73
(dp1630
g100
g101
ssg82
g1619
sg75
(lp1631
S':'
asbag68
(g89
g70
NtRp1632
(dp1633
g73
(dp1634
sg82
g1619
sg75
(lp1635
g68
(g69
g70
NtRp1636
(dp1637
g73
(dp1638
g81
I5
ssg82
g1632
sg75
(lp1639
S'C:\\Users\\liangh\\Desktop\\web2py\\applications\\welcome\\'
p1640
asbasbasbag68
(g84
g70
NtRp1641
(dp1642
g73
(dp1643
sg82
g78
sg75
(lp1644
g68
(g89
g70
NtRp1645
(dp1646
g73
(dp1647
g93
g94
ssg82
g1641
sg75
(lp1648
S'function'
p1649
asbag68
(g89
g70
NtRp1650
(dp1651
g73
(dp1652
g100
g101
ssg82
g1641
sg75
(lp1653
S':'
asbag68
(g89
g70
NtRp1654
(dp1655
g73
(dp1656
sg82
g1641
sg75
(lp1657
g68
(g69
g70
NtRp1658
(dp1659
g73
(dp1660
g81
I5
ssg82
g1654
sg75
(lp1661
S'index'
p1662
asbasbasbag68
(g84
g70
NtRp1663
(dp1664
g73
(dp1665
sg82
g78
sg75
(lp1666
g68
(g89
g70
NtRp1667
(dp1668
g73
(dp1669
g93
g94
ssg82
g1663
sg75
(lp1670
S'get_vars'
p1671
asbag68
(g89
g70
NtRp1672
(dp1673
g73
(dp1674
g100
g101
ssg82
g1663
sg75
(lp1675
S':'
asbag68
(g89
g70
NtRp1676
(dp1677
g73
(dp1678
sg82
g1663
sg75
(lp1679
g68
(g69
g70
NtRp1680
(dp1681
g73
(dp1682
g81
I5
ssg82
g1676
sg75
(lp1683
g68
(g77
g70
NtRp1684
(dp1685
g73
(dp1686
g81
I4
ssg82
Nsg75
(lp1687
sbasbasbasbag68
(g84
g70
NtRp1688
(dp1689
g73
(dp1690
sg82
g78
sg75
(lp1691
g68
(g89
g70
NtRp1692
(dp1693
g73
(dp1694
g93
g94
ssg82
g1688
sg75
(lp1695
S'global_settings'
p1696
asbag68
(g89
g70
NtRp1697
(dp1698
g73
(dp1699
g100
g101
ssg82
g1688
sg75
(lp1700
S':'
asbag68
(g89
g70
NtRp1701
(dp1702
g73
(dp1703
sg82
g1688
sg75
(lp1704
g68
(g69
g70
NtRp1705
(dp1706
g73
(dp1707
g81
I5
ssg82
g1701
sg75
(lp1708
g68
(g77
g70
NtRp1709
(dp1710
g73
(dp1711
g81
I4
ssg82
Nsg75
(lp1712
g68
(g84
g70
NtRp1713
(dp1714
g73
(dp1715
sg82
g1709
sg75
(lp1716
g68
(g89
g70
NtRp1717
(dp1718
g73
(dp1719
g93
g94
ssg82
g1713
sg75
(lp1720
g660
asbag68
(g89
g70
NtRp1721
(dp1722
g73
(dp1723
g100
g101
ssg82
g1713
sg75
(lp1724
S':'
asbag68
(g89
g70
NtRp1725
(dp1726
g73
(dp1727
sg82
g1713
sg75
(lp1728
g68
(g69
g70
NtRp1729
(dp1730
g73
(dp1731
g81
I4
ssg82
g1725
sg75
(lp1732
S"set(['C:\\\\Users\\\\liangh\\\\Desktop\\\\web2py\\\\applications\\\\sc2tourneytracker\\\\', 'C:\\\\Users\\\\liangh\\\\Desktop\\\\web2py\\\\applications\\\\examples\\\\', 'C:\\\\Users\\\\liangh\\\\Desktop\\\\web2py\\\\applications\\\\Sc2tourneytracker\\\\', 'C:\\\\Users\\\\liangh\\\\Desktop\\\\web2py\\\\applications\\\\welcome\\\\', 'C:\\\\Users\\\\liangh\\\\Desktop\\\\web2py\\\\applications\\\\admin\\\\', 'C:\\\\Users\\\\liangh\\\\Desktop\\\\web2py\\\\applications\\\\SC2TourneyTracker\\\\'])"
p1733
asbasbasbag68
(g84
g70
NtRp1734
(dp1735
g73
(dp1736
sg82
g1709
sg75
(lp1737
g68
(g89
g70
NtRp1738
(dp1739
g73
(dp1740
g93
g94
ssg82
g1734
sg75
(lp1741
g682
asbag68
(g89
g70
NtRp1742
(dp1743
g73
(dp1744
g100
g101
ssg82
g1734
sg75
(lp1745
S':'
asbag68
(g89
g70
NtRp1746
(dp1747
g73
(dp1748
sg82
g1734
sg75
(lp1749
g68
(g69
g70
NtRp1750
(dp1751
g73
(dp1752
g81
I4
ssg82
g1746
sg75
(lp1753
g695
asbasbasbag68
(g84
g70
NtRp1754
(dp1755
g73
(dp1756
sg82
g1709
sg75
(lp1757
g68
(g89
g70
NtRp1758
(dp1759
g73
(dp1760
g93
g94
ssg82
g1754
sg75
(lp1761
g704
asbag68
(g89
g70
NtRp1762
(dp1763
g73
(dp1764
g100
g101
ssg82
g1754
sg75
(lp1765
S':'
asbag68
(g89
g70
NtRp1766
(dp1767
g73
(dp1768
sg82
g1754
sg75
(lp1769
g68
(g69
g70
NtRp1770
(dp1771
g73
(dp1772
g81
I4
ssg82
g1766
sg75
(lp1773
g68
(g77
g70
NtRp1774
(dp1775
g73
(dp1776
g81
I3
ssg82
Nsg75
(lp1777
sbasbasbasbag68
(g84
g70
NtRp1778
(dp1779
g73
(dp1780
sg82
g1709
sg75
(lp1781
g68
(g89
g70
NtRp1782
(dp1783
g73
(dp1784
g93
g94
ssg82
g1778
sg75
(lp1785
g729
asbag68
(g89
g70
NtRp1786
(dp1787
g73
(dp1788
g100
g101
ssg82
g1778
sg75
(lp1789
S':'
asbag68
(g89
g70
NtRp1790
(dp1791
g73
(dp1792
sg82
g1778
sg75
(lp1793
g68
(g69
g70
NtRp1794
(dp1795
g73
(dp1796
g81
I4
ssg82
g1790
sg75
(lp1797
S"<Values at 0x29122d8: {'verbose': False, 'ip': '127.0.0.1', 'shutdown_timeout': 5, 'taskbar': False, 'nocron': False, 'pid_filename': 'httpserver.pid', 'maxthreads': None, 'softcron': False, 'server_name': 'LIANGH-1', 'bpython': False, 'nogui': False, 'port': 8000, 'extcron': False, 'debuglevel': 30, 'test': None, 'folder': 'C:\\\\Users\\\\liangh\\\\Desktop\\\\web2py', 'config': '', 'import_models': False, 'winservice': '', 'shell': None, 'run': '', 'log_filename': 'httpserver.log', 'args': [''], 'socket_timeout': 1, 'ssl_ca_certificate': None, 'scheduler': None, 'profiler_filename': None, 'ssl_private_key': '', 'password': '<ask>', 'request_queue_size': 5, 'ssl_certificate': '', 'cronjob': False, 'numthreads': None, 'quiet': False, 'interfaces': None, 'minthreads': None, 'timeout': 10, 'plain': False, 'nobanner': False}>"
p1798
asbasbasbag68
(g84
g70
NtRp1799
(dp1800
g73
(dp1801
sg82
g1709
sg75
(lp1802
g68
(g89
g70
NtRp1803
(dp1804
g73
(dp1805
g93
g94
ssg82
g1799
sg75
(lp1806
g751
asbag68
(g89
g70
NtRp1807
(dp1808
g73
(dp1809
g100
g101
ssg82
g1799
sg75
(lp1810
S':'
asbag68
(g89
g70
NtRp1811
(dp1812
g73
(dp1813
sg82
g1799
sg75
(lp1814
g68
(g69
g70
NtRp1815
(dp1816
g73
(dp1817
g81
I4
ssg82
g1811
sg75
(lp1818
S'set([])'
p1819
asbasbasbag68
(g84
g70
NtRp1820
(dp1821
g73
(dp1822
sg82
g1709
sg75
(lp1823
g68
(g89
g70
NtRp1824
(dp1825
g73
(dp1826
g93
g94
ssg82
g1820
sg75
(lp1827
g773
asbag68
(g89
g70
NtRp1828
(dp1829
g73
(dp1830
g100
g101
ssg82
g1820
sg75
(lp1831
S':'
asbag68
(g89
g70
NtRp1832
(dp1833
g73
(dp1834
sg82
g1820
sg75
(lp1835
g68
(g69
g70
NtRp1836
(dp1837
g73
(dp1838
g81
I4
ssg82
g1832
sg75
(lp1839
g111
asbasbasbag68
(g84
g70
NtRp1840
(dp1841
g73
(dp1842
sg82
g1709
sg75
(lp1843
g68
(g89
g70
NtRp1844
(dp1845
g73
(dp1846
g93
g94
ssg82
g1840
sg75
(lp1847
g794
asbag68
(g89
g70
NtRp1848
(dp1849
g73
(dp1850
g100
g101
ssg82
g1840
sg75
(lp1851
S':'
asbag68
(g89
g70
NtRp1852
(dp1853
g73
(dp1854
sg82
g1840
sg75
(lp1855
g68
(g69
g70
NtRp1856
(dp1857
g73
(dp1858
g81
I4
ssg82
g1852
sg75
(lp1859
g807
asbasbasbag68
(g84
g70
NtRp1860
(dp1861
g73
(dp1862
sg82
g1709
sg75
(lp1863
g68
(g89
g70
NtRp1864
(dp1865
g73
(dp1866
g93
g94
ssg82
g1860
sg75
(lp1867
g1014
asbag68
(g89
g70
NtRp1868
(dp1869
g73
(dp1870
g100
g101
ssg82
g1860
sg75
(lp1871
S':'
asbag68
(g89
g70
NtRp1872
(dp1873
g73
(dp1874
sg82
g1860
sg75
(lp1875
g68
(g69
g70
NtRp1876
(dp1877
g73
(dp1878
g81
I4
ssg82
g1872
sg75
(lp1879
g111
asbasbasbag68
(g84
g70
NtRp1880
(dp1881
g73
(dp1882
sg82
g1709
sg75
(lp1883
g68
(g89
g70
NtRp1884
(dp1885
g73
(dp1886
g93
g94
ssg82
g1880
sg75
(lp1887
g1035
asbag68
(g89
g70
NtRp1888
(dp1889
g73
(dp1890
g100
g101
ssg82
g1880
sg75
(lp1891
S':'
asbag68
(g89
g70
NtRp1892
(dp1893
g73
(dp1894
sg82
g1880
sg75
(lp1895
g68
(g69
g70
NtRp1896
(dp1897
g73
(dp1898
g81
I4
ssg82
g1892
sg75
(lp1899
g111
asbasbasbag68
(g84
g70
NtRp1900
(dp1901
g73
(dp1902
sg82
g1709
sg75
(lp1903
g68
(g89
g70
NtRp1904
(dp1905
g73
(dp1906
g93
g94
ssg82
g1900
sg75
(lp1907
g1273
asbag68
(g89
g70
NtRp1908
(dp1909
g73
(dp1910
g100
g101
ssg82
g1900
sg75
(lp1911
S':'
asbag68
(g89
g70
NtRp1912
(dp1913
g73
(dp1914
sg82
g1900
sg75
(lp1915
g68
(g69
g70
NtRp1916
(dp1917
g73
(dp1918
g81
I4
ssg82
g1912
sg75
(lp1919
g1286
asbasbasbag68
(g84
g70
NtRp1920
(dp1921
g73
(dp1922
sg82
g1709
sg75
(lp1923
g68
(g89
g70
NtRp1924
(dp1925
g73
(dp1926
g93
g94
ssg82
g1920
sg75
(lp1927
g1316
asbag68
(g89
g70
NtRp1928
(dp1929
g73
(dp1930
g100
g101
ssg82
g1920
sg75
(lp1931
S':'
asbag68
(g89
g70
NtRp1932
(dp1933
g73
(dp1934
sg82
g1920
sg75
(lp1935
g68
(g69
g70
NtRp1936
(dp1937
g73
(dp1938
g81
I4
ssg82
g1932
sg75
(lp1939
g68
(g77
g70
NtRp1940
(dp1941
g73
(dp1942
g81
I3
ssg82
Nsg75
(lp1943
g68
(g84
g70
NtRp1944
(dp1945
g73
(dp1946
sg82
g1940
sg75
(lp1947
g68
(g89
g70
NtRp1948
(dp1949
g73
(dp1950
sg82
g1944
sg75
(lp1951
g68
(g69
g70
NtRp1952
(dp1953
g73
(dp1954
g81
I3
ssg82
g1948
sg75
(lp1955
S'1'
asbasbasbag68
(g84
g70
NtRp1956
(dp1957
g73
(dp1958
sg82
g1940
sg75
(lp1959
g68
(g89
g70
NtRp1960
(dp1961
g73
(dp1962
sg82
g1956
sg75
(lp1963
g68
(g69
g70
NtRp1964
(dp1965
g73
(dp1966
g81
I3
ssg82
g1960
sg75
(lp1967
S'99'
p1968
asbasbasbag68
(g84
g70
NtRp1969
(dp1970
g73
(dp1971
sg82
g1940
sg75
(lp1972
g68
(g89
g70
NtRp1973
(dp1974
g73
(dp1975
sg82
g1969
sg75
(lp1976
g68
(g69
g70
NtRp1977
(dp1978
g73
(dp1979
g81
I3
ssg82
g1973
sg75
(lp1980
S'4'
asbasbasbag68
(g84
g70
NtRp1981
(dp1982
g73
(dp1983
sg82
g1940
sg75
(lp1984
g68
(g89
g70
NtRp1985
(dp1986
g73
(dp1987
sg82
g1981
sg75
(lp1988
g68
(g69
g70
NtRp1989
(dp1990
g73
(dp1991
g81
I3
ssg82
g1985
sg75
(lp1992
S'datetime.datetime(2011, 12, 14, 14, 46, 14)'
p1993
asbasbasbag68
(g84
g70
NtRp1994
(dp1995
g73
(dp1996
sg82
g1940
sg75
(lp1997
g68
(g89
g70
NtRp1998
(dp1999
g73
(dp2000
sg82
g1994
sg75
(lp2001
g68
(g69
g70
NtRp2002
(dp2003
g73
(dp2004
g81
I3
ssg82
g1998
sg75
(lp2005
g1395
asbasbasbasbasbasbasbasbasbasbasbag68
(g84
g70
NtRp2006
(dp2007
g73
(dp2008
sg82
g78
sg75
(lp2009
g68
(g89
g70
NtRp2010
(dp2011
g73
(dp2012
g93
g94
ssg82
g2006
sg75
(lp2013
S'is_https'
p2014
asbag68
(g89
g70
NtRp2015
(dp2016
g73
(dp2017
g100
g101
ssg82
g2006
sg75
(lp2018
S':'
asbag68
(g89
g70
NtRp2019
(dp2020
g73
(dp2021
sg82
g2006
sg75
(lp2022
g68
(g69
g70
NtRp2023
(dp2024
g73
(dp2025
g81
I5
ssg82
g2019
sg75
(lp2026
g111
asbasbasbag68
(g84
g70
NtRp2027
(dp2028
g73
(dp2029
sg82
g78
sg75
(lp2030
g68
(g89
g70
NtRp2031
(dp2032
g73
(dp2033
g93
g94
ssg82
g2027
sg75
(lp2034
S'is_local'
p2035
asbag68
(g89
g70
NtRp2036
(dp2037
g73
(dp2038
g100
g101
ssg82
g2027
sg75
(lp2039
S':'
asbag68
(g89
g70
NtRp2040
(dp2041
g73
(dp2042
sg82
g2027
sg75
(lp2043
g68
(g69
g70
NtRp2044
(dp2045
g73
(dp2046
g81
I5
ssg82
g2040
sg75
(lp2047
g1504
asbasbasbag68
(g84
g70
NtRp2048
(dp2049
g73
(dp2050
sg82
g78
sg75
(lp2051
g68
(g89
g70
NtRp2052
(dp2053
g73
(dp2054
g93
g94
ssg82
g2048
sg75
(lp2055
S'is_restful'
p2056
asbag68
(g89
g70
NtRp2057
(dp2058
g73
(dp2059
g100
g101
ssg82
g2048
sg75
(lp2060
S':'
asbag68
(g89
g70
NtRp2061
(dp2062
g73
(dp2063
sg82
g2048
sg75
(lp2064
g68
(g69
g70
NtRp2065
(dp2066
g73
(dp2067
g81
I5
ssg82
g2061
sg75
(lp2068
g111
asbasbasbag68
(g84
g70
NtRp2069
(dp2070
g73
(dp2071
sg82
g78
sg75
(lp2072
g68
(g89
g70
NtRp2073
(dp2074
g73
(dp2075
g93
g94
ssg82
g2069
sg75
(lp2076
S'now'
p2077
asbag68
(g89
g70
NtRp2078
(dp2079
g73
(dp2080
g100
g101
ssg82
g2069
sg75
(lp2081
S':'
asbag68
(g89
g70
NtRp2082
(dp2083
g73
(dp2084
sg82
g2069
sg75
(lp2085
g68
(g69
g70
NtRp2086
(dp2087
g73
(dp2088
g81
I5
ssg82
g2082
sg75
(lp2089
S'datetime.datetime(2012, 1, 25, 21, 7, 42, 328000)'
p2090
asbasbasbag68
(g84
g70
NtRp2091
(dp2092
g73
(dp2093
sg82
g78
sg75
(lp2094
g68
(g89
g70
NtRp2095
(dp2096
g73
(dp2097
g93
g94
ssg82
g2091
sg75
(lp2098
S'post_vars'
p2099
asbag68
(g89
g70
NtRp2100
(dp2101
g73
(dp2102
g100
g101
ssg82
g2091
sg75
(lp2103
S':'
asbag68
(g89
g70
NtRp2104
(dp2105
g73
(dp2106
sg82
g2091
sg75
(lp2107
g68
(g69
g70
NtRp2108
(dp2109
g73
(dp2110
g81
I5
ssg82
g2104
sg75
(lp2111
g68
(g77
g70
NtRp2112
(dp2113
g73
(dp2114
g81
I4
ssg82
Nsg75
(lp2115
sbasbasbasbag68
(g84
g70
NtRp2116
(dp2117
g73
(dp2118
sg82
g78
sg75
(lp2119
g68
(g89
g70
NtRp2120
(dp2121
g73
(dp2122
g93
g94
ssg82
g2116
sg75
(lp2123
S'url'
p2124
asbag68
(g89
g70
NtRp2125
(dp2126
g73
(dp2127
g100
g101
ssg82
g2116
sg75
(lp2128
S':'
asbag68
(g89
g70
NtRp2129
(dp2130
g73
(dp2131
sg82
g2116
sg75
(lp2132
g68
(g69
g70
NtRp2133
(dp2134
g73
(dp2135
g81
I5
ssg82
g2129
sg75
(lp2136
S'/welcome/league/index'
p2137
asbasbasbag68
(g84
g70
NtRp2138
(dp2139
g73
(dp2140
sg82
g78
sg75
(lp2141
g68
(g89
g70
NtRp2142
(dp2143
g73
(dp2144
g93
g94
ssg82
g2138
sg75
(lp2145
S'utcnow'
p2146
asbag68
(g89
g70
NtRp2147
(dp2148
g73
(dp2149
g100
g101
ssg82
g2138
sg75
(lp2150
S':'
asbag68
(g89
g70
NtRp2151
(dp2152
g73
(dp2153
sg82
g2138
sg75
(lp2154
g68
(g69
g70
NtRp2155
(dp2156
g73
(dp2157
g81
I5
ssg82
g2151
sg75
(lp2158
S'datetime.datetime(2012, 1, 26, 2, 7, 42, 329000)'
p2159
asbasbasbag68
(g84
g70
NtRp2160
(dp2161
g73
(dp2162
sg82
g78
sg75
(lp2163
g68
(g89
g70
NtRp2164
(dp2165
g73
(dp2166
g93
g94
ssg82
g2160
sg75
(lp2167
S'uuid'
p2168
asbag68
(g89
g70
NtRp2169
(dp2170
g73
(dp2171
g100
g101
ssg82
g2160
sg75
(lp2172
S':'
asbag68
(g89
g70
NtRp2173
(dp2174
g73
(dp2175
sg82
g2160
sg75
(lp2176
g68
(g69
g70
NtRp2177
(dp2178
g73
(dp2179
g81
I5
ssg82
g2173
sg75
(lp2180
S'welcome/137.112.117.19.2012-01-25.21-07-42.66668de4-859e-4c85-ac46-587af92adde1'
p2181
asbasbasbag68
(g84
g70
NtRp2182
(dp2183
g73
(dp2184
sg82
g78
sg75
(lp2185
g68
(g89
g70
NtRp2186
(dp2187
g73
(dp2188
g93
g94
ssg82
g2182
sg75
(lp2189
S'vars'
p2190
asbag68
(g89
g70
NtRp2191
(dp2192
g73
(dp2193
g100
g101
ssg82
g2182
sg75
(lp2194
S':'
asbag68
(g89
g70
NtRp2195
(dp2196
g73
(dp2197
sg82
g2182
sg75
(lp2198
g68
(g69
g70
NtRp2199
(dp2200
g73
(dp2201
g81
I5
ssg82
g2195
sg75
(lp2202
g68
(g77
g70
NtRp2203
(dp2204
g73
(dp2205
g81
I4
ssg82
Nsg75
(lp2206
sbasbasbasbag68
(g84
g70
NtRp2207
(dp2208
g73
(dp2209
sg82
g78
sg75
(lp2210
g68
(g89
g70
NtRp2211
(dp2212
g73
(dp2213
g93
g94
ssg82
g2207
sg75
(lp2214
S'wsgi'
p2215
asbag68
(g89
g70
NtRp2216
(dp2217
g73
(dp2218
g100
g101
ssg82
g2207
sg75
(lp2219
S':'
asbag68
(g89
g70
NtRp2220
(dp2221
g73
(dp2222
sg82
g2207
sg75
(lp2223
g68
(g69
g70
NtRp2224
(dp2225
g73
(dp2226
g81
I5
ssg82
g2220
sg75
(lp2227
g68
(g77
g70
NtRp2228
(dp2229
g73
(dp2230
g81
I4
ssg82
Nsg75
(lp2231
g68
(g84
g70
NtRp2232
(dp2233
g73
(dp2234
sg82
g2228
sg75
(lp2235
g68
(g89
g70
NtRp2236
(dp2237
g73
(dp2238
g93
g94
ssg82
g2232
sg75
(lp2239
S'environ'
p2240
asbag68
(g89
g70
NtRp2241
(dp2242
g73
(dp2243
g100
g101
ssg82
g2232
sg75
(lp2244
S':'
asbag68
(g89
g70
NtRp2245
(dp2246
g73
(dp2247
sg82
g2232
sg75
(lp2248
g68
(g69
g70
NtRp2249
(dp2250
g73
(dp2251
g81
I4
ssg82
g2245
sg75
(lp2252
g68
(g77
g70
NtRp2253
(dp2254
g73
(dp2255
g81
I3
ssg82
Nsg75
(lp2256
g68
(g84
g70
NtRp2257
(dp2258
g73
(dp2259
sg82
g2253
sg75
(lp2260
g68
(g89
g70
NtRp2261
(dp2262
g73
(dp2263
g93
g94
ssg82
g2257
sg75
(lp2264
S'HTTP_ACCEPT'
p2265
asbag68
(g89
g70
NtRp2266
(dp2267
g73
(dp2268
g100
g101
ssg82
g2257
sg75
(lp2269
S':'
asbag68
(g89
g70
NtRp2270
(dp2271
g73
(dp2272
sg82
g2257
sg75
(lp2273
g68
(g69
g70
NtRp2274
(dp2275
g73
(dp2276
g81
I3
ssg82
g2270
sg75
(lp2277
g829
asbasbasbag68
(g84
g70
NtRp2278
(dp2279
g73
(dp2280
sg82
g2253
sg75
(lp2281
g68
(g89
g70
NtRp2282
(dp2283
g73
(dp2284
g93
g94
ssg82
g2278
sg75
(lp2285
S'HTTP_ACCEPT_CHARSET'
p2286
asbag68
(g89
g70
NtRp2287
(dp2288
g73
(dp2289
g100
g101
ssg82
g2278
sg75
(lp2290
S':'
asbag68
(g89
g70
NtRp2291
(dp2292
g73
(dp2293
sg82
g2278
sg75
(lp2294
g68
(g69
g70
NtRp2295
(dp2296
g73
(dp2297
g81
I3
ssg82
g2291
sg75
(lp2298
g851
asbasbasbag68
(g84
g70
NtRp2299
(dp2300
g73
(dp2301
sg82
g2253
sg75
(lp2302
g68
(g89
g70
NtRp2303
(dp2304
g73
(dp2305
g93
g94
ssg82
g2299
sg75
(lp2306
S'HTTP_ACCEPT_ENCODING'
p2307
asbag68
(g89
g70
NtRp2308
(dp2309
g73
(dp2310
g100
g101
ssg82
g2299
sg75
(lp2311
S':'
asbag68
(g89
g70
NtRp2312
(dp2313
g73
(dp2314
sg82
g2299
sg75
(lp2315
g68
(g69
g70
NtRp2316
(dp2317
g73
(dp2318
g81
I3
ssg82
g2312
sg75
(lp2319
g873
asbasbasbag68
(g84
g70
NtRp2320
(dp2321
g73
(dp2322
sg82
g2253
sg75
(lp2323
g68
(g89
g70
NtRp2324
(dp2325
g73
(dp2326
g93
g94
ssg82
g2320
sg75
(lp2327
S'HTTP_ACCEPT_LANGUAGE'
p2328
asbag68
(g89
g70
NtRp2329
(dp2330
g73
(dp2331
g100
g101
ssg82
g2320
sg75
(lp2332
S':'
asbag68
(g89
g70
NtRp2333
(dp2334
g73
(dp2335
sg82
g2320
sg75
(lp2336
g68
(g69
g70
NtRp2337
(dp2338
g73
(dp2339
g81
I3
ssg82
g2333
sg75
(lp2340
g895
asbasbasbag68
(g84
g70
NtRp2341
(dp2342
g73
(dp2343
sg82
g2253
sg75
(lp2344
g68
(g89
g70
NtRp2345
(dp2346
g73
(dp2347
g93
g94
ssg82
g2341
sg75
(lp2348
S'HTTP_CONNECTION'
p2349
asbag68
(g89
g70
NtRp2350
(dp2351
g73
(dp2352
g100
g101
ssg82
g2341
sg75
(lp2353
S':'
asbag68
(g89
g70
NtRp2354
(dp2355
g73
(dp2356
sg82
g2341
sg75
(lp2357
g68
(g69
g70
NtRp2358
(dp2359
g73
(dp2360
g81
I3
ssg82
g2354
sg75
(lp2361
g917
asbasbasbag68
(g84
g70
NtRp2362
(dp2363
g73
(dp2364
sg82
g2253
sg75
(lp2365
g68
(g89
g70
NtRp2366
(dp2367
g73
(dp2368
g93
g94
ssg82
g2362
sg75
(lp2369
S'HTTP_COOKIE'
p2370
asbag68
(g89
g70
NtRp2371
(dp2372
g73
(dp2373
g100
g101
ssg82
g2362
sg75
(lp2374
S':'
asbag68
(g89
g70
NtRp2375
(dp2376
g73
(dp2377
sg82
g2362
sg75
(lp2378
g68
(g69
g70
NtRp2379
(dp2380
g73
(dp2381
g81
I3
ssg82
g2375
sg75
(lp2382
g939
asbasbasbag68
(g84
g70
NtRp2383
(dp2384
g73
(dp2385
sg82
g2253
sg75
(lp2386
g68
(g89
g70
NtRp2387
(dp2388
g73
(dp2389
g93
g94
ssg82
g2383
sg75
(lp2390
S'HTTP_HOST'
p2391
asbag68
(g89
g70
NtRp2392
(dp2393
g73
(dp2394
g100
g101
ssg82
g2383
sg75
(lp2395
S':'
asbag68
(g89
g70
NtRp2396
(dp2397
g73
(dp2398
sg82
g2383
sg75
(lp2399
g68
(g69
g70
NtRp2400
(dp2401
g73
(dp2402
g81
I3
ssg82
g2396
sg75
(lp2403
g961
asbasbasbag68
(g84
g70
NtRp2404
(dp2405
g73
(dp2406
sg82
g2253
sg75
(lp2407
g68
(g89
g70
NtRp2408
(dp2409
g73
(dp2410
g93
g94
ssg82
g2404
sg75
(lp2411
S'HTTP_REFERER'
p2412
asbag68
(g89
g70
NtRp2413
(dp2414
g73
(dp2415
g100
g101
ssg82
g2404
sg75
(lp2416
S':'
asbag68
(g89
g70
NtRp2417
(dp2418
g73
(dp2419
sg82
g2404
sg75
(lp2420
g68
(g69
g70
NtRp2421
(dp2422
g73
(dp2423
g81
I3
ssg82
g2417
sg75
(lp2424
g983
asbasbasbag68
(g84
g70
NtRp2425
(dp2426
g73
(dp2427
sg82
g2253
sg75
(lp2428
g68
(g89
g70
NtRp2429
(dp2430
g73
(dp2431
g93
g94
ssg82
g2425
sg75
(lp2432
S'HTTP_USER_AGENT'
p2433
asbag68
(g89
g70
NtRp2434
(dp2435
g73
(dp2436
g100
g101
ssg82
g2425
sg75
(lp2437
S':'
asbag68
(g89
g70
NtRp2438
(dp2439
g73
(dp2440
sg82
g2425
sg75
(lp2441
g68
(g69
g70
NtRp2442
(dp2443
g73
(dp2444
g81
I3
ssg82
g2438
sg75
(lp2445
g1005
asbasbasbag68
(g84
g70
NtRp2446
(dp2447
g73
(dp2448
sg82
g2253
sg75
(lp2449
g68
(g89
g70
NtRp2450
(dp2451
g73
(dp2452
g93
g94
ssg82
g2446
sg75
(lp2453
S'PATH_INFO'
p2454
asbag68
(g89
g70
NtRp2455
(dp2456
g73
(dp2457
g100
g101
ssg82
g2446
sg75
(lp2458
S':'
asbag68
(g89
g70
NtRp2459
(dp2460
g73
(dp2461
sg82
g2446
sg75
(lp2462
g68
(g69
g70
NtRp2463
(dp2464
g73
(dp2465
g81
I3
ssg82
g2459
sg75
(lp2466
g1069
asbasbasbag68
(g84
g70
NtRp2467
(dp2468
g73
(dp2469
sg82
g2253
sg75
(lp2470
g68
(g89
g70
NtRp2471
(dp2472
g73
(dp2473
g93
g94
ssg82
g2467
sg75
(lp2474
S'QUERY_STRING'
p2475
asbag68
(g89
g70
NtRp2476
(dp2477
g73
(dp2478
g100
g101
ssg82
g2467
sg75
(lp2479
S':'
asbag68
(g89
g70
NtRp2480
(dp2481
g73
(dp2482
sg82
g2467
sg75
(lp2483
g68
(g69
g70
NtRp2484
(dp2485
g73
(dp2486
g81
I3
ssg82
g2480
sg75
(lp2487
S''
asbasbasbag68
(g84
g70
NtRp2488
(dp2489
g73
(dp2490
sg82
g2253
sg75
(lp2491
g68
(g89
g70
NtRp2492
(dp2493
g73
(dp2494
g93
g94
ssg82
g2488
sg75
(lp2495
S'REMOTE_ADDR'
p2496
asbag68
(g89
g70
NtRp2497
(dp2498
g73
(dp2499
g100
g101
ssg82
g2488
sg75
(lp2500
S':'
asbag68
(g89
g70
NtRp2501
(dp2502
g73
(dp2503
sg82
g2488
sg75
(lp2504
g68
(g69
g70
NtRp2505
(dp2506
g73
(dp2507
g81
I3
ssg82
g2501
sg75
(lp2508
g201
asbasbasbag68
(g84
g70
NtRp2509
(dp2510
g73
(dp2511
sg82
g2253
sg75
(lp2512
g68
(g89
g70
NtRp2513
(dp2514
g73
(dp2515
g93
g94
ssg82
g2509
sg75
(lp2516
S'REMOTE_PORT'
p2517
asbag68
(g89
g70
NtRp2518
(dp2519
g73
(dp2520
g100
g101
ssg82
g2509
sg75
(lp2521
S':'
asbag68
(g89
g70
NtRp2522
(dp2523
g73
(dp2524
sg82
g2509
sg75
(lp2525
g68
(g69
g70
NtRp2526
(dp2527
g73
(dp2528
g81
I3
ssg82
g2522
sg75
(lp2529
g1133
asbasbasbag68
(g84
g70
NtRp2530
(dp2531
g73
(dp2532
sg82
g2253
sg75
(lp2533
g68
(g89
g70
NtRp2534
(dp2535
g73
(dp2536
g93
g94
ssg82
g2530
sg75
(lp2537
S'REQUEST_METHOD'
p2538
asbag68
(g89
g70
NtRp2539
(dp2540
g73
(dp2541
g100
g101
ssg82
g2530
sg75
(lp2542
S':'
asbag68
(g89
g70
NtRp2543
(dp2544
g73
(dp2545
sg82
g2530
sg75
(lp2546
g68
(g69
g70
NtRp2547
(dp2548
g73
(dp2549
g81
I3
ssg82
g2543
sg75
(lp2550
g1155
asbasbasbag68
(g84
g70
NtRp2551
(dp2552
g73
(dp2553
sg82
g2253
sg75
(lp2554
g68
(g89
g70
NtRp2555
(dp2556
g73
(dp2557
g93
g94
ssg82
g2551
sg75
(lp2558
S'SCRIPT_NAME'
p2559
asbag68
(g89
g70
NtRp2560
(dp2561
g73
(dp2562
g100
g101
ssg82
g2551
sg75
(lp2563
S':'
asbag68
(g89
g70
NtRp2564
(dp2565
g73
(dp2566
sg82
g2551
sg75
(lp2567
g68
(g69
g70
NtRp2568
(dp2569
g73
(dp2570
g81
I3
ssg82
g2564
sg75
(lp2571
S''
asbasbasbag68
(g84
g70
NtRp2572
(dp2573
g73
(dp2574
sg82
g2253
sg75
(lp2575
g68
(g89
g70
NtRp2576
(dp2577
g73
(dp2578
g93
g94
ssg82
g2572
sg75
(lp2579
S'SERVER_NAME'
p2580
asbag68
(g89
g70
NtRp2581
(dp2582
g73
(dp2583
g100
g101
ssg82
g2572
sg75
(lp2584
S':'
asbag68
(g89
g70
NtRp2585
(dp2586
g73
(dp2587
sg82
g2572
sg75
(lp2588
g68
(g69
g70
NtRp2589
(dp2590
g73
(dp2591
g81
I3
ssg82
g2585
sg75
(lp2592
g1198
asbasbasbag68
(g84
g70
NtRp2593
(dp2594
g73
(dp2595
sg82
g2253
sg75
(lp2596
g68
(g89
g70
NtRp2597
(dp2598
g73
(dp2599
g93
g94
ssg82
g2593
sg75
(lp2600
S'SERVER_PORT'
p2601
asbag68
(g89
g70
NtRp2602
(dp2603
g73
(dp2604
g100
g101
ssg82
g2593
sg75
(lp2605
S':'
asbag68
(g89
g70
NtRp2606
(dp2607
g73
(dp2608
sg82
g2593
sg75
(lp2609
g68
(g69
g70
NtRp2610
(dp2611
g73
(dp2612
g81
I3
ssg82
g2606
sg75
(lp2613
g1220
asbasbasbag68
(g84
g70
NtRp2614
(dp2615
g73
(dp2616
sg82
g2253
sg75
(lp2617
g68
(g89
g70
NtRp2618
(dp2619
g73
(dp2620
g93
g94
ssg82
g2614
sg75
(lp2621
S'SERVER_PROTOCOL'
p2622
asbag68
(g89
g70
NtRp2623
(dp2624
g73
(dp2625
g100
g101
ssg82
g2614
sg75
(lp2626
S':'
asbag68
(g89
g70
NtRp2627
(dp2628
g73
(dp2629
sg82
g2614
sg75
(lp2630
g68
(g69
g70
NtRp2631
(dp2632
g73
(dp2633
g81
I3
ssg82
g2627
sg75
(lp2634
g1242
asbasbasbag68
(g84
g70
NtRp2635
(dp2636
g73
(dp2637
sg82
g2253
sg75
(lp2638
g68
(g89
g70
NtRp2639
(dp2640
g73
(dp2641
g93
g94
ssg82
g2635
sg75
(lp2642
S'SERVER_SOFTWARE'
p2643
asbag68
(g89
g70
NtRp2644
(dp2645
g73
(dp2646
g100
g101
ssg82
g2635
sg75
(lp2647
S':'
asbag68
(g89
g70
NtRp2648
(dp2649
g73
(dp2650
sg82
g2635
sg75
(lp2651
g68
(g69
g70
NtRp2652
(dp2653
g73
(dp2654
g81
I3
ssg82
g2648
sg75
(lp2655
g1264
asbasbasbag68
(g84
g70
NtRp2656
(dp2657
g73
(dp2658
sg82
g2253
sg75
(lp2659
g68
(g89
g70
NtRp2660
(dp2661
g73
(dp2662
g93
g94
ssg82
g2656
sg75
(lp2663
S'wsgi.errors'
p2664
asbag68
(g89
g70
NtRp2665
(dp2666
g73
(dp2667
g100
g101
ssg82
g2656
sg75
(lp2668
S':'
asbag68
(g89
g70
NtRp2669
(dp2670
g73
(dp2671
sg82
g2656
sg75
(lp2672
g68
(g69
g70
NtRp2673
(dp2674
g73
(dp2675
g81
I3
ssg82
g2669
sg75
(lp2676
S"<open file '<stderr>', mode 'w' at 0x012050D0>"
p2677
asbasbasbag68
(g84
g70
NtRp2678
(dp2679
g73
(dp2680
sg82
g2253
sg75
(lp2681
g68
(g89
g70
NtRp2682
(dp2683
g73
(dp2684
g93
g94
ssg82
g2678
sg75
(lp2685
S'wsgi.file_wrapper'
p2686
asbag68
(g89
g70
NtRp2687
(dp2688
g73
(dp2689
g100
g101
ssg82
g2678
sg75
(lp2690
S':'
asbag68
(g89
g70
NtRp2691
(dp2692
g73
(dp2693
sg82
g2678
sg75
(lp2694
g68
(g69
g70
NtRp2695
(dp2696
g73
(dp2697
g81
I3
ssg82
g2691
sg75
(lp2698
S'<class wsgiref.util.FileWrapper at 0x02843D88>'
p2699
asbasbasbag68
(g84
g70
NtRp2700
(dp2701
g73
(dp2702
sg82
g2253
sg75
(lp2703
g68
(g89
g70
NtRp2704
(dp2705
g73
(dp2706
g93
g94
ssg82
g2700
sg75
(lp2707
S'wsgi.input'
p2708
asbag68
(g89
g70
NtRp2709
(dp2710
g73
(dp2711
g100
g101
ssg82
g2700
sg75
(lp2712
S':'
asbag68
(g89
g70
NtRp2713
(dp2714
g73
(dp2715
sg82
g2700
sg75
(lp2716
g68
(g69
g70
NtRp2717
(dp2718
g73
(dp2719
g81
I3
ssg82
g2713
sg75
(lp2720
S'<cStringIO.StringO object at 0x07E2A2A0>'
p2721
asbasbasbag68
(g84
g70
NtRp2722
(dp2723
g73
(dp2724
sg82
g2253
sg75
(lp2725
g68
(g89
g70
NtRp2726
(dp2727
g73
(dp2728
g93
g94
ssg82
g2722
sg75
(lp2729
S'wsgi.multiprocess'
p2730
asbag68
(g89
g70
NtRp2731
(dp2732
g73
(dp2733
g100
g101
ssg82
g2722
sg75
(lp2734
S':'
asbag68
(g89
g70
NtRp2735
(dp2736
g73
(dp2737
sg82
g2722
sg75
(lp2738
g68
(g69
g70
NtRp2739
(dp2740
g73
(dp2741
g81
I3
ssg82
g2735
sg75
(lp2742
g111
asbasbasbag68
(g84
g70
NtRp2743
(dp2744
g73
(dp2745
sg82
g2253
sg75
(lp2746
g68
(g89
g70
NtRp2747
(dp2748
g73
(dp2749
g93
g94
ssg82
g2743
sg75
(lp2750
S'wsgi.multithread'
p2751
asbag68
(g89
g70
NtRp2752
(dp2753
g73
(dp2754
g100
g101
ssg82
g2743
sg75
(lp2755
S':'
asbag68
(g89
g70
NtRp2756
(dp2757
g73
(dp2758
sg82
g2743
sg75
(lp2759
g68
(g69
g70
NtRp2760
(dp2761
g73
(dp2762
g81
I3
ssg82
g2756
sg75
(lp2763
g1504
asbasbasbag68
(g84
g70
NtRp2764
(dp2765
g73
(dp2766
sg82
g2253
sg75
(lp2767
g68
(g89
g70
NtRp2768
(dp2769
g73
(dp2770
g93
g94
ssg82
g2764
sg75
(lp2771
S'wsgi.run_once'
p2772
asbag68
(g89
g70
NtRp2773
(dp2774
g73
(dp2775
g100
g101
ssg82
g2764
sg75
(lp2776
S':'
asbag68
(g89
g70
NtRp2777
(dp2778
g73
(dp2779
sg82
g2764
sg75
(lp2780
g68
(g69
g70
NtRp2781
(dp2782
g73
(dp2783
g81
I3
ssg82
g2777
sg75
(lp2784
g111
asbasbasbag68
(g84
g70
NtRp2785
(dp2786
g73
(dp2787
sg82
g2253
sg75
(lp2788
g68
(g89
g70
NtRp2789
(dp2790
g73
(dp2791
g93
g94
ssg82
g2785
sg75
(lp2792
S'wsgi.url_scheme'
p2793
asbag68
(g89
g70
NtRp2794
(dp2795
g73
(dp2796
g100
g101
ssg82
g2785
sg75
(lp2797
S':'
asbag68
(g89
g70
NtRp2798
(dp2799
g73
(dp2800
sg82
g2785
sg75
(lp2801
g68
(g69
g70
NtRp2802
(dp2803
g73
(dp2804
g81
I3
ssg82
g2798
sg75
(lp2805
g1547
asbasbasbag68
(g84
g70
NtRp2806
(dp2807
g73
(dp2808
sg82
g2253
sg75
(lp2809
g68
(g89
g70
NtRp2810
(dp2811
g73
(dp2812
g93
g94
ssg82
g2806
sg75
(lp2813
S'wsgi.version'
p2814
asbag68
(g89
g70
NtRp2815
(dp2816
g73
(dp2817
g100
g101
ssg82
g2806
sg75
(lp2818
S':'
asbag68
(g89
g70
NtRp2819
(dp2820
g73
(dp2821
sg82
g2806
sg75
(lp2822
g68
(g69
g70
NtRp2823
(dp2824
g73
(dp2825
g81
I3
ssg82
g2819
sg75
(lp2826
S'1'
asbasbasbasbasbasbasbasbasbasbasbasbasbsS'frames'
p2827
(lp2828
(dp2829
S'file'
p2830
S'C:\\Users\\liangh\\Desktop\\web2py\\gluon\\restricted.py'
p2831
sS'dump'
p2832
(dp2833
S'code'
p2834
S'r"response.write(\'<!DOCTYPE html>\\r\\n<!-- pauliris...write(\'\\r\\n</body>\\r\\n</html>\\r\\n\', escape=False)"'
p2835
sS'layer'
p2836
S"r'C:\\Users\\liangh\\Desktop\\web2py\\applications\\welcome\\views\\league/index.html'"
p2837
sS'global compile2'
p2838
S'<function compile2>'
p2839
sS'ccode'
p2840
S'undefined'
p2841
ssS'lnum'
p2842
I203
sS'lines'
p2843
(dp2844
I198
S"    environment['__file__'] = layer"
p2845
sI199
S'    try:'
p2846
sI200
S'        if type(code) == types.CodeType:'
p2847
sI201
S'            ccode = code'
p2848
sI202
S'        else:'
p2849
sI203
S'            ccode = compile2(code,layer)'
p2850
sI204
S'        exec ccode in environment'
p2851
sI205
S'    except HTTP:'
p2852
sI206
S'        raise'
p2853
sI207
S'    except RestrictedError:'
p2854
ssS'call'
p2855
S'(code=r"response.write(\'<!DOCTYPE html>\\r\\n<!-- pauliris...write(\'\\r\\n</body>\\r\\n</html>\\r\\n\', escape=False)", environment={\'A\': <class \'gluon.html.A\'>, \'Auth\': <class \'gluon.tools.Auth\'>, \'B\': <class \'gluon.html.B\'>, \'BEAUTIFY\': <class \'gluon.html.BEAUTIFY\'>, \'BODY\': <class \'gluon.html.BODY\'>, \'BR\': <class \'gluon.html.BR\'>, \'BUTTON\': <class \'gluon.html.BUTTON\'>, \'CAT\': <class \'gluon.html.CAT\'>, \'CENTER\': <class \'gluon.html.CENTER\'>, \'CLEANUP\': <class \'gluon.validators.CLEANUP\'>, ...}, layer=r\'C:\\Users\\liangh\\Desktop\\web2py\\applications\\welcome\\views\\league/index.html\')'
p2856
sS'func'
p2857
S'restricted'
p2858
sa(dp2859
g2830
S'C:\\Users\\liangh\\Desktop\\web2py\\gluon\\restricted.py'
p2860
sg2832
(dp2861
S'builtincompile'
p2862
S'<built-in function compile>'
p2863
sS'code'
p2864
S'r"response.write(\'<!DOCTYPE html>\\r\\n<!-- pauliris...write(\'\\r\\n</body>\\r\\n</html>\\r\\n\', escape=False)"'
p2865
sS'code.rstrip'
p2866
S'<built-in method rstrip of str object>'
p2867
sS').replace'
p2868
g2841
sS'layer'
p2869
S"r'C:\\Users\\liangh\\Desktop\\web2py\\applications\\welcome\\views\\league/index.html'"
p2870
ssg2842
I189
sg2843
(dp2871
I192
S'    """'
p2872
sI193
S'    runs code in environment and returns the output. if an exception occurs'
p2873
sI184
S''
sI185
S'def compile2(code,layer):'
p2874
sI186
S'    """'
p2875
sI187
S"    The +'\\n' is necessary else compile fails when code ends in a comment."
p2876
sI188
S'    """'
p2877
sI189
S"    return compile(code.rstrip().replace('\\r\\n','\\n')+'\\n', layer, 'exec')"
p2878
sI190
S''
sI191
S"def restricted(code, environment=None, layer='Unknown'):"
p2879
ssg2855
S'(code=r"response.write(\'<!DOCTYPE html>\\r\\n<!-- pauliris...write(\'\\r\\n</body>\\r\\n</html>\\r\\n\', escape=False)", layer=r\'C:\\Users\\liangh\\Desktop\\web2py\\applications\\welcome\\views\\league/index.html\')'
p2880
sg2857
S'compile2'
p2881
sasS'pyver'
p2882
S'Python 2.7.2: C:\\Python27\\python.exe'
p2883
sS'session'
p2884
g68
(g69
g70
NtRp2885
(dp2886
g73
(dp2887
sg75
(lp2888
g68
(g77
g70
NtRp2889
(dp2890
g73
(dp2891
g81
I5
ssg82
Nsg75
(lp2892
sbasbsS'etype'
p2893
S"<type 'exceptions.SyntaxError'>"
p2894
sS'date'
p2895
S'Wed Jan 25 21:07:42 2012'
p2896
sS'response'
p2897
g68
(g69
g70
NtRp2898
(dp2899
g73
(dp2900
sg75
(lp2901
g68
(g77
g70
NtRp2902
(dp2903
g73
(dp2904
g81
I5
ssg82
Nsg75
(lp2905
g68
(g84
g70
NtRp2906
(dp2907
g73
(dp2908
sg82
g2902
sg75
(lp2909
g68
(g89
g70
NtRp2910
(dp2911
g73
(dp2912
g93
g94
ssg82
g2906
sg75
(lp2913
g166
asbag68
(g89
g70
NtRp2914
(dp2915
g73
(dp2916
g100
g101
ssg82
g2906
sg75
(lp2917
S':'
asbag68
(g89
g70
NtRp2918
(dp2919
g73
(dp2920
sg82
g2906
sg75
(lp2921
g68
(g69
g70
NtRp2922
(dp2923
g73
(dp2924
g81
I5
ssg82
g2918
sg75
(lp2925
S'<cStringIO.StringO object at 0x02C6D100>'
p2926
asbasbasbag68
(g84
g70
NtRp2927
(dp2928
g73
(dp2929
sg82
g2902
sg75
(lp2930
g68
(g89
g70
NtRp2931
(dp2932
g73
(dp2933
g93
g94
ssg82
g2927
sg75
(lp2934
g232
asbag68
(g89
g70
NtRp2935
(dp2936
g73
(dp2937
g100
g101
ssg82
g2927
sg75
(lp2938
S':'
asbag68
(g89
g70
NtRp2939
(dp2940
g73
(dp2941
sg82
g2927
sg75
(lp2942
g68
(g69
g70
NtRp2943
(dp2944
g73
(dp2945
g81
I5
ssg82
g2939
sg75
(lp2946
g68
(g77
g70
NtRp2947
(dp2948
g73
(dp2949
g81
I4
ssg82
Nsg75
(lp2950
g68
(g84
g70
NtRp2951
(dp2952
g73
(dp2953
sg82
g2947
sg75
(lp2954
g68
(g89
g70
NtRp2955
(dp2956
g73
(dp2957
g93
g94
ssg82
g2951
sg75
(lp2958
S'session_id_welcome'
p2959
asbag68
(g89
g70
NtRp2960
(dp2961
g73
(dp2962
g100
g101
ssg82
g2951
sg75
(lp2963
S':'
asbag68
(g89
g70
NtRp2964
(dp2965
g73
(dp2966
sg82
g2951
sg75
(lp2967
g68
(g69
g70
NtRp2968
(dp2969
g73
(dp2970
g81
I4
ssg82
g2964
sg75
(lp2971
g68
(g77
g70
NtRp2972
(dp2973
g73
(dp2974
g81
I3
ssg82
Nsg75
(lp2975
g68
(g84
g70
NtRp2976
(dp2977
g73
(dp2978
sg82
g2972
sg75
(lp2979
g68
(g89
g70
NtRp2980
(dp2981
g73
(dp2982
g93
g94
ssg82
g2976
sg75
(lp2983
g282
asbag68
(g89
g70
NtRp2984
(dp2985
g73
(dp2986
g100
g101
ssg82
g2976
sg75
(lp2987
S':'
asbag68
(g89
g70
NtRp2988
(dp2989
g73
(dp2990
sg82
g2976
sg75
(lp2991
g68
(g69
g70
NtRp2992
(dp2993
g73
(dp2994
g81
I3
ssg82
g2988
sg75
(lp2995
S''
asbasbasbag68
(g84
g70
NtRp2996
(dp2997
g73
(dp2998
sg82
g2972
sg75
(lp2999
g68
(g89
g70
NtRp3000
(dp3001
g73
(dp3002
g93
g94
ssg82
g2996
sg75
(lp3003
g303
asbag68
(g89
g70
NtRp3004
(dp3005
g73
(dp3006
g100
g101
ssg82
g2996
sg75
(lp3007
S':'
asbag68
(g89
g70
NtRp3008
(dp3009
g73
(dp3010
sg82
g2996
sg75
(lp3011
g68
(g69
g70
NtRp3012
(dp3013
g73
(dp3014
g81
I3
ssg82
g3008
sg75
(lp3015
S''
asbasbasbag68
(g84
g70
NtRp3016
(dp3017
g73
(dp3018
sg82
g2972
sg75
(lp3019
g68
(g89
g70
NtRp3020
(dp3021
g73
(dp3022
g93
g94
ssg82
g3016
sg75
(lp3023
g324
asbag68
(g89
g70
NtRp3024
(dp3025
g73
(dp3026
g100
g101
ssg82
g3016
sg75
(lp3027
S':'
asbag68
(g89
g70
NtRp3028
(dp3029
g73
(dp3030
sg82
g3016
sg75
(lp3031
g68
(g69
g70
NtRp3032
(dp3033
g73
(dp3034
g81
I3
ssg82
g3028
sg75
(lp3035
S''
asbasbasbag68
(g84
g70
NtRp3036
(dp3037
g73
(dp3038
sg82
g2972
sg75
(lp3039
g68
(g89
g70
NtRp3040
(dp3041
g73
(dp3042
g93
g94
ssg82
g3036
sg75
(lp3043
g345
asbag68
(g89
g70
NtRp3044
(dp3045
g73
(dp3046
g100
g101
ssg82
g3036
sg75
(lp3047
S':'
asbag68
(g89
g70
NtRp3048
(dp3049
g73
(dp3050
sg82
g3036
sg75
(lp3051
g68
(g69
g70
NtRp3052
(dp3053
g73
(dp3054
g81
I3
ssg82
g3048
sg75
(lp3055
S''
asbasbasbag68
(g84
g70
NtRp3056
(dp3057
g73
(dp3058
sg82
g2972
sg75
(lp3059
g68
(g89
g70
NtRp3060
(dp3061
g73
(dp3062
g93
g94
ssg82
g3056
sg75
(lp3063
g366
asbag68
(g89
g70
NtRp3064
(dp3065
g73
(dp3066
g100
g101
ssg82
g3056
sg75
(lp3067
S':'
asbag68
(g89
g70
NtRp3068
(dp3069
g73
(dp3070
sg82
g3056
sg75
(lp3071
g68
(g69
g70
NtRp3072
(dp3073
g73
(dp3074
g81
I3
ssg82
g3068
sg75
(lp3075
S''
asbasbasbag68
(g84
g70
NtRp3076
(dp3077
g73
(dp3078
sg82
g2972
sg75
(lp3079
g68
(g89
g70
NtRp3080
(dp3081
g73
(dp3082
g93
g94
ssg82
g3076
sg75
(lp3083
g387
asbag68
(g89
g70
NtRp3084
(dp3085
g73
(dp3086
g100
g101
ssg82
g3076
sg75
(lp3087
S':'
asbag68
(g89
g70
NtRp3088
(dp3089
g73
(dp3090
sg82
g3076
sg75
(lp3091
g68
(g69
g70
NtRp3092
(dp3093
g73
(dp3094
g81
I3
ssg82
g3088
sg75
(lp3095
S'/'
asbasbasbag68
(g84
g70
NtRp3096
(dp3097
g73
(dp3098
sg82
g2972
sg75
(lp3099
g68
(g89
g70
NtRp3100
(dp3101
g73
(dp3102
g93
g94
ssg82
g3096
sg75
(lp3103
g408
asbag68
(g89
g70
NtRp3104
(dp3105
g73
(dp3106
g100
g101
ssg82
g3096
sg75
(lp3107
S':'
asbag68
(g89
g70
NtRp3108
(dp3109
g73
(dp3110
sg82
g3096
sg75
(lp3111
g68
(g69
g70
NtRp3112
(dp3113
g73
(dp3114
g81
I3
ssg82
g3108
sg75
(lp3115
S''
asbasbasbag68
(g84
g70
NtRp3116
(dp3117
g73
(dp3118
sg82
g2972
sg75
(lp3119
g68
(g89
g70
NtRp3120
(dp3121
g73
(dp3122
g93
g94
ssg82
g3116
sg75
(lp3123
g429
asbag68
(g89
g70
NtRp3124
(dp3125
g73
(dp3126
g100
g101
ssg82
g3116
sg75
(lp3127
S':'
asbag68
(g89
g70
NtRp3128
(dp3129
g73
(dp3130
sg82
g3116
sg75
(lp3131
g68
(g69
g70
NtRp3132
(dp3133
g73
(dp3134
g81
I3
ssg82
g3128
sg75
(lp3135
S''
asbasbasbasbasbasbasbasbasbasbasbag68
(g84
g70
NtRp3136
(dp3137
g73
(dp3138
sg82
g2902
sg75
(lp3139
g68
(g89
g70
NtRp3140
(dp3141
g73
(dp3142
g93
g94
ssg82
g3136
sg75
(lp3143
S'files'
p3144
asbag68
(g89
g70
NtRp3145
(dp3146
g73
(dp3147
g100
g101
ssg82
g3136
sg75
(lp3148
S':'
asbag68
(g89
g70
NtRp3149
(dp3150
g73
(dp3151
sg82
g3136
sg75
(lp3152
g68
(g69
g70
NtRp3153
(dp3154
g73
(dp3155
g81
I5
ssg82
g3149
sg75
(lp3156
g68
(g77
g70
NtRp3157
(dp3158
g73
(dp3159
g81
I4
ssg82
Nsg75
(lp3160
sbasbasbasbag68
(g84
g70
NtRp3161
(dp3162
g73
(dp3163
sg82
g2902
sg75
(lp3164
g68
(g89
g70
NtRp3165
(dp3166
g73
(dp3167
g93
g94
ssg82
g3161
sg75
(lp3168
S'flash'
p3169
asbag68
(g89
g70
NtRp3170
(dp3171
g73
(dp3172
g100
g101
ssg82
g3161
sg75
(lp3173
S':'
asbag68
(g89
g70
NtRp3174
(dp3175
g73
(dp3176
sg82
g3161
sg75
(lp3177
g68
(g69
g70
NtRp3178
(dp3179
g73
(dp3180
g81
I5
ssg82
g3174
sg75
(lp3181
S''
asbasbasbag68
(g84
g70
NtRp3182
(dp3183
g73
(dp3184
sg82
g2902
sg75
(lp3185
g68
(g89
g70
NtRp3186
(dp3187
g73
(dp3188
g93
g94
ssg82
g3182
sg75
(lp3189
S'generic_patterns'
p3190
asbag68
(g89
g70
NtRp3191
(dp3192
g73
(dp3193
g100
g101
ssg82
g3182
sg75
(lp3194
S':'
asbag68
(g89
g70
NtRp3195
(dp3196
g73
(dp3197
sg82
g3182
sg75
(lp3198
g68
(g69
g70
NtRp3199
(dp3200
g73
(dp3201
g81
I5
ssg82
g3195
sg75
(lp3202
g68
(g77
g70
NtRp3203
(dp3204
g73
(dp3205
g81
I4
ssg82
Nsg75
(lp3206
g68
(g84
g70
NtRp3207
(dp3208
g73
(dp3209
sg82
g3203
sg75
(lp3210
g68
(g89
g70
NtRp3211
(dp3212
g73
(dp3213
sg82
g3207
sg75
(lp3214
g68
(g69
g70
NtRp3215
(dp3216
g73
(dp3217
g81
I4
ssg82
g3211
sg75
(lp3218
S'*'
asbasbasbasbasbasbasbag68
(g84
g70
NtRp3219
(dp3220
g73
(dp3221
sg82
g2902
sg75
(lp3222
g68
(g89
g70
NtRp3223
(dp3224
g73
(dp3225
g93
g94
ssg82
g3219
sg75
(lp3226
S'headers'
p3227
asbag68
(g89
g70
NtRp3228
(dp3229
g73
(dp3230
g100
g101
ssg82
g3219
sg75
(lp3231
S':'
asbag68
(g89
g70
NtRp3232
(dp3233
g73
(dp3234
sg82
g3219
sg75
(lp3235
g68
(g69
g70
NtRp3236
(dp3237
g73
(dp3238
g81
I5
ssg82
g3232
sg75
(lp3239
g68
(g77
g70
NtRp3240
(dp3241
g73
(dp3242
g81
I4
ssg82
Nsg75
(lp3243
g68
(g84
g70
NtRp3244
(dp3245
g73
(dp3246
sg82
g3240
sg75
(lp3247
g68
(g89
g70
NtRp3248
(dp3249
g73
(dp3250
g93
g94
ssg82
g3244
sg75
(lp3251
S'Cache-Control'
p3252
asbag68
(g89
g70
NtRp3253
(dp3254
g73
(dp3255
g100
g101
ssg82
g3244
sg75
(lp3256
S':'
asbag68
(g89
g70
NtRp3257
(dp3258
g73
(dp3259
sg82
g3244
sg75
(lp3260
g68
(g69
g70
NtRp3261
(dp3262
g73
(dp3263
g81
I4
ssg82
g3257
sg75
(lp3264
S'no-store, no-cache, must-revalidate, post-check=0, pre-check=0'
p3265
asbasbasbag68
(g84
g70
NtRp3266
(dp3267
g73
(dp3268
sg82
g3240
sg75
(lp3269
g68
(g89
g70
NtRp3270
(dp3271
g73
(dp3272
g93
g94
ssg82
g3266
sg75
(lp3273
S'Content-Type'
p3274
asbag68
(g89
g70
NtRp3275
(dp3276
g73
(dp3277
g100
g101
ssg82
g3266
sg75
(lp3278
S':'
asbag68
(g89
g70
NtRp3279
(dp3280
g73
(dp3281
sg82
g3266
sg75
(lp3282
g68
(g69
g70
NtRp3283
(dp3284
g73
(dp3285
g81
I4
ssg82
g3279
sg75
(lp3286
S'text/html; charset=utf-8'
p3287
asbasbasbag68
(g84
g70
NtRp3288
(dp3289
g73
(dp3290
sg82
g3240
sg75
(lp3291
g68
(g89
g70
NtRp3292
(dp3293
g73
(dp3294
g93
g94
ssg82
g3288
sg75
(lp3295
S'Expires'
p3296
asbag68
(g89
g70
NtRp3297
(dp3298
g73
(dp3299
g100
g101
ssg82
g3288
sg75
(lp3300
S':'
asbag68
(g89
g70
NtRp3301
(dp3302
g73
(dp3303
sg82
g3288
sg75
(lp3304
g68
(g69
g70
NtRp3305
(dp3306
g73
(dp3307
g81
I4
ssg82
g3301
sg75
(lp3308
S'Thu, 26 Jan 2012 02:07:42 GMT'
p3309
asbasbasbag68
(g84
g70
NtRp3310
(dp3311
g73
(dp3312
sg82
g3240
sg75
(lp3313
g68
(g89
g70
NtRp3314
(dp3315
g73
(dp3316
g93
g94
ssg82
g3310
sg75
(lp3317
S'Pragma'
p3318
asbag68
(g89
g70
NtRp3319
(dp3320
g73
(dp3321
g100
g101
ssg82
g3310
sg75
(lp3322
S':'
asbag68
(g89
g70
NtRp3323
(dp3324
g73
(dp3325
sg82
g3310
sg75
(lp3326
g68
(g69
g70
NtRp3327
(dp3328
g73
(dp3329
g81
I4
ssg82
g3323
sg75
(lp3330
S'no-cache'
p3331
asbasbasbag68
(g84
g70
NtRp3332
(dp3333
g73
(dp3334
sg82
g3240
sg75
(lp3335
g68
(g89
g70
NtRp3336
(dp3337
g73
(dp3338
g93
g94
ssg82
g3332
sg75
(lp3339
S'X-Powered-By'
p3340
asbag68
(g89
g70
NtRp3341
(dp3342
g73
(dp3343
g100
g101
ssg82
g3332
sg75
(lp3344
S':'
asbag68
(g89
g70
NtRp3345
(dp3346
g73
(dp3347
sg82
g3332
sg75
(lp3348
g68
(g69
g70
NtRp3349
(dp3350
g73
(dp3351
g81
I4
ssg82
g3345
sg75
(lp3352
S'web2py'
p3353
asbasbasbasbasbasbasbag68
(g84
g70
NtRp3354
(dp3355
g73
(dp3356
sg82
g2902
sg75
(lp3357
g68
(g89
g70
NtRp3358
(dp3359
g73
(dp3360
g93
g94
ssg82
g3354
sg75
(lp3361
S'menu'
p3362
asbag68
(g89
g70
NtRp3363
(dp3364
g73
(dp3365
g100
g101
ssg82
g3354
sg75
(lp3366
S':'
asbag68
(g89
g70
NtRp3367
(dp3368
g73
(dp3369
sg82
g3354
sg75
(lp3370
g68
(g69
g70
NtRp3371
(dp3372
g73
(dp3373
g81
I5
ssg82
g3367
sg75
(lp3374
g68
(g77
g70
NtRp3375
(dp3376
g73
(dp3377
g81
I4
ssg82
Nsg75
(lp3378
g68
(g84
g70
NtRp3379
(dp3380
g73
(dp3381
sg82
g3375
sg75
(lp3382
g68
(g89
g70
NtRp3383
(dp3384
g73
(dp3385
sg82
g3379
sg75
(lp3386
g68
(g69
g70
NtRp3387
(dp3388
g73
(dp3389
g81
I4
ssg82
g3383
sg75
(lp3390
g68
(g77
g70
NtRp3391
(dp3392
g73
(dp3393
g81
I3
ssg82
Nsg75
(lp3394
g68
(g84
g70
NtRp3395
(dp3396
g73
(dp3397
sg82
g3391
sg75
(lp3398
g68
(g89
g70
NtRp3399
(dp3400
g73
(dp3401
sg82
g3395
sg75
(lp3402
g68
(g69
g70
NtRp3403
(dp3404
g73
(dp3405
g81
I3
ssg82
g3399
sg75
(lp3406
cgluon.languages
lazyT_unpickle
p3407
(S't\x04\x00\x00\x00Home'
tRp3408
asbasbasbag68
(g84
g70
NtRp3409
(dp3410
g73
(dp3411
sg82
g3391
sg75
(lp3412
g68
(g89
g70
NtRp3413
(dp3414
g73
(dp3415
sg82
g3409
sg75
(lp3416
g68
(g69
g70
NtRp3417
(dp3418
g73
(dp3419
g81
I3
ssg82
g3413
sg75
(lp3420
g111
asbasbasbag68
(g84
g70
NtRp3421
(dp3422
g73
(dp3423
sg82
g3391
sg75
(lp3424
g68
(g89
g70
NtRp3425
(dp3426
g73
(dp3427
sg82
g3421
sg75
(lp3428
g68
(g69
g70
NtRp3429
(dp3430
g73
(dp3431
g81
I3
ssg82
g3425
sg75
(lp3432
S'/welcome/default/index'
p3433
asbasbasbag68
(g84
g70
NtRp3434
(dp3435
g73
(dp3436
sg82
g3391
sg75
(lp3437
g68
(g89
g70
NtRp3438
(dp3439
g73
(dp3440
sg82
g3434
sg75
(lp3441
g68
(g69
g70
NtRp3442
(dp3443
g73
(dp3444
g81
I3
ssg82
g3438
sg75
(lp3445
g68
(g77
g70
NtRp3446
(dp3447
g73
(dp3448
g81
I2
ssg82
Nsg75
(lp3449
sbasbasbasbasbasbasbasbag68
(g84
g70
NtRp3450
(dp3451
g73
(dp3452
sg82
g3375
sg75
(lp3453
g68
(g89
g70
NtRp3454
(dp3455
g73
(dp3456
sg82
g3450
sg75
(lp3457
g68
(g69
g70
NtRp3458
(dp3459
g73
(dp3460
g81
I4
ssg82
g3454
sg75
(lp3461
g68
(g77
g70
NtRp3462
(dp3463
g73
(dp3464
g81
I3
ssg82
Nsg75
(lp3465
g68
(g84
g70
NtRp3466
(dp3467
g73
(dp3468
sg82
g3462
sg75
(lp3469
g68
(g89
g70
NtRp3470
(dp3471
g73
(dp3472
sg82
g3466
sg75
(lp3473
g68
(g69
g70
NtRp3474
(dp3475
g73
(dp3476
g81
I3
ssg82
g3470
sg75
(lp3477
g68
(cgluon.html
SPAN
p3478
g70
NtRp3479
(dp3480
g73
(dp3481
g93
S'color:yellow'
p3482
ssg82
Nsg75
(lp3483
g3353
asbasbasbasbag68
(g84
g70
NtRp3484
(dp3485
g73
(dp3486
sg82
g3462
sg75
(lp3487
g68
(g89
g70
NtRp3488
(dp3489
g73
(dp3490
sg82
g3484
sg75
(lp3491
g68
(g69
g70
NtRp3492
(dp3493
g73
(dp3494
g81
I3
ssg82
g3488
sg75
(lp3495
g111
asbasbasbag68
(g84
g70
NtRp3496
(dp3497
g73
(dp3498
sg82
g3462
sg75
(lp3499
g68
(g89
g70
NtRp3500
(dp3501
g73
(dp3502
sg82
g3496
sg75
(lp3503
g68
(g69
g70
NtRp3504
(dp3505
g73
(dp3506
g81
I3
ssg82
g3500
sg75
(lp3507
S'None'
p3508
asbasbasbag68
(g84
g70
NtRp3509
(dp3510
g73
(dp3511
sg82
g3462
sg75
(lp3512
g68
(g89
g70
NtRp3513
(dp3514
g73
(dp3515
sg82
g3509
sg75
(lp3516
g68
(g69
g70
NtRp3517
(dp3518
g73
(dp3519
g81
I3
ssg82
g3513
sg75
(lp3520
g68
(g77
g70
NtRp3521
(dp3522
g73
(dp3523
g81
I2
ssg82
Nsg75
(lp3524
g68
(g84
g70
NtRp3525
(dp3526
g73
(dp3527
sg82
g3521
sg75
(lp3528
g68
(g89
g70
NtRp3529
(dp3530
g73
(dp3531
sg82
g3525
sg75
(lp3532
g68
(g69
g70
NtRp3533
(dp3534
g73
(dp3535
g81
I2
ssg82
g3529
sg75
(lp3536
g68
(g77
g70
NtRp3537
(dp3538
g73
(dp3539
g81
I1
ssg82
Nsg75
(lp3540
g68
(g84
g70
NtRp3541
(dp3542
g73
(dp3543
sg82
g3537
sg75
(lp3544
g68
(g89
g70
NtRp3545
(dp3546
g73
(dp3547
sg82
g3541
sg75
(lp3548
g68
(g69
g70
NtRp3549
(dp3550
g73
(dp3551
g81
I1
ssg82
g3545
sg75
(lp3552
g3407
(S's\x08\x00\x00\x00My Sites'
tRp3553
asbasbasbag68
(g84
g70
NtRp3554
(dp3555
g73
(dp3556
sg82
g3537
sg75
(lp3557
g68
(g89
g70
NtRp3558
(dp3559
g73
(dp3560
sg82
g3554
sg75
(lp3561
g68
(g69
g70
NtRp3562
(dp3563
g73
(dp3564
g81
I1
ssg82
g3558
sg75
(lp3565
I00
asbasbasbag68
(g84
g70
NtRp3566
(dp3567
g73
(dp3568
sg82
g3537
sg75
(lp3569
g68
(g89
g70
NtRp3570
(dp3571
g73
(dp3572
sg82
g3566
sg75
(lp3573
g68
(g69
g70
NtRp3574
(dp3575
g73
(dp3576
g81
I1
ssg82
g3570
sg75
(lp3577
S'/admin/default/site'
p3578
asbasbasbasbasbasbasbag68
(g84
g70
NtRp3579
(dp3580
g73
(dp3581
sg82
g3521
sg75
(lp3582
g68
(g89
g70
NtRp3583
(dp3584
g73
(dp3585
sg82
g3579
sg75
(lp3586
g68
(g69
g70
NtRp3587
(dp3588
g73
(dp3589
g81
I2
ssg82
g3583
sg75
(lp3590
g68
(g77
g70
NtRp3591
(dp3592
g73
(dp3593
g81
I1
ssg82
Nsg75
(lp3594
g68
(g84
g70
NtRp3595
(dp3596
g73
(dp3597
sg82
g3591
sg75
(lp3598
g68
(g89
g70
NtRp3599
(dp3600
g73
(dp3601
sg82
g3595
sg75
(lp3602
g68
(g69
g70
NtRp3603
(dp3604
g73
(dp3605
g81
I1
ssg82
g3599
sg75
(lp3606
g3407
(S's\x08\x00\x00\x00This App'
tRp3607
asbasbasbag68
(g84
g70
NtRp3608
(dp3609
g73
(dp3610
sg82
g3591
sg75
(lp3611
g68
(g89
g70
NtRp3612
(dp3613
g73
(dp3614
sg82
g3608
sg75
(lp3615
g68
(g69
g70
NtRp3616
(dp3617
g73
(dp3618
g81
I1
ssg82
g3612
sg75
(lp3619
I00
asbasbasbag68
(g84
g70
NtRp3620
(dp3621
g73
(dp3622
sg82
g3591
sg75
(lp3623
g68
(g89
g70
NtRp3624
(dp3625
g73
(dp3626
sg82
g3620
sg75
(lp3627
g68
(g69
g70
NtRp3628
(dp3629
g73
(dp3630
g81
I1
ssg82
g3624
sg75
(lp3631
S'/admin/default/design/welcome'
p3632
asbasbasbag68
(g84
g70
NtRp3633
(dp3634
g73
(dp3635
sg82
g3591
sg75
(lp3636
g68
(g89
g70
NtRp3637
(dp3638
g73
(dp3639
sg82
g3633
sg75
(lp3640
g68
(g69
g70
NtRp3641
(dp3642
g73
(dp3643
g81
I1
ssg82
g3637
sg75
(lp3644
(lp3645
(g3407
(S't\n\x00\x00\x00Controller'
tRp3646
I00
S'/admin/default/edit/welcome/controllers/league.py'
tp3647
a(g3407
(S't\x04\x00\x00\x00View'
tRp3648
I00
S'/admin/default/edit/welcome/views/league/index.html'
tp3649
a(g3407
(S't\x06\x00\x00\x00Layout'
tRp3650
I00
S'/admin/default/edit/welcome/views/layout.html'
tp3651
a(g3407
(S't\n\x00\x00\x00Stylesheet'
tRp3652
I00
S'/admin/default/edit/welcome/static/css/web2py.css'
tp3653
a(g3407
(S's\x08\x00\x00\x00DB Model'
tRp3654
I00
S'/admin/default/edit/welcome/models/db.py'
tp3655
a(g3407
(S's\n\x00\x00\x00Menu Model'
tRp3656
I00
S'/admin/default/edit/welcome/models/menu.py'
tp3657
a(g3407
(S't\x08\x00\x00\x00Database'
tRp3658
I00
S'/welcome/appadmin/index'
tp3659
a(g3407
(S't\x06\x00\x00\x00Errors'
tRp3660
I00
S'/admin/default/errors/welcome'
tp3661
a(g3407
(S't\x05\x00\x00\x00About'
tRp3662
I00
S'/admin/default/about/welcome'
tp3663
aasbasbasbasbasbasbasbag68
(g84
g70
NtRp3664
(dp3665
g73
(dp3666
sg82
g3521
sg75
(lp3667
g68
(g89
g70
NtRp3668
(dp3669
g73
(dp3670
sg82
g3664
sg75
(lp3671
g68
(g69
g70
NtRp3672
(dp3673
g73
(dp3674
g81
I2
ssg82
g3668
sg75
(lp3675
g68
(g77
g70
NtRp3676
(dp3677
g73
(dp3678
g81
I1
ssg82
Nsg75
(lp3679
g68
(g84
g70
NtRp3680
(dp3681
g73
(dp3682
sg82
g3676
sg75
(lp3683
g68
(g89
g70
NtRp3684
(dp3685
g73
(dp3686
sg82
g3680
sg75
(lp3687
g68
(g69
g70
NtRp3688
(dp3689
g73
(dp3690
g81
I1
ssg82
g3684
sg75
(lp3691
S'web2py.com'
p3692
asbasbasbag68
(g84
g70
NtRp3693
(dp3694
g73
(dp3695
sg82
g3676
sg75
(lp3696
g68
(g89
g70
NtRp3697
(dp3698
g73
(dp3699
sg82
g3693
sg75
(lp3700
g68
(g69
g70
NtRp3701
(dp3702
g73
(dp3703
g81
I1
ssg82
g3697
sg75
(lp3704
I00
asbasbasbag68
(g84
g70
NtRp3705
(dp3706
g73
(dp3707
sg82
g3676
sg75
(lp3708
g68
(g89
g70
NtRp3709
(dp3710
g73
(dp3711
sg82
g3705
sg75
(lp3712
g68
(g69
g70
NtRp3713
(dp3714
g73
(dp3715
g81
I1
ssg82
g3709
sg75
(lp3716
S'http://www.web2py.com'
p3717
asbasbasbag68
(g84
g70
NtRp3718
(dp3719
g73
(dp3720
sg82
g3676
sg75
(lp3721
g68
(g89
g70
NtRp3722
(dp3723
g73
(dp3724
sg82
g3718
sg75
(lp3725
g68
(g69
g70
NtRp3726
(dp3727
g73
(dp3728
g81
I1
ssg82
g3722
sg75
(lp3729
(lp3730
(g3407
(S't\x08\x00\x00\x00Download'
tRp3731
I00
S'http://www.web2py.com/examples/default/download'
p3732
tp3733
a(g3407
(S't\x07\x00\x00\x00Support'
tRp3734
I00
S'http://www.web2py.com/examples/default/support'
p3735
tp3736
a(g3407
(S't\x04\x00\x00\x00Demo'
tRp3737
I00
S'http://web2py.com/demo_admin'
p3738
tp3739
a(g3407
(S's\x0e\x00\x00\x00Quick Examples'
tRp3740
I00
S'http://web2py.com/examples/default/examples'
p3741
tp3742
a(g3407
(S't\x03\x00\x00\x00FAQ'
tRp3743
I00
S'http://web2py.com/AlterEgo'
p3744
tp3745
a(g3407
(S't\x06\x00\x00\x00Videos'
tRp3746
I00
S'http://www.web2py.com/examples/default/videos/'
p3747
tp3748
a(g3407
(S's\x11\x00\x00\x00Free Applications'
tRp3749
I00
S'http://web2py.com/appliances'
p3750
tp3751
a(g3407
(S't\x07\x00\x00\x00Plugins'
tRp3752
I00
S'http://web2py.com/plugins'
p3753
tp3754
a(g3407
(S't\x07\x00\x00\x00Layouts'
tRp3755
I00
S'http://web2py.com/layouts'
p3756
tp3757
a(g3407
(S't\x07\x00\x00\x00Recipes'
tRp3758
I00
S'http://web2pyslices.com/'
p3759
tp3760
a(g3407
(S't\x08\x00\x00\x00Semantic'
tRp3761
I00
S'http://web2py.com/semantic'
p3762
tp3763
aasbasbasbasbasbasbasbag68
(g84
g70
NtRp3764
(dp3765
g73
(dp3766
sg82
g3521
sg75
(lp3767
g68
(g89
g70
NtRp3768
(dp3769
g73
(dp3770
sg82
g3764
sg75
(lp3771
g68
(g69
g70
NtRp3772
(dp3773
g73
(dp3774
g81
I2
ssg82
g3768
sg75
(lp3775
g68
(g77
g70
NtRp3776
(dp3777
g73
(dp3778
g81
I1
ssg82
Nsg75
(lp3779
g68
(g84
g70
NtRp3780
(dp3781
g73
(dp3782
sg82
g3776
sg75
(lp3783
g68
(g89
g70
NtRp3784
(dp3785
g73
(dp3786
sg82
g3780
sg75
(lp3787
g68
(g69
g70
NtRp3788
(dp3789
g73
(dp3790
g81
I1
ssg82
g3784
sg75
(lp3791
g3407
(S't\r\x00\x00\x00Documentation'
tRp3792
asbasbasbag68
(g84
g70
NtRp3793
(dp3794
g73
(dp3795
sg82
g3776
sg75
(lp3796
g68
(g89
g70
NtRp3797
(dp3798
g73
(dp3799
sg82
g3793
sg75
(lp3800
g68
(g69
g70
NtRp3801
(dp3802
g73
(dp3803
g81
I1
ssg82
g3797
sg75
(lp3804
I00
asbasbasbag68
(g84
g70
NtRp3805
(dp3806
g73
(dp3807
sg82
g3776
sg75
(lp3808
g68
(g89
g70
NtRp3809
(dp3810
g73
(dp3811
sg82
g3805
sg75
(lp3812
g68
(g69
g70
NtRp3813
(dp3814
g73
(dp3815
g81
I1
ssg82
g3809
sg75
(lp3816
S'http://www.web2py.com/book'
p3817
asbasbasbag68
(g84
g70
NtRp3818
(dp3819
g73
(dp3820
sg82
g3776
sg75
(lp3821
g68
(g89
g70
NtRp3822
(dp3823
g73
(dp3824
sg82
g3818
sg75
(lp3825
g68
(g69
g70
NtRp3826
(dp3827
g73
(dp3828
g81
I1
ssg82
g3822
sg75
(lp3829
(lp3830
(g3407
(S't\x07\x00\x00\x00Preface'
tRp3831
I00
S'http://www.web2py.com/book/default/chapter/00'
p3832
tp3833
a(g3407
(S't\x0c\x00\x00\x00Introduction'
tRp3834
I00
S'http://www.web2py.com/book/default/chapter/01'
p3835
tp3836
a(g3407
(S't\x06\x00\x00\x00Python'
tRp3837
I00
S'http://www.web2py.com/book/default/chapter/02'
p3838
tp3839
a(g3407
(S't\x08\x00\x00\x00Overview'
tRp3840
I00
S'http://www.web2py.com/book/default/chapter/03'
p3841
tp3842
a(g3407
(S's\x08\x00\x00\x00The Core'
tRp3843
I00
S'http://www.web2py.com/book/default/chapter/04'
p3844
tp3845
a(g3407
(S's\t\x00\x00\x00The Views'
tRp3846
I00
S'http://www.web2py.com/book/default/chapter/05'
p3847
tp3848
a(g3407
(S't\x08\x00\x00\x00Database'
tRp3849
I00
S'http://www.web2py.com/book/default/chapter/06'
p3850
tp3851
a(g3407
(S's\x14\x00\x00\x00Forms and Validators'
tRp3852
I00
S'http://www.web2py.com/book/default/chapter/07'
p3853
tp3854
a(g3407
(S's\r\x00\x00\x00Email and SMS'
tRp3855
I00
S'http://www.web2py.com/book/default/chapter/08'
p3856
tp3857
a(g3407
(S's\x0e\x00\x00\x00Access Control'
tRp3858
I00
S'http://www.web2py.com/book/default/chapter/09'
p3859
tp3860
a(g3407
(S't\x08\x00\x00\x00Services'
tRp3861
I00
S'http://www.web2py.com/book/default/chapter/10'
p3862
tp3863
a(g3407
(S's\x0c\x00\x00\x00Ajax Recipes'
tRp3864
I00
S'http://www.web2py.com/book/default/chapter/11'
p3865
tp3866
a(g3407
(S's\x16\x00\x00\x00Components and Plugins'
tRp3867
I00
S'http://www.web2py.com/book/default/chapter/12'
p3868
tp3869
a(g3407
(S's\x12\x00\x00\x00Deployment Recipes'
tRp3870
I00
S'http://www.web2py.com/book/default/chapter/13'
p3871
tp3872
a(g3407
(S's\r\x00\x00\x00Other Recipes'
tRp3873
I00
S'http://www.web2py.com/book/default/chapter/14'
p3874
tp3875
a(g3407
(S's\r\x00\x00\x00Buy this book'
tRp3876
I00
S'http://stores.lulu.com/web2py'
p3877
tp3878
aasbasbasbasbasbasbasbag68
(g84
g70
NtRp3879
(dp3880
g73
(dp3881
sg82
g3521
sg75
(lp3882
g68
(g89
g70
NtRp3883
(dp3884
g73
(dp3885
sg82
g3879
sg75
(lp3886
g68
(g69
g70
NtRp3887
(dp3888
g73
(dp3889
g81
I2
ssg82
g3883
sg75
(lp3890
g68
(g77
g70
NtRp3891
(dp3892
g73
(dp3893
g81
I1
ssg82
Nsg75
(lp3894
g68
(g84
g70
NtRp3895
(dp3896
g73
(dp3897
sg82
g3891
sg75
(lp3898
g68
(g89
g70
NtRp3899
(dp3900
g73
(dp3901
sg82
g3895
sg75
(lp3902
g68
(g69
g70
NtRp3903
(dp3904
g73
(dp3905
g81
I1
ssg82
g3899
sg75
(lp3906
g3407
(S't\t\x00\x00\x00Community'
tRp3907
asbasbasbag68
(g84
g70
NtRp3908
(dp3909
g73
(dp3910
sg82
g3891
sg75
(lp3911
g68
(g89
g70
NtRp3912
(dp3913
g73
(dp3914
sg82
g3908
sg75
(lp3915
g68
(g69
g70
NtRp3916
(dp3917
g73
(dp3918
g81
I1
ssg82
g3912
sg75
(lp3919
I00
asbasbasbag68
(g84
g70
NtRp3920
(dp3921
g73
(dp3922
sg82
g3891
sg75
(lp3923
g68
(g89
g70
NtRp3924
(dp3925
g73
(dp3926
sg82
g3920
sg75
(lp3927
g68
(g69
g70
NtRp3928
(dp3929
g73
(dp3930
g81
I1
ssg82
g3924
sg75
(lp3931
Nasbasbasbag68
(g84
g70
NtRp3932
(dp3933
g73
(dp3934
sg82
g3891
sg75
(lp3935
g68
(g89
g70
NtRp3936
(dp3937
g73
(dp3938
sg82
g3932
sg75
(lp3939
g68
(g69
g70
NtRp3940
(dp3941
g73
(dp3942
g81
I1
ssg82
g3936
sg75
(lp3943
(lp3944
(g3407
(S't\x06\x00\x00\x00Groups'
tRp3945
I00
S'http://www.web2py.com/examples/default/usergroups'
p3946
tp3947
a(g3407
(S't\x07\x00\x00\x00Twitter'
tRp3948
I00
S'http://twitter.com/web2py'
p3949
tp3950
a(g3407
(S's\t\x00\x00\x00Live Chat'
tRp3951
I00
S'http://webchat.freenode.net/?channels=web2py'
p3952
tp3953
aasbasbasbasbasbasbasbag68
(g84
g70
NtRp3954
(dp3955
g73
(dp3956
sg82
g3521
sg75
(lp3957
g68
(g89
g70
NtRp3958
(dp3959
g73
(dp3960
sg82
g3954
sg75
(lp3961
g68
(g69
g70
NtRp3962
(dp3963
g73
(dp3964
g81
I2
ssg82
g3958
sg75
(lp3965
g68
(g77
g70
NtRp3966
(dp3967
g73
(dp3968
g81
I1
ssg82
Nsg75
(lp3969
g68
(g84
g70
NtRp3970
(dp3971
g73
(dp3972
sg82
g3966
sg75
(lp3973
g68
(g89
g70
NtRp3974
(dp3975
g73
(dp3976
sg82
g3970
sg75
(lp3977
g68
(g69
g70
NtRp3978
(dp3979
g73
(dp3980
g81
I1
ssg82
g3974
sg75
(lp3981
g3407
(S't\x07\x00\x00\x00Plugins'
tRp3982
asbasbasbag68
(g84
g70
NtRp3983
(dp3984
g73
(dp3985
sg82
g3966
sg75
(lp3986
g68
(g89
g70
NtRp3987
(dp3988
g73
(dp3989
sg82
g3983
sg75
(lp3990
g68
(g69
g70
NtRp3991
(dp3992
g73
(dp3993
g81
I1
ssg82
g3987
sg75
(lp3994
I00
asbasbasbag68
(g84
g70
NtRp3995
(dp3996
g73
(dp3997
sg82
g3966
sg75
(lp3998
g68
(g89
g70
NtRp3999
(dp4000
g73
(dp4001
sg82
g3995
sg75
(lp4002
g68
(g69
g70
NtRp4003
(dp4004
g73
(dp4005
g81
I1
ssg82
g3999
sg75
(lp4006
Nasbasbasbag68
(g84
g70
NtRp4007
(dp4008
g73
(dp4009
sg82
g3966
sg75
(lp4010
g68
(g89
g70
NtRp4011
(dp4012
g73
(dp4013
sg82
g4007
sg75
(lp4014
g68
(g69
g70
NtRp4015
(dp4016
g73
(dp4017
g81
I1
ssg82
g4011
sg75
(lp4018
(lp4019
(S'plugin_wiki'
p4020
I00
S'http://web2py.com/examples/default/download'
p4021
tp4022
a(g3407
(S's\r\x00\x00\x00Other Plugins'
tRp4023
I00
g3753
tp4024
a(g3407
(S's\x0e\x00\x00\x00Layout Plugins'
tRp4025
I00
g3756
tp4026
aasbasbasbasbasbasbasbasbasbasbasbasbasbasbasbasbasbasbasbag68
(g84
g70
NtRp4027
(dp4028
g73
(dp4029
sg82
g2902
sg75
(lp4030
g68
(g89
g70
NtRp4031
(dp4032
g73
(dp4033
g93
g94
ssg82
g4027
sg75
(lp4034
S'meta'
p4035
asbag68
(g89
g70
NtRp4036
(dp4037
g73
(dp4038
g100
g101
ssg82
g4027
sg75
(lp4039
S':'
asbag68
(g89
g70
NtRp4040
(dp4041
g73
(dp4042
sg82
g4027
sg75
(lp4043
g68
(g69
g70
NtRp4044
(dp4045
g73
(dp4046
g81
I5
ssg82
g4040
sg75
(lp4047
g68
(g77
g70
NtRp4048
(dp4049
g73
(dp4050
g81
I4
ssg82
Nsg75
(lp4051
g68
(g84
g70
NtRp4052
(dp4053
g73
(dp4054
sg82
g4048
sg75
(lp4055
g68
(g89
g70
NtRp4056
(dp4057
g73
(dp4058
g93
g94
ssg82
g4052
sg75
(lp4059
S'author'
p4060
asbag68
(g89
g70
NtRp4061
(dp4062
g73
(dp4063
g100
g101
ssg82
g4052
sg75
(lp4064
S':'
asbag68
(g89
g70
NtRp4065
(dp4066
g73
(dp4067
sg82
g4052
sg75
(lp4068
g68
(g69
g70
NtRp4069
(dp4070
g73
(dp4071
g81
I4
ssg82
g4065
sg75
(lp4072
S'Your Name <you@example.com>'
p4073
asbasbasbag68
(g84
g70
NtRp4074
(dp4075
g73
(dp4076
sg82
g4048
sg75
(lp4077
g68
(g89
g70
NtRp4078
(dp4079
g73
(dp4080
g93
g94
ssg82
g4074
sg75
(lp4081
S'copyright'
p4082
asbag68
(g89
g70
NtRp4083
(dp4084
g73
(dp4085
g100
g101
ssg82
g4074
sg75
(lp4086
S':'
asbag68
(g89
g70
NtRp4087
(dp4088
g73
(dp4089
sg82
g4074
sg75
(lp4090
g68
(g69
g70
NtRp4091
(dp4092
g73
(dp4093
g81
I4
ssg82
g4087
sg75
(lp4094
S'Copyright 2011'
p4095
asbasbasbag68
(g84
g70
NtRp4096
(dp4097
g73
(dp4098
sg82
g4048
sg75
(lp4099
g68
(g89
g70
NtRp4100
(dp4101
g73
(dp4102
g93
g94
ssg82
g4096
sg75
(lp4103
S'description'
p4104
asbag68
(g89
g70
NtRp4105
(dp4106
g73
(dp4107
g100
g101
ssg82
g4096
sg75
(lp4108
S':'
asbag68
(g89
g70
NtRp4109
(dp4110
g73
(dp4111
sg82
g4096
sg75
(lp4112
g68
(g69
g70
NtRp4113
(dp4114
g73
(dp4115
g81
I4
ssg82
g4109
sg75
(lp4116
S'a cool new app'
p4117
asbasbasbag68
(g84
g70
NtRp4118
(dp4119
g73
(dp4120
sg82
g4048
sg75
(lp4121
g68
(g89
g70
NtRp4122
(dp4123
g73
(dp4124
g93
g94
ssg82
g4118
sg75
(lp4125
S'generator'
p4126
asbag68
(g89
g70
NtRp4127
(dp4128
g73
(dp4129
g100
g101
ssg82
g4118
sg75
(lp4130
S':'
asbag68
(g89
g70
NtRp4131
(dp4132
g73
(dp4133
sg82
g4118
sg75
(lp4134
g68
(g69
g70
NtRp4135
(dp4136
g73
(dp4137
g81
I4
ssg82
g4131
sg75
(lp4138
S'Web2py Web Framework'
p4139
asbasbasbag68
(g84
g70
NtRp4140
(dp4141
g73
(dp4142
sg82
g4048
sg75
(lp4143
g68
(g89
g70
NtRp4144
(dp4145
g73
(dp4146
g93
g94
ssg82
g4140
sg75
(lp4147
S'keywords'
p4148
asbag68
(g89
g70
NtRp4149
(dp4150
g73
(dp4151
g100
g101
ssg82
g4140
sg75
(lp4152
S':'
asbag68
(g89
g70
NtRp4153
(dp4154
g73
(dp4155
sg82
g4140
sg75
(lp4156
g68
(g69
g70
NtRp4157
(dp4158
g73
(dp4159
g81
I4
ssg82
g4153
sg75
(lp4160
S'web2py, python, framework'
p4161
asbasbasbasbasbasbasbag68
(g84
g70
NtRp4162
(dp4163
g73
(dp4164
sg82
g2902
sg75
(lp4165
g68
(g89
g70
NtRp4166
(dp4167
g73
(dp4168
g93
g94
ssg82
g4162
sg75
(lp4169
S'postprocessing'
p4170
asbag68
(g89
g70
NtRp4171
(dp4172
g73
(dp4173
g100
g101
ssg82
g4162
sg75
(lp4174
S':'
asbag68
(g89
g70
NtRp4175
(dp4176
g73
(dp4177
sg82
g4162
sg75
(lp4178
g68
(g69
g70
NtRp4179
(dp4180
g73
(dp4181
g81
I5
ssg82
g4175
sg75
(lp4182
g68
(g77
g70
NtRp4183
(dp4184
g73
(dp4185
g81
I4
ssg82
Nsg75
(lp4186
sbasbasbasbag68
(g84
g70
NtRp4187
(dp4188
g73
(dp4189
sg82
g2902
sg75
(lp4190
g68
(g89
g70
NtRp4191
(dp4192
g73
(dp4193
g93
g94
ssg82
g4187
sg75
(lp4194
S'session_file'
p4195
asbag68
(g89
g70
NtRp4196
(dp4197
g73
(dp4198
g100
g101
ssg82
g4187
sg75
(lp4199
S':'
asbag68
(g89
g70
NtRp4200
(dp4201
g73
(dp4202
sg82
g4187
sg75
(lp4203
g68
(g69
g70
NtRp4204
(dp4205
g73
(dp4206
g81
I5
ssg82
g4200
sg75
(lp4207
S"<open file 'C:\\Users\\liangh\\Desktop\\web2py\\applications\\welcome\\sessions\\137.112.117.19-b7feea4f-bb48-44b0-b0f7-071e46d9d712', mode 'rb+' at 0x02ECFF40>"
p4208
asbasbasbag68
(g84
g70
NtRp4209
(dp4210
g73
(dp4211
sg82
g2902
sg75
(lp4212
g68
(g89
g70
NtRp4213
(dp4214
g73
(dp4215
g93
g94
ssg82
g4209
sg75
(lp4216
S'session_filename'
p4217
asbag68
(g89
g70
NtRp4218
(dp4219
g73
(dp4220
g100
g101
ssg82
g4209
sg75
(lp4221
S':'
asbag68
(g89
g70
NtRp4222
(dp4223
g73
(dp4224
sg82
g4209
sg75
(lp4225
g68
(g69
g70
NtRp4226
(dp4227
g73
(dp4228
g81
I5
ssg82
g4222
sg75
(lp4229
S'C:\\Users\\liangh\\Desktop\\web2py\\applications\\welcome\\sessions\\137.112.117.19-b7feea4f-bb48-44b0-b0f7-071e46d9d712'
p4230
asbasbasbag68
(g84
g70
NtRp4231
(dp4232
g73
(dp4233
sg82
g2902
sg75
(lp4234
g68
(g89
g70
NtRp4235
(dp4236
g73
(dp4237
g93
g94
ssg82
g4231
sg75
(lp4238
S'session_id'
p4239
asbag68
(g89
g70
NtRp4240
(dp4241
g73
(dp4242
g100
g101
ssg82
g4231
sg75
(lp4243
S':'
asbag68
(g89
g70
NtRp4244
(dp4245
g73
(dp4246
sg82
g4231
sg75
(lp4247
g68
(g69
g70
NtRp4248
(dp4249
g73
(dp4250
g81
I5
ssg82
g4244
sg75
(lp4251
S'137.112.117.19-b7feea4f-bb48-44b0-b0f7-071e46d9d712'
p4252
asbasbasbag68
(g84
g70
NtRp4253
(dp4254
g73
(dp4255
sg82
g2902
sg75
(lp4256
g68
(g89
g70
NtRp4257
(dp4258
g73
(dp4259
g93
g94
ssg82
g4253
sg75
(lp4260
S'session_id_name'
p4261
asbag68
(g89
g70
NtRp4262
(dp4263
g73
(dp4264
g100
g101
ssg82
g4253
sg75
(lp4265
S':'
asbag68
(g89
g70
NtRp4266
(dp4267
g73
(dp4268
sg82
g4253
sg75
(lp4269
g68
(g69
g70
NtRp4270
(dp4271
g73
(dp4272
g81
I5
ssg82
g4266
sg75
(lp4273
g2959
asbasbasbag68
(g84
g70
NtRp4274
(dp4275
g73
(dp4276
sg82
g2902
sg75
(lp4277
g68
(g89
g70
NtRp4278
(dp4279
g73
(dp4280
g93
g94
ssg82
g4274
sg75
(lp4281
S'session_locked'
p4282
asbag68
(g89
g70
NtRp4283
(dp4284
g73
(dp4285
g100
g101
ssg82
g4274
sg75
(lp4286
S':'
asbag68
(g89
g70
NtRp4287
(dp4288
g73
(dp4289
sg82
g4274
sg75
(lp4290
g68
(g69
g70
NtRp4291
(dp4292
g73
(dp4293
g81
I5
ssg82
g4287
sg75
(lp4294
g1504
asbasbasbag68
(g84
g70
NtRp4295
(dp4296
g73
(dp4297
sg82
g2902
sg75
(lp4298
g68
(g89
g70
NtRp4299
(dp4300
g73
(dp4301
g93
g94
ssg82
g4295
sg75
(lp4302
S'session_new'
p4303
asbag68
(g89
g70
NtRp4304
(dp4305
g73
(dp4306
g100
g101
ssg82
g4295
sg75
(lp4307
S':'
asbag68
(g89
g70
NtRp4308
(dp4309
g73
(dp4310
sg82
g4295
sg75
(lp4311
g68
(g69
g70
NtRp4312
(dp4313
g73
(dp4314
g81
I5
ssg82
g4308
sg75
(lp4315
g111
asbasbasbag68
(g84
g70
NtRp4316
(dp4317
g73
(dp4318
sg82
g2902
sg75
(lp4319
g68
(g89
g70
NtRp4320
(dp4321
g73
(dp4322
g93
g94
ssg82
g4316
sg75
(lp4323
S'status'
p4324
asbag68
(g89
g70
NtRp4325
(dp4326
g73
(dp4327
g100
g101
ssg82
g4316
sg75
(lp4328
S':'
asbag68
(g89
g70
NtRp4329
(dp4330
g73
(dp4331
sg82
g4316
sg75
(lp4332
g68
(g69
g70
NtRp4333
(dp4334
g73
(dp4335
g81
I5
ssg82
g4329
sg75
(lp4336
S'200'
p4337
asbasbasbag68
(g84
g70
NtRp4338
(dp4339
g73
(dp4340
sg82
g2902
sg75
(lp4341
g68
(g89
g70
NtRp4342
(dp4343
g73
(dp4344
g93
g94
ssg82
g4338
sg75
(lp4345
S'subtitle'
p4346
asbag68
(g89
g70
NtRp4347
(dp4348
g73
(dp4349
g100
g101
ssg82
g4338
sg75
(lp4350
S':'
asbag68
(g89
g70
NtRp4351
(dp4352
g73
(dp4353
sg82
g4338
sg75
(lp4354
g68
(g69
g70
NtRp4355
(dp4356
g73
(dp4357
g81
I5
ssg82
g4351
sg75
(lp4358
g3407
(S's\r\x00\x00\x00customize me!'
tRp4359
asbasbasbag68
(g84
g70
NtRp4360
(dp4361
g73
(dp4362
sg82
g2902
sg75
(lp4363
g68
(g89
g70
NtRp4364
(dp4365
g73
(dp4366
g93
g94
ssg82
g4360
sg75
(lp4367
S'title'
p4368
asbag68
(g89
g70
NtRp4369
(dp4370
g73
(dp4371
g100
g101
ssg82
g4360
sg75
(lp4372
S':'
asbag68
(g89
g70
NtRp4373
(dp4374
g73
(dp4375
sg82
g4360
sg75
(lp4376
g68
(g69
g70
NtRp4377
(dp4378
g73
(dp4379
g81
I5
ssg82
g4373
sg75
(lp4380
S'Welcome'
p4381
asbasbasbag68
(g84
g70
NtRp4382
(dp4383
g73
(dp4384
sg82
g2902
sg75
(lp4385
g68
(g89
g70
NtRp4386
(dp4387
g73
(dp4388
g93
g94
ssg82
g4382
sg75
(lp4389
g2168
asbag68
(g89
g70
NtRp4390
(dp4391
g73
(dp4392
g100
g101
ssg82
g4382
sg75
(lp4393
S':'
asbag68
(g89
g70
NtRp4394
(dp4395
g73
(dp4396
sg82
g4382
sg75
(lp4397
g68
(g69
g70
NtRp4398
(dp4399
g73
(dp4400
g81
I5
ssg82
g4394
sg75
(lp4401
g2181
asbasbasbag68
(g84
g70
NtRp4402
(dp4403
g73
(dp4404
sg82
g2902
sg75
(lp4405
g68
(g89
g70
NtRp4406
(dp4407
g73
(dp4408
g93
g94
ssg82
g4402
sg75
(lp4409
S'view'
p4410
asbag68
(g89
g70
NtRp4411
(dp4412
g73
(dp4413
g100
g101
ssg82
g4402
sg75
(lp4414
S':'
asbag68
(g89
g70
NtRp4415
(dp4416
g73
(dp4417
sg82
g4402
sg75
(lp4418
g68
(g69
g70
NtRp4419
(dp4420
g73
(dp4421
g81
I5
ssg82
g4415
sg75
(lp4422
S'league/index.html'
p4423
asbasbasbasbasbsS'locals'
p4424
(dp4425
g4
S"r'C:\\Users\\liangh\\Desktop\\web2py\\applications\\welcome\\views\\league/index.html'"
p4426
sg6
S'r"response.write(\'<!DOCTYPE html>\\r\\n<!-- pauliris...write(\'\\r\\n</body>\\r\\n</html>\\r\\n\', escape=False)"'
p4427
sssS'traceback'
p4428
S'Traceback (most recent call last):\n  File "C:\\Users\\liangh\\Desktop\\web2py\\gluon\\restricted.py", line 203, in restricted\n    ccode = compile2(code,layer)\n  File "C:\\Users\\liangh\\Desktop\\web2py\\gluon\\restricted.py", line 189, in compile2\n    return compile(code.rstrip().replace(\'\\r\\n\',\'\\n\')+\'\\n\', layer, \'exec\')\n  File "C:\\Users\\liangh\\Desktop\\web2py\\applications\\welcome\\views\\league/index.html", line 79\n    response.write(\'</td></tr>\\r\\n\', escape=False)\n           ^\nSyntaxError: invalid syntax\n'
p4429
s.