(dp1
S'output'
p2
S"<type 'exceptions.IndentationError'> unexpected indent (menu.py, line 39)"
p3
sS'layer'
p4
S'C:\\Users\\liangh\\Desktop\\CSSE 333\\project\\SC2TourneyTracker\\web2py\\applications\\welcome\\models\\menu.py'
p5
sS'code'
p6
S"# -*- coding: utf-8 -*-\n# this file is released under public domain and you can use without limitations\n\n#########################################################################\n## Customize your APP title, subtitle and menus here\n#########################################################################\n\n#response.title = ' '.join(word.capitalize() for word in request.application.split('_'))\nresponse.title = 'SC2CTT v0.1'\nresponse.subtitle = T('Starcraft II Custom Tournament Tracker')\n\n## read more at http://dev.w3.org/html5/markup/meta.name.html\nresponse.meta.author = 'Your Name <you@example.com>'\nresponse.meta.description = 'a cool new app'\nresponse.meta.keywords = 'web2py, python, framework'\nresponse.meta.generator = 'Web2py Web Framework'\nresponse.meta.copyright = 'Copyright 2011'\n\n## your http://google.com/analytics id\nresponse.google_analytics_id = None\n\n#########################################################################\n## this is the main application menu add/remove items as required\n#########################################################################\n\nresponse.menu = [\n    (T('Home'), False, URL('default','index'), [])\n    ]\n\n#########################################################################\n## provide shortcuts for development. remove in production\n#########################################################################\n\ndef _():\n    # shortcuts\n    app = request.application\n    ctr = request.controller\n    # useful links to internal and external resources\n\t'''\n    response.menu+=[\n        (SPAN('web2py',_style='color:yellow'),False, None, [\n                (T('My Sites'),False,URL('admin','default','site')),\n                (T('This App'),False,URL('admin','default','design/%s' % app), [\n                        (T('Controller'),False,\n                         URL('admin','default','edit/%s/controllers/%s.py' % (app,ctr))),\n                        (T('View'),False,\n                         URL('admin','default','edit/%s/views/%s' % (app,response.view))),\n                        (T('Layout'),False,\n                         URL('admin','default','edit/%s/views/layout.html' % app)),\n                        (T('Stylesheet'),False,\n                         URL('admin','default','edit/%s/static/css/web2py.css' % app)),\n                        (T('DB Model'),False,\n                         URL('admin','default','edit/%s/models/db.py' % app)),\n                        (T('Menu Model'),False,\n                         URL('admin','default','edit/%s/models/menu.py' % app)),\n                        (T('Database'),False, URL(app,'appadmin','index')),\n                        (T('Errors'),False, URL('admin','default','errors/' + app)),\n                        (T('About'),False, URL('admin','default','about/' + app)),\n                        ]),\n                ('web2py.com',False,'http://www.web2py.com', [\n                        (T('Download'),False,'http://www.web2py.com/examples/default/download'),\n                        (T('Support'),False,'http://www.web2py.com/examples/default/support'),\n                        (T('Demo'),False,'http://web2py.com/demo_admin'),\n                        (T('Quick Examples'),False,'http://web2py.com/examples/default/examples'),\n                        (T('FAQ'),False,'http://web2py.com/AlterEgo'),\n                        (T('Videos'),False,'http://www.web2py.com/examples/default/videos/'),\n                        (T('Free Applications'),False,'http://web2py.com/appliances'),\n                        (T('Plugins'),False,'http://web2py.com/plugins'),\n                        (T('Layouts'),False,'http://web2py.com/layouts'),\n                        (T('Recipes'),False,'http://web2pyslices.com/'),\n                        (T('Semantic'),False,'http://web2py.com/semantic'),\n                        ]),\n                (T('Documentation'),False,'http://www.web2py.com/book', [\n                        (T('Preface'),False,'http://www.web2py.com/book/default/chapter/00'),\n                        (T('Introduction'),False,'http://www.web2py.com/book/default/chapter/01'),\n                        (T('Python'),False,'http://www.web2py.com/book/default/chapter/02'),\n                        (T('Overview'),False,'http://www.web2py.com/book/default/chapter/03'),\n                        (T('The Core'),False,'http://www.web2py.com/book/default/chapter/04'),\n                        (T('The Views'),False,'http://www.web2py.com/book/default/chapter/05'),\n                        (T('Database'),False,'http://www.web2py.com/book/default/chapter/06'),\n                        (T('Forms and Validators'),False,'http://www.web2py.com/book/default/chapter/07'),\n                        (T('Email and SMS'),False,'http://www.web2py.com/book/default/chapter/08'),\n                        (T('Access Control'),False,'http://www.web2py.com/book/default/chapter/09'),\n                        (T('Services'),False,'http://www.web2py.com/book/default/chapter/10'),\n                        (T('Ajax Recipes'),False,'http://www.web2py.com/book/default/chapter/11'),\n                        (T('Components and Plugins'),False,'http://www.web2py.com/book/default/chapter/12'),\n                        (T('Deployment Recipes'),False,'http://www.web2py.com/book/default/chapter/13'),\n                        (T('Other Recipes'),False,'http://www.web2py.com/book/default/chapter/14'),\n                        (T('Buy this book'),False,'http://stores.lulu.com/web2py'),\n                        ]),\n                (T('Community'),False, None, [\n                        (T('Groups'),False,'http://www.web2py.com/examples/default/usergroups'),\n                        (T('Twitter'),False,'http://twitter.com/web2py'),\n                        (T('Live Chat'),False,'http://webchat.freenode.net/?channels=web2py'),\n                        ]),\n                (T('Plugins'),False,None, [\n                        ('plugin_wiki',False,'http://web2py.com/examples/default/download'),\n                        (T('Other Plugins'),False,'http://web2py.com/plugins'),\n                        (T('Layout Plugins'),False,'http://web2py.com/layouts'),\n                        ])\n                ]\n         )]\n\t\t '''\n_()\n\n"
p7
sS'snapshot'
p8
(dp9
S'exception'
p10
(dp11
S'__getslice__'
p12
S"<method-wrapper '__getslice__' of exceptions.IndentationError object>"
p13
sS'text'
p14
S'"\\t\'\'\'\\n"'
p15
sS'__str__'
p16
S"<method-wrapper '__str__' of exceptions.IndentationError object>"
p17
sS'__reduce__'
p18
S'<built-in method __reduce__ of exceptions.IndentationError object>'
p19
sS'__dict__'
p20
S'{}'
p21
sS'__sizeof__'
p22
S'<built-in method __sizeof__ of exceptions.IndentationError object>'
p23
sS'__init__'
p24
S"<method-wrapper '__init__' of exceptions.IndentationError object>"
p25
sS'__setattr__'
p26
S"<method-wrapper '__setattr__' of exceptions.IndentationError object>"
p27
sS'__reduce_ex__'
p28
S'<built-in method __reduce_ex__ of exceptions.IndentationError object>'
p29
sS'__new__'
p30
S'<built-in method __new__ of type object>'
p31
sS'__format__'
p32
S'<built-in method __format__ of exceptions.IndentationError object>'
p33
sS'__class__'
p34
S"<type 'exceptions.IndentationError'>"
p35
sS'filename'
p36
S"r'C:\\Users\\liangh\\Desktop\\CSSE 333\\project\\SC2Tour...racker\\web2py\\applications\\welcome\\models\\menu.py'"
p37
sS'lineno'
p38
S'39'
p39
sS'msg'
p40
S"'unexpected indent'"
p41
sS'__doc__'
p42
S"'Improper indentation.'"
p43
sS'__getitem__'
p44
S"<method-wrapper '__getitem__' of exceptions.IndentationError object>"
p45
sS'__setstate__'
p46
S'<built-in method __setstate__ of exceptions.IndentationError object>'
p47
sS'__getattribute__'
p48
S"<method-wrapper '__getattribute__' of exceptions.IndentationError object>"
p49
sS'print_file_and_line'
p50
S'None'
p51
sS'args'
p52
S'(\'unexpected indent\', (r\'C:\\Users\\liangh\\Desktop\\CSSE 333\\project\\SC2Tour...racker\\web2py\\applications\\welcome\\models\\menu.py\', 39, 1, "\\t\'\'\'\\n"))'
p53
sS'__subclasshook__'
p54
S'<built-in method __subclasshook__ of type object>'
p55
sS'offset'
p56
S'1'
sS'__unicode__'
p57
S'<built-in method __unicode__ of exceptions.IndentationError object>'
p58
sS'__delattr__'
p59
S"<method-wrapper '__delattr__' of exceptions.IndentationError object>"
p60
sS'__repr__'
p61
S"<method-wrapper '__repr__' of exceptions.IndentationError object>"
p62
sS'__hash__'
p63
S"<method-wrapper '__hash__' of exceptions.IndentationError object>"
p64
ssS'evalue'
p65
S'unexpected indent (menu.py, line 39)'
p66
sS'request'
p67
ccopy_reg
_reconstructor
p68
(cgluon.html
BEAUTIFY
p69
c__builtin__
object
p70
NtRp71
(dp72
S'attributes'
p73
(dp74
sS'components'
p75
(lp76
g68
(cgluon.html
TABLE
p77
g70
NtRp78
(dp79
g73
(dp80
S'level'
p81
I5
ssS'parent'
p82
Nsg75
(lp83
g68
(cgluon.html
TR
p84
g70
NtRp85
(dp86
g73
(dp87
sg82
g78
sg75
(lp88
g68
(cgluon.html
TD
p89
g70
NtRp90
(dp91
g73
(dp92
S'_style'
p93
S'font-weight:bold;vertical-align:top'
p94
ssg82
g85
sg75
(lp95
S'ajax'
p96
asbag68
(g89
g70
NtRp97
(dp98
g73
(dp99
S'_valign'
p100
S'top'
p101
ssg82
g85
sg75
(lp102
S':'
asbag68
(g89
g70
NtRp103
(dp104
g73
(dp105
sg82
g85
sg75
(lp106
g68
(g69
g70
NtRp107
(dp108
g73
(dp109
g81
I5
ssg82
g103
sg75
(lp110
S'False'
p111
asbasbasbag68
(g84
g70
NtRp112
(dp113
g73
(dp114
sg82
g78
sg75
(lp115
g68
(g89
g70
NtRp116
(dp117
g73
(dp118
g93
g94
ssg82
g112
sg75
(lp119
S'application'
p120
asbag68
(g89
g70
NtRp121
(dp122
g73
(dp123
g100
g101
ssg82
g112
sg75
(lp124
S':'
asbag68
(g89
g70
NtRp125
(dp126
g73
(dp127
sg82
g112
sg75
(lp128
g68
(g69
g70
NtRp129
(dp130
g73
(dp131
g81
I5
ssg82
g125
sg75
(lp132
S'welcome'
p133
asbasbasbag68
(g84
g70
NtRp134
(dp135
g73
(dp136
sg82
g78
sg75
(lp137
g68
(g89
g70
NtRp138
(dp139
g73
(dp140
g93
g94
ssg82
g134
sg75
(lp141
g52
asbag68
(g89
g70
NtRp142
(dp143
g73
(dp144
g100
g101
ssg82
g134
sg75
(lp145
S':'
asbag68
(g89
g70
NtRp146
(dp147
g73
(dp148
sg82
g134
sg75
(lp149
g68
(g69
g70
NtRp150
(dp151
g73
(dp152
g81
I5
ssg82
g146
sg75
(lp153
g68
(g77
g70
NtRp154
(dp155
g73
(dp156
g81
I4
ssg82
Nsg75
(lp157
sbasbasbasbag68
(g84
g70
NtRp158
(dp159
g73
(dp160
sg82
g78
sg75
(lp161
g68
(g89
g70
NtRp162
(dp163
g73
(dp164
g93
g94
ssg82
g158
sg75
(lp165
S'body'
p166
asbag68
(g89
g70
NtRp167
(dp168
g73
(dp169
g100
g101
ssg82
g158
sg75
(lp170
S':'
asbag68
(g89
g70
NtRp171
(dp172
g73
(dp173
sg82
g158
sg75
(lp174
g68
(g69
g70
NtRp175
(dp176
g73
(dp177
g81
I5
ssg82
g171
sg75
(lp178
S'<cStringIO.StringO object at 0x0695D9A0>'
p179
asbasbasbag68
(g84
g70
NtRp180
(dp181
g73
(dp182
sg82
g78
sg75
(lp183
g68
(g89
g70
NtRp184
(dp185
g73
(dp186
g93
g94
ssg82
g180
sg75
(lp187
S'client'
p188
asbag68
(g89
g70
NtRp189
(dp190
g73
(dp191
g100
g101
ssg82
g180
sg75
(lp192
S':'
asbag68
(g89
g70
NtRp193
(dp194
g73
(dp195
sg82
g180
sg75
(lp196
g68
(g69
g70
NtRp197
(dp198
g73
(dp199
g81
I5
ssg82
g193
sg75
(lp200
S'137.112.117.19'
p201
asbasbasbag68
(g84
g70
NtRp202
(dp203
g73
(dp204
sg82
g78
sg75
(lp205
g68
(g89
g70
NtRp206
(dp207
g73
(dp208
g93
g94
ssg82
g202
sg75
(lp209
S'controller'
p210
asbag68
(g89
g70
NtRp211
(dp212
g73
(dp213
g100
g101
ssg82
g202
sg75
(lp214
S':'
asbag68
(g89
g70
NtRp215
(dp216
g73
(dp217
sg82
g202
sg75
(lp218
g68
(g69
g70
NtRp219
(dp220
g73
(dp221
g81
I5
ssg82
g215
sg75
(lp222
S'default'
p223
asbasbasbag68
(g84
g70
NtRp224
(dp225
g73
(dp226
sg82
g78
sg75
(lp227
g68
(g89
g70
NtRp228
(dp229
g73
(dp230
g93
g94
ssg82
g224
sg75
(lp231
S'cookies'
p232
asbag68
(g89
g70
NtRp233
(dp234
g73
(dp235
g100
g101
ssg82
g224
sg75
(lp236
S':'
asbag68
(g89
g70
NtRp237
(dp238
g73
(dp239
sg82
g224
sg75
(lp240
g68
(g69
g70
NtRp241
(dp242
g73
(dp243
g81
I5
ssg82
g237
sg75
(lp244
g68
(g77
g70
NtRp245
(dp246
g73
(dp247
g81
I4
ssg82
Nsg75
(lp248
g68
(g84
g70
NtRp249
(dp250
g73
(dp251
sg82
g245
sg75
(lp252
g68
(g89
g70
NtRp253
(dp254
g73
(dp255
g93
g94
ssg82
g249
sg75
(lp256
S'session_id_admin'
p257
asbag68
(g89
g70
NtRp258
(dp259
g73
(dp260
g100
g101
ssg82
g249
sg75
(lp261
S':'
asbag68
(g89
g70
NtRp262
(dp263
g73
(dp264
sg82
g249
sg75
(lp265
g68
(g69
g70
NtRp266
(dp267
g73
(dp268
g81
I4
ssg82
g262
sg75
(lp269
g68
(g77
g70
NtRp270
(dp271
g73
(dp272
g81
I3
ssg82
Nsg75
(lp273
g68
(g84
g70
NtRp274
(dp275
g73
(dp276
sg82
g270
sg75
(lp277
g68
(g89
g70
NtRp278
(dp279
g73
(dp280
g93
g94
ssg82
g274
sg75
(lp281
S'comment'
p282
asbag68
(g89
g70
NtRp283
(dp284
g73
(dp285
g100
g101
ssg82
g274
sg75
(lp286
S':'
asbag68
(g89
g70
NtRp287
(dp288
g73
(dp289
sg82
g274
sg75
(lp290
g68
(g69
g70
NtRp291
(dp292
g73
(dp293
g81
I3
ssg82
g287
sg75
(lp294
S''
asbasbasbag68
(g84
g70
NtRp295
(dp296
g73
(dp297
sg82
g270
sg75
(lp298
g68
(g89
g70
NtRp299
(dp300
g73
(dp301
g93
g94
ssg82
g295
sg75
(lp302
S'domain'
p303
asbag68
(g89
g70
NtRp304
(dp305
g73
(dp306
g100
g101
ssg82
g295
sg75
(lp307
S':'
asbag68
(g89
g70
NtRp308
(dp309
g73
(dp310
sg82
g295
sg75
(lp311
g68
(g69
g70
NtRp312
(dp313
g73
(dp314
g81
I3
ssg82
g308
sg75
(lp315
S''
asbasbasbag68
(g84
g70
NtRp316
(dp317
g73
(dp318
sg82
g270
sg75
(lp319
g68
(g89
g70
NtRp320
(dp321
g73
(dp322
g93
g94
ssg82
g316
sg75
(lp323
S'expires'
p324
asbag68
(g89
g70
NtRp325
(dp326
g73
(dp327
g100
g101
ssg82
g316
sg75
(lp328
S':'
asbag68
(g89
g70
NtRp329
(dp330
g73
(dp331
sg82
g316
sg75
(lp332
g68
(g69
g70
NtRp333
(dp334
g73
(dp335
g81
I3
ssg82
g329
sg75
(lp336
S''
asbasbasbag68
(g84
g70
NtRp337
(dp338
g73
(dp339
sg82
g270
sg75
(lp340
g68
(g89
g70
NtRp341
(dp342
g73
(dp343
g93
g94
ssg82
g337
sg75
(lp344
S'httponly'
p345
asbag68
(g89
g70
NtRp346
(dp347
g73
(dp348
g100
g101
ssg82
g337
sg75
(lp349
S':'
asbag68
(g89
g70
NtRp350
(dp351
g73
(dp352
sg82
g337
sg75
(lp353
g68
(g69
g70
NtRp354
(dp355
g73
(dp356
g81
I3
ssg82
g350
sg75
(lp357
S''
asbasbasbag68
(g84
g70
NtRp358
(dp359
g73
(dp360
sg82
g270
sg75
(lp361
g68
(g89
g70
NtRp362
(dp363
g73
(dp364
g93
g94
ssg82
g358
sg75
(lp365
S'max-age'
p366
asbag68
(g89
g70
NtRp367
(dp368
g73
(dp369
g100
g101
ssg82
g358
sg75
(lp370
S':'
asbag68
(g89
g70
NtRp371
(dp372
g73
(dp373
sg82
g358
sg75
(lp374
g68
(g69
g70
NtRp375
(dp376
g73
(dp377
g81
I3
ssg82
g371
sg75
(lp378
S''
asbasbasbag68
(g84
g70
NtRp379
(dp380
g73
(dp381
sg82
g270
sg75
(lp382
g68
(g89
g70
NtRp383
(dp384
g73
(dp385
g93
g94
ssg82
g379
sg75
(lp386
S'path'
p387
asbag68
(g89
g70
NtRp388
(dp389
g73
(dp390
g100
g101
ssg82
g379
sg75
(lp391
S':'
asbag68
(g89
g70
NtRp392
(dp393
g73
(dp394
sg82
g379
sg75
(lp395
g68
(g69
g70
NtRp396
(dp397
g73
(dp398
g81
I3
ssg82
g392
sg75
(lp399
S''
asbasbasbag68
(g84
g70
NtRp400
(dp401
g73
(dp402
sg82
g270
sg75
(lp403
g68
(g89
g70
NtRp404
(dp405
g73
(dp406
g93
g94
ssg82
g400
sg75
(lp407
S'secure'
p408
asbag68
(g89
g70
NtRp409
(dp410
g73
(dp411
g100
g101
ssg82
g400
sg75
(lp412
S':'
asbag68
(g89
g70
NtRp413
(dp414
g73
(dp415
sg82
g400
sg75
(lp416
g68
(g69
g70
NtRp417
(dp418
g73
(dp419
g81
I3
ssg82
g413
sg75
(lp420
S''
asbasbasbag68
(g84
g70
NtRp421
(dp422
g73
(dp423
sg82
g270
sg75
(lp424
g68
(g89
g70
NtRp425
(dp426
g73
(dp427
g93
g94
ssg82
g421
sg75
(lp428
S'version'
p429
asbag68
(g89
g70
NtRp430
(dp431
g73
(dp432
g100
g101
ssg82
g421
sg75
(lp433
S':'
asbag68
(g89
g70
NtRp434
(dp435
g73
(dp436
sg82
g421
sg75
(lp437
g68
(g69
g70
NtRp438
(dp439
g73
(dp440
g81
I3
ssg82
g434
sg75
(lp441
S''
asbasbasbasbasbasbasbag68
(g84
g70
NtRp442
(dp443
g73
(dp444
sg82
g245
sg75
(lp445
g68
(g89
g70
NtRp446
(dp447
g73
(dp448
g93
g94
ssg82
g442
sg75
(lp449
S'session_id_welcome'
p450
asbag68
(g89
g70
NtRp451
(dp452
g73
(dp453
g100
g101
ssg82
g442
sg75
(lp454
S':'
asbag68
(g89
g70
NtRp455
(dp456
g73
(dp457
sg82
g442
sg75
(lp458
g68
(g69
g70
NtRp459
(dp460
g73
(dp461
g81
I4
ssg82
g455
sg75
(lp462
g68
(g77
g70
NtRp463
(dp464
g73
(dp465
g81
I3
ssg82
Nsg75
(lp466
g68
(g84
g70
NtRp467
(dp468
g73
(dp469
sg82
g463
sg75
(lp470
g68
(g89
g70
NtRp471
(dp472
g73
(dp473
g93
g94
ssg82
g467
sg75
(lp474
g282
asbag68
(g89
g70
NtRp475
(dp476
g73
(dp477
g100
g101
ssg82
g467
sg75
(lp478
S':'
asbag68
(g89
g70
NtRp479
(dp480
g73
(dp481
sg82
g467
sg75
(lp482
g68
(g69
g70
NtRp483
(dp484
g73
(dp485
g81
I3
ssg82
g479
sg75
(lp486
S''
asbasbasbag68
(g84
g70
NtRp487
(dp488
g73
(dp489
sg82
g463
sg75
(lp490
g68
(g89
g70
NtRp491
(dp492
g73
(dp493
g93
g94
ssg82
g487
sg75
(lp494
g303
asbag68
(g89
g70
NtRp495
(dp496
g73
(dp497
g100
g101
ssg82
g487
sg75
(lp498
S':'
asbag68
(g89
g70
NtRp499
(dp500
g73
(dp501
sg82
g487
sg75
(lp502
g68
(g69
g70
NtRp503
(dp504
g73
(dp505
g81
I3
ssg82
g499
sg75
(lp506
S''
asbasbasbag68
(g84
g70
NtRp507
(dp508
g73
(dp509
sg82
g463
sg75
(lp510
g68
(g89
g70
NtRp511
(dp512
g73
(dp513
g93
g94
ssg82
g507
sg75
(lp514
g324
asbag68
(g89
g70
NtRp515
(dp516
g73
(dp517
g100
g101
ssg82
g507
sg75
(lp518
S':'
asbag68
(g89
g70
NtRp519
(dp520
g73
(dp521
sg82
g507
sg75
(lp522
g68
(g69
g70
NtRp523
(dp524
g73
(dp525
g81
I3
ssg82
g519
sg75
(lp526
S''
asbasbasbag68
(g84
g70
NtRp527
(dp528
g73
(dp529
sg82
g463
sg75
(lp530
g68
(g89
g70
NtRp531
(dp532
g73
(dp533
g93
g94
ssg82
g527
sg75
(lp534
g345
asbag68
(g89
g70
NtRp535
(dp536
g73
(dp537
g100
g101
ssg82
g527
sg75
(lp538
S':'
asbag68
(g89
g70
NtRp539
(dp540
g73
(dp541
sg82
g527
sg75
(lp542
g68
(g69
g70
NtRp543
(dp544
g73
(dp545
g81
I3
ssg82
g539
sg75
(lp546
S''
asbasbasbag68
(g84
g70
NtRp547
(dp548
g73
(dp549
sg82
g463
sg75
(lp550
g68
(g89
g70
NtRp551
(dp552
g73
(dp553
g93
g94
ssg82
g547
sg75
(lp554
g366
asbag68
(g89
g70
NtRp555
(dp556
g73
(dp557
g100
g101
ssg82
g547
sg75
(lp558
S':'
asbag68
(g89
g70
NtRp559
(dp560
g73
(dp561
sg82
g547
sg75
(lp562
g68
(g69
g70
NtRp563
(dp564
g73
(dp565
g81
I3
ssg82
g559
sg75
(lp566
S''
asbasbasbag68
(g84
g70
NtRp567
(dp568
g73
(dp569
sg82
g463
sg75
(lp570
g68
(g89
g70
NtRp571
(dp572
g73
(dp573
g93
g94
ssg82
g567
sg75
(lp574
g387
asbag68
(g89
g70
NtRp575
(dp576
g73
(dp577
g100
g101
ssg82
g567
sg75
(lp578
S':'
asbag68
(g89
g70
NtRp579
(dp580
g73
(dp581
sg82
g567
sg75
(lp582
g68
(g69
g70
NtRp583
(dp584
g73
(dp585
g81
I3
ssg82
g579
sg75
(lp586
S''
asbasbasbag68
(g84
g70
NtRp587
(dp588
g73
(dp589
sg82
g463
sg75
(lp590
g68
(g89
g70
NtRp591
(dp592
g73
(dp593
g93
g94
ssg82
g587
sg75
(lp594
g408
asbag68
(g89
g70
NtRp595
(dp596
g73
(dp597
g100
g101
ssg82
g587
sg75
(lp598
S':'
asbag68
(g89
g70
NtRp599
(dp600
g73
(dp601
sg82
g587
sg75
(lp602
g68
(g69
g70
NtRp603
(dp604
g73
(dp605
g81
I3
ssg82
g599
sg75
(lp606
S''
asbasbasbag68
(g84
g70
NtRp607
(dp608
g73
(dp609
sg82
g463
sg75
(lp610
g68
(g89
g70
NtRp611
(dp612
g73
(dp613
g93
g94
ssg82
g607
sg75
(lp614
g429
asbag68
(g89
g70
NtRp615
(dp616
g73
(dp617
g100
g101
ssg82
g607
sg75
(lp618
S':'
asbag68
(g89
g70
NtRp619
(dp620
g73
(dp621
sg82
g607
sg75
(lp622
g68
(g69
g70
NtRp623
(dp624
g73
(dp625
g81
I3
ssg82
g619
sg75
(lp626
S''
asbasbasbasbasbasbasbasbasbasbasbag68
(g84
g70
NtRp627
(dp628
g73
(dp629
sg82
g78
sg75
(lp630
g68
(g89
g70
NtRp631
(dp632
g73
(dp633
g93
g94
ssg82
g627
sg75
(lp634
S'env'
p635
asbag68
(g89
g70
NtRp636
(dp637
g73
(dp638
g100
g101
ssg82
g627
sg75
(lp639
S':'
asbag68
(g89
g70
NtRp640
(dp641
g73
(dp642
sg82
g627
sg75
(lp643
g68
(g69
g70
NtRp644
(dp645
g73
(dp646
g81
I5
ssg82
g640
sg75
(lp647
g68
(g77
g70
NtRp648
(dp649
g73
(dp650
g81
I4
ssg82
Nsg75
(lp651
g68
(g84
g70
NtRp652
(dp653
g73
(dp654
sg82
g648
sg75
(lp655
g68
(g89
g70
NtRp656
(dp657
g73
(dp658
g93
g94
ssg82
g652
sg75
(lp659
S'app_folders'
p660
asbag68
(g89
g70
NtRp661
(dp662
g73
(dp663
g100
g101
ssg82
g652
sg75
(lp664
S':'
asbag68
(g89
g70
NtRp665
(dp666
g73
(dp667
sg82
g652
sg75
(lp668
g68
(g69
g70
NtRp669
(dp670
g73
(dp671
g81
I4
ssg82
g665
sg75
(lp672
S"set(['C:\\\\Users\\\\liangh\\\\Desktop\\\\CSSE 333\\\\project\\\\SC2TourneyTracker\\\\web2py\\\\applications\\\\admin\\\\', 'C:\\\\Users\\\\liangh\\\\Desktop\\\\CSSE 333\\\\project\\\\SC2TourneyTracker\\\\web2py\\\\applications\\\\welcome\\\\'])"
p673
asbasbasbag68
(g84
g70
NtRp674
(dp675
g73
(dp676
sg82
g648
sg75
(lp677
g68
(g89
g70
NtRp678
(dp679
g73
(dp680
g93
g94
ssg82
g674
sg75
(lp681
S'applications_parent'
p682
asbag68
(g89
g70
NtRp683
(dp684
g73
(dp685
g100
g101
ssg82
g674
sg75
(lp686
S':'
asbag68
(g89
g70
NtRp687
(dp688
g73
(dp689
sg82
g674
sg75
(lp690
g68
(g69
g70
NtRp691
(dp692
g73
(dp693
g81
I4
ssg82
g687
sg75
(lp694
S'C:\\Users\\liangh\\Desktop\\CSSE 333\\project\\SC2TourneyTracker\\web2py'
p695
asbasbasbag68
(g84
g70
NtRp696
(dp697
g73
(dp698
sg82
g648
sg75
(lp699
g68
(g89
g70
NtRp700
(dp701
g73
(dp702
g93
g94
ssg82
g696
sg75
(lp703
S'cmd_args'
p704
asbag68
(g89
g70
NtRp705
(dp706
g73
(dp707
g100
g101
ssg82
g696
sg75
(lp708
S':'
asbag68
(g89
g70
NtRp709
(dp710
g73
(dp711
sg82
g696
sg75
(lp712
g68
(g69
g70
NtRp713
(dp714
g73
(dp715
g81
I4
ssg82
g709
sg75
(lp716
g68
(g77
g70
NtRp717
(dp718
g73
(dp719
g81
I3
ssg82
Nsg75
(lp720
sbasbasbasbag68
(g84
g70
NtRp721
(dp722
g73
(dp723
sg82
g648
sg75
(lp724
g68
(g89
g70
NtRp725
(dp726
g73
(dp727
g93
g94
ssg82
g721
sg75
(lp728
S'cmd_options'
p729
asbag68
(g89
g70
NtRp730
(dp731
g73
(dp732
g100
g101
ssg82
g721
sg75
(lp733
S':'
asbag68
(g89
g70
NtRp734
(dp735
g73
(dp736
sg82
g721
sg75
(lp737
g68
(g69
g70
NtRp738
(dp739
g73
(dp740
g81
I4
ssg82
g734
sg75
(lp741
S"<Values at 0x270c328: {'verbose': False, 'ip': '127.0.0.1', 'shutdown_timeout': 5, 'taskbar': False, 'nocron': False, 'pid_filename': 'httpserver.pid', 'maxthreads': None, 'softcron': False, 'server_name': 'LIANGH-1', 'bpython': False, 'nogui': False, 'port': 8000, 'extcron': False, 'debuglevel': 30, 'test': None, 'folder': 'C:\\\\Users\\\\liangh\\\\Desktop\\\\CSSE 333\\\\project\\\\SC2TourneyTracker\\\\web2py', 'config': '', 'import_models': False, 'winservice': '', 'shell': None, 'run': '', 'log_filename': 'httpserver.log', 'args': [''], 'socket_timeout': 1, 'ssl_ca_certificate': None, 'scheduler': None, 'profiler_filename': None, 'ssl_private_key': '', 'password': '<ask>', 'request_queue_size': 5, 'ssl_certificate': '', 'cronjob': False, 'numthreads': None, 'quiet': False, 'interfaces': None, 'minthreads': None, 'timeout': 10, 'plain': False, 'nobanner': False}>"
p742
asbasbasbag68
(g84
g70
NtRp743
(dp744
g73
(dp745
sg82
g648
sg75
(lp746
g68
(g89
g70
NtRp747
(dp748
g73
(dp749
g93
g94
ssg82
g743
sg75
(lp750
S'db_sessions'
p751
asbag68
(g89
g70
NtRp752
(dp753
g73
(dp754
g100
g101
ssg82
g743
sg75
(lp755
S':'
asbag68
(g89
g70
NtRp756
(dp757
g73
(dp758
sg82
g743
sg75
(lp759
g68
(g69
g70
NtRp760
(dp761
g73
(dp762
g81
I4
ssg82
g756
sg75
(lp763
S'set([])'
p764
asbasbasbag68
(g84
g70
NtRp765
(dp766
g73
(dp767
sg82
g648
sg75
(lp768
g68
(g89
g70
NtRp769
(dp770
g73
(dp771
g93
g94
ssg82
g765
sg75
(lp772
S'debugging'
p773
asbag68
(g89
g70
NtRp774
(dp775
g73
(dp776
g100
g101
ssg82
g765
sg75
(lp777
S':'
asbag68
(g89
g70
NtRp778
(dp779
g73
(dp780
sg82
g765
sg75
(lp781
g68
(g69
g70
NtRp782
(dp783
g73
(dp784
g81
I4
ssg82
g778
sg75
(lp785
g111
asbasbasbag68
(g84
g70
NtRp786
(dp787
g73
(dp788
sg82
g648
sg75
(lp789
g68
(g89
g70
NtRp790
(dp791
g73
(dp792
g93
g94
ssg82
g786
sg75
(lp793
S'gluon_parent'
p794
asbag68
(g89
g70
NtRp795
(dp796
g73
(dp797
g100
g101
ssg82
g786
sg75
(lp798
S':'
asbag68
(g89
g70
NtRp799
(dp800
g73
(dp801
sg82
g786
sg75
(lp802
g68
(g69
g70
NtRp803
(dp804
g73
(dp805
g81
I4
ssg82
g799
sg75
(lp806
S'C:\\Users\\liangh\\Desktop\\CSSE 333\\project\\SC2TourneyTracker\\web2py'
p807
asbasbasbag68
(g84
g70
NtRp808
(dp809
g73
(dp810
sg82
g648
sg75
(lp811
g68
(g89
g70
NtRp812
(dp813
g73
(dp814
g93
g94
ssg82
g808
sg75
(lp815
S'http_accept'
p816
asbag68
(g89
g70
NtRp817
(dp818
g73
(dp819
g100
g101
ssg82
g808
sg75
(lp820
S':'
asbag68
(g89
g70
NtRp821
(dp822
g73
(dp823
sg82
g808
sg75
(lp824
g68
(g69
g70
NtRp825
(dp826
g73
(dp827
g81
I4
ssg82
g821
sg75
(lp828
S'text/html, application/xhtml+xml, */*'
p829
asbasbasbag68
(g84
g70
NtRp830
(dp831
g73
(dp832
sg82
g648
sg75
(lp833
g68
(g89
g70
NtRp834
(dp835
g73
(dp836
g93
g94
ssg82
g830
sg75
(lp837
S'http_accept_encoding'
p838
asbag68
(g89
g70
NtRp839
(dp840
g73
(dp841
g100
g101
ssg82
g830
sg75
(lp842
S':'
asbag68
(g89
g70
NtRp843
(dp844
g73
(dp845
sg82
g830
sg75
(lp846
g68
(g69
g70
NtRp847
(dp848
g73
(dp849
g81
I4
ssg82
g843
sg75
(lp850
S'gzip, deflate'
p851
asbasbasbag68
(g84
g70
NtRp852
(dp853
g73
(dp854
sg82
g648
sg75
(lp855
g68
(g89
g70
NtRp856
(dp857
g73
(dp858
g93
g94
ssg82
g852
sg75
(lp859
S'http_accept_language'
p860
asbag68
(g89
g70
NtRp861
(dp862
g73
(dp863
g100
g101
ssg82
g852
sg75
(lp864
S':'
asbag68
(g89
g70
NtRp865
(dp866
g73
(dp867
sg82
g852
sg75
(lp868
g68
(g69
g70
NtRp869
(dp870
g73
(dp871
g81
I4
ssg82
g865
sg75
(lp872
S'en-US'
p873
asbasbasbag68
(g84
g70
NtRp874
(dp875
g73
(dp876
sg82
g648
sg75
(lp877
g68
(g89
g70
NtRp878
(dp879
g73
(dp880
g93
g94
ssg82
g874
sg75
(lp881
S'http_connection'
p882
asbag68
(g89
g70
NtRp883
(dp884
g73
(dp885
g100
g101
ssg82
g874
sg75
(lp886
S':'
asbag68
(g89
g70
NtRp887
(dp888
g73
(dp889
sg82
g874
sg75
(lp890
g68
(g69
g70
NtRp891
(dp892
g73
(dp893
g81
I4
ssg82
g887
sg75
(lp894
S'Keep-Alive'
p895
asbasbasbag68
(g84
g70
NtRp896
(dp897
g73
(dp898
sg82
g648
sg75
(lp899
g68
(g89
g70
NtRp900
(dp901
g73
(dp902
g93
g94
ssg82
g896
sg75
(lp903
S'http_cookie'
p904
asbag68
(g89
g70
NtRp905
(dp906
g73
(dp907
g100
g101
ssg82
g896
sg75
(lp908
S':'
asbag68
(g89
g70
NtRp909
(dp910
g73
(dp911
sg82
g896
sg75
(lp912
g68
(g69
g70
NtRp913
(dp914
g73
(dp915
g81
I4
ssg82
g909
sg75
(lp916
S'session_id_welcome=137.112.117.19-f6405052-a2b6-499d-b3f0-c6cbd3cb3465; session_id_admin=137.112.117.19-34407c85-e09e-4103-ac6b-2566df3be3ad'
p917
asbasbasbag68
(g84
g70
NtRp918
(dp919
g73
(dp920
sg82
g648
sg75
(lp921
g68
(g89
g70
NtRp922
(dp923
g73
(dp924
g93
g94
ssg82
g918
sg75
(lp925
S'http_host'
p926
asbag68
(g89
g70
NtRp927
(dp928
g73
(dp929
g100
g101
ssg82
g918
sg75
(lp930
S':'
asbag68
(g89
g70
NtRp931
(dp932
g73
(dp933
sg82
g918
sg75
(lp934
g68
(g69
g70
NtRp935
(dp936
g73
(dp937
g81
I4
ssg82
g931
sg75
(lp938
S'137.112.117.19:8000'
p939
asbasbasbag68
(g84
g70
NtRp940
(dp941
g73
(dp942
sg82
g648
sg75
(lp943
g68
(g89
g70
NtRp944
(dp945
g73
(dp946
g93
g94
ssg82
g940
sg75
(lp947
S'http_user_agent'
p948
asbag68
(g89
g70
NtRp949
(dp950
g73
(dp951
g100
g101
ssg82
g940
sg75
(lp952
S':'
asbag68
(g89
g70
NtRp953
(dp954
g73
(dp955
sg82
g940
sg75
(lp956
g68
(g69
g70
NtRp957
(dp958
g73
(dp959
g81
I4
ssg82
g953
sg75
(lp960
S'Mozilla/5.0 (compatible; MSIE 9.0; Windows NT 6.1; Trident/5.0)'
p961
asbasbasbag68
(g84
g70
NtRp962
(dp963
g73
(dp964
sg82
g648
sg75
(lp965
g68
(g89
g70
NtRp966
(dp967
g73
(dp968
g93
g94
ssg82
g962
sg75
(lp969
S'is_jython'
p970
asbag68
(g89
g70
NtRp971
(dp972
g73
(dp973
g100
g101
ssg82
g962
sg75
(lp974
S':'
asbag68
(g89
g70
NtRp975
(dp976
g73
(dp977
sg82
g962
sg75
(lp978
g68
(g69
g70
NtRp979
(dp980
g73
(dp981
g81
I4
ssg82
g975
sg75
(lp982
g111
asbasbasbag68
(g84
g70
NtRp983
(dp984
g73
(dp985
sg82
g648
sg75
(lp986
g68
(g89
g70
NtRp987
(dp988
g73
(dp989
g93
g94
ssg82
g983
sg75
(lp990
S'is_pypy'
p991
asbag68
(g89
g70
NtRp992
(dp993
g73
(dp994
g100
g101
ssg82
g983
sg75
(lp995
S':'
asbag68
(g89
g70
NtRp996
(dp997
g73
(dp998
sg82
g983
sg75
(lp999
g68
(g69
g70
NtRp1000
(dp1001
g73
(dp1002
g81
I4
ssg82
g996
sg75
(lp1003
g111
asbasbasbag68
(g84
g70
NtRp1004
(dp1005
g73
(dp1006
sg82
g648
sg75
(lp1007
g68
(g89
g70
NtRp1008
(dp1009
g73
(dp1010
g93
g94
ssg82
g1004
sg75
(lp1011
S'path_info'
p1012
asbag68
(g89
g70
NtRp1013
(dp1014
g73
(dp1015
g100
g101
ssg82
g1004
sg75
(lp1016
S':'
asbag68
(g89
g70
NtRp1017
(dp1018
g73
(dp1019
sg82
g1004
sg75
(lp1020
g68
(g69
g70
NtRp1021
(dp1022
g73
(dp1023
g81
I4
ssg82
g1017
sg75
(lp1024
S'/welcome/default/index'
p1025
asbasbasbag68
(g84
g70
NtRp1026
(dp1027
g73
(dp1028
sg82
g648
sg75
(lp1029
g68
(g89
g70
NtRp1030
(dp1031
g73
(dp1032
g93
g94
ssg82
g1026
sg75
(lp1033
S'query_string'
p1034
asbag68
(g89
g70
NtRp1035
(dp1036
g73
(dp1037
g100
g101
ssg82
g1026
sg75
(lp1038
S':'
asbag68
(g89
g70
NtRp1039
(dp1040
g73
(dp1041
sg82
g1026
sg75
(lp1042
g68
(g69
g70
NtRp1043
(dp1044
g73
(dp1045
g81
I4
ssg82
g1039
sg75
(lp1046
S''
asbasbasbag68
(g84
g70
NtRp1047
(dp1048
g73
(dp1049
sg82
g648
sg75
(lp1050
g68
(g89
g70
NtRp1051
(dp1052
g73
(dp1053
g93
g94
ssg82
g1047
sg75
(lp1054
S'remote_addr'
p1055
asbag68
(g89
g70
NtRp1056
(dp1057
g73
(dp1058
g100
g101
ssg82
g1047
sg75
(lp1059
S':'
asbag68
(g89
g70
NtRp1060
(dp1061
g73
(dp1062
sg82
g1047
sg75
(lp1063
g68
(g69
g70
NtRp1064
(dp1065
g73
(dp1066
g81
I4
ssg82
g1060
sg75
(lp1067
g201
asbasbasbag68
(g84
g70
NtRp1068
(dp1069
g73
(dp1070
sg82
g648
sg75
(lp1071
g68
(g89
g70
NtRp1072
(dp1073
g73
(dp1074
g93
g94
ssg82
g1068
sg75
(lp1075
S'remote_port'
p1076
asbag68
(g89
g70
NtRp1077
(dp1078
g73
(dp1079
g100
g101
ssg82
g1068
sg75
(lp1080
S':'
asbag68
(g89
g70
NtRp1081
(dp1082
g73
(dp1083
sg82
g1068
sg75
(lp1084
g68
(g69
g70
NtRp1085
(dp1086
g73
(dp1087
g81
I4
ssg82
g1081
sg75
(lp1088
S'49970'
p1089
asbasbasbag68
(g84
g70
NtRp1090
(dp1091
g73
(dp1092
sg82
g648
sg75
(lp1093
g68
(g89
g70
NtRp1094
(dp1095
g73
(dp1096
g93
g94
ssg82
g1090
sg75
(lp1097
S'request_method'
p1098
asbag68
(g89
g70
NtRp1099
(dp1100
g73
(dp1101
g100
g101
ssg82
g1090
sg75
(lp1102
S':'
asbag68
(g89
g70
NtRp1103
(dp1104
g73
(dp1105
sg82
g1090
sg75
(lp1106
g68
(g69
g70
NtRp1107
(dp1108
g73
(dp1109
g81
I4
ssg82
g1103
sg75
(lp1110
S'GET'
p1111
asbasbasbag68
(g84
g70
NtRp1112
(dp1113
g73
(dp1114
sg82
g648
sg75
(lp1115
g68
(g89
g70
NtRp1116
(dp1117
g73
(dp1118
g93
g94
ssg82
g1112
sg75
(lp1119
S'script_name'
p1120
asbag68
(g89
g70
NtRp1121
(dp1122
g73
(dp1123
g100
g101
ssg82
g1112
sg75
(lp1124
S':'
asbag68
(g89
g70
NtRp1125
(dp1126
g73
(dp1127
sg82
g1112
sg75
(lp1128
g68
(g69
g70
NtRp1129
(dp1130
g73
(dp1131
g81
I4
ssg82
g1125
sg75
(lp1132
S''
asbasbasbag68
(g84
g70
NtRp1133
(dp1134
g73
(dp1135
sg82
g648
sg75
(lp1136
g68
(g89
g70
NtRp1137
(dp1138
g73
(dp1139
g93
g94
ssg82
g1133
sg75
(lp1140
S'server_name'
p1141
asbag68
(g89
g70
NtRp1142
(dp1143
g73
(dp1144
g100
g101
ssg82
g1133
sg75
(lp1145
S':'
asbag68
(g89
g70
NtRp1146
(dp1147
g73
(dp1148
sg82
g1133
sg75
(lp1149
g68
(g69
g70
NtRp1150
(dp1151
g73
(dp1152
g81
I4
ssg82
g1146
sg75
(lp1153
S'LIANGH-1'
p1154
asbasbasbag68
(g84
g70
NtRp1155
(dp1156
g73
(dp1157
sg82
g648
sg75
(lp1158
g68
(g89
g70
NtRp1159
(dp1160
g73
(dp1161
g93
g94
ssg82
g1155
sg75
(lp1162
S'server_port'
p1163
asbag68
(g89
g70
NtRp1164
(dp1165
g73
(dp1166
g100
g101
ssg82
g1155
sg75
(lp1167
S':'
asbag68
(g89
g70
NtRp1168
(dp1169
g73
(dp1170
sg82
g1155
sg75
(lp1171
g68
(g69
g70
NtRp1172
(dp1173
g73
(dp1174
g81
I4
ssg82
g1168
sg75
(lp1175
S'8000'
p1176
asbasbasbag68
(g84
g70
NtRp1177
(dp1178
g73
(dp1179
sg82
g648
sg75
(lp1180
g68
(g89
g70
NtRp1181
(dp1182
g73
(dp1183
g93
g94
ssg82
g1177
sg75
(lp1184
S'server_protocol'
p1185
asbag68
(g89
g70
NtRp1186
(dp1187
g73
(dp1188
g100
g101
ssg82
g1177
sg75
(lp1189
S':'
asbag68
(g89
g70
NtRp1190
(dp1191
g73
(dp1192
sg82
g1177
sg75
(lp1193
g68
(g69
g70
NtRp1194
(dp1195
g73
(dp1196
g81
I4
ssg82
g1190
sg75
(lp1197
S'HTTP/1.1'
p1198
asbasbasbag68
(g84
g70
NtRp1199
(dp1200
g73
(dp1201
sg82
g648
sg75
(lp1202
g68
(g89
g70
NtRp1203
(dp1204
g73
(dp1205
g93
g94
ssg82
g1199
sg75
(lp1206
S'server_software'
p1207
asbag68
(g89
g70
NtRp1208
(dp1209
g73
(dp1210
g100
g101
ssg82
g1199
sg75
(lp1211
S':'
asbag68
(g89
g70
NtRp1212
(dp1213
g73
(dp1214
sg82
g1199
sg75
(lp1215
g68
(g69
g70
NtRp1216
(dp1217
g73
(dp1218
g81
I4
ssg82
g1212
sg75
(lp1219
S'Rocket 1.2.4'
p1220
asbasbasbag68
(g84
g70
NtRp1221
(dp1222
g73
(dp1223
sg82
g648
sg75
(lp1224
g68
(g89
g70
NtRp1225
(dp1226
g73
(dp1227
g93
g94
ssg82
g1221
sg75
(lp1228
S'web2py_crontype'
p1229
asbag68
(g89
g70
NtRp1230
(dp1231
g73
(dp1232
g100
g101
ssg82
g1221
sg75
(lp1233
S':'
asbag68
(g89
g70
NtRp1234
(dp1235
g73
(dp1236
sg82
g1221
sg75
(lp1237
g68
(g69
g70
NtRp1238
(dp1239
g73
(dp1240
g81
I4
ssg82
g1234
sg75
(lp1241
S'hard'
p1242
asbasbasbag68
(g84
g70
NtRp1243
(dp1244
g73
(dp1245
sg82
g648
sg75
(lp1246
g68
(g89
g70
NtRp1247
(dp1248
g73
(dp1249
g93
g94
ssg82
g1243
sg75
(lp1250
S'web2py_path'
p1251
asbag68
(g89
g70
NtRp1252
(dp1253
g73
(dp1254
g100
g101
ssg82
g1243
sg75
(lp1255
S':'
asbag68
(g89
g70
NtRp1256
(dp1257
g73
(dp1258
sg82
g1243
sg75
(lp1259
g68
(g69
g70
NtRp1260
(dp1261
g73
(dp1262
g81
I4
ssg82
g1256
sg75
(lp1263
g695
asbasbasbag68
(g84
g70
NtRp1264
(dp1265
g73
(dp1266
sg82
g648
sg75
(lp1267
g68
(g89
g70
NtRp1268
(dp1269
g73
(dp1270
g93
g94
ssg82
g1264
sg75
(lp1271
S'web2py_version'
p1272
asbag68
(g89
g70
NtRp1273
(dp1274
g73
(dp1275
g100
g101
ssg82
g1264
sg75
(lp1276
S':'
asbag68
(g89
g70
NtRp1277
(dp1278
g73
(dp1279
sg82
g1264
sg75
(lp1280
g68
(g69
g70
NtRp1281
(dp1282
g73
(dp1283
g81
I4
ssg82
g1277
sg75
(lp1284
g68
(g77
g70
NtRp1285
(dp1286
g73
(dp1287
g81
I3
ssg82
Nsg75
(lp1288
g68
(g84
g70
NtRp1289
(dp1290
g73
(dp1291
sg82
g1285
sg75
(lp1292
g68
(g89
g70
NtRp1293
(dp1294
g73
(dp1295
sg82
g1289
sg75
(lp1296
g68
(g69
g70
NtRp1297
(dp1298
g73
(dp1299
g81
I3
ssg82
g1293
sg75
(lp1300
S'1'
asbasbasbag68
(g84
g70
NtRp1301
(dp1302
g73
(dp1303
sg82
g1285
sg75
(lp1304
g68
(g89
g70
NtRp1305
(dp1306
g73
(dp1307
sg82
g1301
sg75
(lp1308
g68
(g69
g70
NtRp1309
(dp1310
g73
(dp1311
g81
I3
ssg82
g1305
sg75
(lp1312
S'99'
p1313
asbasbasbag68
(g84
g70
NtRp1314
(dp1315
g73
(dp1316
sg82
g1285
sg75
(lp1317
g68
(g89
g70
NtRp1318
(dp1319
g73
(dp1320
sg82
g1314
sg75
(lp1321
g68
(g69
g70
NtRp1322
(dp1323
g73
(dp1324
g81
I3
ssg82
g1318
sg75
(lp1325
S'4'
asbasbasbag68
(g84
g70
NtRp1326
(dp1327
g73
(dp1328
sg82
g1285
sg75
(lp1329
g68
(g89
g70
NtRp1330
(dp1331
g73
(dp1332
sg82
g1326
sg75
(lp1333
g68
(g69
g70
NtRp1334
(dp1335
g73
(dp1336
g81
I3
ssg82
g1330
sg75
(lp1337
S'datetime.datetime(2011, 12, 14, 14, 46, 14)'
p1338
asbasbasbag68
(g84
g70
NtRp1339
(dp1340
g73
(dp1341
sg82
g1285
sg75
(lp1342
g68
(g89
g70
NtRp1343
(dp1344
g73
(dp1345
sg82
g1339
sg75
(lp1346
g68
(g69
g70
NtRp1347
(dp1348
g73
(dp1349
g81
I3
ssg82
g1343
sg75
(lp1350
S'stable'
p1351
asbasbasbasbasbasbasbag68
(g84
g70
NtRp1352
(dp1353
g73
(dp1354
sg82
g648
sg75
(lp1355
g68
(g89
g70
NtRp1356
(dp1357
g73
(dp1358
g93
g94
ssg82
g1352
sg75
(lp1359
S'wsgi_errors'
p1360
asbag68
(g89
g70
NtRp1361
(dp1362
g73
(dp1363
g100
g101
ssg82
g1352
sg75
(lp1364
S':'
asbag68
(g89
g70
NtRp1365
(dp1366
g73
(dp1367
sg82
g1352
sg75
(lp1368
g68
(g69
g70
NtRp1369
(dp1370
g73
(dp1371
g81
I4
ssg82
g1365
sg75
(lp1372
S"<open file '<stderr>', mode 'w' at 0x012350D0>"
p1373
asbasbasbag68
(g84
g70
NtRp1374
(dp1375
g73
(dp1376
sg82
g648
sg75
(lp1377
g68
(g89
g70
NtRp1378
(dp1379
g73
(dp1380
g93
g94
ssg82
g1374
sg75
(lp1381
S'wsgi_file_wrapper'
p1382
asbag68
(g89
g70
NtRp1383
(dp1384
g73
(dp1385
g100
g101
ssg82
g1374
sg75
(lp1386
S':'
asbag68
(g89
g70
NtRp1387
(dp1388
g73
(dp1389
sg82
g1374
sg75
(lp1390
g68
(g69
g70
NtRp1391
(dp1392
g73
(dp1393
g81
I4
ssg82
g1387
sg75
(lp1394
S'<class wsgiref.util.FileWrapper at 0x02650DC0>'
p1395
asbasbasbag68
(g84
g70
NtRp1396
(dp1397
g73
(dp1398
sg82
g648
sg75
(lp1399
g68
(g89
g70
NtRp1400
(dp1401
g73
(dp1402
g93
g94
ssg82
g1396
sg75
(lp1403
S'wsgi_input'
p1404
asbag68
(g89
g70
NtRp1405
(dp1406
g73
(dp1407
g100
g101
ssg82
g1396
sg75
(lp1408
S':'
asbag68
(g89
g70
NtRp1409
(dp1410
g73
(dp1411
sg82
g1396
sg75
(lp1412
g68
(g69
g70
NtRp1413
(dp1414
g73
(dp1415
g81
I4
ssg82
g1409
sg75
(lp1416
S'<socket._fileobject object at 0x069B99F0>'
p1417
asbasbasbag68
(g84
g70
NtRp1418
(dp1419
g73
(dp1420
sg82
g648
sg75
(lp1421
g68
(g89
g70
NtRp1422
(dp1423
g73
(dp1424
g93
g94
ssg82
g1418
sg75
(lp1425
S'wsgi_multiprocess'
p1426
asbag68
(g89
g70
NtRp1427
(dp1428
g73
(dp1429
g100
g101
ssg82
g1418
sg75
(lp1430
S':'
asbag68
(g89
g70
NtRp1431
(dp1432
g73
(dp1433
sg82
g1418
sg75
(lp1434
g68
(g69
g70
NtRp1435
(dp1436
g73
(dp1437
g81
I4
ssg82
g1431
sg75
(lp1438
g111
asbasbasbag68
(g84
g70
NtRp1439
(dp1440
g73
(dp1441
sg82
g648
sg75
(lp1442
g68
(g89
g70
NtRp1443
(dp1444
g73
(dp1445
g93
g94
ssg82
g1439
sg75
(lp1446
S'wsgi_multithread'
p1447
asbag68
(g89
g70
NtRp1448
(dp1449
g73
(dp1450
g100
g101
ssg82
g1439
sg75
(lp1451
S':'
asbag68
(g89
g70
NtRp1452
(dp1453
g73
(dp1454
sg82
g1439
sg75
(lp1455
g68
(g69
g70
NtRp1456
(dp1457
g73
(dp1458
g81
I4
ssg82
g1452
sg75
(lp1459
S'True'
p1460
asbasbasbag68
(g84
g70
NtRp1461
(dp1462
g73
(dp1463
sg82
g648
sg75
(lp1464
g68
(g89
g70
NtRp1465
(dp1466
g73
(dp1467
g93
g94
ssg82
g1461
sg75
(lp1468
S'wsgi_run_once'
p1469
asbag68
(g89
g70
NtRp1470
(dp1471
g73
(dp1472
g100
g101
ssg82
g1461
sg75
(lp1473
S':'
asbag68
(g89
g70
NtRp1474
(dp1475
g73
(dp1476
sg82
g1461
sg75
(lp1477
g68
(g69
g70
NtRp1478
(dp1479
g73
(dp1480
g81
I4
ssg82
g1474
sg75
(lp1481
g111
asbasbasbag68
(g84
g70
NtRp1482
(dp1483
g73
(dp1484
sg82
g648
sg75
(lp1485
g68
(g89
g70
NtRp1486
(dp1487
g73
(dp1488
g93
g94
ssg82
g1482
sg75
(lp1489
S'wsgi_url_scheme'
p1490
asbag68
(g89
g70
NtRp1491
(dp1492
g73
(dp1493
g100
g101
ssg82
g1482
sg75
(lp1494
S':'
asbag68
(g89
g70
NtRp1495
(dp1496
g73
(dp1497
sg82
g1482
sg75
(lp1498
g68
(g69
g70
NtRp1499
(dp1500
g73
(dp1501
g81
I4
ssg82
g1495
sg75
(lp1502
S'http'
p1503
asbasbasbag68
(g84
g70
NtRp1504
(dp1505
g73
(dp1506
sg82
g648
sg75
(lp1507
g68
(g89
g70
NtRp1508
(dp1509
g73
(dp1510
g93
g94
ssg82
g1504
sg75
(lp1511
S'wsgi_version'
p1512
asbag68
(g89
g70
NtRp1513
(dp1514
g73
(dp1515
g100
g101
ssg82
g1504
sg75
(lp1516
S':'
asbag68
(g89
g70
NtRp1517
(dp1518
g73
(dp1519
sg82
g1504
sg75
(lp1520
g68
(g69
g70
NtRp1521
(dp1522
g73
(dp1523
g81
I4
ssg82
g1517
sg75
(lp1524
g68
(g77
g70
NtRp1525
(dp1526
g73
(dp1527
g81
I3
ssg82
Nsg75
(lp1528
g68
(g84
g70
NtRp1529
(dp1530
g73
(dp1531
sg82
g1525
sg75
(lp1532
g68
(g89
g70
NtRp1533
(dp1534
g73
(dp1535
sg82
g1529
sg75
(lp1536
g68
(g69
g70
NtRp1537
(dp1538
g73
(dp1539
g81
I3
ssg82
g1533
sg75
(lp1540
S'1'
asbasbasbag68
(g84
g70
NtRp1541
(dp1542
g73
(dp1543
sg82
g1525
sg75
(lp1544
g68
(g89
g70
NtRp1545
(dp1546
g73
(dp1547
sg82
g1541
sg75
(lp1548
g68
(g69
g70
NtRp1549
(dp1550
g73
(dp1551
g81
I3
ssg82
g1545
sg75
(lp1552
S'0'
asbasbasbasbasbasbasbasbasbasbasbag68
(g84
g70
NtRp1553
(dp1554
g73
(dp1555
sg82
g78
sg75
(lp1556
g68
(g89
g70
NtRp1557
(dp1558
g73
(dp1559
g93
g94
ssg82
g1553
sg75
(lp1560
S'extension'
p1561
asbag68
(g89
g70
NtRp1562
(dp1563
g73
(dp1564
g100
g101
ssg82
g1553
sg75
(lp1565
S':'
asbag68
(g89
g70
NtRp1566
(dp1567
g73
(dp1568
sg82
g1553
sg75
(lp1569
g68
(g69
g70
NtRp1570
(dp1571
g73
(dp1572
g81
I5
ssg82
g1566
sg75
(lp1573
S'html'
p1574
asbasbasbag68
(g84
g70
NtRp1575
(dp1576
g73
(dp1577
sg82
g78
sg75
(lp1578
g68
(g89
g70
NtRp1579
(dp1580
g73
(dp1581
g93
g94
ssg82
g1575
sg75
(lp1582
S'folder'
p1583
asbag68
(g89
g70
NtRp1584
(dp1585
g73
(dp1586
g100
g101
ssg82
g1575
sg75
(lp1587
S':'
asbag68
(g89
g70
NtRp1588
(dp1589
g73
(dp1590
sg82
g1575
sg75
(lp1591
g68
(g69
g70
NtRp1592
(dp1593
g73
(dp1594
g81
I5
ssg82
g1588
sg75
(lp1595
S'C:\\Users\\liangh\\Desktop\\CSSE 333\\project\\SC2TourneyTracker\\web2py\\applications\\welcome\\'
p1596
asbasbasbag68
(g84
g70
NtRp1597
(dp1598
g73
(dp1599
sg82
g78
sg75
(lp1600
g68
(g89
g70
NtRp1601
(dp1602
g73
(dp1603
g93
g94
ssg82
g1597
sg75
(lp1604
S'function'
p1605
asbag68
(g89
g70
NtRp1606
(dp1607
g73
(dp1608
g100
g101
ssg82
g1597
sg75
(lp1609
S':'
asbag68
(g89
g70
NtRp1610
(dp1611
g73
(dp1612
sg82
g1597
sg75
(lp1613
g68
(g69
g70
NtRp1614
(dp1615
g73
(dp1616
g81
I5
ssg82
g1610
sg75
(lp1617
S'index'
p1618
asbasbasbag68
(g84
g70
NtRp1619
(dp1620
g73
(dp1621
sg82
g78
sg75
(lp1622
g68
(g89
g70
NtRp1623
(dp1624
g73
(dp1625
g93
g94
ssg82
g1619
sg75
(lp1626
S'get_vars'
p1627
asbag68
(g89
g70
NtRp1628
(dp1629
g73
(dp1630
g100
g101
ssg82
g1619
sg75
(lp1631
S':'
asbag68
(g89
g70
NtRp1632
(dp1633
g73
(dp1634
sg82
g1619
sg75
(lp1635
g68
(g69
g70
NtRp1636
(dp1637
g73
(dp1638
g81
I5
ssg82
g1632
sg75
(lp1639
g68
(g77
g70
NtRp1640
(dp1641
g73
(dp1642
g81
I4
ssg82
Nsg75
(lp1643
sbasbasbasbag68
(g84
g70
NtRp1644
(dp1645
g73
(dp1646
sg82
g78
sg75
(lp1647
g68
(g89
g70
NtRp1648
(dp1649
g73
(dp1650
g93
g94
ssg82
g1644
sg75
(lp1651
S'global_settings'
p1652
asbag68
(g89
g70
NtRp1653
(dp1654
g73
(dp1655
g100
g101
ssg82
g1644
sg75
(lp1656
S':'
asbag68
(g89
g70
NtRp1657
(dp1658
g73
(dp1659
sg82
g1644
sg75
(lp1660
g68
(g69
g70
NtRp1661
(dp1662
g73
(dp1663
g81
I5
ssg82
g1657
sg75
(lp1664
g68
(g77
g70
NtRp1665
(dp1666
g73
(dp1667
g81
I4
ssg82
Nsg75
(lp1668
g68
(g84
g70
NtRp1669
(dp1670
g73
(dp1671
sg82
g1665
sg75
(lp1672
g68
(g89
g70
NtRp1673
(dp1674
g73
(dp1675
g93
g94
ssg82
g1669
sg75
(lp1676
g660
asbag68
(g89
g70
NtRp1677
(dp1678
g73
(dp1679
g100
g101
ssg82
g1669
sg75
(lp1680
S':'
asbag68
(g89
g70
NtRp1681
(dp1682
g73
(dp1683
sg82
g1669
sg75
(lp1684
g68
(g69
g70
NtRp1685
(dp1686
g73
(dp1687
g81
I4
ssg82
g1681
sg75
(lp1688
S"set(['C:\\\\Users\\\\liangh\\\\Desktop\\\\CSSE 333\\\\project\\\\SC2TourneyTracker\\\\web2py\\\\applications\\\\admin\\\\', 'C:\\\\Users\\\\liangh\\\\Desktop\\\\CSSE 333\\\\project\\\\SC2TourneyTracker\\\\web2py\\\\applications\\\\welcome\\\\'])"
p1689
asbasbasbag68
(g84
g70
NtRp1690
(dp1691
g73
(dp1692
sg82
g1665
sg75
(lp1693
g68
(g89
g70
NtRp1694
(dp1695
g73
(dp1696
g93
g94
ssg82
g1690
sg75
(lp1697
g682
asbag68
(g89
g70
NtRp1698
(dp1699
g73
(dp1700
g100
g101
ssg82
g1690
sg75
(lp1701
S':'
asbag68
(g89
g70
NtRp1702
(dp1703
g73
(dp1704
sg82
g1690
sg75
(lp1705
g68
(g69
g70
NtRp1706
(dp1707
g73
(dp1708
g81
I4
ssg82
g1702
sg75
(lp1709
g695
asbasbasbag68
(g84
g70
NtRp1710
(dp1711
g73
(dp1712
sg82
g1665
sg75
(lp1713
g68
(g89
g70
NtRp1714
(dp1715
g73
(dp1716
g93
g94
ssg82
g1710
sg75
(lp1717
g704
asbag68
(g89
g70
NtRp1718
(dp1719
g73
(dp1720
g100
g101
ssg82
g1710
sg75
(lp1721
S':'
asbag68
(g89
g70
NtRp1722
(dp1723
g73
(dp1724
sg82
g1710
sg75
(lp1725
g68
(g69
g70
NtRp1726
(dp1727
g73
(dp1728
g81
I4
ssg82
g1722
sg75
(lp1729
g68
(g77
g70
NtRp1730
(dp1731
g73
(dp1732
g81
I3
ssg82
Nsg75
(lp1733
sbasbasbasbag68
(g84
g70
NtRp1734
(dp1735
g73
(dp1736
sg82
g1665
sg75
(lp1737
g68
(g89
g70
NtRp1738
(dp1739
g73
(dp1740
g93
g94
ssg82
g1734
sg75
(lp1741
g729
asbag68
(g89
g70
NtRp1742
(dp1743
g73
(dp1744
g100
g101
ssg82
g1734
sg75
(lp1745
S':'
asbag68
(g89
g70
NtRp1746
(dp1747
g73
(dp1748
sg82
g1734
sg75
(lp1749
g68
(g69
g70
NtRp1750
(dp1751
g73
(dp1752
g81
I4
ssg82
g1746
sg75
(lp1753
S"<Values at 0x270c328: {'verbose': False, 'ip': '127.0.0.1', 'shutdown_timeout': 5, 'taskbar': False, 'nocron': False, 'pid_filename': 'httpserver.pid', 'maxthreads': None, 'softcron': False, 'server_name': 'LIANGH-1', 'bpython': False, 'nogui': False, 'port': 8000, 'extcron': False, 'debuglevel': 30, 'test': None, 'folder': 'C:\\\\Users\\\\liangh\\\\Desktop\\\\CSSE 333\\\\project\\\\SC2TourneyTracker\\\\web2py', 'config': '', 'import_models': False, 'winservice': '', 'shell': None, 'run': '', 'log_filename': 'httpserver.log', 'args': [''], 'socket_timeout': 1, 'ssl_ca_certificate': None, 'scheduler': None, 'profiler_filename': None, 'ssl_private_key': '', 'password': '<ask>', 'request_queue_size': 5, 'ssl_certificate': '', 'cronjob': False, 'numthreads': None, 'quiet': False, 'interfaces': None, 'minthreads': None, 'timeout': 10, 'plain': False, 'nobanner': False}>"
p1754
asbasbasbag68
(g84
g70
NtRp1755
(dp1756
g73
(dp1757
sg82
g1665
sg75
(lp1758
g68
(g89
g70
NtRp1759
(dp1760
g73
(dp1761
g93
g94
ssg82
g1755
sg75
(lp1762
g751
asbag68
(g89
g70
NtRp1763
(dp1764
g73
(dp1765
g100
g101
ssg82
g1755
sg75
(lp1766
S':'
asbag68
(g89
g70
NtRp1767
(dp1768
g73
(dp1769
sg82
g1755
sg75
(lp1770
g68
(g69
g70
NtRp1771
(dp1772
g73
(dp1773
g81
I4
ssg82
g1767
sg75
(lp1774
S'set([])'
p1775
asbasbasbag68
(g84
g70
NtRp1776
(dp1777
g73
(dp1778
sg82
g1665
sg75
(lp1779
g68
(g89
g70
NtRp1780
(dp1781
g73
(dp1782
g93
g94
ssg82
g1776
sg75
(lp1783
g773
asbag68
(g89
g70
NtRp1784
(dp1785
g73
(dp1786
g100
g101
ssg82
g1776
sg75
(lp1787
S':'
asbag68
(g89
g70
NtRp1788
(dp1789
g73
(dp1790
sg82
g1776
sg75
(lp1791
g68
(g69
g70
NtRp1792
(dp1793
g73
(dp1794
g81
I4
ssg82
g1788
sg75
(lp1795
g111
asbasbasbag68
(g84
g70
NtRp1796
(dp1797
g73
(dp1798
sg82
g1665
sg75
(lp1799
g68
(g89
g70
NtRp1800
(dp1801
g73
(dp1802
g93
g94
ssg82
g1796
sg75
(lp1803
g794
asbag68
(g89
g70
NtRp1804
(dp1805
g73
(dp1806
g100
g101
ssg82
g1796
sg75
(lp1807
S':'
asbag68
(g89
g70
NtRp1808
(dp1809
g73
(dp1810
sg82
g1796
sg75
(lp1811
g68
(g69
g70
NtRp1812
(dp1813
g73
(dp1814
g81
I4
ssg82
g1808
sg75
(lp1815
g807
asbasbasbag68
(g84
g70
NtRp1816
(dp1817
g73
(dp1818
sg82
g1665
sg75
(lp1819
g68
(g89
g70
NtRp1820
(dp1821
g73
(dp1822
g93
g94
ssg82
g1816
sg75
(lp1823
g970
asbag68
(g89
g70
NtRp1824
(dp1825
g73
(dp1826
g100
g101
ssg82
g1816
sg75
(lp1827
S':'
asbag68
(g89
g70
NtRp1828
(dp1829
g73
(dp1830
sg82
g1816
sg75
(lp1831
g68
(g69
g70
NtRp1832
(dp1833
g73
(dp1834
g81
I4
ssg82
g1828
sg75
(lp1835
g111
asbasbasbag68
(g84
g70
NtRp1836
(dp1837
g73
(dp1838
sg82
g1665
sg75
(lp1839
g68
(g89
g70
NtRp1840
(dp1841
g73
(dp1842
g93
g94
ssg82
g1836
sg75
(lp1843
g991
asbag68
(g89
g70
NtRp1844
(dp1845
g73
(dp1846
g100
g101
ssg82
g1836
sg75
(lp1847
S':'
asbag68
(g89
g70
NtRp1848
(dp1849
g73
(dp1850
sg82
g1836
sg75
(lp1851
g68
(g69
g70
NtRp1852
(dp1853
g73
(dp1854
g81
I4
ssg82
g1848
sg75
(lp1855
g111
asbasbasbag68
(g84
g70
NtRp1856
(dp1857
g73
(dp1858
sg82
g1665
sg75
(lp1859
g68
(g89
g70
NtRp1860
(dp1861
g73
(dp1862
g93
g94
ssg82
g1856
sg75
(lp1863
g1229
asbag68
(g89
g70
NtRp1864
(dp1865
g73
(dp1866
g100
g101
ssg82
g1856
sg75
(lp1867
S':'
asbag68
(g89
g70
NtRp1868
(dp1869
g73
(dp1870
sg82
g1856
sg75
(lp1871
g68
(g69
g70
NtRp1872
(dp1873
g73
(dp1874
g81
I4
ssg82
g1868
sg75
(lp1875
g1242
asbasbasbag68
(g84
g70
NtRp1876
(dp1877
g73
(dp1878
sg82
g1665
sg75
(lp1879
g68
(g89
g70
NtRp1880
(dp1881
g73
(dp1882
g93
g94
ssg82
g1876
sg75
(lp1883
g1272
asbag68
(g89
g70
NtRp1884
(dp1885
g73
(dp1886
g100
g101
ssg82
g1876
sg75
(lp1887
S':'
asbag68
(g89
g70
NtRp1888
(dp1889
g73
(dp1890
sg82
g1876
sg75
(lp1891
g68
(g69
g70
NtRp1892
(dp1893
g73
(dp1894
g81
I4
ssg82
g1888
sg75
(lp1895
g68
(g77
g70
NtRp1896
(dp1897
g73
(dp1898
g81
I3
ssg82
Nsg75
(lp1899
g68
(g84
g70
NtRp1900
(dp1901
g73
(dp1902
sg82
g1896
sg75
(lp1903
g68
(g89
g70
NtRp1904
(dp1905
g73
(dp1906
sg82
g1900
sg75
(lp1907
g68
(g69
g70
NtRp1908
(dp1909
g73
(dp1910
g81
I3
ssg82
g1904
sg75
(lp1911
S'1'
asbasbasbag68
(g84
g70
NtRp1912
(dp1913
g73
(dp1914
sg82
g1896
sg75
(lp1915
g68
(g89
g70
NtRp1916
(dp1917
g73
(dp1918
sg82
g1912
sg75
(lp1919
g68
(g69
g70
NtRp1920
(dp1921
g73
(dp1922
g81
I3
ssg82
g1916
sg75
(lp1923
S'99'
p1924
asbasbasbag68
(g84
g70
NtRp1925
(dp1926
g73
(dp1927
sg82
g1896
sg75
(lp1928
g68
(g89
g70
NtRp1929
(dp1930
g73
(dp1931
sg82
g1925
sg75
(lp1932
g68
(g69
g70
NtRp1933
(dp1934
g73
(dp1935
g81
I3
ssg82
g1929
sg75
(lp1936
S'4'
asbasbasbag68
(g84
g70
NtRp1937
(dp1938
g73
(dp1939
sg82
g1896
sg75
(lp1940
g68
(g89
g70
NtRp1941
(dp1942
g73
(dp1943
sg82
g1937
sg75
(lp1944
g68
(g69
g70
NtRp1945
(dp1946
g73
(dp1947
g81
I3
ssg82
g1941
sg75
(lp1948
S'datetime.datetime(2011, 12, 14, 14, 46, 14)'
p1949
asbasbasbag68
(g84
g70
NtRp1950
(dp1951
g73
(dp1952
sg82
g1896
sg75
(lp1953
g68
(g89
g70
NtRp1954
(dp1955
g73
(dp1956
sg82
g1950
sg75
(lp1957
g68
(g69
g70
NtRp1958
(dp1959
g73
(dp1960
g81
I3
ssg82
g1954
sg75
(lp1961
g1351
asbasbasbasbasbasbasbasbasbasbasbag68
(g84
g70
NtRp1962
(dp1963
g73
(dp1964
sg82
g78
sg75
(lp1965
g68
(g89
g70
NtRp1966
(dp1967
g73
(dp1968
g93
g94
ssg82
g1962
sg75
(lp1969
S'is_https'
p1970
asbag68
(g89
g70
NtRp1971
(dp1972
g73
(dp1973
g100
g101
ssg82
g1962
sg75
(lp1974
S':'
asbag68
(g89
g70
NtRp1975
(dp1976
g73
(dp1977
sg82
g1962
sg75
(lp1978
g68
(g69
g70
NtRp1979
(dp1980
g73
(dp1981
g81
I5
ssg82
g1975
sg75
(lp1982
g111
asbasbasbag68
(g84
g70
NtRp1983
(dp1984
g73
(dp1985
sg82
g78
sg75
(lp1986
g68
(g89
g70
NtRp1987
(dp1988
g73
(dp1989
g93
g94
ssg82
g1983
sg75
(lp1990
S'is_local'
p1991
asbag68
(g89
g70
NtRp1992
(dp1993
g73
(dp1994
g100
g101
ssg82
g1983
sg75
(lp1995
S':'
asbag68
(g89
g70
NtRp1996
(dp1997
g73
(dp1998
sg82
g1983
sg75
(lp1999
g68
(g69
g70
NtRp2000
(dp2001
g73
(dp2002
g81
I5
ssg82
g1996
sg75
(lp2003
g1460
asbasbasbag68
(g84
g70
NtRp2004
(dp2005
g73
(dp2006
sg82
g78
sg75
(lp2007
g68
(g89
g70
NtRp2008
(dp2009
g73
(dp2010
g93
g94
ssg82
g2004
sg75
(lp2011
S'is_restful'
p2012
asbag68
(g89
g70
NtRp2013
(dp2014
g73
(dp2015
g100
g101
ssg82
g2004
sg75
(lp2016
S':'
asbag68
(g89
g70
NtRp2017
(dp2018
g73
(dp2019
sg82
g2004
sg75
(lp2020
g68
(g69
g70
NtRp2021
(dp2022
g73
(dp2023
g81
I5
ssg82
g2017
sg75
(lp2024
g111
asbasbasbag68
(g84
g70
NtRp2025
(dp2026
g73
(dp2027
sg82
g78
sg75
(lp2028
g68
(g89
g70
NtRp2029
(dp2030
g73
(dp2031
g93
g94
ssg82
g2025
sg75
(lp2032
S'now'
p2033
asbag68
(g89
g70
NtRp2034
(dp2035
g73
(dp2036
g100
g101
ssg82
g2025
sg75
(lp2037
S':'
asbag68
(g89
g70
NtRp2038
(dp2039
g73
(dp2040
sg82
g2025
sg75
(lp2041
g68
(g69
g70
NtRp2042
(dp2043
g73
(dp2044
g81
I5
ssg82
g2038
sg75
(lp2045
S'datetime.datetime(2012, 2, 1, 20, 9, 26, 146000)'
p2046
asbasbasbag68
(g84
g70
NtRp2047
(dp2048
g73
(dp2049
sg82
g78
sg75
(lp2050
g68
(g89
g70
NtRp2051
(dp2052
g73
(dp2053
g93
g94
ssg82
g2047
sg75
(lp2054
S'post_vars'
p2055
asbag68
(g89
g70
NtRp2056
(dp2057
g73
(dp2058
g100
g101
ssg82
g2047
sg75
(lp2059
S':'
asbag68
(g89
g70
NtRp2060
(dp2061
g73
(dp2062
sg82
g2047
sg75
(lp2063
g68
(g69
g70
NtRp2064
(dp2065
g73
(dp2066
g81
I5
ssg82
g2060
sg75
(lp2067
g68
(g77
g70
NtRp2068
(dp2069
g73
(dp2070
g81
I4
ssg82
Nsg75
(lp2071
sbasbasbasbag68
(g84
g70
NtRp2072
(dp2073
g73
(dp2074
sg82
g78
sg75
(lp2075
g68
(g89
g70
NtRp2076
(dp2077
g73
(dp2078
g93
g94
ssg82
g2072
sg75
(lp2079
S'url'
p2080
asbag68
(g89
g70
NtRp2081
(dp2082
g73
(dp2083
g100
g101
ssg82
g2072
sg75
(lp2084
S':'
asbag68
(g89
g70
NtRp2085
(dp2086
g73
(dp2087
sg82
g2072
sg75
(lp2088
g68
(g69
g70
NtRp2089
(dp2090
g73
(dp2091
g81
I5
ssg82
g2085
sg75
(lp2092
S'/welcome/default/index'
p2093
asbasbasbag68
(g84
g70
NtRp2094
(dp2095
g73
(dp2096
sg82
g78
sg75
(lp2097
g68
(g89
g70
NtRp2098
(dp2099
g73
(dp2100
g93
g94
ssg82
g2094
sg75
(lp2101
S'utcnow'
p2102
asbag68
(g89
g70
NtRp2103
(dp2104
g73
(dp2105
g100
g101
ssg82
g2094
sg75
(lp2106
S':'
asbag68
(g89
g70
NtRp2107
(dp2108
g73
(dp2109
sg82
g2094
sg75
(lp2110
g68
(g69
g70
NtRp2111
(dp2112
g73
(dp2113
g81
I5
ssg82
g2107
sg75
(lp2114
S'datetime.datetime(2012, 2, 2, 1, 9, 26, 146000)'
p2115
asbasbasbag68
(g84
g70
NtRp2116
(dp2117
g73
(dp2118
sg82
g78
sg75
(lp2119
g68
(g89
g70
NtRp2120
(dp2121
g73
(dp2122
g93
g94
ssg82
g2116
sg75
(lp2123
S'uuid'
p2124
asbag68
(g89
g70
NtRp2125
(dp2126
g73
(dp2127
g100
g101
ssg82
g2116
sg75
(lp2128
S':'
asbag68
(g89
g70
NtRp2129
(dp2130
g73
(dp2131
sg82
g2116
sg75
(lp2132
g68
(g69
g70
NtRp2133
(dp2134
g73
(dp2135
g81
I5
ssg82
g2129
sg75
(lp2136
S'welcome/137.112.117.19.2012-02-01.20-09-26.2d1b404b-7ea5-4b4d-ab2e-e7e76b5e79a3'
p2137
asbasbasbag68
(g84
g70
NtRp2138
(dp2139
g73
(dp2140
sg82
g78
sg75
(lp2141
g68
(g89
g70
NtRp2142
(dp2143
g73
(dp2144
g93
g94
ssg82
g2138
sg75
(lp2145
S'vars'
p2146
asbag68
(g89
g70
NtRp2147
(dp2148
g73
(dp2149
g100
g101
ssg82
g2138
sg75
(lp2150
S':'
asbag68
(g89
g70
NtRp2151
(dp2152
g73
(dp2153
sg82
g2138
sg75
(lp2154
g68
(g69
g70
NtRp2155
(dp2156
g73
(dp2157
g81
I5
ssg82
g2151
sg75
(lp2158
g68
(g77
g70
NtRp2159
(dp2160
g73
(dp2161
g81
I4
ssg82
Nsg75
(lp2162
sbasbasbasbag68
(g84
g70
NtRp2163
(dp2164
g73
(dp2165
sg82
g78
sg75
(lp2166
g68
(g89
g70
NtRp2167
(dp2168
g73
(dp2169
g93
g94
ssg82
g2163
sg75
(lp2170
S'wsgi'
p2171
asbag68
(g89
g70
NtRp2172
(dp2173
g73
(dp2174
g100
g101
ssg82
g2163
sg75
(lp2175
S':'
asbag68
(g89
g70
NtRp2176
(dp2177
g73
(dp2178
sg82
g2163
sg75
(lp2179
g68
(g69
g70
NtRp2180
(dp2181
g73
(dp2182
g81
I5
ssg82
g2176
sg75
(lp2183
g68
(g77
g70
NtRp2184
(dp2185
g73
(dp2186
g81
I4
ssg82
Nsg75
(lp2187
g68
(g84
g70
NtRp2188
(dp2189
g73
(dp2190
sg82
g2184
sg75
(lp2191
g68
(g89
g70
NtRp2192
(dp2193
g73
(dp2194
g93
g94
ssg82
g2188
sg75
(lp2195
S'environ'
p2196
asbag68
(g89
g70
NtRp2197
(dp2198
g73
(dp2199
g100
g101
ssg82
g2188
sg75
(lp2200
S':'
asbag68
(g89
g70
NtRp2201
(dp2202
g73
(dp2203
sg82
g2188
sg75
(lp2204
g68
(g69
g70
NtRp2205
(dp2206
g73
(dp2207
g81
I4
ssg82
g2201
sg75
(lp2208
g68
(g77
g70
NtRp2209
(dp2210
g73
(dp2211
g81
I3
ssg82
Nsg75
(lp2212
g68
(g84
g70
NtRp2213
(dp2214
g73
(dp2215
sg82
g2209
sg75
(lp2216
g68
(g89
g70
NtRp2217
(dp2218
g73
(dp2219
g93
g94
ssg82
g2213
sg75
(lp2220
S'HTTP_ACCEPT'
p2221
asbag68
(g89
g70
NtRp2222
(dp2223
g73
(dp2224
g100
g101
ssg82
g2213
sg75
(lp2225
S':'
asbag68
(g89
g70
NtRp2226
(dp2227
g73
(dp2228
sg82
g2213
sg75
(lp2229
g68
(g69
g70
NtRp2230
(dp2231
g73
(dp2232
g81
I3
ssg82
g2226
sg75
(lp2233
g829
asbasbasbag68
(g84
g70
NtRp2234
(dp2235
g73
(dp2236
sg82
g2209
sg75
(lp2237
g68
(g89
g70
NtRp2238
(dp2239
g73
(dp2240
g93
g94
ssg82
g2234
sg75
(lp2241
S'HTTP_ACCEPT_ENCODING'
p2242
asbag68
(g89
g70
NtRp2243
(dp2244
g73
(dp2245
g100
g101
ssg82
g2234
sg75
(lp2246
S':'
asbag68
(g89
g70
NtRp2247
(dp2248
g73
(dp2249
sg82
g2234
sg75
(lp2250
g68
(g69
g70
NtRp2251
(dp2252
g73
(dp2253
g81
I3
ssg82
g2247
sg75
(lp2254
g851
asbasbasbag68
(g84
g70
NtRp2255
(dp2256
g73
(dp2257
sg82
g2209
sg75
(lp2258
g68
(g89
g70
NtRp2259
(dp2260
g73
(dp2261
g93
g94
ssg82
g2255
sg75
(lp2262
S'HTTP_ACCEPT_LANGUAGE'
p2263
asbag68
(g89
g70
NtRp2264
(dp2265
g73
(dp2266
g100
g101
ssg82
g2255
sg75
(lp2267
S':'
asbag68
(g89
g70
NtRp2268
(dp2269
g73
(dp2270
sg82
g2255
sg75
(lp2271
g68
(g69
g70
NtRp2272
(dp2273
g73
(dp2274
g81
I3
ssg82
g2268
sg75
(lp2275
g873
asbasbasbag68
(g84
g70
NtRp2276
(dp2277
g73
(dp2278
sg82
g2209
sg75
(lp2279
g68
(g89
g70
NtRp2280
(dp2281
g73
(dp2282
g93
g94
ssg82
g2276
sg75
(lp2283
S'HTTP_CONNECTION'
p2284
asbag68
(g89
g70
NtRp2285
(dp2286
g73
(dp2287
g100
g101
ssg82
g2276
sg75
(lp2288
S':'
asbag68
(g89
g70
NtRp2289
(dp2290
g73
(dp2291
sg82
g2276
sg75
(lp2292
g68
(g69
g70
NtRp2293
(dp2294
g73
(dp2295
g81
I3
ssg82
g2289
sg75
(lp2296
g895
asbasbasbag68
(g84
g70
NtRp2297
(dp2298
g73
(dp2299
sg82
g2209
sg75
(lp2300
g68
(g89
g70
NtRp2301
(dp2302
g73
(dp2303
g93
g94
ssg82
g2297
sg75
(lp2304
S'HTTP_COOKIE'
p2305
asbag68
(g89
g70
NtRp2306
(dp2307
g73
(dp2308
g100
g101
ssg82
g2297
sg75
(lp2309
S':'
asbag68
(g89
g70
NtRp2310
(dp2311
g73
(dp2312
sg82
g2297
sg75
(lp2313
g68
(g69
g70
NtRp2314
(dp2315
g73
(dp2316
g81
I3
ssg82
g2310
sg75
(lp2317
g917
asbasbasbag68
(g84
g70
NtRp2318
(dp2319
g73
(dp2320
sg82
g2209
sg75
(lp2321
g68
(g89
g70
NtRp2322
(dp2323
g73
(dp2324
g93
g94
ssg82
g2318
sg75
(lp2325
S'HTTP_HOST'
p2326
asbag68
(g89
g70
NtRp2327
(dp2328
g73
(dp2329
g100
g101
ssg82
g2318
sg75
(lp2330
S':'
asbag68
(g89
g70
NtRp2331
(dp2332
g73
(dp2333
sg82
g2318
sg75
(lp2334
g68
(g69
g70
NtRp2335
(dp2336
g73
(dp2337
g81
I3
ssg82
g2331
sg75
(lp2338
g939
asbasbasbag68
(g84
g70
NtRp2339
(dp2340
g73
(dp2341
sg82
g2209
sg75
(lp2342
g68
(g89
g70
NtRp2343
(dp2344
g73
(dp2345
g93
g94
ssg82
g2339
sg75
(lp2346
S'HTTP_USER_AGENT'
p2347
asbag68
(g89
g70
NtRp2348
(dp2349
g73
(dp2350
g100
g101
ssg82
g2339
sg75
(lp2351
S':'
asbag68
(g89
g70
NtRp2352
(dp2353
g73
(dp2354
sg82
g2339
sg75
(lp2355
g68
(g69
g70
NtRp2356
(dp2357
g73
(dp2358
g81
I3
ssg82
g2352
sg75
(lp2359
g961
asbasbasbag68
(g84
g70
NtRp2360
(dp2361
g73
(dp2362
sg82
g2209
sg75
(lp2363
g68
(g89
g70
NtRp2364
(dp2365
g73
(dp2366
g93
g94
ssg82
g2360
sg75
(lp2367
S'PATH_INFO'
p2368
asbag68
(g89
g70
NtRp2369
(dp2370
g73
(dp2371
g100
g101
ssg82
g2360
sg75
(lp2372
S':'
asbag68
(g89
g70
NtRp2373
(dp2374
g73
(dp2375
sg82
g2360
sg75
(lp2376
g68
(g69
g70
NtRp2377
(dp2378
g73
(dp2379
g81
I3
ssg82
g2373
sg75
(lp2380
g1025
asbasbasbag68
(g84
g70
NtRp2381
(dp2382
g73
(dp2383
sg82
g2209
sg75
(lp2384
g68
(g89
g70
NtRp2385
(dp2386
g73
(dp2387
g93
g94
ssg82
g2381
sg75
(lp2388
S'QUERY_STRING'
p2389
asbag68
(g89
g70
NtRp2390
(dp2391
g73
(dp2392
g100
g101
ssg82
g2381
sg75
(lp2393
S':'
asbag68
(g89
g70
NtRp2394
(dp2395
g73
(dp2396
sg82
g2381
sg75
(lp2397
g68
(g69
g70
NtRp2398
(dp2399
g73
(dp2400
g81
I3
ssg82
g2394
sg75
(lp2401
S''
asbasbasbag68
(g84
g70
NtRp2402
(dp2403
g73
(dp2404
sg82
g2209
sg75
(lp2405
g68
(g89
g70
NtRp2406
(dp2407
g73
(dp2408
g93
g94
ssg82
g2402
sg75
(lp2409
S'REMOTE_ADDR'
p2410
asbag68
(g89
g70
NtRp2411
(dp2412
g73
(dp2413
g100
g101
ssg82
g2402
sg75
(lp2414
S':'
asbag68
(g89
g70
NtRp2415
(dp2416
g73
(dp2417
sg82
g2402
sg75
(lp2418
g68
(g69
g70
NtRp2419
(dp2420
g73
(dp2421
g81
I3
ssg82
g2415
sg75
(lp2422
g201
asbasbasbag68
(g84
g70
NtRp2423
(dp2424
g73
(dp2425
sg82
g2209
sg75
(lp2426
g68
(g89
g70
NtRp2427
(dp2428
g73
(dp2429
g93
g94
ssg82
g2423
sg75
(lp2430
S'REMOTE_PORT'
p2431
asbag68
(g89
g70
NtRp2432
(dp2433
g73
(dp2434
g100
g101
ssg82
g2423
sg75
(lp2435
S':'
asbag68
(g89
g70
NtRp2436
(dp2437
g73
(dp2438
sg82
g2423
sg75
(lp2439
g68
(g69
g70
NtRp2440
(dp2441
g73
(dp2442
g81
I3
ssg82
g2436
sg75
(lp2443
g1089
asbasbasbag68
(g84
g70
NtRp2444
(dp2445
g73
(dp2446
sg82
g2209
sg75
(lp2447
g68
(g89
g70
NtRp2448
(dp2449
g73
(dp2450
g93
g94
ssg82
g2444
sg75
(lp2451
S'REQUEST_METHOD'
p2452
asbag68
(g89
g70
NtRp2453
(dp2454
g73
(dp2455
g100
g101
ssg82
g2444
sg75
(lp2456
S':'
asbag68
(g89
g70
NtRp2457
(dp2458
g73
(dp2459
sg82
g2444
sg75
(lp2460
g68
(g69
g70
NtRp2461
(dp2462
g73
(dp2463
g81
I3
ssg82
g2457
sg75
(lp2464
g1111
asbasbasbag68
(g84
g70
NtRp2465
(dp2466
g73
(dp2467
sg82
g2209
sg75
(lp2468
g68
(g89
g70
NtRp2469
(dp2470
g73
(dp2471
g93
g94
ssg82
g2465
sg75
(lp2472
S'SCRIPT_NAME'
p2473
asbag68
(g89
g70
NtRp2474
(dp2475
g73
(dp2476
g100
g101
ssg82
g2465
sg75
(lp2477
S':'
asbag68
(g89
g70
NtRp2478
(dp2479
g73
(dp2480
sg82
g2465
sg75
(lp2481
g68
(g69
g70
NtRp2482
(dp2483
g73
(dp2484
g81
I3
ssg82
g2478
sg75
(lp2485
S''
asbasbasbag68
(g84
g70
NtRp2486
(dp2487
g73
(dp2488
sg82
g2209
sg75
(lp2489
g68
(g89
g70
NtRp2490
(dp2491
g73
(dp2492
g93
g94
ssg82
g2486
sg75
(lp2493
S'SERVER_NAME'
p2494
asbag68
(g89
g70
NtRp2495
(dp2496
g73
(dp2497
g100
g101
ssg82
g2486
sg75
(lp2498
S':'
asbag68
(g89
g70
NtRp2499
(dp2500
g73
(dp2501
sg82
g2486
sg75
(lp2502
g68
(g69
g70
NtRp2503
(dp2504
g73
(dp2505
g81
I3
ssg82
g2499
sg75
(lp2506
g1154
asbasbasbag68
(g84
g70
NtRp2507
(dp2508
g73
(dp2509
sg82
g2209
sg75
(lp2510
g68
(g89
g70
NtRp2511
(dp2512
g73
(dp2513
g93
g94
ssg82
g2507
sg75
(lp2514
S'SERVER_PORT'
p2515
asbag68
(g89
g70
NtRp2516
(dp2517
g73
(dp2518
g100
g101
ssg82
g2507
sg75
(lp2519
S':'
asbag68
(g89
g70
NtRp2520
(dp2521
g73
(dp2522
sg82
g2507
sg75
(lp2523
g68
(g69
g70
NtRp2524
(dp2525
g73
(dp2526
g81
I3
ssg82
g2520
sg75
(lp2527
g1176
asbasbasbag68
(g84
g70
NtRp2528
(dp2529
g73
(dp2530
sg82
g2209
sg75
(lp2531
g68
(g89
g70
NtRp2532
(dp2533
g73
(dp2534
g93
g94
ssg82
g2528
sg75
(lp2535
S'SERVER_PROTOCOL'
p2536
asbag68
(g89
g70
NtRp2537
(dp2538
g73
(dp2539
g100
g101
ssg82
g2528
sg75
(lp2540
S':'
asbag68
(g89
g70
NtRp2541
(dp2542
g73
(dp2543
sg82
g2528
sg75
(lp2544
g68
(g69
g70
NtRp2545
(dp2546
g73
(dp2547
g81
I3
ssg82
g2541
sg75
(lp2548
g1198
asbasbasbag68
(g84
g70
NtRp2549
(dp2550
g73
(dp2551
sg82
g2209
sg75
(lp2552
g68
(g89
g70
NtRp2553
(dp2554
g73
(dp2555
g93
g94
ssg82
g2549
sg75
(lp2556
S'SERVER_SOFTWARE'
p2557
asbag68
(g89
g70
NtRp2558
(dp2559
g73
(dp2560
g100
g101
ssg82
g2549
sg75
(lp2561
S':'
asbag68
(g89
g70
NtRp2562
(dp2563
g73
(dp2564
sg82
g2549
sg75
(lp2565
g68
(g69
g70
NtRp2566
(dp2567
g73
(dp2568
g81
I3
ssg82
g2562
sg75
(lp2569
g1220
asbasbasbag68
(g84
g70
NtRp2570
(dp2571
g73
(dp2572
sg82
g2209
sg75
(lp2573
g68
(g89
g70
NtRp2574
(dp2575
g73
(dp2576
g93
g94
ssg82
g2570
sg75
(lp2577
S'wsgi.errors'
p2578
asbag68
(g89
g70
NtRp2579
(dp2580
g73
(dp2581
g100
g101
ssg82
g2570
sg75
(lp2582
S':'
asbag68
(g89
g70
NtRp2583
(dp2584
g73
(dp2585
sg82
g2570
sg75
(lp2586
g68
(g69
g70
NtRp2587
(dp2588
g73
(dp2589
g81
I3
ssg82
g2583
sg75
(lp2590
S"<open file '<stderr>', mode 'w' at 0x012350D0>"
p2591
asbasbasbag68
(g84
g70
NtRp2592
(dp2593
g73
(dp2594
sg82
g2209
sg75
(lp2595
g68
(g89
g70
NtRp2596
(dp2597
g73
(dp2598
g93
g94
ssg82
g2592
sg75
(lp2599
S'wsgi.file_wrapper'
p2600
asbag68
(g89
g70
NtRp2601
(dp2602
g73
(dp2603
g100
g101
ssg82
g2592
sg75
(lp2604
S':'
asbag68
(g89
g70
NtRp2605
(dp2606
g73
(dp2607
sg82
g2592
sg75
(lp2608
g68
(g69
g70
NtRp2609
(dp2610
g73
(dp2611
g81
I3
ssg82
g2605
sg75
(lp2612
S'<class wsgiref.util.FileWrapper at 0x02650DC0>'
p2613
asbasbasbag68
(g84
g70
NtRp2614
(dp2615
g73
(dp2616
sg82
g2209
sg75
(lp2617
g68
(g89
g70
NtRp2618
(dp2619
g73
(dp2620
g93
g94
ssg82
g2614
sg75
(lp2621
S'wsgi.input'
p2622
asbag68
(g89
g70
NtRp2623
(dp2624
g73
(dp2625
g100
g101
ssg82
g2614
sg75
(lp2626
S':'
asbag68
(g89
g70
NtRp2627
(dp2628
g73
(dp2629
sg82
g2614
sg75
(lp2630
g68
(g69
g70
NtRp2631
(dp2632
g73
(dp2633
g81
I3
ssg82
g2627
sg75
(lp2634
S'<cStringIO.StringO object at 0x0695D9A0>'
p2635
asbasbasbag68
(g84
g70
NtRp2636
(dp2637
g73
(dp2638
sg82
g2209
sg75
(lp2639
g68
(g89
g70
NtRp2640
(dp2641
g73
(dp2642
g93
g94
ssg82
g2636
sg75
(lp2643
S'wsgi.multiprocess'
p2644
asbag68
(g89
g70
NtRp2645
(dp2646
g73
(dp2647
g100
g101
ssg82
g2636
sg75
(lp2648
S':'
asbag68
(g89
g70
NtRp2649
(dp2650
g73
(dp2651
sg82
g2636
sg75
(lp2652
g68
(g69
g70
NtRp2653
(dp2654
g73
(dp2655
g81
I3
ssg82
g2649
sg75
(lp2656
g111
asbasbasbag68
(g84
g70
NtRp2657
(dp2658
g73
(dp2659
sg82
g2209
sg75
(lp2660
g68
(g89
g70
NtRp2661
(dp2662
g73
(dp2663
g93
g94
ssg82
g2657
sg75
(lp2664
S'wsgi.multithread'
p2665
asbag68
(g89
g70
NtRp2666
(dp2667
g73
(dp2668
g100
g101
ssg82
g2657
sg75
(lp2669
S':'
asbag68
(g89
g70
NtRp2670
(dp2671
g73
(dp2672
sg82
g2657
sg75
(lp2673
g68
(g69
g70
NtRp2674
(dp2675
g73
(dp2676
g81
I3
ssg82
g2670
sg75
(lp2677
g1460
asbasbasbag68
(g84
g70
NtRp2678
(dp2679
g73
(dp2680
sg82
g2209
sg75
(lp2681
g68
(g89
g70
NtRp2682
(dp2683
g73
(dp2684
g93
g94
ssg82
g2678
sg75
(lp2685
S'wsgi.run_once'
p2686
asbag68
(g89
g70
NtRp2687
(dp2688
g73
(dp2689
g100
g101
ssg82
g2678
sg75
(lp2690
S':'
asbag68
(g89
g70
NtRp2691
(dp2692
g73
(dp2693
sg82
g2678
sg75
(lp2694
g68
(g69
g70
NtRp2695
(dp2696
g73
(dp2697
g81
I3
ssg82
g2691
sg75
(lp2698
g111
asbasbasbag68
(g84
g70
NtRp2699
(dp2700
g73
(dp2701
sg82
g2209
sg75
(lp2702
g68
(g89
g70
NtRp2703
(dp2704
g73
(dp2705
g93
g94
ssg82
g2699
sg75
(lp2706
S'wsgi.url_scheme'
p2707
asbag68
(g89
g70
NtRp2708
(dp2709
g73
(dp2710
g100
g101
ssg82
g2699
sg75
(lp2711
S':'
asbag68
(g89
g70
NtRp2712
(dp2713
g73
(dp2714
sg82
g2699
sg75
(lp2715
g68
(g69
g70
NtRp2716
(dp2717
g73
(dp2718
g81
I3
ssg82
g2712
sg75
(lp2719
g1503
asbasbasbag68
(g84
g70
NtRp2720
(dp2721
g73
(dp2722
sg82
g2209
sg75
(lp2723
g68
(g89
g70
NtRp2724
(dp2725
g73
(dp2726
g93
g94
ssg82
g2720
sg75
(lp2727
S'wsgi.version'
p2728
asbag68
(g89
g70
NtRp2729
(dp2730
g73
(dp2731
g100
g101
ssg82
g2720
sg75
(lp2732
S':'
asbag68
(g89
g70
NtRp2733
(dp2734
g73
(dp2735
sg82
g2720
sg75
(lp2736
g68
(g69
g70
NtRp2737
(dp2738
g73
(dp2739
g81
I3
ssg82
g2733
sg75
(lp2740
S'1'
asbasbasbasbasbasbasbasbasbasbasbasbasbsS'frames'
p2741
(lp2742
(dp2743
S'file'
p2744
S'C:\\Users\\liangh\\Desktop\\CSSE 333\\project\\SC2TourneyTracker\\web2py\\gluon\\restricted.py'
p2745
sS'dump'
p2746
(dp2747
S'code'
p2748
S'"# -*- coding: utf-8 -*-\\n# this file is released ...    ])\\n                ]\\n         )]\\n\\t\\t \'\'\'\\n_()\\n\\n"'
p2749
sS'layer'
p2750
S"r'C:\\Users\\liangh\\Desktop\\CSSE 333\\project\\SC2Tour...racker\\web2py\\applications\\welcome\\models\\menu.py'"
p2751
sS'global compile2'
p2752
S'<function compile2>'
p2753
sS'ccode'
p2754
S'undefined'
p2755
ssS'lnum'
p2756
I203
sS'lines'
p2757
(dp2758
I198
S"    environment['__file__'] = layer"
p2759
sI199
S'    try:'
p2760
sI200
S'        if type(code) == types.CodeType:'
p2761
sI201
S'            ccode = code'
p2762
sI202
S'        else:'
p2763
sI203
S'            ccode = compile2(code,layer)'
p2764
sI204
S'        exec ccode in environment'
p2765
sI205
S'    except HTTP:'
p2766
sI206
S'        raise'
p2767
sI207
S'    except RestrictedError:'
p2768
ssS'call'
p2769
S'(code="# -*- coding: utf-8 -*-\\n# this file is released ...    ])\\n                ]\\n         )]\\n\\t\\t \'\'\'\\n_()\\n\\n", environment={\'A\': <class \'gluon.html.A\'>, \'Auth\': <class \'gluon.tools.Auth\'>, \'B\': <class \'gluon.html.B\'>, \'BEAUTIFY\': <class \'gluon.html.BEAUTIFY\'>, \'BODY\': <class \'gluon.html.BODY\'>, \'BR\': <class \'gluon.html.BR\'>, \'BUTTON\': <class \'gluon.html.BUTTON\'>, \'CAT\': <class \'gluon.html.CAT\'>, \'CENTER\': <class \'gluon.html.CENTER\'>, \'CLEANUP\': <class \'gluon.validators.CLEANUP\'>, ...}, layer=r\'C:\\Users\\liangh\\Desktop\\CSSE 333\\project\\SC2Tour...racker\\web2py\\applications\\welcome\\models\\menu.py\')'
p2770
sS'func'
p2771
S'restricted'
p2772
sa(dp2773
g2744
S'C:\\Users\\liangh\\Desktop\\CSSE 333\\project\\SC2TourneyTracker\\web2py\\gluon\\restricted.py'
p2774
sg2746
(dp2775
S'builtincompile'
p2776
S'<built-in function compile>'
p2777
sS'code'
p2778
S'"# -*- coding: utf-8 -*-\\n# this file is released ...    ])\\n                ]\\n         )]\\n\\t\\t \'\'\'\\n_()\\n\\n"'
p2779
sS'code.rstrip'
p2780
S'<built-in method rstrip of str object>'
p2781
sS').replace'
p2782
g2755
sS'layer'
p2783
S"r'C:\\Users\\liangh\\Desktop\\CSSE 333\\project\\SC2Tour...racker\\web2py\\applications\\welcome\\models\\menu.py'"
p2784
ssg2756
I189
sg2757
(dp2785
I192
S'    """'
p2786
sI193
S'    runs code in environment and returns the output. if an exception occurs'
p2787
sI184
S''
sI185
S'def compile2(code,layer):'
p2788
sI186
S'    """'
p2789
sI187
S"    The +'\\n' is necessary else compile fails when code ends in a comment."
p2790
sI188
S'    """'
p2791
sI189
S"    return compile(code.rstrip().replace('\\r\\n','\\n')+'\\n', layer, 'exec')"
p2792
sI190
S''
sI191
S"def restricted(code, environment=None, layer='Unknown'):"
p2793
ssg2769
S'(code="# -*- coding: utf-8 -*-\\n# this file is released ...    ])\\n                ]\\n         )]\\n\\t\\t \'\'\'\\n_()\\n\\n", layer=r\'C:\\Users\\liangh\\Desktop\\CSSE 333\\project\\SC2Tour...racker\\web2py\\applications\\welcome\\models\\menu.py\')'
p2794
sg2771
S'compile2'
p2795
sasS'pyver'
p2796
S'Python 2.7.2: C:\\Python27\\pythonw.exe'
p2797
sS'session'
p2798
g68
(g69
g70
NtRp2799
(dp2800
g73
(dp2801
sg75
(lp2802
g68
(g77
g70
NtRp2803
(dp2804
g73
(dp2805
g81
I5
ssg82
Nsg75
(lp2806
sbasbsS'etype'
p2807
S"<type 'exceptions.IndentationError'>"
p2808
sS'date'
p2809
S'Wed Feb 01 20:09:26 2012'
p2810
sS'response'
p2811
g68
(g69
g70
NtRp2812
(dp2813
g73
(dp2814
sg75
(lp2815
g68
(g77
g70
NtRp2816
(dp2817
g73
(dp2818
g81
I5
ssg82
Nsg75
(lp2819
g68
(g84
g70
NtRp2820
(dp2821
g73
(dp2822
sg82
g2816
sg75
(lp2823
g68
(g89
g70
NtRp2824
(dp2825
g73
(dp2826
g93
g94
ssg82
g2820
sg75
(lp2827
g166
asbag68
(g89
g70
NtRp2828
(dp2829
g73
(dp2830
g100
g101
ssg82
g2820
sg75
(lp2831
S':'
asbag68
(g89
g70
NtRp2832
(dp2833
g73
(dp2834
sg82
g2820
sg75
(lp2835
g68
(g69
g70
NtRp2836
(dp2837
g73
(dp2838
g81
I5
ssg82
g2832
sg75
(lp2839
S'<cStringIO.StringO object at 0x0695D300>'
p2840
asbasbasbag68
(g84
g70
NtRp2841
(dp2842
g73
(dp2843
sg82
g2816
sg75
(lp2844
g68
(g89
g70
NtRp2845
(dp2846
g73
(dp2847
g93
g94
ssg82
g2841
sg75
(lp2848
g232
asbag68
(g89
g70
NtRp2849
(dp2850
g73
(dp2851
g100
g101
ssg82
g2841
sg75
(lp2852
S':'
asbag68
(g89
g70
NtRp2853
(dp2854
g73
(dp2855
sg82
g2841
sg75
(lp2856
g68
(g69
g70
NtRp2857
(dp2858
g73
(dp2859
g81
I5
ssg82
g2853
sg75
(lp2860
g68
(g77
g70
NtRp2861
(dp2862
g73
(dp2863
g81
I4
ssg82
Nsg75
(lp2864
g68
(g84
g70
NtRp2865
(dp2866
g73
(dp2867
sg82
g2861
sg75
(lp2868
g68
(g89
g70
NtRp2869
(dp2870
g73
(dp2871
g93
g94
ssg82
g2865
sg75
(lp2872
S'session_id_welcome'
p2873
asbag68
(g89
g70
NtRp2874
(dp2875
g73
(dp2876
g100
g101
ssg82
g2865
sg75
(lp2877
S':'
asbag68
(g89
g70
NtRp2878
(dp2879
g73
(dp2880
sg82
g2865
sg75
(lp2881
g68
(g69
g70
NtRp2882
(dp2883
g73
(dp2884
g81
I4
ssg82
g2878
sg75
(lp2885
g68
(g77
g70
NtRp2886
(dp2887
g73
(dp2888
g81
I3
ssg82
Nsg75
(lp2889
g68
(g84
g70
NtRp2890
(dp2891
g73
(dp2892
sg82
g2886
sg75
(lp2893
g68
(g89
g70
NtRp2894
(dp2895
g73
(dp2896
g93
g94
ssg82
g2890
sg75
(lp2897
g282
asbag68
(g89
g70
NtRp2898
(dp2899
g73
(dp2900
g100
g101
ssg82
g2890
sg75
(lp2901
S':'
asbag68
(g89
g70
NtRp2902
(dp2903
g73
(dp2904
sg82
g2890
sg75
(lp2905
g68
(g69
g70
NtRp2906
(dp2907
g73
(dp2908
g81
I3
ssg82
g2902
sg75
(lp2909
S''
asbasbasbag68
(g84
g70
NtRp2910
(dp2911
g73
(dp2912
sg82
g2886
sg75
(lp2913
g68
(g89
g70
NtRp2914
(dp2915
g73
(dp2916
g93
g94
ssg82
g2910
sg75
(lp2917
g303
asbag68
(g89
g70
NtRp2918
(dp2919
g73
(dp2920
g100
g101
ssg82
g2910
sg75
(lp2921
S':'
asbag68
(g89
g70
NtRp2922
(dp2923
g73
(dp2924
sg82
g2910
sg75
(lp2925
g68
(g69
g70
NtRp2926
(dp2927
g73
(dp2928
g81
I3
ssg82
g2922
sg75
(lp2929
S''
asbasbasbag68
(g84
g70
NtRp2930
(dp2931
g73
(dp2932
sg82
g2886
sg75
(lp2933
g68
(g89
g70
NtRp2934
(dp2935
g73
(dp2936
g93
g94
ssg82
g2930
sg75
(lp2937
g324
asbag68
(g89
g70
NtRp2938
(dp2939
g73
(dp2940
g100
g101
ssg82
g2930
sg75
(lp2941
S':'
asbag68
(g89
g70
NtRp2942
(dp2943
g73
(dp2944
sg82
g2930
sg75
(lp2945
g68
(g69
g70
NtRp2946
(dp2947
g73
(dp2948
g81
I3
ssg82
g2942
sg75
(lp2949
S''
asbasbasbag68
(g84
g70
NtRp2950
(dp2951
g73
(dp2952
sg82
g2886
sg75
(lp2953
g68
(g89
g70
NtRp2954
(dp2955
g73
(dp2956
g93
g94
ssg82
g2950
sg75
(lp2957
g345
asbag68
(g89
g70
NtRp2958
(dp2959
g73
(dp2960
g100
g101
ssg82
g2950
sg75
(lp2961
S':'
asbag68
(g89
g70
NtRp2962
(dp2963
g73
(dp2964
sg82
g2950
sg75
(lp2965
g68
(g69
g70
NtRp2966
(dp2967
g73
(dp2968
g81
I3
ssg82
g2962
sg75
(lp2969
S''
asbasbasbag68
(g84
g70
NtRp2970
(dp2971
g73
(dp2972
sg82
g2886
sg75
(lp2973
g68
(g89
g70
NtRp2974
(dp2975
g73
(dp2976
g93
g94
ssg82
g2970
sg75
(lp2977
g366
asbag68
(g89
g70
NtRp2978
(dp2979
g73
(dp2980
g100
g101
ssg82
g2970
sg75
(lp2981
S':'
asbag68
(g89
g70
NtRp2982
(dp2983
g73
(dp2984
sg82
g2970
sg75
(lp2985
g68
(g69
g70
NtRp2986
(dp2987
g73
(dp2988
g81
I3
ssg82
g2982
sg75
(lp2989
S''
asbasbasbag68
(g84
g70
NtRp2990
(dp2991
g73
(dp2992
sg82
g2886
sg75
(lp2993
g68
(g89
g70
NtRp2994
(dp2995
g73
(dp2996
g93
g94
ssg82
g2990
sg75
(lp2997
g387
asbag68
(g89
g70
NtRp2998
(dp2999
g73
(dp3000
g100
g101
ssg82
g2990
sg75
(lp3001
S':'
asbag68
(g89
g70
NtRp3002
(dp3003
g73
(dp3004
sg82
g2990
sg75
(lp3005
g68
(g69
g70
NtRp3006
(dp3007
g73
(dp3008
g81
I3
ssg82
g3002
sg75
(lp3009
S'/'
asbasbasbag68
(g84
g70
NtRp3010
(dp3011
g73
(dp3012
sg82
g2886
sg75
(lp3013
g68
(g89
g70
NtRp3014
(dp3015
g73
(dp3016
g93
g94
ssg82
g3010
sg75
(lp3017
g408
asbag68
(g89
g70
NtRp3018
(dp3019
g73
(dp3020
g100
g101
ssg82
g3010
sg75
(lp3021
S':'
asbag68
(g89
g70
NtRp3022
(dp3023
g73
(dp3024
sg82
g3010
sg75
(lp3025
g68
(g69
g70
NtRp3026
(dp3027
g73
(dp3028
g81
I3
ssg82
g3022
sg75
(lp3029
S''
asbasbasbag68
(g84
g70
NtRp3030
(dp3031
g73
(dp3032
sg82
g2886
sg75
(lp3033
g68
(g89
g70
NtRp3034
(dp3035
g73
(dp3036
g93
g94
ssg82
g3030
sg75
(lp3037
g429
asbag68
(g89
g70
NtRp3038
(dp3039
g73
(dp3040
g100
g101
ssg82
g3030
sg75
(lp3041
S':'
asbag68
(g89
g70
NtRp3042
(dp3043
g73
(dp3044
sg82
g3030
sg75
(lp3045
g68
(g69
g70
NtRp3046
(dp3047
g73
(dp3048
g81
I3
ssg82
g3042
sg75
(lp3049
S''
asbasbasbasbasbasbasbasbasbasbasbag68
(g84
g70
NtRp3050
(dp3051
g73
(dp3052
sg82
g2816
sg75
(lp3053
g68
(g89
g70
NtRp3054
(dp3055
g73
(dp3056
g93
g94
ssg82
g3050
sg75
(lp3057
S'files'
p3058
asbag68
(g89
g70
NtRp3059
(dp3060
g73
(dp3061
g100
g101
ssg82
g3050
sg75
(lp3062
S':'
asbag68
(g89
g70
NtRp3063
(dp3064
g73
(dp3065
sg82
g3050
sg75
(lp3066
g68
(g69
g70
NtRp3067
(dp3068
g73
(dp3069
g81
I5
ssg82
g3063
sg75
(lp3070
g68
(g77
g70
NtRp3071
(dp3072
g73
(dp3073
g81
I4
ssg82
Nsg75
(lp3074
sbasbasbasbag68
(g84
g70
NtRp3075
(dp3076
g73
(dp3077
sg82
g2816
sg75
(lp3078
g68
(g89
g70
NtRp3079
(dp3080
g73
(dp3081
g93
g94
ssg82
g3075
sg75
(lp3082
S'flash'
p3083
asbag68
(g89
g70
NtRp3084
(dp3085
g73
(dp3086
g100
g101
ssg82
g3075
sg75
(lp3087
S':'
asbag68
(g89
g70
NtRp3088
(dp3089
g73
(dp3090
sg82
g3075
sg75
(lp3091
g68
(g69
g70
NtRp3092
(dp3093
g73
(dp3094
g81
I5
ssg82
g3088
sg75
(lp3095
S''
asbasbasbag68
(g84
g70
NtRp3096
(dp3097
g73
(dp3098
sg82
g2816
sg75
(lp3099
g68
(g89
g70
NtRp3100
(dp3101
g73
(dp3102
g93
g94
ssg82
g3096
sg75
(lp3103
S'generic_patterns'
p3104
asbag68
(g89
g70
NtRp3105
(dp3106
g73
(dp3107
g100
g101
ssg82
g3096
sg75
(lp3108
S':'
asbag68
(g89
g70
NtRp3109
(dp3110
g73
(dp3111
sg82
g3096
sg75
(lp3112
g68
(g69
g70
NtRp3113
(dp3114
g73
(dp3115
g81
I5
ssg82
g3109
sg75
(lp3116
g68
(g77
g70
NtRp3117
(dp3118
g73
(dp3119
g81
I4
ssg82
Nsg75
(lp3120
g68
(g84
g70
NtRp3121
(dp3122
g73
(dp3123
sg82
g3117
sg75
(lp3124
g68
(g89
g70
NtRp3125
(dp3126
g73
(dp3127
sg82
g3121
sg75
(lp3128
g68
(g69
g70
NtRp3129
(dp3130
g73
(dp3131
g81
I4
ssg82
g3125
sg75
(lp3132
S'*'
asbasbasbasbasbasbasbag68
(g84
g70
NtRp3133
(dp3134
g73
(dp3135
sg82
g2816
sg75
(lp3136
g68
(g89
g70
NtRp3137
(dp3138
g73
(dp3139
g93
g94
ssg82
g3133
sg75
(lp3140
S'headers'
p3141
asbag68
(g89
g70
NtRp3142
(dp3143
g73
(dp3144
g100
g101
ssg82
g3133
sg75
(lp3145
S':'
asbag68
(g89
g70
NtRp3146
(dp3147
g73
(dp3148
sg82
g3133
sg75
(lp3149
g68
(g69
g70
NtRp3150
(dp3151
g73
(dp3152
g81
I5
ssg82
g3146
sg75
(lp3153
g68
(g77
g70
NtRp3154
(dp3155
g73
(dp3156
g81
I4
ssg82
Nsg75
(lp3157
g68
(g84
g70
NtRp3158
(dp3159
g73
(dp3160
sg82
g3154
sg75
(lp3161
g68
(g89
g70
NtRp3162
(dp3163
g73
(dp3164
g93
g94
ssg82
g3158
sg75
(lp3165
S'Cache-Control'
p3166
asbag68
(g89
g70
NtRp3167
(dp3168
g73
(dp3169
g100
g101
ssg82
g3158
sg75
(lp3170
S':'
asbag68
(g89
g70
NtRp3171
(dp3172
g73
(dp3173
sg82
g3158
sg75
(lp3174
g68
(g69
g70
NtRp3175
(dp3176
g73
(dp3177
g81
I4
ssg82
g3171
sg75
(lp3178
S'no-store, no-cache, must-revalidate, post-check=0, pre-check=0'
p3179
asbasbasbag68
(g84
g70
NtRp3180
(dp3181
g73
(dp3182
sg82
g3154
sg75
(lp3183
g68
(g89
g70
NtRp3184
(dp3185
g73
(dp3186
g93
g94
ssg82
g3180
sg75
(lp3187
S'Content-Type'
p3188
asbag68
(g89
g70
NtRp3189
(dp3190
g73
(dp3191
g100
g101
ssg82
g3180
sg75
(lp3192
S':'
asbag68
(g89
g70
NtRp3193
(dp3194
g73
(dp3195
sg82
g3180
sg75
(lp3196
g68
(g69
g70
NtRp3197
(dp3198
g73
(dp3199
g81
I4
ssg82
g3193
sg75
(lp3200
S'text/html; charset=utf-8'
p3201
asbasbasbag68
(g84
g70
NtRp3202
(dp3203
g73
(dp3204
sg82
g3154
sg75
(lp3205
g68
(g89
g70
NtRp3206
(dp3207
g73
(dp3208
g93
g94
ssg82
g3202
sg75
(lp3209
S'Expires'
p3210
asbag68
(g89
g70
NtRp3211
(dp3212
g73
(dp3213
g100
g101
ssg82
g3202
sg75
(lp3214
S':'
asbag68
(g89
g70
NtRp3215
(dp3216
g73
(dp3217
sg82
g3202
sg75
(lp3218
g68
(g69
g70
NtRp3219
(dp3220
g73
(dp3221
g81
I4
ssg82
g3215
sg75
(lp3222
S'Thu, 02 Feb 2012 01:09:26 GMT'
p3223
asbasbasbag68
(g84
g70
NtRp3224
(dp3225
g73
(dp3226
sg82
g3154
sg75
(lp3227
g68
(g89
g70
NtRp3228
(dp3229
g73
(dp3230
g93
g94
ssg82
g3224
sg75
(lp3231
S'Pragma'
p3232
asbag68
(g89
g70
NtRp3233
(dp3234
g73
(dp3235
g100
g101
ssg82
g3224
sg75
(lp3236
S':'
asbag68
(g89
g70
NtRp3237
(dp3238
g73
(dp3239
sg82
g3224
sg75
(lp3240
g68
(g69
g70
NtRp3241
(dp3242
g73
(dp3243
g81
I4
ssg82
g3237
sg75
(lp3244
S'no-cache'
p3245
asbasbasbag68
(g84
g70
NtRp3246
(dp3247
g73
(dp3248
sg82
g3154
sg75
(lp3249
g68
(g89
g70
NtRp3250
(dp3251
g73
(dp3252
g93
g94
ssg82
g3246
sg75
(lp3253
S'X-Powered-By'
p3254
asbag68
(g89
g70
NtRp3255
(dp3256
g73
(dp3257
g100
g101
ssg82
g3246
sg75
(lp3258
S':'
asbag68
(g89
g70
NtRp3259
(dp3260
g73
(dp3261
sg82
g3246
sg75
(lp3262
g68
(g69
g70
NtRp3263
(dp3264
g73
(dp3265
g81
I4
ssg82
g3259
sg75
(lp3266
S'web2py'
p3267
asbasbasbasbasbasbasbag68
(g84
g70
NtRp3268
(dp3269
g73
(dp3270
sg82
g2816
sg75
(lp3271
g68
(g89
g70
NtRp3272
(dp3273
g73
(dp3274
g93
g94
ssg82
g3268
sg75
(lp3275
S'menu'
p3276
asbag68
(g89
g70
NtRp3277
(dp3278
g73
(dp3279
g100
g101
ssg82
g3268
sg75
(lp3280
S':'
asbag68
(g89
g70
NtRp3281
(dp3282
g73
(dp3283
sg82
g3268
sg75
(lp3284
g68
(g69
g70
NtRp3285
(dp3286
g73
(dp3287
g81
I5
ssg82
g3281
sg75
(lp3288
g68
(g77
g70
NtRp3289
(dp3290
g73
(dp3291
g81
I4
ssg82
Nsg75
(lp3292
sbasbasbasbag68
(g84
g70
NtRp3293
(dp3294
g73
(dp3295
sg82
g2816
sg75
(lp3296
g68
(g89
g70
NtRp3297
(dp3298
g73
(dp3299
g93
g94
ssg82
g3293
sg75
(lp3300
S'meta'
p3301
asbag68
(g89
g70
NtRp3302
(dp3303
g73
(dp3304
g100
g101
ssg82
g3293
sg75
(lp3305
S':'
asbag68
(g89
g70
NtRp3306
(dp3307
g73
(dp3308
sg82
g3293
sg75
(lp3309
g68
(g69
g70
NtRp3310
(dp3311
g73
(dp3312
g81
I5
ssg82
g3306
sg75
(lp3313
g68
(g77
g70
NtRp3314
(dp3315
g73
(dp3316
g81
I4
ssg82
Nsg75
(lp3317
sbasbasbasbag68
(g84
g70
NtRp3318
(dp3319
g73
(dp3320
sg82
g2816
sg75
(lp3321
g68
(g89
g70
NtRp3322
(dp3323
g73
(dp3324
g93
g94
ssg82
g3318
sg75
(lp3325
S'postprocessing'
p3326
asbag68
(g89
g70
NtRp3327
(dp3328
g73
(dp3329
g100
g101
ssg82
g3318
sg75
(lp3330
S':'
asbag68
(g89
g70
NtRp3331
(dp3332
g73
(dp3333
sg82
g3318
sg75
(lp3334
g68
(g69
g70
NtRp3335
(dp3336
g73
(dp3337
g81
I5
ssg82
g3331
sg75
(lp3338
g68
(g77
g70
NtRp3339
(dp3340
g73
(dp3341
g81
I4
ssg82
Nsg75
(lp3342
sbasbasbasbag68
(g84
g70
NtRp3343
(dp3344
g73
(dp3345
sg82
g2816
sg75
(lp3346
g68
(g89
g70
NtRp3347
(dp3348
g73
(dp3349
g93
g94
ssg82
g3343
sg75
(lp3350
S'session_file'
p3351
asbag68
(g89
g70
NtRp3352
(dp3353
g73
(dp3354
g100
g101
ssg82
g3343
sg75
(lp3355
S':'
asbag68
(g89
g70
NtRp3356
(dp3357
g73
(dp3358
sg82
g3343
sg75
(lp3359
g68
(g69
g70
NtRp3360
(dp3361
g73
(dp3362
g81
I5
ssg82
g3356
sg75
(lp3363
S"<open file 'C:\\Users\\liangh\\Desktop\\CSSE 333\\project\\SC2TourneyTracker\\web2py\\applications\\welcome\\sessions\\137.112.117.19-f6405052-a2b6-499d-b3f0-c6cbd3cb3465', mode 'rb+' at 0x0699A7B0>"
p3364
asbasbasbag68
(g84
g70
NtRp3365
(dp3366
g73
(dp3367
sg82
g2816
sg75
(lp3368
g68
(g89
g70
NtRp3369
(dp3370
g73
(dp3371
g93
g94
ssg82
g3365
sg75
(lp3372
S'session_filename'
p3373
asbag68
(g89
g70
NtRp3374
(dp3375
g73
(dp3376
g100
g101
ssg82
g3365
sg75
(lp3377
S':'
asbag68
(g89
g70
NtRp3378
(dp3379
g73
(dp3380
sg82
g3365
sg75
(lp3381
g68
(g69
g70
NtRp3382
(dp3383
g73
(dp3384
g81
I5
ssg82
g3378
sg75
(lp3385
S'C:\\Users\\liangh\\Desktop\\CSSE 333\\project\\SC2TourneyTracker\\web2py\\applications\\welcome\\sessions\\137.112.117.19-f6405052-a2b6-499d-b3f0-c6cbd3cb3465'
p3386
asbasbasbag68
(g84
g70
NtRp3387
(dp3388
g73
(dp3389
sg82
g2816
sg75
(lp3390
g68
(g89
g70
NtRp3391
(dp3392
g73
(dp3393
g93
g94
ssg82
g3387
sg75
(lp3394
S'session_id'
p3395
asbag68
(g89
g70
NtRp3396
(dp3397
g73
(dp3398
g100
g101
ssg82
g3387
sg75
(lp3399
S':'
asbag68
(g89
g70
NtRp3400
(dp3401
g73
(dp3402
sg82
g3387
sg75
(lp3403
g68
(g69
g70
NtRp3404
(dp3405
g73
(dp3406
g81
I5
ssg82
g3400
sg75
(lp3407
S'137.112.117.19-f6405052-a2b6-499d-b3f0-c6cbd3cb3465'
p3408
asbasbasbag68
(g84
g70
NtRp3409
(dp3410
g73
(dp3411
sg82
g2816
sg75
(lp3412
g68
(g89
g70
NtRp3413
(dp3414
g73
(dp3415
g93
g94
ssg82
g3409
sg75
(lp3416
S'session_id_name'
p3417
asbag68
(g89
g70
NtRp3418
(dp3419
g73
(dp3420
g100
g101
ssg82
g3409
sg75
(lp3421
S':'
asbag68
(g89
g70
NtRp3422
(dp3423
g73
(dp3424
sg82
g3409
sg75
(lp3425
g68
(g69
g70
NtRp3426
(dp3427
g73
(dp3428
g81
I5
ssg82
g3422
sg75
(lp3429
g2873
asbasbasbag68
(g84
g70
NtRp3430
(dp3431
g73
(dp3432
sg82
g2816
sg75
(lp3433
g68
(g89
g70
NtRp3434
(dp3435
g73
(dp3436
g93
g94
ssg82
g3430
sg75
(lp3437
S'session_locked'
p3438
asbag68
(g89
g70
NtRp3439
(dp3440
g73
(dp3441
g100
g101
ssg82
g3430
sg75
(lp3442
S':'
asbag68
(g89
g70
NtRp3443
(dp3444
g73
(dp3445
sg82
g3430
sg75
(lp3446
g68
(g69
g70
NtRp3447
(dp3448
g73
(dp3449
g81
I5
ssg82
g3443
sg75
(lp3450
g1460
asbasbasbag68
(g84
g70
NtRp3451
(dp3452
g73
(dp3453
sg82
g2816
sg75
(lp3454
g68
(g89
g70
NtRp3455
(dp3456
g73
(dp3457
g93
g94
ssg82
g3451
sg75
(lp3458
S'session_new'
p3459
asbag68
(g89
g70
NtRp3460
(dp3461
g73
(dp3462
g100
g101
ssg82
g3451
sg75
(lp3463
S':'
asbag68
(g89
g70
NtRp3464
(dp3465
g73
(dp3466
sg82
g3451
sg75
(lp3467
g68
(g69
g70
NtRp3468
(dp3469
g73
(dp3470
g81
I5
ssg82
g3464
sg75
(lp3471
g111
asbasbasbag68
(g84
g70
NtRp3472
(dp3473
g73
(dp3474
sg82
g2816
sg75
(lp3475
g68
(g89
g70
NtRp3476
(dp3477
g73
(dp3478
g93
g94
ssg82
g3472
sg75
(lp3479
S'status'
p3480
asbag68
(g89
g70
NtRp3481
(dp3482
g73
(dp3483
g100
g101
ssg82
g3472
sg75
(lp3484
S':'
asbag68
(g89
g70
NtRp3485
(dp3486
g73
(dp3487
sg82
g3472
sg75
(lp3488
g68
(g69
g70
NtRp3489
(dp3490
g73
(dp3491
g81
I5
ssg82
g3485
sg75
(lp3492
S'200'
p3493
asbasbasbag68
(g84
g70
NtRp3494
(dp3495
g73
(dp3496
sg82
g2816
sg75
(lp3497
g68
(g89
g70
NtRp3498
(dp3499
g73
(dp3500
g93
g94
ssg82
g3494
sg75
(lp3501
g2124
asbag68
(g89
g70
NtRp3502
(dp3503
g73
(dp3504
g100
g101
ssg82
g3494
sg75
(lp3505
S':'
asbag68
(g89
g70
NtRp3506
(dp3507
g73
(dp3508
sg82
g3494
sg75
(lp3509
g68
(g69
g70
NtRp3510
(dp3511
g73
(dp3512
g81
I5
ssg82
g3506
sg75
(lp3513
g2137
asbasbasbag68
(g84
g70
NtRp3514
(dp3515
g73
(dp3516
sg82
g2816
sg75
(lp3517
g68
(g89
g70
NtRp3518
(dp3519
g73
(dp3520
g93
g94
ssg82
g3514
sg75
(lp3521
S'view'
p3522
asbag68
(g89
g70
NtRp3523
(dp3524
g73
(dp3525
g100
g101
ssg82
g3514
sg75
(lp3526
S':'
asbag68
(g89
g70
NtRp3527
(dp3528
g73
(dp3529
sg82
g3514
sg75
(lp3530
g68
(g69
g70
NtRp3531
(dp3532
g73
(dp3533
g81
I5
ssg82
g3527
sg75
(lp3534
S'default/index.html'
p3535
asbasbasbasbasbsS'locals'
p3536
(dp3537
g4
S"r'C:\\Users\\liangh\\Desktop\\CSSE 333\\project\\SC2Tour...racker\\web2py\\applications\\welcome\\models\\menu.py'"
p3538
sg6
S'"# -*- coding: utf-8 -*-\\n# this file is released ...    ])\\n                ]\\n         )]\\n\\t\\t \'\'\'\\n_()\\n\\n"'
p3539
sssS'traceback'
p3540
S'Traceback (most recent call last):\n  File "C:\\Users\\liangh\\Desktop\\CSSE 333\\project\\SC2TourneyTracker\\web2py\\gluon\\restricted.py", line 203, in restricted\n    ccode = compile2(code,layer)\n  File "C:\\Users\\liangh\\Desktop\\CSSE 333\\project\\SC2TourneyTracker\\web2py\\gluon\\restricted.py", line 189, in compile2\n    return compile(code.rstrip().replace(\'\\r\\n\',\'\\n\')+\'\\n\', layer, \'exec\')\n  File "C:\\Users\\liangh\\Desktop\\CSSE 333\\project\\SC2TourneyTracker\\web2py\\applications\\welcome\\models\\menu.py", line 39\n    \'\'\'\n   ^\nIndentationError: unexpected indent\n'
p3541
s.